ARM GAS  /var/folders/80/65lm4rm97rv_n74c85vt01040000gn/T//ccuR6fPR.s 			page 1


   1              		.cpu cortex-m4
   2              		.eabi_attribute 27, 1
   3              		.eabi_attribute 28, 1
   4              		.eabi_attribute 20, 1
   5              		.eabi_attribute 21, 1
   6              		.eabi_attribute 23, 3
   7              		.eabi_attribute 24, 1
   8              		.eabi_attribute 25, 1
   9              		.eabi_attribute 26, 1
  10              		.eabi_attribute 30, 1
  11              		.eabi_attribute 34, 1
  12              		.eabi_attribute 18, 4
  13              		.file	"analog.c"
  14              		.text
  15              	.Ltext0:
  16              		.cfi_sections	.debug_frame
  17              		.section	.text.customrand,"ax",%progbits
  18              		.align	1
  19              		.global	customrand
  20              		.arch armv7e-m
  21              		.syntax unified
  22              		.thumb
  23              		.thumb_func
  24              		.fpu fpv4-sp-d16
  26              	customrand:
  27              	.LFB126:
  28              		.file 1 "Src/analog.c"
   1:Src/analog.c  **** #include "analog.h"
   2:Src/analog.c  **** #include "digital.h"
   3:Src/analog.c  **** #include "gpio.h"
   4:Src/analog.c  **** #include "dac.h"
   5:Src/analog.c  **** #include "poly.h"
   6:Src/analog.c  **** #include "resources.h"
   7:Src/analog.c  **** #include "math.h"
   8:Src/analog.c  **** 
   9:Src/analog.c  **** #define kENVELOPE_EXPO_SIZE (int)(sizeof(envelopeexpo)/sizeof(float)-1)
  10:Src/analog.c  **** 
  11:Src/analog.c  **** 
  12:Src/analog.c  **** Analog_t analog[kANALOG_AMOUNT];
  13:Src/analog.c  **** uint32_t randomthreshold[4] = {
  14:Src/analog.c  ****   0xFFFFFFFF/140,
  15:Src/analog.c  ****   0xFFFFFFFF/650,
  16:Src/analog.c  ****   0xFFFFFFFF/2700,
  17:Src/analog.c  ****   0xFFFFFFFF/8600,
  18:Src/analog.c  **** };
  19:Src/analog.c  **** 
  20:Src/analog.c  **** 
  21:Src/analog.c  **** // RANDOM UINT32 GENERATOR
  22:Src/analog.c  **** 
  23:Src/analog.c  **** uint32_t state = 0;
  24:Src/analog.c  **** uint32_t customrand() {
  29              		.loc 1 24 23 view -0
  30              		.cfi_startproc
  31              		@ args = 0, pretend = 0, frame = 0
  32              		@ frame_needed = 0, uses_anonymous_args = 0
  33              		@ link register save eliminated.
  25:Src/analog.c  ****   state = state * 1664525L + 1013904223L;
ARM GAS  /var/folders/80/65lm4rm97rv_n74c85vt01040000gn/T//ccuR6fPR.s 			page 2


  34              		.loc 1 25 3 view .LVU1
  35              		.loc 1 25 17 is_stmt 0 view .LVU2
  36 0000 034B     		ldr	r3, .L2
  37 0002 1A68     		ldr	r2, [r3]
  38              		.loc 1 25 28 view .LVU3
  39 0004 0349     		ldr	r1, .L2+4
  40 0006 0448     		ldr	r0, .L2+8
  41 0008 01FB0200 		mla	r0, r1, r2, r0
  42              		.loc 1 25 9 view .LVU4
  43 000c 1860     		str	r0, [r3]
  26:Src/analog.c  ****   return state;
  44              		.loc 1 26 3 is_stmt 1 view .LVU5
  27:Src/analog.c  **** }
  45              		.loc 1 27 1 is_stmt 0 view .LVU6
  46 000e 7047     		bx	lr
  47              	.L3:
  48              		.align	2
  49              	.L2:
  50 0010 00000000 		.word	.LANCHOR0
  51 0014 0D661900 		.word	1664525
  52 0018 5FF36E3C 		.word	1013904223
  53              		.cfi_endproc
  54              	.LFE126:
  56              		.section	.text.Analog_DigitalValue,"ax",%progbits
  57              		.align	1
  58              		.global	Analog_DigitalValue
  59              		.syntax unified
  60              		.thumb
  61              		.thumb_func
  62              		.fpu fpv4-sp-d16
  64              	Analog_DigitalValue:
  65              	.LVL0:
  66              	.LFB130:
  28:Src/analog.c  **** 
  29:Src/analog.c  **** 
  30:Src/analog.c  **** 
  31:Src/analog.c  **** void Analog_Init() {
  32:Src/analog.c  ****   for (size_t i = 0; i < 4; i++) {
  33:Src/analog.c  ****     analog[i].id = i;
  34:Src/analog.c  ****     analog[i].phase = 1;
  35:Src/analog.c  ****     Analog_Reset(&analog[i]);
  36:Src/analog.c  ****   }
  37:Src/analog.c  **** }
  38:Src/analog.c  **** 
  39:Src/analog.c  **** void Analog_Reset(Analog_t *ana) {
  40:Src/analog.c  ****   Poly_Init();
  41:Src/analog.c  ****   NoteStack_Clear(&ana->stack);
  42:Src/analog.c  ****   ana->pedal = 0;
  43:Src/analog.c  ****   ana->digitalstate = false;
  44:Src/analog.c  **** 
  45:Src/analog.c  ****   ana->oscnote = 0x45;
  46:Src/analog.c  ****   if(digital[ana->id].voice == true) {
  47:Src/analog.c  ****     ana->digitalvoice = true;
  48:Src/analog.c  ****   } else {
  49:Src/analog.c  ****     ana->digitalvoice = false;
  50:Src/analog.c  ****   }
  51:Src/analog.c  ****   if(ana->mode == ANALOG_CONSTANT) {
ARM GAS  /var/folders/80/65lm4rm97rv_n74c85vt01040000gn/T//ccuR6fPR.s 			page 3


  52:Src/analog.c  ****     Analog_ChangeNote(ana->settings.byte2,true,ana);
  53:Src/analog.c  ****   }
  54:Src/analog.c  **** 
  55:Src/analog.c  ****   // else if(ana->mode == ANALOG_OFF) {
  56:Src/analog.c  ****   //   DAC_InsertValue(0.0f,ana->id);
  57:Src/analog.c  ****   // } 
  58:Src/analog.c  ****   else {
  59:Src/analog.c  ****     DAC_InsertValue(0.0f,ana->id);
  60:Src/analog.c  ****   } 
  61:Src/analog.c  **** 
  62:Src/analog.c  ****   ana->trigger = 0;
  63:Src/analog.c  **** 
  64:Src/analog.c  ****   ana->oscillator = false;
  65:Src/analog.c  ****   ana->envelope = false;
  66:Src/analog.c  ****   ana->random = false;
  67:Src/analog.c  **** 
  68:Src/analog.c  ****   switch (ana->mode) {
  69:Src/analog.c  ****     case ANALOG_OSC_NOISE:
  70:Src/analog.c  ****     case ANALOG_MONO_OSC_SAW:
  71:Src/analog.c  ****     case ANALOG_MONO_OSC_PULSE:
  72:Src/analog.c  ****     case ANALOG_MONO_OSC_TRI:
  73:Src/analog.c  ****     case ANALOG_MONO_OSC_SINE:
  74:Src/analog.c  ****     case ANALOG_POLY_OSC_PULSE_DUO:
  75:Src/analog.c  ****     case ANALOG_POLY_OSC_SAW_DUO:
  76:Src/analog.c  ****     case ANALOG_POLY_OSC_TRI_DUO:
  77:Src/analog.c  ****     case ANALOG_POLY_OSC_SINE_DUO:
  78:Src/analog.c  ****     case ANALOG_POLY_OSC_PULSE_QUAD:
  79:Src/analog.c  ****     case ANALOG_POLY_OSC_SAW_QUAD:
  80:Src/analog.c  ****     case ANALOG_POLY_OSC_TRI_QUAD:
  81:Src/analog.c  ****     case ANALOG_POLY_OSC_SINE_QUAD:
  82:Src/analog.c  ****       ana->phase = 0;
  83:Src/analog.c  ****       ana->osccounter = 0;
  84:Src/analog.c  ****       ana->oscillator = true;
  85:Src/analog.c  ****       break;
  86:Src/analog.c  ****     
  87:Src/analog.c  ****     case ANALOG_ENVELOPE_AD_EXPO:
  88:Src/analog.c  ****     case ANALOG_ENVELOPE_AD_LINEAR:
  89:Src/analog.c  ****     case ANALOG_ENVELOPE_AD_LOG:
  90:Src/analog.c  ****     case ANALOG_ENVELOPE_ASR_EXPO:
  91:Src/analog.c  ****     case ANALOG_ENVELOPE_ASR_LINEAR:
  92:Src/analog.c  ****     case ANALOG_ENVELOPE_ASR_LOG:
  93:Src/analog.c  ****     case ANALOG_ENVELOPE_VELOCITY_DECAY_EXPO:
  94:Src/analog.c  ****     case ANALOG_ENVELOPE_VELOCITY_DECAY_LINEAR:
  95:Src/analog.c  ****     case ANALOG_ENVELOPE_VELOCITY_DECAY_LOG:
  96:Src/analog.c  ****       ana->envelope = true;
  97:Src/analog.c  ****       ana->envelopeout = 0;
  98:Src/analog.c  ****       ana->osccounter = 0;
  99:Src/analog.c  ****       ana->oscnote = 0xFF;
 100:Src/analog.c  **** 
 101:Src/analog.c  ****     case ANALOG_DIGITAL_RANDOM:
 102:Src/analog.c  ****     case ANALOG_RANDOM:
 103:Src/analog.c  ****       ana->random = true;
 104:Src/analog.c  ****       ana->osccounter = 0;
 105:Src/analog.c  **** 
 106:Src/analog.c  ****     default:
 107:Src/analog.c  ****       break;
 108:Src/analog.c  ****   }
ARM GAS  /var/folders/80/65lm4rm97rv_n74c85vt01040000gn/T//ccuR6fPR.s 			page 4


 109:Src/analog.c  **** }
 110:Src/analog.c  **** 
 111:Src/analog.c  **** void Analog_Configure(Analog_t *ana, Analog_Settings mode, MidiSetting *midiset) {
 112:Src/analog.c  ****   ana->mode = mode;
 113:Src/analog.c  ****   ana->settings.byte2 = midiset->byte2;
 114:Src/analog.c  ****   ana->settings.byte3 = midiset->byte3;
 115:Src/analog.c  ****   ana->settings.midichannel = midiset->midichannel;
 116:Src/analog.c  **** 
 117:Src/analog.c  ****   Analog_Reset(ana);
 118:Src/analog.c  **** }
 119:Src/analog.c  **** 
 120:Src/analog.c  **** void Analog_DigitalValue(bool state, bool trigger, Analog_t *ana) {
  67              		.loc 1 120 67 is_stmt 1 view -0
  68              		.cfi_startproc
  69              		@ args = 0, pretend = 0, frame = 0
  70              		@ frame_needed = 0, uses_anonymous_args = 0
  71              		.loc 1 120 67 is_stmt 0 view .LVU8
  72 0000 08B5     		push	{r3, lr}
  73              	.LCFI0:
  74              		.cfi_def_cfa_offset 8
  75              		.cfi_offset 3, -8
  76              		.cfi_offset 14, -4
 121:Src/analog.c  ****   if(trigger) {
  77              		.loc 1 121 3 is_stmt 1 view .LVU9
  78              		.loc 1 121 5 is_stmt 0 view .LVU10
  79 0002 49B1     		cbz	r1, .L5
 122:Src/analog.c  ****     ana->trigger = (kSAMPLE_RATE/1000);
  80              		.loc 1 122 5 is_stmt 1 view .LVU11
  81              		.loc 1 122 18 is_stmt 0 view .LVU12
  82 0004 0B23     		movs	r3, #11
  83 0006 5371     		strb	r3, [r2, #5]
  84              	.L6:
 123:Src/analog.c  ****   } else {
 124:Src/analog.c  ****     ana->trigger = 0;
 125:Src/analog.c  ****   }
 126:Src/analog.c  ****   if(state) {
  85              		.loc 1 126 3 is_stmt 1 view .LVU13
  86              		.loc 1 126 5 is_stmt 0 view .LVU14
  87 0008 48B1     		cbz	r0, .L7
 127:Src/analog.c  ****     DAC_InsertValue(5.0f,ana->id);
  88              		.loc 1 127 5 is_stmt 1 view .LVU15
  89 000a 92F88500 		ldrb	r0, [r2, #133]	@ zero_extendqisi2
  90              	.LVL1:
  91              		.loc 1 127 5 is_stmt 0 view .LVU16
  92 000e B1EE040A 		vmov.f32	s0, #5.0e+0
  93 0012 FFF7FEFF 		bl	DAC_InsertValue
  94              	.LVL2:
  95              	.L4:
 128:Src/analog.c  ****   } else {
 129:Src/analog.c  ****     DAC_InsertValue(0.0f,ana->id);
 130:Src/analog.c  ****   }
 131:Src/analog.c  **** }
  96              		.loc 1 131 1 view .LVU17
  97 0016 08BD     		pop	{r3, pc}
  98              	.LVL3:
  99              	.L5:
 124:Src/analog.c  ****   }
ARM GAS  /var/folders/80/65lm4rm97rv_n74c85vt01040000gn/T//ccuR6fPR.s 			page 5


 100              		.loc 1 124 5 is_stmt 1 view .LVU18
 124:Src/analog.c  ****   }
 101              		.loc 1 124 18 is_stmt 0 view .LVU19
 102 0018 0023     		movs	r3, #0
 103 001a 5371     		strb	r3, [r2, #5]
 104 001c F4E7     		b	.L6
 105              	.L7:
 129:Src/analog.c  ****   }
 106              		.loc 1 129 5 is_stmt 1 view .LVU20
 107 001e 92F88500 		ldrb	r0, [r2, #133]	@ zero_extendqisi2
 108              	.LVL4:
 129:Src/analog.c  ****   }
 109              		.loc 1 129 5 is_stmt 0 view .LVU21
 110 0022 9FED020A 		vldr.32	s0, .L10
 111 0026 FFF7FEFF 		bl	DAC_InsertValue
 112              	.LVL5:
 113              		.loc 1 131 1 view .LVU22
 114 002a F4E7     		b	.L4
 115              	.L11:
 116              		.align	2
 117              	.L10:
 118 002c 00000000 		.word	0
 119              		.cfi_endproc
 120              	.LFE130:
 122              		.section	.text.Analog_DigitalValuePedal,"ax",%progbits
 123              		.align	1
 124              		.global	Analog_DigitalValuePedal
 125              		.syntax unified
 126              		.thumb
 127              		.thumb_func
 128              		.fpu fpv4-sp-d16
 130              	Analog_DigitalValuePedal:
 131              	.LVL6:
 132              	.LFB131:
 132:Src/analog.c  **** 
 133:Src/analog.c  **** void Analog_DigitalValuePedal(bool state, bool trigger, Analog_t *ana) {
 133              		.loc 1 133 72 is_stmt 1 view -0
 134              		.cfi_startproc
 135              		@ args = 0, pretend = 0, frame = 0
 136              		@ frame_needed = 0, uses_anonymous_args = 0
 137              		.loc 1 133 72 is_stmt 0 view .LVU24
 138 0000 08B5     		push	{r3, lr}
 139              	.LCFI1:
 140              		.cfi_def_cfa_offset 8
 141              		.cfi_offset 3, -8
 142              		.cfi_offset 14, -4
 134:Src/analog.c  ****   if(trigger) {
 143              		.loc 1 134 3 is_stmt 1 view .LVU25
 144              		.loc 1 134 5 is_stmt 0 view .LVU26
 145 0002 71B1     		cbz	r1, .L13
 135:Src/analog.c  ****     ana->trigger = (kSAMPLE_RATE/1000);
 146              		.loc 1 135 5 is_stmt 1 view .LVU27
 147              		.loc 1 135 18 is_stmt 0 view .LVU28
 148 0004 0B23     		movs	r3, #11
 149 0006 5371     		strb	r3, [r2, #5]
 150              	.L14:
 136:Src/analog.c  ****   } else {
ARM GAS  /var/folders/80/65lm4rm97rv_n74c85vt01040000gn/T//ccuR6fPR.s 			page 6


 137:Src/analog.c  ****     ana->trigger = 0;
 138:Src/analog.c  ****   }
 139:Src/analog.c  **** 
 140:Src/analog.c  ****   if(ana->digitalstate == true && state == false) {
 151              		.loc 1 140 3 is_stmt 1 view .LVU29
 152              		.loc 1 140 9 is_stmt 0 view .LVU30
 153 0008 537B     		ldrb	r3, [r2, #13]	@ zero_extendqisi2
 154              		.loc 1 140 5 view .LVU31
 155 000a 6BB1     		cbz	r3, .L15
 156              		.loc 1 140 32 discriminator 1 view .LVU32
 157 000c 60B9     		cbnz	r0, .L15
 141:Src/analog.c  ****     ana->digitalstate = state;
 158              		.loc 1 141 5 is_stmt 1 view .LVU33
 159              		.loc 1 141 23 is_stmt 0 view .LVU34
 160 000e 5073     		strb	r0, [r2, #13]
 142:Src/analog.c  ****     if(ana->pedal == false){
 161              		.loc 1 142 5 is_stmt 1 view .LVU35
 162              		.loc 1 142 11 is_stmt 0 view .LVU36
 163 0010 137B     		ldrb	r3, [r2, #12]	@ zero_extendqisi2
 164              		.loc 1 142 7 view .LVU37
 165 0012 8BB9     		cbnz	r3, .L12
 143:Src/analog.c  ****       if(state) {
 166              		.loc 1 143 7 is_stmt 1 view .LVU38
 144:Src/analog.c  ****         DAC_InsertValue(5.0f,ana->id);
 145:Src/analog.c  ****       } else {
 146:Src/analog.c  ****         DAC_InsertValue(0.0f,ana->id);
 167              		.loc 1 146 9 view .LVU39
 168 0014 92F88500 		ldrb	r0, [r2, #133]	@ zero_extendqisi2
 169              	.LVL7:
 170              		.loc 1 146 9 is_stmt 0 view .LVU40
 171 0018 9FED0B0A 		vldr.32	s0, .L19
 172 001c FFF7FEFF 		bl	DAC_InsertValue
 173              	.LVL8:
 174              		.loc 1 146 9 view .LVU41
 175 0020 0AE0     		b	.L12
 176              	.LVL9:
 177              	.L13:
 137:Src/analog.c  ****   }
 178              		.loc 1 137 5 is_stmt 1 view .LVU42
 137:Src/analog.c  ****   }
 179              		.loc 1 137 18 is_stmt 0 view .LVU43
 180 0022 0023     		movs	r3, #0
 181 0024 5371     		strb	r3, [r2, #5]
 182 0026 EFE7     		b	.L14
 183              	.L15:
 147:Src/analog.c  ****       }
 148:Src/analog.c  ****     }
 149:Src/analog.c  ****   } else{
 150:Src/analog.c  ****     ana->digitalstate = state;
 184              		.loc 1 150 5 is_stmt 1 view .LVU44
 185              		.loc 1 150 23 is_stmt 0 view .LVU45
 186 0028 5073     		strb	r0, [r2, #13]
 151:Src/analog.c  ****     if(state) {
 187              		.loc 1 151 5 is_stmt 1 view .LVU46
 188              		.loc 1 151 7 is_stmt 0 view .LVU47
 189 002a 30B1     		cbz	r0, .L17
 152:Src/analog.c  ****       DAC_InsertValue(5.0f,ana->id);
ARM GAS  /var/folders/80/65lm4rm97rv_n74c85vt01040000gn/T//ccuR6fPR.s 			page 7


 190              		.loc 1 152 7 is_stmt 1 view .LVU48
 191 002c 92F88500 		ldrb	r0, [r2, #133]	@ zero_extendqisi2
 192              	.LVL10:
 193              		.loc 1 152 7 is_stmt 0 view .LVU49
 194 0030 B1EE040A 		vmov.f32	s0, #5.0e+0
 195 0034 FFF7FEFF 		bl	DAC_InsertValue
 196              	.LVL11:
 197              	.L12:
 153:Src/analog.c  ****     } else {
 154:Src/analog.c  ****       DAC_InsertValue(0.0f,ana->id);
 155:Src/analog.c  ****     }
 156:Src/analog.c  ****   }
 157:Src/analog.c  **** }
 198              		.loc 1 157 1 view .LVU50
 199 0038 08BD     		pop	{r3, pc}
 200              	.LVL12:
 201              	.L17:
 154:Src/analog.c  ****     }
 202              		.loc 1 154 7 is_stmt 1 view .LVU51
 203 003a 92F88500 		ldrb	r0, [r2, #133]	@ zero_extendqisi2
 204              	.LVL13:
 154:Src/analog.c  ****     }
 205              		.loc 1 154 7 is_stmt 0 view .LVU52
 206 003e 9FED020A 		vldr.32	s0, .L19
 207 0042 FFF7FEFF 		bl	DAC_InsertValue
 208              	.LVL14:
 209              		.loc 1 157 1 view .LVU53
 210 0046 F7E7     		b	.L12
 211              	.L20:
 212              		.align	2
 213              	.L19:
 214 0048 00000000 		.word	0
 215              		.cfi_endproc
 216              	.LFE131:
 218              		.section	.text.Analog_DigitalVoice,"ax",%progbits
 219              		.align	1
 220              		.global	Analog_DigitalVoice
 221              		.syntax unified
 222              		.thumb
 223              		.thumb_func
 224              		.fpu fpv4-sp-d16
 226              	Analog_DigitalVoice:
 227              	.LVL15:
 228              	.LFB132:
 158:Src/analog.c  **** 
 159:Src/analog.c  **** void Analog_DigitalVoice(bool state, Analog_t *ana) {
 229              		.loc 1 159 53 is_stmt 1 view -0
 230              		.cfi_startproc
 231              		@ args = 0, pretend = 0, frame = 0
 232              		@ frame_needed = 0, uses_anonymous_args = 0
 233              		.loc 1 159 53 is_stmt 0 view .LVU55
 234 0000 08B5     		push	{r3, lr}
 235              	.LCFI2:
 236              		.cfi_def_cfa_offset 8
 237              		.cfi_offset 3, -8
 238              		.cfi_offset 14, -4
 160:Src/analog.c  ****   if(ana->digitalvoice) {
ARM GAS  /var/folders/80/65lm4rm97rv_n74c85vt01040000gn/T//ccuR6fPR.s 			page 8


 239              		.loc 1 160 3 is_stmt 1 view .LVU56
 240              		.loc 1 160 9 is_stmt 0 view .LVU57
 241 0002 0B79     		ldrb	r3, [r1, #4]	@ zero_extendqisi2
 242              		.loc 1 160 5 view .LVU58
 243 0004 03B9     		cbnz	r3, .L24
 244              	.LVL16:
 245              	.L21:
 161:Src/analog.c  ****     Digital_Voice(state, &digital[ana->id]);
 162:Src/analog.c  ****   }
 163:Src/analog.c  **** }
 246              		.loc 1 163 1 view .LVU59
 247 0006 08BD     		pop	{r3, pc}
 248              	.LVL17:
 249              	.L24:
 161:Src/analog.c  ****     Digital_Voice(state, &digital[ana->id]);
 250              		.loc 1 161 5 is_stmt 1 view .LVU60
 161:Src/analog.c  ****     Digital_Voice(state, &digital[ana->id]);
 251              		.loc 1 161 38 is_stmt 0 view .LVU61
 252 0008 91F88510 		ldrb	r1, [r1, #133]	@ zero_extendqisi2
 253              	.LVL18:
 161:Src/analog.c  ****     Digital_Voice(state, &digital[ana->id]);
 254              		.loc 1 161 5 view .LVU62
 255 000c 01EB4103 		add	r3, r1, r1, lsl #1
 256 0010 01EB8301 		add	r1, r1, r3, lsl #2
 257 0014 024B     		ldr	r3, .L25
 258 0016 1944     		add	r1, r1, r3
 259 0018 FFF7FEFF 		bl	Digital_Voice
 260              	.LVL19:
 261              		.loc 1 163 1 view .LVU63
 262 001c F3E7     		b	.L21
 263              	.L26:
 264 001e 00BF     		.align	2
 265              	.L25:
 266 0020 00000000 		.word	digital
 267              		.cfi_endproc
 268              	.LFE132:
 270              		.section	.text.Analog_NoteToDac,"ax",%progbits
 271              		.align	1
 272              		.global	Analog_NoteToDac
 273              		.syntax unified
 274              		.thumb
 275              		.thumb_func
 276              		.fpu fpv4-sp-d16
 278              	Analog_NoteToDac:
 279              	.LVL20:
 280              	.LFB133:
 164:Src/analog.c  **** 
 165:Src/analog.c  **** void Analog_NoteToDac(Analog_t *ana) {
 281              		.loc 1 165 38 is_stmt 1 view -0
 282              		.cfi_startproc
 283              		@ args = 0, pretend = 0, frame = 0
 284              		@ frame_needed = 0, uses_anonymous_args = 0
 285              		.loc 1 165 38 is_stmt 0 view .LVU65
 286 0000 08B5     		push	{r3, lr}
 287              	.LCFI3:
 288              		.cfi_def_cfa_offset 8
 289              		.cfi_offset 3, -8
ARM GAS  /var/folders/80/65lm4rm97rv_n74c85vt01040000gn/T//ccuR6fPR.s 			page 9


 290              		.cfi_offset 14, -4
 166:Src/analog.c  ****   float value = (ana->oscnote-60) / 12.0f;
 291              		.loc 1 166 3 is_stmt 1 view .LVU66
 292              		.loc 1 166 21 is_stmt 0 view .LVU67
 293 0002 8379     		ldrb	r3, [r0, #6]	@ zero_extendqisi2
 294              		.loc 1 166 30 view .LVU68
 295 0004 3C3B     		subs	r3, r3, #60
 296              		.loc 1 166 35 view .LVU69
 297 0006 07EE903A 		vmov	s15, r3	@ int
 298 000a F8EEE77A 		vcvt.f32.s32	s15, s15
 299              		.loc 1 166 9 view .LVU70
 300 000e F2EE086A 		vmov.f32	s13, #1.2e+1
 301 0012 87EEA67A 		vdiv.f32	s14, s15, s13
 302              	.LVL21:
 167:Src/analog.c  ****   value += (ana->pitchbend * ana->settings.byte2) / (12*8192.0f);
 303              		.loc 1 167 3 is_stmt 1 view .LVU71
 304              		.loc 1 167 16 is_stmt 0 view .LVU72
 305 0016 8368     		ldr	r3, [r0, #8]
 306              		.loc 1 167 43 view .LVU73
 307 0018 4278     		ldrb	r2, [r0, #1]	@ zero_extendqisi2
 308              		.loc 1 167 28 view .LVU74
 309 001a 02FB03F3 		mul	r3, r2, r3
 310              		.loc 1 167 51 view .LVU75
 311 001e 07EE903A 		vmov	s15, r3	@ int
 312 0022 F8EEE77A 		vcvt.f32.s32	s15, s15
 313 0026 DFED056A 		vldr.32	s13, .L29
 314 002a 87EEA60A 		vdiv.f32	s0, s15, s13
 315              	.LVL22:
 168:Src/analog.c  ****   DAC_InsertValue(value, ana->id);
 316              		.loc 1 168 3 is_stmt 1 view .LVU76
 317 002e 90F88500 		ldrb	r0, [r0, #133]	@ zero_extendqisi2
 318              	.LVL23:
 319              		.loc 1 168 3 is_stmt 0 view .LVU77
 320 0032 30EE070A 		vadd.f32	s0, s0, s14
 321              	.LVL24:
 322              		.loc 1 168 3 view .LVU78
 323 0036 FFF7FEFF 		bl	DAC_InsertValue
 324              	.LVL25:
 169:Src/analog.c  **** }
 325              		.loc 1 169 1 view .LVU79
 326 003a 08BD     		pop	{r3, pc}
 327              	.L30:
 328              		.align	2
 329              	.L29:
 330 003c 0000C047 		.word	1203765248
 331              		.cfi_endproc
 332              	.LFE133:
 334              		.section	.text.Analog_ChangeNote,"ax",%progbits
 335              		.align	1
 336              		.global	Analog_ChangeNote
 337              		.syntax unified
 338              		.thumb
 339              		.thumb_func
 340              		.fpu fpv4-sp-d16
 342              	Analog_ChangeNote:
 343              	.LVL26:
 344              	.LFB134:
ARM GAS  /var/folders/80/65lm4rm97rv_n74c85vt01040000gn/T//ccuR6fPR.s 			page 10


 170:Src/analog.c  **** 
 171:Src/analog.c  **** 
 172:Src/analog.c  **** void Analog_ChangeNote(uint8_t note, bool state, Analog_t *ana) {
 345              		.loc 1 172 65 is_stmt 1 view -0
 346              		.cfi_startproc
 347              		@ args = 0, pretend = 0, frame = 0
 348              		@ frame_needed = 0, uses_anonymous_args = 0
 349              		.loc 1 172 65 is_stmt 0 view .LVU81
 350 0000 10B5     		push	{r4, lr}
 351              	.LCFI4:
 352              		.cfi_def_cfa_offset 8
 353              		.cfi_offset 4, -8
 354              		.cfi_offset 14, -4
 355 0002 1446     		mov	r4, r2
 173:Src/analog.c  ****   if(state) {
 356              		.loc 1 173 3 is_stmt 1 view .LVU82
 357              		.loc 1 173 5 is_stmt 0 view .LVU83
 358 0004 41B1     		cbz	r1, .L32
 174:Src/analog.c  ****     ana->oscnote = note;
 359              		.loc 1 174 5 is_stmt 1 view .LVU84
 360              		.loc 1 174 18 is_stmt 0 view .LVU85
 361 0006 9071     		strb	r0, [r2, #6]
 175:Src/analog.c  ****     Analog_NoteToDac(ana);
 362              		.loc 1 175 5 is_stmt 1 view .LVU86
 363 0008 1046     		mov	r0, r2
 364              	.LVL27:
 365              		.loc 1 175 5 is_stmt 0 view .LVU87
 366 000a FFF7FEFF 		bl	Analog_NoteToDac
 367              	.LVL28:
 176:Src/analog.c  ****     Analog_DigitalVoice(true,ana);
 368              		.loc 1 176 5 is_stmt 1 view .LVU88
 369 000e 2146     		mov	r1, r4
 370 0010 0120     		movs	r0, #1
 371 0012 FFF7FEFF 		bl	Analog_DigitalVoice
 372              	.LVL29:
 373              	.L31:
 177:Src/analog.c  ****   } else {
 178:Src/analog.c  ****     Analog_DigitalVoice(false,ana);
 179:Src/analog.c  ****   }
 180:Src/analog.c  **** }
 374              		.loc 1 180 1 is_stmt 0 view .LVU89
 375 0016 10BD     		pop	{r4, pc}
 376              	.LVL30:
 377              	.L32:
 178:Src/analog.c  ****   }
 378              		.loc 1 178 5 is_stmt 1 view .LVU90
 379 0018 1146     		mov	r1, r2
 380              	.LVL31:
 178:Src/analog.c  ****   }
 381              		.loc 1 178 5 is_stmt 0 view .LVU91
 382 001a 0020     		movs	r0, #0
 383              	.LVL32:
 178:Src/analog.c  ****   }
 384              		.loc 1 178 5 view .LVU92
 385 001c FFF7FEFF 		bl	Analog_DigitalVoice
 386              	.LVL33:
 387              		.loc 1 180 1 view .LVU93
ARM GAS  /var/folders/80/65lm4rm97rv_n74c85vt01040000gn/T//ccuR6fPR.s 			page 11


 388 0020 F9E7     		b	.L31
 389              		.cfi_endproc
 390              	.LFE134:
 392              		.section	.text.Analog_Reset,"ax",%progbits
 393              		.align	1
 394              		.global	Analog_Reset
 395              		.syntax unified
 396              		.thumb
 397              		.thumb_func
 398              		.fpu fpv4-sp-d16
 400              	Analog_Reset:
 401              	.LVL34:
 402              	.LFB128:
  39:Src/analog.c  ****   Poly_Init();
 403              		.loc 1 39 34 is_stmt 1 view -0
 404              		.cfi_startproc
 405              		@ args = 0, pretend = 0, frame = 0
 406              		@ frame_needed = 0, uses_anonymous_args = 0
  39:Src/analog.c  ****   Poly_Init();
 407              		.loc 1 39 34 is_stmt 0 view .LVU95
 408 0000 10B5     		push	{r4, lr}
 409              	.LCFI5:
 410              		.cfi_def_cfa_offset 8
 411              		.cfi_offset 4, -8
 412              		.cfi_offset 14, -4
 413 0002 0446     		mov	r4, r0
  40:Src/analog.c  ****   NoteStack_Clear(&ana->stack);
 414              		.loc 1 40 3 is_stmt 1 view .LVU96
 415 0004 FFF7FEFF 		bl	Poly_Init
 416              	.LVL35:
  41:Src/analog.c  ****   ana->pedal = 0;
 417              		.loc 1 41 3 view .LVU97
 418 0008 04F12600 		add	r0, r4, #38
 419 000c FFF7FEFF 		bl	NoteStack_Clear
 420              	.LVL36:
  42:Src/analog.c  ****   ana->digitalstate = false;
 421              		.loc 1 42 3 view .LVU98
  42:Src/analog.c  ****   ana->digitalstate = false;
 422              		.loc 1 42 14 is_stmt 0 view .LVU99
 423 0010 0023     		movs	r3, #0
 424 0012 2373     		strb	r3, [r4, #12]
  43:Src/analog.c  **** 
 425              		.loc 1 43 3 is_stmt 1 view .LVU100
  43:Src/analog.c  **** 
 426              		.loc 1 43 21 is_stmt 0 view .LVU101
 427 0014 6373     		strb	r3, [r4, #13]
  45:Src/analog.c  ****   if(digital[ana->id].voice == true) {
 428              		.loc 1 45 3 is_stmt 1 view .LVU102
  45:Src/analog.c  ****   if(digital[ana->id].voice == true) {
 429              		.loc 1 45 16 is_stmt 0 view .LVU103
 430 0016 4523     		movs	r3, #69
 431 0018 A371     		strb	r3, [r4, #6]
  46:Src/analog.c  ****     ana->digitalvoice = true;
 432              		.loc 1 46 3 is_stmt 1 view .LVU104
  46:Src/analog.c  ****     ana->digitalvoice = true;
 433              		.loc 1 46 17 is_stmt 0 view .LVU105
 434 001a 94F88500 		ldrb	r0, [r4, #133]	@ zero_extendqisi2
ARM GAS  /var/folders/80/65lm4rm97rv_n74c85vt01040000gn/T//ccuR6fPR.s 			page 12


  46:Src/analog.c  ****     ana->digitalvoice = true;
 435              		.loc 1 46 22 view .LVU106
 436 001e 00EB4003 		add	r3, r0, r0, lsl #1
 437 0022 00EB8302 		add	r2, r0, r3, lsl #2
 438 0026 204B     		ldr	r3, .L48
 439 0028 1344     		add	r3, r3, r2
 440 002a 5B78     		ldrb	r3, [r3, #1]	@ zero_extendqisi2
  46:Src/analog.c  ****     ana->digitalvoice = true;
 441              		.loc 1 46 5 view .LVU107
 442 002c F3B1     		cbz	r3, .L36
  47:Src/analog.c  ****   } else {
 443              		.loc 1 47 5 is_stmt 1 view .LVU108
  47:Src/analog.c  ****   } else {
 444              		.loc 1 47 23 is_stmt 0 view .LVU109
 445 002e 0123     		movs	r3, #1
 446 0030 2371     		strb	r3, [r4, #4]
 447              	.L37:
  51:Src/analog.c  ****     Analog_ChangeNote(ana->settings.byte2,true,ana);
 448              		.loc 1 51 3 is_stmt 1 view .LVU110
  51:Src/analog.c  ****     Analog_ChangeNote(ana->settings.byte2,true,ana);
 449              		.loc 1 51 9 is_stmt 0 view .LVU111
 450 0032 E378     		ldrb	r3, [r4, #3]	@ zero_extendqisi2
  51:Src/analog.c  ****     Analog_ChangeNote(ana->settings.byte2,true,ana);
 451              		.loc 1 51 5 view .LVU112
 452 0034 012B     		cmp	r3, #1
 453 0036 1CD0     		beq	.L47
  59:Src/analog.c  ****   } 
 454              		.loc 1 59 5 is_stmt 1 view .LVU113
 455 0038 9FED1C0A 		vldr.32	s0, .L48+4
 456 003c FFF7FEFF 		bl	DAC_InsertValue
 457              	.LVL37:
 458              	.L39:
  62:Src/analog.c  **** 
 459              		.loc 1 62 3 view .LVU114
  62:Src/analog.c  **** 
 460              		.loc 1 62 16 is_stmt 0 view .LVU115
 461 0040 0023     		movs	r3, #0
 462 0042 6371     		strb	r3, [r4, #5]
  64:Src/analog.c  ****   ana->envelope = false;
 463              		.loc 1 64 3 is_stmt 1 view .LVU116
  64:Src/analog.c  ****   ana->envelope = false;
 464              		.loc 1 64 19 is_stmt 0 view .LVU117
 465 0044 2375     		strb	r3, [r4, #20]
  65:Src/analog.c  ****   ana->random = false;
 466              		.loc 1 65 3 is_stmt 1 view .LVU118
  65:Src/analog.c  ****   ana->random = false;
 467              		.loc 1 65 17 is_stmt 0 view .LVU119
 468 0046 2377     		strb	r3, [r4, #28]
  66:Src/analog.c  **** 
 469              		.loc 1 66 3 is_stmt 1 view .LVU120
  66:Src/analog.c  **** 
 470              		.loc 1 66 15 is_stmt 0 view .LVU121
 471 0048 84F82530 		strb	r3, [r4, #37]
  68:Src/analog.c  ****     case ANALOG_OSC_NOISE:
 472              		.loc 1 68 3 is_stmt 1 view .LVU122
  68:Src/analog.c  ****     case ANALOG_OSC_NOISE:
 473              		.loc 1 68 14 is_stmt 0 view .LVU123
ARM GAS  /var/folders/80/65lm4rm97rv_n74c85vt01040000gn/T//ccuR6fPR.s 			page 13


 474 004c E378     		ldrb	r3, [r4, #3]	@ zero_extendqisi2
  68:Src/analog.c  ****     case ANALOG_OSC_NOISE:
 475              		.loc 1 68 3 view .LVU124
 476 004e 2A2B     		cmp	r3, #42
 477 0050 1DD8     		bhi	.L40
 478 0052 222B     		cmp	r3, #34
 479 0054 1ED2     		bcs	.L41
 480 0056 192B     		cmp	r3, #25
 481 0058 11D8     		bhi	.L42
 482 005a 0D2B     		cmp	r3, #13
 483 005c 16D3     		bcc	.L35
  82:Src/analog.c  ****       ana->osccounter = 0;
 484              		.loc 1 82 7 is_stmt 1 view .LVU125
  82:Src/analog.c  ****       ana->osccounter = 0;
 485              		.loc 1 82 18 is_stmt 0 view .LVU126
 486 005e 0023     		movs	r3, #0
 487 0060 A361     		str	r3, [r4, #24]	@ float
  83:Src/analog.c  ****       ana->oscillator = true;
 488              		.loc 1 83 7 is_stmt 1 view .LVU127
  83:Src/analog.c  ****       ana->oscillator = true;
 489              		.loc 1 83 23 is_stmt 0 view .LVU128
 490 0062 0023     		movs	r3, #0
 491 0064 6375     		strb	r3, [r4, #21]
  84:Src/analog.c  ****       break;
 492              		.loc 1 84 7 is_stmt 1 view .LVU129
  84:Src/analog.c  ****       break;
 493              		.loc 1 84 23 is_stmt 0 view .LVU130
 494 0066 0123     		movs	r3, #1
 495 0068 2375     		strb	r3, [r4, #20]
  85:Src/analog.c  ****     
 496              		.loc 1 85 7 is_stmt 1 view .LVU131
 497 006a 0FE0     		b	.L35
 498              	.L36:
  49:Src/analog.c  ****   }
 499              		.loc 1 49 5 view .LVU132
  49:Src/analog.c  ****   }
 500              		.loc 1 49 23 is_stmt 0 view .LVU133
 501 006c 0023     		movs	r3, #0
 502 006e 2371     		strb	r3, [r4, #4]
 503 0070 DFE7     		b	.L37
 504              	.L47:
  52:Src/analog.c  ****   }
 505              		.loc 1 52 5 is_stmt 1 view .LVU134
 506 0072 2246     		mov	r2, r4
 507 0074 0121     		movs	r1, #1
 508 0076 6078     		ldrb	r0, [r4, #1]	@ zero_extendqisi2
 509 0078 FFF7FEFF 		bl	Analog_ChangeNote
 510              	.LVL38:
 511 007c E0E7     		b	.L39
 512              	.L42:
  68:Src/analog.c  ****     case ANALOG_OSC_NOISE:
 513              		.loc 1 68 3 is_stmt 0 view .LVU135
 514 007e 1F2B     		cmp	r3, #31
 515 0080 04D1     		bne	.L35
 516              	.L45:
 103:Src/analog.c  ****       ana->osccounter = 0;
 517              		.loc 1 103 7 is_stmt 1 view .LVU136
ARM GAS  /var/folders/80/65lm4rm97rv_n74c85vt01040000gn/T//ccuR6fPR.s 			page 14


 103:Src/analog.c  ****       ana->osccounter = 0;
 518              		.loc 1 103 19 is_stmt 0 view .LVU137
 519 0082 0123     		movs	r3, #1
 520 0084 84F82530 		strb	r3, [r4, #37]
 104:Src/analog.c  **** 
 521              		.loc 1 104 7 is_stmt 1 view .LVU138
 104:Src/analog.c  **** 
 522              		.loc 1 104 23 is_stmt 0 view .LVU139
 523 0088 0023     		movs	r3, #0
 524 008a 6375     		strb	r3, [r4, #21]
 525              	.L35:
 109:Src/analog.c  **** 
 526              		.loc 1 109 1 view .LVU140
 527 008c 10BD     		pop	{r4, pc}
 528              	.LVL39:
 529              	.L40:
  68:Src/analog.c  ****     case ANALOG_OSC_NOISE:
 530              		.loc 1 68 3 view .LVU141
 531 008e FF2B     		cmp	r3, #255
 532 0090 F7D0     		beq	.L45
 533 0092 FBE7     		b	.L35
 534              	.L41:
  96:Src/analog.c  ****       ana->envelopeout = 0;
 535              		.loc 1 96 7 is_stmt 1 view .LVU142
  96:Src/analog.c  ****       ana->envelopeout = 0;
 536              		.loc 1 96 21 is_stmt 0 view .LVU143
 537 0094 0123     		movs	r3, #1
 538 0096 2377     		strb	r3, [r4, #28]
  97:Src/analog.c  ****       ana->osccounter = 0;
 539              		.loc 1 97 7 is_stmt 1 view .LVU144
  97:Src/analog.c  ****       ana->osccounter = 0;
 540              		.loc 1 97 24 is_stmt 0 view .LVU145
 541 0098 0023     		movs	r3, #0
 542 009a 2362     		str	r3, [r4, #32]	@ float
  98:Src/analog.c  ****       ana->oscnote = 0xFF;
 543              		.loc 1 98 7 is_stmt 1 view .LVU146
  98:Src/analog.c  ****       ana->oscnote = 0xFF;
 544              		.loc 1 98 23 is_stmt 0 view .LVU147
 545 009c 0023     		movs	r3, #0
 546 009e 6375     		strb	r3, [r4, #21]
  99:Src/analog.c  **** 
 547              		.loc 1 99 7 is_stmt 1 view .LVU148
  99:Src/analog.c  **** 
 548              		.loc 1 99 20 is_stmt 0 view .LVU149
 549 00a0 FF23     		movs	r3, #255
 550 00a2 A371     		strb	r3, [r4, #6]
 551 00a4 EDE7     		b	.L45
 552              	.L49:
 553 00a6 00BF     		.align	2
 554              	.L48:
 555 00a8 00000000 		.word	digital
 556 00ac 00000000 		.word	0
 557              		.cfi_endproc
 558              	.LFE128:
 560              		.section	.text.Analog_Init,"ax",%progbits
 561              		.align	1
 562              		.global	Analog_Init
ARM GAS  /var/folders/80/65lm4rm97rv_n74c85vt01040000gn/T//ccuR6fPR.s 			page 15


 563              		.syntax unified
 564              		.thumb
 565              		.thumb_func
 566              		.fpu fpv4-sp-d16
 568              	Analog_Init:
 569              	.LFB127:
  31:Src/analog.c  ****   for (size_t i = 0; i < 4; i++) {
 570              		.loc 1 31 20 is_stmt 1 view -0
 571              		.cfi_startproc
 572              		@ args = 0, pretend = 0, frame = 0
 573              		@ frame_needed = 0, uses_anonymous_args = 0
 574 0000 10B5     		push	{r4, lr}
 575              	.LCFI6:
 576              		.cfi_def_cfa_offset 8
 577              		.cfi_offset 4, -8
 578              		.cfi_offset 14, -4
  32:Src/analog.c  ****     analog[i].id = i;
 579              		.loc 1 32 3 view .LVU151
 580              	.LBB2:
  32:Src/analog.c  ****     analog[i].id = i;
 581              		.loc 1 32 8 view .LVU152
 582              	.LVL40:
  32:Src/analog.c  ****     analog[i].id = i;
 583              		.loc 1 32 15 is_stmt 0 view .LVU153
 584 0002 0024     		movs	r4, #0
  32:Src/analog.c  ****     analog[i].id = i;
 585              		.loc 1 32 3 view .LVU154
 586 0004 0CE0     		b	.L51
 587              	.LVL41:
 588              	.L52:
  33:Src/analog.c  ****     analog[i].phase = 1;
 589              		.loc 1 33 5 is_stmt 1 discriminator 3 view .LVU155
  33:Src/analog.c  ****     analog[i].phase = 1;
 590              		.loc 1 33 18 is_stmt 0 discriminator 3 view .LVU156
 591 0006 04EB0412 		add	r2, r4, r4, lsl #4
 592 000a D300     		lsls	r3, r2, #3
 593 000c 0648     		ldr	r0, .L54
 594 000e 1844     		add	r0, r0, r3
 595 0010 80F88540 		strb	r4, [r0, #133]
  34:Src/analog.c  ****     Analog_Reset(&analog[i]);
 596              		.loc 1 34 5 is_stmt 1 discriminator 3 view .LVU157
  34:Src/analog.c  ****     Analog_Reset(&analog[i]);
 597              		.loc 1 34 21 is_stmt 0 discriminator 3 view .LVU158
 598 0014 4FF07E53 		mov	r3, #1065353216
 599 0018 8361     		str	r3, [r0, #24]	@ float
  35:Src/analog.c  ****   }
 600              		.loc 1 35 5 is_stmt 1 discriminator 3 view .LVU159
 601 001a FFF7FEFF 		bl	Analog_Reset
 602              	.LVL42:
  32:Src/analog.c  ****     analog[i].id = i;
 603              		.loc 1 32 29 discriminator 3 view .LVU160
  32:Src/analog.c  ****     analog[i].id = i;
 604              		.loc 1 32 30 is_stmt 0 discriminator 3 view .LVU161
 605 001e 0134     		adds	r4, r4, #1
 606              	.LVL43:
 607              	.L51:
  32:Src/analog.c  ****     analog[i].id = i;
ARM GAS  /var/folders/80/65lm4rm97rv_n74c85vt01040000gn/T//ccuR6fPR.s 			page 16


 608              		.loc 1 32 22 is_stmt 1 discriminator 1 view .LVU162
  32:Src/analog.c  ****     analog[i].id = i;
 609              		.loc 1 32 3 is_stmt 0 discriminator 1 view .LVU163
 610 0020 032C     		cmp	r4, #3
 611 0022 F0D9     		bls	.L52
 612              	.LBE2:
  37:Src/analog.c  **** 
 613              		.loc 1 37 1 view .LVU164
 614 0024 10BD     		pop	{r4, pc}
 615              	.LVL44:
 616              	.L55:
  37:Src/analog.c  **** 
 617              		.loc 1 37 1 view .LVU165
 618 0026 00BF     		.align	2
 619              	.L54:
 620 0028 00000000 		.word	.LANCHOR1
 621              		.cfi_endproc
 622              	.LFE127:
 624              		.section	.text.Analog_Configure,"ax",%progbits
 625              		.align	1
 626              		.global	Analog_Configure
 627              		.syntax unified
 628              		.thumb
 629              		.thumb_func
 630              		.fpu fpv4-sp-d16
 632              	Analog_Configure:
 633              	.LVL45:
 634              	.LFB129:
 111:Src/analog.c  ****   ana->mode = mode;
 635              		.loc 1 111 82 is_stmt 1 view -0
 636              		.cfi_startproc
 637              		@ args = 0, pretend = 0, frame = 0
 638              		@ frame_needed = 0, uses_anonymous_args = 0
 111:Src/analog.c  ****   ana->mode = mode;
 639              		.loc 1 111 82 is_stmt 0 view .LVU167
 640 0000 08B5     		push	{r3, lr}
 641              	.LCFI7:
 642              		.cfi_def_cfa_offset 8
 643              		.cfi_offset 3, -8
 644              		.cfi_offset 14, -4
 112:Src/analog.c  ****   ana->settings.byte2 = midiset->byte2;
 645              		.loc 1 112 3 is_stmt 1 view .LVU168
 112:Src/analog.c  ****   ana->settings.byte2 = midiset->byte2;
 646              		.loc 1 112 13 is_stmt 0 view .LVU169
 647 0002 C170     		strb	r1, [r0, #3]
 113:Src/analog.c  ****   ana->settings.byte3 = midiset->byte3;
 648              		.loc 1 113 3 is_stmt 1 view .LVU170
 113:Src/analog.c  ****   ana->settings.byte3 = midiset->byte3;
 649              		.loc 1 113 32 is_stmt 0 view .LVU171
 650 0004 5178     		ldrb	r1, [r2, #1]	@ zero_extendqisi2
 651              	.LVL46:
 113:Src/analog.c  ****   ana->settings.byte3 = midiset->byte3;
 652              		.loc 1 113 23 view .LVU172
 653 0006 4170     		strb	r1, [r0, #1]
 114:Src/analog.c  ****   ana->settings.midichannel = midiset->midichannel;
 654              		.loc 1 114 3 is_stmt 1 view .LVU173
 114:Src/analog.c  ****   ana->settings.midichannel = midiset->midichannel;
ARM GAS  /var/folders/80/65lm4rm97rv_n74c85vt01040000gn/T//ccuR6fPR.s 			page 17


 655              		.loc 1 114 32 is_stmt 0 view .LVU174
 656 0008 9178     		ldrb	r1, [r2, #2]	@ zero_extendqisi2
 114:Src/analog.c  ****   ana->settings.midichannel = midiset->midichannel;
 657              		.loc 1 114 23 view .LVU175
 658 000a 8170     		strb	r1, [r0, #2]
 115:Src/analog.c  **** 
 659              		.loc 1 115 3 is_stmt 1 view .LVU176
 115:Src/analog.c  **** 
 660              		.loc 1 115 38 is_stmt 0 view .LVU177
 661 000c 1278     		ldrb	r2, [r2]	@ zero_extendqisi2
 662              	.LVL47:
 115:Src/analog.c  **** 
 663              		.loc 1 115 29 view .LVU178
 664 000e 0270     		strb	r2, [r0]
 117:Src/analog.c  **** }
 665              		.loc 1 117 3 is_stmt 1 view .LVU179
 666 0010 FFF7FEFF 		bl	Analog_Reset
 667              	.LVL48:
 118:Src/analog.c  **** 
 668              		.loc 1 118 1 is_stmt 0 view .LVU180
 669 0014 08BD     		pop	{r3, pc}
 670              		.cfi_endproc
 671              	.LFE129:
 673              		.section	.text.Analog_CycleValue,"ax",%progbits
 674              		.align	1
 675              		.global	Analog_CycleValue
 676              		.syntax unified
 677              		.thumb
 678              		.thumb_func
 679              		.fpu fpv4-sp-d16
 681              	Analog_CycleValue:
 682              	.LVL49:
 683              	.LFB135:
 181:Src/analog.c  **** 
 182:Src/analog.c  **** void Analog_CycleValue(Analog_t *ana) {
 684              		.loc 1 182 39 is_stmt 1 view -0
 685              		.cfi_startproc
 686              		@ args = 0, pretend = 0, frame = 0
 687              		@ frame_needed = 0, uses_anonymous_args = 0
 688              		.loc 1 182 39 is_stmt 0 view .LVU182
 689 0000 10B5     		push	{r4, lr}
 690              	.LCFI8:
 691              		.cfi_def_cfa_offset 8
 692              		.cfi_offset 4, -8
 693              		.cfi_offset 14, -4
 694 0002 0446     		mov	r4, r0
 183:Src/analog.c  ****   DAC_Sendvalue(ana->buffer[ana->bufferindex],ana->id);
 695              		.loc 1 183 3 is_stmt 1 view .LVU183
 696              		.loc 1 183 32 is_stmt 0 view .LVU184
 697 0004 90F88430 		ldrb	r3, [r0, #132]	@ zero_extendqisi2
 698              		.loc 1 183 3 view .LVU185
 699 0008 3433     		adds	r3, r3, #52
 700 000a 00EB4303 		add	r3, r0, r3, lsl #1
 701 000e 90F88510 		ldrb	r1, [r0, #133]	@ zero_extendqisi2
 702 0012 9888     		ldrh	r0, [r3, #4]
 703              	.LVL50:
 704              		.loc 1 183 3 view .LVU186
ARM GAS  /var/folders/80/65lm4rm97rv_n74c85vt01040000gn/T//ccuR6fPR.s 			page 18


 705 0014 FFF7FEFF 		bl	DAC_Sendvalue
 706              	.LVL51:
 184:Src/analog.c  ****   ana->bufferindex++;
 707              		.loc 1 184 3 is_stmt 1 view .LVU187
 708              		.loc 1 184 6 is_stmt 0 view .LVU188
 709 0018 94F88430 		ldrb	r3, [r4, #132]	@ zero_extendqisi2
 710              		.loc 1 184 19 view .LVU189
 711 001c 0133     		adds	r3, r3, #1
 712 001e DBB2     		uxtb	r3, r3
 713 0020 84F88430 		strb	r3, [r4, #132]
 185:Src/analog.c  ****   ana->bufferindex %= kBLOCK_SIZE*2;
 714              		.loc 1 185 3 is_stmt 1 view .LVU190
 715              		.loc 1 185 20 is_stmt 0 view .LVU191
 716 0024 054A     		ldr	r2, .L60
 717 0026 A2FB0312 		umull	r1, r2, r2, r3
 718 002a D208     		lsrs	r2, r2, #3
 719 002c 02EB4202 		add	r2, r2, r2, lsl #1
 720 0030 A3EB8203 		sub	r3, r3, r2, lsl #2
 721 0034 84F88430 		strb	r3, [r4, #132]
 186:Src/analog.c  **** }
 722              		.loc 1 186 1 view .LVU192
 723 0038 10BD     		pop	{r4, pc}
 724              	.LVL52:
 725              	.L61:
 726              		.loc 1 186 1 view .LVU193
 727 003a 00BF     		.align	2
 728              	.L60:
 729 003c ABAAAAAA 		.word	-1431655765
 730              		.cfi_endproc
 731              	.LFE135:
 733              		.section	.text.Analog_Random,"ax",%progbits
 734              		.align	1
 735              		.global	Analog_Random
 736              		.syntax unified
 737              		.thumb
 738              		.thumb_func
 739              		.fpu fpv4-sp-d16
 741              	Analog_Random:
 742              	.LVL53:
 743              	.LFB137:
 187:Src/analog.c  **** 
 188:Src/analog.c  **** void Analog_TimerUpdate(Analog_t *ana) {
 189:Src/analog.c  ****   if(ana->trigger) {
 190:Src/analog.c  ****     ana->trigger--;
 191:Src/analog.c  ****     if(ana->trigger == 0) {
 192:Src/analog.c  ****       Analog_DigitalValue(false,false,ana);
 193:Src/analog.c  ****     }
 194:Src/analog.c  ****   } 
 195:Src/analog.c  ****   if (ana->oscillator) {
 196:Src/analog.c  ****     if(ana->osccounter == 0) {
 197:Src/analog.c  ****       Analog_Oscillator(ana);
 198:Src/analog.c  ****     }
 199:Src/analog.c  ****     ana->osccounter++;
 200:Src/analog.c  ****     ana->osccounter %= (kBLOCK_SIZE);
 201:Src/analog.c  ****   } else if(ana->envelope) {
 202:Src/analog.c  ****     if(ana->osccounter == 0) {
 203:Src/analog.c  ****       Analog_Envelope(ana);
ARM GAS  /var/folders/80/65lm4rm97rv_n74c85vt01040000gn/T//ccuR6fPR.s 			page 19


 204:Src/analog.c  ****     }
 205:Src/analog.c  ****     ana->osccounter++;
 206:Src/analog.c  ****     ana->osccounter %= (kBLOCK_SIZE);
 207:Src/analog.c  ****   } else if(ana->random) {
 208:Src/analog.c  ****     if(ana->osccounter == 0) {
 209:Src/analog.c  ****       Analog_Random(ana);
 210:Src/analog.c  ****     }
 211:Src/analog.c  ****     ana->osccounter++;
 212:Src/analog.c  ****     ana->osccounter %= (kBLOCK_SIZE);
 213:Src/analog.c  ****   }
 214:Src/analog.c  **** }
 215:Src/analog.c  **** 
 216:Src/analog.c  **** void Analog_Random(Analog_t *ana) {
 744              		.loc 1 216 35 is_stmt 1 view -0
 745              		.cfi_startproc
 746              		@ args = 0, pretend = 0, frame = 0
 747              		@ frame_needed = 0, uses_anonymous_args = 0
 748              		.loc 1 216 35 is_stmt 0 view .LVU195
 749 0000 10B5     		push	{r4, lr}
 750              	.LCFI9:
 751              		.cfi_def_cfa_offset 8
 752              		.cfi_offset 4, -8
 753              		.cfi_offset 14, -4
 754 0002 0446     		mov	r4, r0
 217:Src/analog.c  ****   switch(ana->mode) {
 755              		.loc 1 217 3 is_stmt 1 view .LVU196
 756              		.loc 1 217 13 is_stmt 0 view .LVU197
 757 0004 C378     		ldrb	r3, [r0, #3]	@ zero_extendqisi2
 758              		.loc 1 217 3 view .LVU198
 759 0006 1F2B     		cmp	r3, #31
 760 0008 02D0     		beq	.L63
 761 000a FF2B     		cmp	r3, #255
 762 000c 0FD0     		beq	.L64
 763              	.LVL54:
 764              	.L62:
 218:Src/analog.c  ****     case ANALOG_DIGITAL_RANDOM:
 219:Src/analog.c  ****       if(customrand() < randomthreshold[ana->id]) {
 220:Src/analog.c  ****         Analog_DigitalValue(true,true,ana);
 221:Src/analog.c  ****       }
 222:Src/analog.c  ****       break;
 223:Src/analog.c  **** 
 224:Src/analog.c  ****     case ANALOG_RANDOM:
 225:Src/analog.c  ****       if(customrand() < randomthreshold[ana->id]) {
 226:Src/analog.c  ****         DAC_InsertValue((customrand() / 429496729.0f) - 5.0f,ana->id);
 227:Src/analog.c  ****       }
 228:Src/analog.c  ****       break;
 229:Src/analog.c  **** 
 230:Src/analog.c  ****     default:
 231:Src/analog.c  ****       break;
 232:Src/analog.c  ****   }   
 233:Src/analog.c  **** }
 765              		.loc 1 233 1 view .LVU199
 766 000e 10BD     		pop	{r4, pc}
 767              	.LVL55:
 768              	.L63:
 219:Src/analog.c  ****         Analog_DigitalValue(true,true,ana);
 769              		.loc 1 219 7 is_stmt 1 view .LVU200
ARM GAS  /var/folders/80/65lm4rm97rv_n74c85vt01040000gn/T//ccuR6fPR.s 			page 20


 219:Src/analog.c  ****         Analog_DigitalValue(true,true,ana);
 770              		.loc 1 219 10 is_stmt 0 view .LVU201
 771 0010 FFF7FEFF 		bl	customrand
 772              	.LVL56:
 219:Src/analog.c  ****         Analog_DigitalValue(true,true,ana);
 773              		.loc 1 219 44 view .LVU202
 774 0014 94F88520 		ldrb	r2, [r4, #133]	@ zero_extendqisi2
 219:Src/analog.c  ****         Analog_DigitalValue(true,true,ana);
 775              		.loc 1 219 40 view .LVU203
 776 0018 134B     		ldr	r3, .L67
 777 001a 53F82230 		ldr	r3, [r3, r2, lsl #2]
 219:Src/analog.c  ****         Analog_DigitalValue(true,true,ana);
 778              		.loc 1 219 9 view .LVU204
 779 001e 9842     		cmp	r0, r3
 780 0020 F5D2     		bcs	.L62
 220:Src/analog.c  ****       }
 781              		.loc 1 220 9 is_stmt 1 view .LVU205
 782 0022 2246     		mov	r2, r4
 783 0024 0121     		movs	r1, #1
 784 0026 0846     		mov	r0, r1
 785 0028 FFF7FEFF 		bl	Analog_DigitalValue
 786              	.LVL57:
 787 002c EFE7     		b	.L62
 788              	.LVL58:
 789              	.L64:
 225:Src/analog.c  ****         DAC_InsertValue((customrand() / 429496729.0f) - 5.0f,ana->id);
 790              		.loc 1 225 7 view .LVU206
 225:Src/analog.c  ****         DAC_InsertValue((customrand() / 429496729.0f) - 5.0f,ana->id);
 791              		.loc 1 225 10 is_stmt 0 view .LVU207
 792 002e FFF7FEFF 		bl	customrand
 793              	.LVL59:
 225:Src/analog.c  ****         DAC_InsertValue((customrand() / 429496729.0f) - 5.0f,ana->id);
 794              		.loc 1 225 44 view .LVU208
 795 0032 94F88520 		ldrb	r2, [r4, #133]	@ zero_extendqisi2
 225:Src/analog.c  ****         DAC_InsertValue((customrand() / 429496729.0f) - 5.0f,ana->id);
 796              		.loc 1 225 40 view .LVU209
 797 0036 0C4B     		ldr	r3, .L67
 798 0038 53F82230 		ldr	r3, [r3, r2, lsl #2]
 225:Src/analog.c  ****         DAC_InsertValue((customrand() / 429496729.0f) - 5.0f,ana->id);
 799              		.loc 1 225 9 view .LVU210
 800 003c 9842     		cmp	r0, r3
 801 003e E6D2     		bcs	.L62
 226:Src/analog.c  ****       }
 802              		.loc 1 226 9 is_stmt 1 view .LVU211
 226:Src/analog.c  ****       }
 803              		.loc 1 226 26 is_stmt 0 view .LVU212
 804 0040 FFF7FEFF 		bl	customrand
 805              	.LVL60:
 806 0044 07EE900A 		vmov	s15, r0	@ int
 226:Src/analog.c  ****       }
 807              		.loc 1 226 39 view .LVU213
 808 0048 F8EE677A 		vcvt.f32.u32	s15, s15
 809 004c 9FED077A 		vldr.32	s14, .L67+4
 810 0050 87EE870A 		vdiv.f32	s0, s15, s14
 226:Src/analog.c  ****       }
 811              		.loc 1 226 9 view .LVU214
 812 0054 94F88500 		ldrb	r0, [r4, #133]	@ zero_extendqisi2
ARM GAS  /var/folders/80/65lm4rm97rv_n74c85vt01040000gn/T//ccuR6fPR.s 			page 21


 813 0058 F1EE047A 		vmov.f32	s15, #5.0e+0
 814 005c 30EE670A 		vsub.f32	s0, s0, s15
 815 0060 FFF7FEFF 		bl	DAC_InsertValue
 816              	.LVL61:
 817              		.loc 1 233 1 view .LVU215
 818 0064 D3E7     		b	.L62
 819              	.L68:
 820 0066 00BF     		.align	2
 821              	.L67:
 822 0068 00000000 		.word	.LANCHOR2
 823 006c CDCCCC4D 		.word	1305267405
 824              		.cfi_endproc
 825              	.LFE137:
 827              		.section	.text.Analog_Envelope,"ax",%progbits
 828              		.align	1
 829              		.global	Analog_Envelope
 830              		.syntax unified
 831              		.thumb
 832              		.thumb_func
 833              		.fpu fpv4-sp-d16
 835              	Analog_Envelope:
 836              	.LVL62:
 837              	.LFB138:
 234:Src/analog.c  **** 
 235:Src/analog.c  **** 
 236:Src/analog.c  **** void Analog_Envelope(Analog_t *ana) {
 838              		.loc 1 236 37 is_stmt 1 view -0
 839              		.cfi_startproc
 840              		@ args = 0, pretend = 0, frame = 0
 841              		@ frame_needed = 0, uses_anonymous_args = 0
 842              		.loc 1 236 37 is_stmt 0 view .LVU217
 843 0000 70B5     		push	{r4, r5, r6, lr}
 844              	.LCFI10:
 845              		.cfi_def_cfa_offset 16
 846              		.cfi_offset 4, -16
 847              		.cfi_offset 5, -12
 848              		.cfi_offset 6, -8
 849              		.cfi_offset 14, -4
 850 0002 0446     		mov	r4, r0
 237:Src/analog.c  **** 
 238:Src/analog.c  ****   uint8_t tempindex = 0;
 851              		.loc 1 238 3 is_stmt 1 view .LVU218
 852              	.LVL63:
 239:Src/analog.c  ****   if(ana->bufferindex < kBLOCK_SIZE) {
 853              		.loc 1 239 3 view .LVU219
 854              		.loc 1 239 9 is_stmt 0 view .LVU220
 855 0004 90F88430 		ldrb	r3, [r0, #132]	@ zero_extendqisi2
 856              		.loc 1 239 5 view .LVU221
 857 0008 052B     		cmp	r3, #5
 858 000a 40F2BB81 		bls	.L111
 238:Src/analog.c  ****   if(ana->bufferindex < kBLOCK_SIZE) {
 859              		.loc 1 238 11 view .LVU222
 860 000e 0025     		movs	r5, #0
 861              	.L70:
 862              	.LVL64:
 238:Src/analog.c  ****   if(ana->bufferindex < kBLOCK_SIZE) {
 863              		.loc 1 238 11 discriminator 1 view .LVU223
ARM GAS  /var/folders/80/65lm4rm97rv_n74c85vt01040000gn/T//ccuR6fPR.s 			page 22


 864 0010 0026     		movs	r6, #0
 865 0012 74E1     		b	.L109
 866              	.LVL65:
 867              	.L72:
 868              	.LBB3:
 240:Src/analog.c  ****     tempindex = kBLOCK_SIZE;
 241:Src/analog.c  ****   }
 242:Src/analog.c  **** 
 243:Src/analog.c  ****   for (size_t i = 0; i < kBLOCK_SIZE; i++) {
 244:Src/analog.c  ****     switch(ana->mode) {
 869              		.loc 1 244 5 view .LVU224
 870 0014 A3F12802 		sub	r2, r3, #40
 871 0018 D2B2     		uxtb	r2, r2
 872 001a 022A     		cmp	r2, #2
 873 001c 10D8     		bhi	.L74
 245:Src/analog.c  ****       case ANALOG_ENVELOPE_AD_EXPO:
 246:Src/analog.c  ****       case ANALOG_ENVELOPE_AD_LINEAR:
 247:Src/analog.c  ****       case ANALOG_ENVELOPE_AD_LOG:
 248:Src/analog.c  ****         if(ana->oscnote == 0xFF) {
 249:Src/analog.c  ****           if(ana->envelopeout <= 0) {
 250:Src/analog.c  ****             ana->envelopeout = 0;
 251:Src/analog.c  ****           } else {
 252:Src/analog.c  ****             ana->envelopeout -= envelopetime[ana->settings.byte3];
 253:Src/analog.c  ****           }
 254:Src/analog.c  ****         } else {
 255:Src/analog.c  ****           if(ana->envelopeout >= 8) {
 256:Src/analog.c  ****             ana->oscnote = 0xFF;
 257:Src/analog.c  ****             ana->envelopeout = 8;
 258:Src/analog.c  ****           } else {
 259:Src/analog.c  ****             ana->envelopeout += envelopetime[ana->settings.byte2];
 260:Src/analog.c  ****           }
 261:Src/analog.c  ****         }
 262:Src/analog.c  ****         break;
 263:Src/analog.c  **** 
 264:Src/analog.c  ****       case ANALOG_ENVELOPE_ASR_EXPO:
 265:Src/analog.c  ****       case ANALOG_ENVELOPE_ASR_LINEAR:
 266:Src/analog.c  ****       case ANALOG_ENVELOPE_ASR_LOG:
 267:Src/analog.c  ****         if(ana->oscnote == 0xFF) {
 268:Src/analog.c  ****           if(ana->envelopeout <= 0) {
 269:Src/analog.c  ****             ana->envelopeout = 0;
 270:Src/analog.c  ****           } else {
 271:Src/analog.c  ****             ana->envelopeout -= envelopetime[ana->settings.byte3];
 272:Src/analog.c  ****           }
 273:Src/analog.c  ****         } else {
 274:Src/analog.c  ****           if(ana->envelopeout >= 8) {
 275:Src/analog.c  ****             ana->envelopeout = 8;
 276:Src/analog.c  ****           } else {
 277:Src/analog.c  ****             ana->envelopeout += envelopetime[ana->settings.byte2];
 278:Src/analog.c  ****           }
 279:Src/analog.c  ****         }
 280:Src/analog.c  ****         break;
 281:Src/analog.c  **** 
 282:Src/analog.c  ****       case ANALOG_ENVELOPE_VELOCITY_DECAY_EXPO:
 283:Src/analog.c  ****       case ANALOG_ENVELOPE_VELOCITY_DECAY_LINEAR:
 284:Src/analog.c  ****       case ANALOG_ENVELOPE_VELOCITY_DECAY_LOG:
 285:Src/analog.c  ****         if(ana->envelopeout <= 0) {
 874              		.loc 1 285 9 is_stmt 1 view .LVU225
ARM GAS  /var/folders/80/65lm4rm97rv_n74c85vt01040000gn/T//ccuR6fPR.s 			page 23


 875              		.loc 1 285 15 is_stmt 0 view .LVU226
 876 001e D4ED087A 		vldr.32	s15, [r4, #32]
 877              		.loc 1 285 11 view .LVU227
 878 0022 F5EEC07A 		vcmpe.f32	s15, #0
 879 0026 F1EE10FA 		vmrs	APSR_nzcv, FPSCR
 880 002a 67D9     		bls	.L130
 286:Src/analog.c  ****           ana->envelopeout = 0;
 287:Src/analog.c  ****         } else {
 288:Src/analog.c  ****           ana->envelopeout -= envelopetime[ana->settings.byte2];
 881              		.loc 1 288 11 is_stmt 1 view .LVU228
 882              		.loc 1 288 57 is_stmt 0 view .LVU229
 883 002c 6178     		ldrb	r1, [r4, #1]	@ zero_extendqisi2
 884              		.loc 1 288 43 view .LVU230
 885 002e C54A     		ldr	r2, .L136
 886 0030 02EB8102 		add	r2, r2, r1, lsl #2
 887 0034 92ED007A 		vldr.32	s14, [r2]
 888              		.loc 1 288 28 view .LVU231
 889 0038 77EEC77A 		vsub.f32	s15, s15, s14
 890 003c C4ED087A 		vstr.32	s15, [r4, #32]
 891              	.L74:
 289:Src/analog.c  ****         }
 290:Src/analog.c  ****         break;
 291:Src/analog.c  ****       default:
 292:Src/analog.c  ****         break;
 293:Src/analog.c  ****     }
 294:Src/analog.c  ****     switch(ana->mode) {
 892              		.loc 1 294 5 is_stmt 1 view .LVU232
 893 0040 223B     		subs	r3, r3, #34
 894 0042 082B     		cmp	r3, #8
 895 0044 00F25881 		bhi	.L89
 896 0048 DFE813F0 		tbh	[pc, r3, lsl #1]
 897              	.L91:
 898 004c 4B01     		.2byte	(.L96-.L91)/2
 899 004e 5B00     		.2byte	(.L95-.L91)/2
 900 0050 CD00     		.2byte	(.L94-.L91)/2
 901 0052 4B01     		.2byte	(.L96-.L91)/2
 902 0054 5B00     		.2byte	(.L95-.L91)/2
 903 0056 CD00     		.2byte	(.L94-.L91)/2
 904 0058 8401     		.2byte	(.L93-.L91)/2
 905 005a 8E00     		.2byte	(.L92-.L91)/2
 906 005c 0601     		.2byte	(.L90-.L91)/2
 907              		.p2align 1
 908              	.L135:
 249:Src/analog.c  ****             ana->envelopeout = 0;
 909              		.loc 1 249 11 view .LVU233
 249:Src/analog.c  ****             ana->envelopeout = 0;
 910              		.loc 1 249 17 is_stmt 0 view .LVU234
 911 005e D4ED087A 		vldr.32	s15, [r4, #32]
 249:Src/analog.c  ****             ana->envelopeout = 0;
 912              		.loc 1 249 13 view .LVU235
 913 0062 F5EEC07A 		vcmpe.f32	s15, #0
 914 0066 F1EE10FA 		vmrs	APSR_nzcv, FPSCR
 915 006a 0AD9     		bls	.L131
 252:Src/analog.c  ****           }
 916              		.loc 1 252 13 is_stmt 1 view .LVU236
 252:Src/analog.c  ****           }
 917              		.loc 1 252 59 is_stmt 0 view .LVU237
ARM GAS  /var/folders/80/65lm4rm97rv_n74c85vt01040000gn/T//ccuR6fPR.s 			page 24


 918 006c A178     		ldrb	r1, [r4, #2]	@ zero_extendqisi2
 252:Src/analog.c  ****           }
 919              		.loc 1 252 45 view .LVU238
 920 006e B54A     		ldr	r2, .L136
 921 0070 02EB8102 		add	r2, r2, r1, lsl #2
 922 0074 92ED007A 		vldr.32	s14, [r2]
 252:Src/analog.c  ****           }
 923              		.loc 1 252 30 view .LVU239
 924 0078 77EEC77A 		vsub.f32	s15, s15, s14
 925 007c C4ED087A 		vstr.32	s15, [r4, #32]
 926 0080 DEE7     		b	.L74
 927              	.L131:
 250:Src/analog.c  ****           } else {
 928              		.loc 1 250 13 is_stmt 1 view .LVU240
 250:Src/analog.c  ****           } else {
 929              		.loc 1 250 30 is_stmt 0 view .LVU241
 930 0082 0022     		movs	r2, #0
 931 0084 2262     		str	r2, [r4, #32]	@ float
 932 0086 DBE7     		b	.L74
 933              	.L121:
 259:Src/analog.c  ****           }
 934              		.loc 1 259 13 is_stmt 1 view .LVU242
 259:Src/analog.c  ****           }
 935              		.loc 1 259 59 is_stmt 0 view .LVU243
 936 0088 6178     		ldrb	r1, [r4, #1]	@ zero_extendqisi2
 259:Src/analog.c  ****           }
 937              		.loc 1 259 45 view .LVU244
 938 008a AE4A     		ldr	r2, .L136
 939 008c 02EB8102 		add	r2, r2, r1, lsl #2
 940 0090 92ED007A 		vldr.32	s14, [r2]
 259:Src/analog.c  ****           }
 941              		.loc 1 259 30 view .LVU245
 942 0094 77EE877A 		vadd.f32	s15, s15, s14
 943 0098 C4ED087A 		vstr.32	s15, [r4, #32]
 944 009c D0E7     		b	.L74
 945              	.L73:
 267:Src/analog.c  ****           if(ana->envelopeout <= 0) {
 946              		.loc 1 267 9 is_stmt 1 view .LVU246
 267:Src/analog.c  ****           if(ana->envelopeout <= 0) {
 947              		.loc 1 267 15 is_stmt 0 view .LVU247
 948 009e A279     		ldrb	r2, [r4, #6]	@ zero_extendqisi2
 267:Src/analog.c  ****           if(ana->envelopeout <= 0) {
 949              		.loc 1 267 11 view .LVU248
 950 00a0 FF2A     		cmp	r2, #255
 951 00a2 0BD0     		beq	.L132
 274:Src/analog.c  ****             ana->envelopeout = 8;
 952              		.loc 1 274 11 is_stmt 1 view .LVU249
 274:Src/analog.c  ****             ana->envelopeout = 8;
 953              		.loc 1 274 17 is_stmt 0 view .LVU250
 954 00a4 D4ED087A 		vldr.32	s15, [r4, #32]
 274:Src/analog.c  ****             ana->envelopeout = 8;
 955              		.loc 1 274 13 view .LVU251
 956 00a8 B2EE007A 		vmov.f32	s14, #8.0e+0
 957 00ac F4EEC77A 		vcmpe.f32	s15, s14
 958 00b0 F1EE10FA 		vmrs	APSR_nzcv, FPSCR
 959 00b4 17DB     		blt	.L123
 275:Src/analog.c  ****           } else {
ARM GAS  /var/folders/80/65lm4rm97rv_n74c85vt01040000gn/T//ccuR6fPR.s 			page 25


 960              		.loc 1 275 13 is_stmt 1 view .LVU252
 275:Src/analog.c  ****           } else {
 961              		.loc 1 275 30 is_stmt 0 view .LVU253
 962 00b6 84ED087A 		vstr.32	s14, [r4, #32]
 963 00ba C1E7     		b	.L74
 964              	.L132:
 268:Src/analog.c  ****             ana->envelopeout = 0;
 965              		.loc 1 268 11 is_stmt 1 view .LVU254
 268:Src/analog.c  ****             ana->envelopeout = 0;
 966              		.loc 1 268 17 is_stmt 0 view .LVU255
 967 00bc D4ED087A 		vldr.32	s15, [r4, #32]
 268:Src/analog.c  ****             ana->envelopeout = 0;
 968              		.loc 1 268 13 view .LVU256
 969 00c0 F5EEC07A 		vcmpe.f32	s15, #0
 970 00c4 F1EE10FA 		vmrs	APSR_nzcv, FPSCR
 971 00c8 0AD9     		bls	.L133
 271:Src/analog.c  ****           }
 972              		.loc 1 271 13 is_stmt 1 view .LVU257
 271:Src/analog.c  ****           }
 973              		.loc 1 271 59 is_stmt 0 view .LVU258
 974 00ca A178     		ldrb	r1, [r4, #2]	@ zero_extendqisi2
 271:Src/analog.c  ****           }
 975              		.loc 1 271 45 view .LVU259
 976 00cc 9D4A     		ldr	r2, .L136
 977 00ce 02EB8102 		add	r2, r2, r1, lsl #2
 978 00d2 92ED007A 		vldr.32	s14, [r2]
 271:Src/analog.c  ****           }
 979              		.loc 1 271 30 view .LVU260
 980 00d6 77EEC77A 		vsub.f32	s15, s15, s14
 981 00da C4ED087A 		vstr.32	s15, [r4, #32]
 982 00de AFE7     		b	.L74
 983              	.L133:
 269:Src/analog.c  ****           } else {
 984              		.loc 1 269 13 is_stmt 1 view .LVU261
 269:Src/analog.c  ****           } else {
 985              		.loc 1 269 30 is_stmt 0 view .LVU262
 986 00e0 0022     		movs	r2, #0
 987 00e2 2262     		str	r2, [r4, #32]	@ float
 988 00e4 ACE7     		b	.L74
 989              	.L123:
 277:Src/analog.c  ****           }
 990              		.loc 1 277 13 is_stmt 1 view .LVU263
 277:Src/analog.c  ****           }
 991              		.loc 1 277 59 is_stmt 0 view .LVU264
 992 00e6 6178     		ldrb	r1, [r4, #1]	@ zero_extendqisi2
 277:Src/analog.c  ****           }
 993              		.loc 1 277 45 view .LVU265
 994 00e8 964A     		ldr	r2, .L136
 995 00ea 02EB8102 		add	r2, r2, r1, lsl #2
 996 00ee 92ED007A 		vldr.32	s14, [r2]
 277:Src/analog.c  ****           }
 997              		.loc 1 277 30 view .LVU266
 998 00f2 77EE877A 		vadd.f32	s15, s15, s14
 999 00f6 C4ED087A 		vstr.32	s15, [r4, #32]
 1000 00fa A1E7     		b	.L74
 1001              	.L130:
 286:Src/analog.c  ****         } else {
ARM GAS  /var/folders/80/65lm4rm97rv_n74c85vt01040000gn/T//ccuR6fPR.s 			page 26


 1002              		.loc 1 286 11 is_stmt 1 view .LVU267
 286:Src/analog.c  ****         } else {
 1003              		.loc 1 286 28 is_stmt 0 view .LVU268
 1004 00fc 0022     		movs	r2, #0
 1005 00fe 2262     		str	r2, [r4, #32]	@ float
 1006 0100 9EE7     		b	.L74
 1007              	.L95:
 295:Src/analog.c  ****       case ANALOG_ENVELOPE_AD_EXPO:
 296:Src/analog.c  ****       case ANALOG_ENVELOPE_ASR_EXPO:
 297:Src/analog.c  ****         if(ana->envelopeout >= 8|| ana->envelopeout < 0) {
 1008              		.loc 1 297 9 is_stmt 1 view .LVU269
 1009              		.loc 1 297 15 is_stmt 0 view .LVU270
 1010 0102 94ED080A 		vldr.32	s0, [r4, #32]
 1011              		.loc 1 297 11 view .LVU271
 1012 0106 F2EE007A 		vmov.f32	s15, #8.0e+0
 1013 010a B4EEE70A 		vcmpe.f32	s0, s15
 1014 010e F1EE10FA 		vmrs	APSR_nzcv, FPSCR
 1015 0112 04DA     		bge	.L97
 1016              		.loc 1 297 33 discriminator 1 view .LVU272
 1017 0114 B5EEC00A 		vcmpe.f32	s0, #0
 1018 0118 F1EE10FA 		vmrs	APSR_nzcv, FPSCR
 1019 011c 09D5     		bpl	.L125
 1020              	.L97:
 298:Src/analog.c  ****           ana->buffer[tempindex] = DAC_GetValue(ana->envelopeout,ana->id);
 1021              		.loc 1 298 11 is_stmt 1 view .LVU273
 1022              		.loc 1 298 36 is_stmt 0 view .LVU274
 1023 011e 94F88500 		ldrb	r0, [r4, #133]	@ zero_extendqisi2
 1024 0122 FFF7FEFF 		bl	DAC_GetValue
 1025              	.LVL66:
 1026              		.loc 1 298 34 view .LVU275
 1027 0126 05F13403 		add	r3, r5, #52
 1028 012a 04EB4303 		add	r3, r4, r3, lsl #1
 1029 012e 9880     		strh	r0, [r3, #4]	@ movhi
 1030 0130 E2E0     		b	.L89
 1031              	.L125:
 1032              	.LBB4:
 299:Src/analog.c  ****         } else {
 300:Src/analog.c  ****           int tempout = ana->envelopeout*kENVELOPE_EXPO_SIZE/8;
 1033              		.loc 1 300 11 is_stmt 1 view .LVU276
 1034              		.loc 1 300 41 is_stmt 0 view .LVU277
 1035 0132 DFED857A 		vldr.32	s15, .L136+4
 1036 0136 20EE270A 		vmul.f32	s0, s0, s15
 1037              		.loc 1 300 61 view .LVU278
 1038 013a F4EE007A 		vmov.f32	s15, #1.25e-1
 1039 013e 20EE270A 		vmul.f32	s0, s0, s15
 1040              		.loc 1 300 15 view .LVU279
 1041 0142 BDEEC00A 		vcvt.s32.f32	s0, s0
 1042              	.LVL67:
 301:Src/analog.c  ****           ana->buffer[tempindex] = DAC_GetValue(envelopeexpo[tempout],ana->id);
 1043              		.loc 1 301 11 is_stmt 1 view .LVU280
 1044              		.loc 1 301 36 is_stmt 0 view .LVU281
 1045 0146 814B     		ldr	r3, .L136+8
 1046 0148 10EE102A 		vmov	r2, s0	@ int
 1047 014c 03EB8203 		add	r3, r3, r2, lsl #2
 1048 0150 94F88500 		ldrb	r0, [r4, #133]	@ zero_extendqisi2
 1049 0154 93ED000A 		vldr.32	s0, [r3]
 1050              	.LVL68:
ARM GAS  /var/folders/80/65lm4rm97rv_n74c85vt01040000gn/T//ccuR6fPR.s 			page 27


 1051              		.loc 1 301 36 view .LVU282
 1052 0158 FFF7FEFF 		bl	DAC_GetValue
 1053              	.LVL69:
 1054              		.loc 1 301 34 view .LVU283
 1055 015c 05F13403 		add	r3, r5, #52
 1056 0160 04EB4303 		add	r3, r4, r3, lsl #1
 1057 0164 9880     		strh	r0, [r3, #4]	@ movhi
 1058 0166 C7E0     		b	.L89
 1059              	.L92:
 1060              		.loc 1 301 34 view .LVU284
 1061              	.LBE4:
 302:Src/analog.c  ****         }
 303:Src/analog.c  ****         break;
 304:Src/analog.c  ****       case ANALOG_ENVELOPE_VELOCITY_DECAY_EXPO:
 305:Src/analog.c  ****         if(ana->envelopeout >= 8 || ana->envelopeout < 0) {
 1062              		.loc 1 305 9 is_stmt 1 view .LVU285
 1063              		.loc 1 305 15 is_stmt 0 view .LVU286
 1064 0168 94ED080A 		vldr.32	s0, [r4, #32]
 1065              		.loc 1 305 11 view .LVU287
 1066 016c F2EE007A 		vmov.f32	s15, #8.0e+0
 1067 0170 B4EEE70A 		vcmpe.f32	s0, s15
 1068 0174 F1EE10FA 		vmrs	APSR_nzcv, FPSCR
 1069 0178 04DA     		bge	.L100
 1070              		.loc 1 305 34 discriminator 1 view .LVU288
 1071 017a B5EEC00A 		vcmpe.f32	s0, #0
 1072 017e F1EE10FA 		vmrs	APSR_nzcv, FPSCR
 1073 0182 09D5     		bpl	.L126
 1074              	.L100:
 306:Src/analog.c  ****           ana->buffer[tempindex] = DAC_GetValue(ana->envelopeout,ana->id);
 1075              		.loc 1 306 11 is_stmt 1 view .LVU289
 1076              		.loc 1 306 36 is_stmt 0 view .LVU290
 1077 0184 94F88500 		ldrb	r0, [r4, #133]	@ zero_extendqisi2
 1078 0188 FFF7FEFF 		bl	DAC_GetValue
 1079              	.LVL70:
 1080              		.loc 1 306 34 view .LVU291
 1081 018c 05F13403 		add	r3, r5, #52
 1082 0190 04EB4303 		add	r3, r4, r3, lsl #1
 1083 0194 9880     		strh	r0, [r3, #4]	@ movhi
 1084 0196 AFE0     		b	.L89
 1085              	.L126:
 1086              	.LBB5:
 307:Src/analog.c  ****         } else {
 308:Src/analog.c  ****           int tempout = ana->envelopeout*kENVELOPE_EXPO_SIZE/8;
 1087              		.loc 1 308 11 is_stmt 1 view .LVU292
 1088              		.loc 1 308 41 is_stmt 0 view .LVU293
 1089 0198 DFED6B7A 		vldr.32	s15, .L136+4
 1090 019c 20EE270A 		vmul.f32	s0, s0, s15
 1091              		.loc 1 308 61 view .LVU294
 1092 01a0 F4EE007A 		vmov.f32	s15, #1.25e-1
 1093 01a4 20EE270A 		vmul.f32	s0, s0, s15
 1094              		.loc 1 308 15 view .LVU295
 1095 01a8 BDEEC00A 		vcvt.s32.f32	s0, s0
 1096              	.LVL71:
 309:Src/analog.c  ****           ana->buffer[tempindex] = DAC_GetValue((envelopeexpo[tempout]*ana->envelopesize)/127.0f,an
 1097              		.loc 1 309 11 is_stmt 1 view .LVU296
 1098              		.loc 1 309 62 is_stmt 0 view .LVU297
 1099 01ac 674B     		ldr	r3, .L136+8
ARM GAS  /var/folders/80/65lm4rm97rv_n74c85vt01040000gn/T//ccuR6fPR.s 			page 28


 1100 01ae 10EE102A 		vmov	r2, s0	@ int
 1101 01b2 03EB8203 		add	r3, r3, r2, lsl #2
 1102 01b6 93ED000A 		vldr.32	s0, [r3]
 1103              	.LVL72:
 1104              		.loc 1 309 75 view .LVU298
 1105 01ba 94F82430 		ldrb	r3, [r4, #36]	@ zero_extendqisi2
 1106 01be 07EE903A 		vmov	s15, r3	@ int
 1107              		.loc 1 309 71 view .LVU299
 1108 01c2 F8EEE77A 		vcvt.f32.s32	s15, s15
 1109 01c6 67EE807A 		vmul.f32	s15, s15, s0
 1110              		.loc 1 309 36 view .LVU300
 1111 01ca 94F88500 		ldrb	r0, [r4, #133]	@ zero_extendqisi2
 1112 01ce 9FED600A 		vldr.32	s0, .L136+12
 1113 01d2 87EE800A 		vdiv.f32	s0, s15, s0
 1114 01d6 FFF7FEFF 		bl	DAC_GetValue
 1115              	.LVL73:
 1116              		.loc 1 309 34 view .LVU301
 1117 01da 05F13403 		add	r3, r5, #52
 1118 01de 04EB4303 		add	r3, r4, r3, lsl #1
 1119 01e2 9880     		strh	r0, [r3, #4]	@ movhi
 1120 01e4 88E0     		b	.L89
 1121              	.L94:
 1122              		.loc 1 309 34 view .LVU302
 1123              	.LBE5:
 310:Src/analog.c  ****         }
 311:Src/analog.c  ****         break;
 312:Src/analog.c  **** 
 313:Src/analog.c  ****       case ANALOG_ENVELOPE_ASR_LOG:
 314:Src/analog.c  ****       case ANALOG_ENVELOPE_AD_LOG:
 315:Src/analog.c  ****         if(ana->envelopeout >= 8 || ana->envelopeout < 0) {
 1124              		.loc 1 315 9 is_stmt 1 view .LVU303
 1125              		.loc 1 315 15 is_stmt 0 view .LVU304
 1126 01e6 94ED080A 		vldr.32	s0, [r4, #32]
 1127              		.loc 1 315 11 view .LVU305
 1128 01ea F2EE007A 		vmov.f32	s15, #8.0e+0
 1129 01ee B4EEE70A 		vcmpe.f32	s0, s15
 1130 01f2 F1EE10FA 		vmrs	APSR_nzcv, FPSCR
 1131 01f6 04DA     		bge	.L103
 1132              		.loc 1 315 34 discriminator 1 view .LVU306
 1133 01f8 B5EEC00A 		vcmpe.f32	s0, #0
 1134 01fc F1EE10FA 		vmrs	APSR_nzcv, FPSCR
 1135 0200 09D5     		bpl	.L127
 1136              	.L103:
 316:Src/analog.c  ****           ana->buffer[tempindex] = DAC_GetValue(ana->envelopeout,ana->id);
 1137              		.loc 1 316 11 is_stmt 1 view .LVU307
 1138              		.loc 1 316 36 is_stmt 0 view .LVU308
 1139 0202 94F88500 		ldrb	r0, [r4, #133]	@ zero_extendqisi2
 1140 0206 FFF7FEFF 		bl	DAC_GetValue
 1141              	.LVL74:
 1142              		.loc 1 316 34 view .LVU309
 1143 020a 05F13403 		add	r3, r5, #52
 1144 020e 04EB4303 		add	r3, r4, r3, lsl #1
 1145 0212 9880     		strh	r0, [r3, #4]	@ movhi
 1146 0214 70E0     		b	.L89
 1147              	.L127:
 1148              	.LBB6:
 317:Src/analog.c  ****         } else {
ARM GAS  /var/folders/80/65lm4rm97rv_n74c85vt01040000gn/T//ccuR6fPR.s 			page 29


 318:Src/analog.c  ****           int tempout =  kENVELOPE_EXPO_SIZE-((ana->envelopeout)*kENVELOPE_EXPO_SIZE/8);
 1149              		.loc 1 318 11 is_stmt 1 view .LVU310
 1150              		.loc 1 318 65 is_stmt 0 view .LVU311
 1151 0216 DFED4C7A 		vldr.32	s15, .L136+4
 1152 021a 20EE270A 		vmul.f32	s0, s0, s15
 1153              		.loc 1 318 85 view .LVU312
 1154 021e B4EE007A 		vmov.f32	s14, #1.25e-1
 1155 0222 20EE070A 		vmul.f32	s0, s0, s14
 1156              		.loc 1 318 45 view .LVU313
 1157 0226 37EEC00A 		vsub.f32	s0, s15, s0
 1158              		.loc 1 318 15 view .LVU314
 1159 022a BDEEC00A 		vcvt.s32.f32	s0, s0
 1160              	.LVL75:
 319:Src/analog.c  ****           ana->buffer[tempindex] = DAC_GetValue(5.0f-envelopeexpo[tempout],ana->id);
 1161              		.loc 1 319 11 is_stmt 1 view .LVU315
 1162              		.loc 1 319 66 is_stmt 0 view .LVU316
 1163 022e 474B     		ldr	r3, .L136+8
 1164 0230 10EE102A 		vmov	r2, s0	@ int
 1165 0234 03EB8203 		add	r3, r3, r2, lsl #2
 1166 0238 D3ED007A 		vldr.32	s15, [r3]
 1167              		.loc 1 319 36 view .LVU317
 1168 023c 94F88500 		ldrb	r0, [r4, #133]	@ zero_extendqisi2
 1169 0240 B1EE040A 		vmov.f32	s0, #5.0e+0
 1170              	.LVL76:
 1171              		.loc 1 319 36 view .LVU318
 1172 0244 30EE670A 		vsub.f32	s0, s0, s15
 1173 0248 FFF7FEFF 		bl	DAC_GetValue
 1174              	.LVL77:
 1175              		.loc 1 319 34 view .LVU319
 1176 024c 05F13403 		add	r3, r5, #52
 1177 0250 04EB4303 		add	r3, r4, r3, lsl #1
 1178 0254 9880     		strh	r0, [r3, #4]	@ movhi
 1179 0256 4FE0     		b	.L89
 1180              	.L90:
 1181              		.loc 1 319 34 view .LVU320
 1182              	.LBE6:
 320:Src/analog.c  ****         }
 321:Src/analog.c  ****         break;
 322:Src/analog.c  ****       case ANALOG_ENVELOPE_VELOCITY_DECAY_LOG:
 323:Src/analog.c  ****         if(ana->envelopeout >= 8 || ana->envelopeout < 0) {
 1183              		.loc 1 323 9 is_stmt 1 view .LVU321
 1184              		.loc 1 323 15 is_stmt 0 view .LVU322
 1185 0258 94ED080A 		vldr.32	s0, [r4, #32]
 1186              		.loc 1 323 11 view .LVU323
 1187 025c F2EE007A 		vmov.f32	s15, #8.0e+0
 1188 0260 B4EEE70A 		vcmpe.f32	s0, s15
 1189 0264 F1EE10FA 		vmrs	APSR_nzcv, FPSCR
 1190 0268 04DA     		bge	.L106
 1191              		.loc 1 323 34 discriminator 1 view .LVU324
 1192 026a B5EEC00A 		vcmpe.f32	s0, #0
 1193 026e F1EE10FA 		vmrs	APSR_nzcv, FPSCR
 1194 0272 09D5     		bpl	.L128
 1195              	.L106:
 324:Src/analog.c  ****           ana->buffer[tempindex] = DAC_GetValue(ana->envelopeout,ana->id);
 1196              		.loc 1 324 11 is_stmt 1 view .LVU325
 1197              		.loc 1 324 36 is_stmt 0 view .LVU326
 1198 0274 94F88500 		ldrb	r0, [r4, #133]	@ zero_extendqisi2
ARM GAS  /var/folders/80/65lm4rm97rv_n74c85vt01040000gn/T//ccuR6fPR.s 			page 30


 1199 0278 FFF7FEFF 		bl	DAC_GetValue
 1200              	.LVL78:
 1201              		.loc 1 324 34 view .LVU327
 1202 027c 05F13403 		add	r3, r5, #52
 1203 0280 04EB4303 		add	r3, r4, r3, lsl #1
 1204 0284 9880     		strh	r0, [r3, #4]	@ movhi
 1205 0286 37E0     		b	.L89
 1206              	.L128:
 1207              	.LBB7:
 325:Src/analog.c  ****         } else {
 326:Src/analog.c  ****           int tempout =  kENVELOPE_EXPO_SIZE-((ana->envelopeout)*kENVELOPE_EXPO_SIZE/8);
 1208              		.loc 1 326 11 is_stmt 1 view .LVU328
 1209              		.loc 1 326 65 is_stmt 0 view .LVU329
 1210 0288 DFED2F7A 		vldr.32	s15, .L136+4
 1211 028c 20EE270A 		vmul.f32	s0, s0, s15
 1212              		.loc 1 326 85 view .LVU330
 1213 0290 B4EE007A 		vmov.f32	s14, #1.25e-1
 1214 0294 20EE070A 		vmul.f32	s0, s0, s14
 1215              		.loc 1 326 45 view .LVU331
 1216 0298 37EEC00A 		vsub.f32	s0, s15, s0
 1217              		.loc 1 326 15 view .LVU332
 1218 029c BDEEC00A 		vcvt.s32.f32	s0, s0
 1219              	.LVL79:
 327:Src/analog.c  ****           ana->buffer[tempindex] = DAC_GetValue(((5.0f-envelopeexpo[tempout])*ana->envelopesize)/12
 1220              		.loc 1 327 11 is_stmt 1 view .LVU333
 1221              		.loc 1 327 68 is_stmt 0 view .LVU334
 1222 02a0 2A4B     		ldr	r3, .L136+8
 1223 02a2 10EE102A 		vmov	r2, s0	@ int
 1224 02a6 03EB8203 		add	r3, r3, r2, lsl #2
 1225 02aa 93ED000A 		vldr.32	s0, [r3]
 1226              	.LVL80:
 1227              		.loc 1 327 55 view .LVU335
 1228 02ae F1EE047A 		vmov.f32	s15, #5.0e+0
 1229 02b2 37EEC00A 		vsub.f32	s0, s15, s0
 1230              		.loc 1 327 82 view .LVU336
 1231 02b6 94F82430 		ldrb	r3, [r4, #36]	@ zero_extendqisi2
 1232 02ba 07EE903A 		vmov	s15, r3	@ int
 1233              		.loc 1 327 78 view .LVU337
 1234 02be F8EEE77A 		vcvt.f32.s32	s15, s15
 1235 02c2 67EE807A 		vmul.f32	s15, s15, s0
 1236              		.loc 1 327 36 view .LVU338
 1237 02c6 94F88500 		ldrb	r0, [r4, #133]	@ zero_extendqisi2
 1238 02ca 9FED210A 		vldr.32	s0, .L136+12
 1239 02ce 87EE800A 		vdiv.f32	s0, s15, s0
 1240 02d2 FFF7FEFF 		bl	DAC_GetValue
 1241              	.LVL81:
 1242              		.loc 1 327 34 view .LVU339
 1243 02d6 05F13403 		add	r3, r5, #52
 1244 02da 04EB4303 		add	r3, r4, r3, lsl #1
 1245 02de 9880     		strh	r0, [r3, #4]	@ movhi
 1246 02e0 0AE0     		b	.L89
 1247              	.L96:
 1248              		.loc 1 327 34 view .LVU340
 1249              	.LBE7:
 328:Src/analog.c  ****         }
 329:Src/analog.c  ****         break;
 330:Src/analog.c  **** 
ARM GAS  /var/folders/80/65lm4rm97rv_n74c85vt01040000gn/T//ccuR6fPR.s 			page 31


 331:Src/analog.c  ****       case ANALOG_ENVELOPE_ASR_LINEAR:
 332:Src/analog.c  ****       case ANALOG_ENVELOPE_AD_LINEAR:
 333:Src/analog.c  ****         ana->buffer[tempindex] = DAC_GetValue(ana->envelopeout,ana->id);
 1250              		.loc 1 333 9 is_stmt 1 view .LVU341
 1251              		.loc 1 333 34 is_stmt 0 view .LVU342
 1252 02e2 94F88500 		ldrb	r0, [r4, #133]	@ zero_extendqisi2
 1253 02e6 94ED080A 		vldr.32	s0, [r4, #32]
 1254 02ea FFF7FEFF 		bl	DAC_GetValue
 1255              	.LVL82:
 1256              		.loc 1 333 32 view .LVU343
 1257 02ee 05F13403 		add	r3, r5, #52
 1258 02f2 04EB4303 		add	r3, r4, r3, lsl #1
 1259 02f6 9880     		strh	r0, [r3, #4]	@ movhi
 334:Src/analog.c  ****         break;
 1260              		.loc 1 334 9 is_stmt 1 view .LVU344
 1261              	.L89:
 335:Src/analog.c  ****       case ANALOG_ENVELOPE_VELOCITY_DECAY_LINEAR:
 336:Src/analog.c  ****         ana->buffer[tempindex] = DAC_GetValue((ana->envelopeout*ana->envelopesize)/127.0f,ana->id);
 337:Src/analog.c  ****         break;
 338:Src/analog.c  **** 
 339:Src/analog.c  ****       default:
 340:Src/analog.c  ****         break;
 341:Src/analog.c  ****     }
 342:Src/analog.c  **** 
 343:Src/analog.c  **** 
 344:Src/analog.c  ****     tempindex++;
 1262              		.loc 1 344 5 discriminator 2 view .LVU345
 1263              		.loc 1 344 14 is_stmt 0 discriminator 2 view .LVU346
 1264 02f8 0135     		adds	r5, r5, #1
 1265              	.LVL83:
 1266              		.loc 1 344 14 discriminator 2 view .LVU347
 1267 02fa EDB2     		uxtb	r5, r5
 1268              	.LVL84:
 243:Src/analog.c  ****     switch(ana->mode) {
 1269              		.loc 1 243 39 is_stmt 1 discriminator 2 view .LVU348
 243:Src/analog.c  ****     switch(ana->mode) {
 1270              		.loc 1 243 40 is_stmt 0 discriminator 2 view .LVU349
 1271 02fc 0136     		adds	r6, r6, #1
 1272              	.LVL85:
 1273              	.L109:
 243:Src/analog.c  ****     switch(ana->mode) {
 1274              		.loc 1 243 22 is_stmt 1 discriminator 1 view .LVU350
 243:Src/analog.c  ****     switch(ana->mode) {
 1275              		.loc 1 243 3 is_stmt 0 discriminator 1 view .LVU351
 1276 02fe 052E     		cmp	r6, #5
 1277 0300 42D8     		bhi	.L134
 244:Src/analog.c  ****       case ANALOG_ENVELOPE_AD_EXPO:
 1278              		.loc 1 244 5 is_stmt 1 view .LVU352
 244:Src/analog.c  ****       case ANALOG_ENVELOPE_AD_EXPO:
 1279              		.loc 1 244 15 is_stmt 0 view .LVU353
 1280 0302 E378     		ldrb	r3, [r4, #3]	@ zero_extendqisi2
 244:Src/analog.c  ****       case ANALOG_ENVELOPE_AD_EXPO:
 1281              		.loc 1 244 5 view .LVU354
 1282 0304 272B     		cmp	r3, #39
 1283 0306 3FF685AE 		bhi	.L72
 1284 030a 252B     		cmp	r3, #37
 1285 030c BFF4C7AE 		bcs	.L73
ARM GAS  /var/folders/80/65lm4rm97rv_n74c85vt01040000gn/T//ccuR6fPR.s 			page 32


 1286 0310 A3F12202 		sub	r2, r3, #34
 1287 0314 D2B2     		uxtb	r2, r2
 1288 0316 022A     		cmp	r2, #2
 1289 0318 3FF692AE 		bhi	.L74
 248:Src/analog.c  ****           if(ana->envelopeout <= 0) {
 1290              		.loc 1 248 9 is_stmt 1 view .LVU355
 248:Src/analog.c  ****           if(ana->envelopeout <= 0) {
 1291              		.loc 1 248 15 is_stmt 0 view .LVU356
 1292 031c A279     		ldrb	r2, [r4, #6]	@ zero_extendqisi2
 248:Src/analog.c  ****           if(ana->envelopeout <= 0) {
 1293              		.loc 1 248 11 view .LVU357
 1294 031e FF2A     		cmp	r2, #255
 1295 0320 3FF49DAE 		beq	.L135
 255:Src/analog.c  ****             ana->oscnote = 0xFF;
 1296              		.loc 1 255 11 is_stmt 1 view .LVU358
 255:Src/analog.c  ****             ana->oscnote = 0xFF;
 1297              		.loc 1 255 17 is_stmt 0 view .LVU359
 1298 0324 D4ED087A 		vldr.32	s15, [r4, #32]
 255:Src/analog.c  ****             ana->oscnote = 0xFF;
 1299              		.loc 1 255 13 view .LVU360
 1300 0328 B2EE007A 		vmov.f32	s14, #8.0e+0
 1301 032c F4EEC77A 		vcmpe.f32	s15, s14
 1302 0330 F1EE10FA 		vmrs	APSR_nzcv, FPSCR
 1303 0334 FFF6A8AE 		blt	.L121
 256:Src/analog.c  ****             ana->envelopeout = 8;
 1304              		.loc 1 256 13 is_stmt 1 view .LVU361
 256:Src/analog.c  ****             ana->envelopeout = 8;
 1305              		.loc 1 256 26 is_stmt 0 view .LVU362
 1306 0338 FF22     		movs	r2, #255
 1307 033a A271     		strb	r2, [r4, #6]
 257:Src/analog.c  ****           } else {
 1308              		.loc 1 257 13 is_stmt 1 view .LVU363
 257:Src/analog.c  ****           } else {
 1309              		.loc 1 257 30 is_stmt 0 view .LVU364
 1310 033c 84ED087A 		vstr.32	s14, [r4, #32]
 1311 0340 7EE6     		b	.L74
 1312              	.L137:
 1313 0342 00BF     		.align	2
 1314              	.L136:
 1315 0344 00000000 		.word	.LANCHOR3
 1316 0348 00008045 		.word	1166016512
 1317 034c 00000000 		.word	envelopeexpo
 1318 0350 0000FE42 		.word	1123942400
 1319              	.L93:
 336:Src/analog.c  ****         break;
 1320              		.loc 1 336 9 is_stmt 1 view .LVU365
 336:Src/analog.c  ****         break;
 1321              		.loc 1 336 51 is_stmt 0 view .LVU366
 1322 0354 94ED080A 		vldr.32	s0, [r4, #32]
 336:Src/analog.c  ****         break;
 1323              		.loc 1 336 68 view .LVU367
 1324 0358 94F82430 		ldrb	r3, [r4, #36]	@ zero_extendqisi2
 1325 035c 07EE903A 		vmov	s15, r3	@ int
 336:Src/analog.c  ****         break;
 1326              		.loc 1 336 64 view .LVU368
 1327 0360 F8EEE77A 		vcvt.f32.s32	s15, s15
 1328 0364 67EE807A 		vmul.f32	s15, s15, s0
ARM GAS  /var/folders/80/65lm4rm97rv_n74c85vt01040000gn/T//ccuR6fPR.s 			page 33


 336:Src/analog.c  ****         break;
 1329              		.loc 1 336 34 view .LVU369
 1330 0368 94F88500 		ldrb	r0, [r4, #133]	@ zero_extendqisi2
 1331 036c 1FED080A 		vldr.32	s0, .L136+12
 1332 0370 87EE800A 		vdiv.f32	s0, s15, s0
 1333 0374 FFF7FEFF 		bl	DAC_GetValue
 1334              	.LVL86:
 336:Src/analog.c  ****         break;
 1335              		.loc 1 336 32 view .LVU370
 1336 0378 05F13403 		add	r3, r5, #52
 1337 037c 04EB4303 		add	r3, r4, r3, lsl #1
 1338 0380 9880     		strh	r0, [r3, #4]	@ movhi
 337:Src/analog.c  **** 
 1339              		.loc 1 337 9 is_stmt 1 view .LVU371
 1340 0382 B9E7     		b	.L89
 1341              	.LVL87:
 1342              	.L111:
 337:Src/analog.c  **** 
 1343              		.loc 1 337 9 is_stmt 0 view .LVU372
 1344              	.LBE3:
 240:Src/analog.c  ****   }
 1345              		.loc 1 240 15 view .LVU373
 1346 0384 0625     		movs	r5, #6
 1347 0386 43E6     		b	.L70
 1348              	.LVL88:
 1349              	.L134:
 345:Src/analog.c  ****   }
 346:Src/analog.c  **** }
 1350              		.loc 1 346 1 view .LVU374
 1351 0388 70BD     		pop	{r4, r5, r6, pc}
 1352              		.loc 1 346 1 view .LVU375
 1353              		.cfi_endproc
 1354              	.LFE138:
 1356 038a 00BF     		.section	.text.Analog_CalculateFrequency,"ax",%progbits
 1357              		.align	1
 1358              		.global	Analog_CalculateFrequency
 1359              		.syntax unified
 1360              		.thumb
 1361              		.thumb_func
 1362              		.fpu fpv4-sp-d16
 1364              	Analog_CalculateFrequency:
 1365              	.LVL89:
 1366              	.LFB139:
 347:Src/analog.c  **** 
 348:Src/analog.c  **** void Analog_CalculateFrequency(Analog_t *ana) {
 1367              		.loc 1 348 47 is_stmt 1 view -0
 1368              		.cfi_startproc
 1369              		@ args = 0, pretend = 0, frame = 0
 1370              		@ frame_needed = 0, uses_anonymous_args = 0
 1371              		.loc 1 348 47 is_stmt 0 view .LVU377
 1372 0000 10B5     		push	{r4, lr}
 1373              	.LCFI11:
 1374              		.cfi_def_cfa_offset 8
 1375              		.cfi_offset 4, -8
 1376              		.cfi_offset 14, -4
 1377 0002 0446     		mov	r4, r0
 349:Src/analog.c  ****   float pitchbend = (ana->pitchbend * ana->settings.byte2) / (12*8192.0f);
ARM GAS  /var/folders/80/65lm4rm97rv_n74c85vt01040000gn/T//ccuR6fPR.s 			page 34


 1378              		.loc 1 349 3 is_stmt 1 view .LVU378
 1379              		.loc 1 349 25 is_stmt 0 view .LVU379
 1380 0004 8368     		ldr	r3, [r0, #8]
 1381              		.loc 1 349 52 view .LVU380
 1382 0006 4278     		ldrb	r2, [r0, #1]	@ zero_extendqisi2
 1383              		.loc 1 349 37 view .LVU381
 1384 0008 02FB03F3 		mul	r3, r2, r3
 1385              		.loc 1 349 60 view .LVU382
 1386 000c 07EE903A 		vmov	s15, r3	@ int
 1387 0010 F8EEE77A 		vcvt.f32.s32	s15, s15
 1388              		.loc 1 349 9 view .LVU383
 1389 0014 DFED0F6A 		vldr.32	s13, .L140
 1390 0018 87EEA67A 		vdiv.f32	s14, s15, s13
 1391              	.LVL90:
 350:Src/analog.c  ****   ana->oschz = exp2f((ana->oscnote-69.0f)/12 + pitchbend) * 440 * (1.0f/kSAMPLE_RATE);
 1392              		.loc 1 350 3 is_stmt 1 view .LVU384
 1393              		.loc 1 350 26 is_stmt 0 view .LVU385
 1394 001c 8379     		ldrb	r3, [r0, #6]	@ zero_extendqisi2
 1395 001e 07EE903A 		vmov	s15, r3	@ int
 1396              		.loc 1 350 35 view .LVU386
 1397 0022 F8EEE77A 		vcvt.f32.s32	s15, s15
 1398 0026 DFED0C6A 		vldr.32	s13, .L140+4
 1399 002a 77EEE67A 		vsub.f32	s15, s15, s13
 1400              		.loc 1 350 42 view .LVU387
 1401 002e F2EE086A 		vmov.f32	s13, #1.2e+1
 1402 0032 87EEA60A 		vdiv.f32	s0, s15, s13
 1403              		.loc 1 350 16 view .LVU388
 1404 0036 30EE070A 		vadd.f32	s0, s0, s14
 1405 003a FFF7FEFF 		bl	exp2f
 1406              	.LVL91:
 1407              		.loc 1 350 59 view .LVU389
 1408 003e DFED077A 		vldr.32	s15, .L140+8
 1409 0042 20EE270A 		vmul.f32	s0, s0, s15
 1410              		.loc 1 350 65 view .LVU390
 1411 0046 DFED067A 		vldr.32	s15, .L140+12
 1412 004a 20EE270A 		vmul.f32	s0, s0, s15
 1413              		.loc 1 350 14 view .LVU391
 1414 004e 84ED040A 		vstr.32	s0, [r4, #16]
 351:Src/analog.c  **** }
 1415              		.loc 1 351 1 view .LVU392
 1416 0052 10BD     		pop	{r4, pc}
 1417              	.LVL92:
 1418              	.L141:
 1419              		.loc 1 351 1 view .LVU393
 1420              		.align	2
 1421              	.L140:
 1422 0054 0000C047 		.word	1203765248
 1423 0058 00008A42 		.word	1116340224
 1424 005c 0000DC43 		.word	1138491392
 1425 0060 72A6BE38 		.word	952018546
 1426              		.cfi_endproc
 1427              	.LFE139:
 1429              		.section	.text.Analog_Oscillator,"ax",%progbits
 1430              		.align	1
 1431              		.global	Analog_Oscillator
 1432              		.syntax unified
 1433              		.thumb
ARM GAS  /var/folders/80/65lm4rm97rv_n74c85vt01040000gn/T//ccuR6fPR.s 			page 35


 1434              		.thumb_func
 1435              		.fpu fpv4-sp-d16
 1437              	Analog_Oscillator:
 1438              	.LVL93:
 1439              	.LFB140:
 352:Src/analog.c  **** 
 353:Src/analog.c  **** 
 354:Src/analog.c  **** void Analog_Oscillator(Analog_t *ana) {  
 1440              		.loc 1 354 39 is_stmt 1 view -0
 1441              		.cfi_startproc
 1442              		@ args = 0, pretend = 0, frame = 0
 1443              		@ frame_needed = 0, uses_anonymous_args = 0
 1444              		.loc 1 354 39 is_stmt 0 view .LVU395
 1445 0000 70B5     		push	{r4, r5, r6, lr}
 1446              	.LCFI12:
 1447              		.cfi_def_cfa_offset 16
 1448              		.cfi_offset 4, -16
 1449              		.cfi_offset 5, -12
 1450              		.cfi_offset 6, -8
 1451              		.cfi_offset 14, -4
 1452 0002 0446     		mov	r4, r0
 355:Src/analog.c  ****   uint8_t tempindex = 0;
 1453              		.loc 1 355 3 is_stmt 1 view .LVU396
 1454              	.LVL94:
 356:Src/analog.c  ****   if(ana->bufferindex < kBLOCK_SIZE) {
 1455              		.loc 1 356 3 view .LVU397
 1456              		.loc 1 356 9 is_stmt 0 view .LVU398
 1457 0004 90F88430 		ldrb	r3, [r0, #132]	@ zero_extendqisi2
 1458              		.loc 1 356 5 view .LVU399
 1459 0008 052B     		cmp	r3, #5
 1460 000a 05D9     		bls	.L162
 355:Src/analog.c  ****   uint8_t tempindex = 0;
 1461              		.loc 1 355 11 view .LVU400
 1462 000c 0025     		movs	r5, #0
 1463              	.L143:
 1464              	.LVL95:
 357:Src/analog.c  ****     tempindex = kBLOCK_SIZE;
 358:Src/analog.c  ****   }
 359:Src/analog.c  **** 
 360:Src/analog.c  ****   if(ana->oscnote == 0xFF && ana->digitalvoice == false) {
 1465              		.loc 1 360 3 is_stmt 1 view .LVU401
 1466              		.loc 1 360 9 is_stmt 0 view .LVU402
 1467 000e A379     		ldrb	r3, [r4, #6]	@ zero_extendqisi2
 1468              		.loc 1 360 5 view .LVU403
 1469 0010 FF2B     		cmp	r3, #255
 1470 0012 03D0     		beq	.L172
 1471 0014 0026     		movs	r6, #0
 1472 0016 50E0     		b	.L160
 1473              	.LVL96:
 1474              	.L162:
 357:Src/analog.c  ****     tempindex = kBLOCK_SIZE;
 1475              		.loc 1 357 15 view .LVU404
 1476 0018 0625     		movs	r5, #6
 1477 001a F8E7     		b	.L143
 1478              	.LVL97:
 1479              	.L172:
 1480              		.loc 1 360 33 discriminator 1 view .LVU405
ARM GAS  /var/folders/80/65lm4rm97rv_n74c85vt01040000gn/T//ccuR6fPR.s 			page 36


 1481 001c 2379     		ldrb	r3, [r4, #4]	@ zero_extendqisi2
 1482              		.loc 1 360 27 discriminator 1 view .LVU406
 1483 001e 002B     		cmp	r3, #0
 1484 0020 40F08E80 		bne	.L164
 1485              	.LBB8:
 361:Src/analog.c  ****     for (size_t i = 0; i < kBLOCK_SIZE; i++)
 1486              		.loc 1 361 17 view .LVU407
 1487 0024 0026     		movs	r6, #0
 1488 0026 0DE0     		b	.L145
 1489              	.LVL98:
 1490              	.L146:
 362:Src/analog.c  ****     {
 363:Src/analog.c  ****       ana->buffer[tempindex] = DAC_GetValue(0.0f,ana->id);
 1491              		.loc 1 363 7 is_stmt 1 discriminator 3 view .LVU408
 1492              		.loc 1 363 32 is_stmt 0 discriminator 3 view .LVU409
 1493 0028 94F88500 		ldrb	r0, [r4, #133]	@ zero_extendqisi2
 1494 002c 9FED450A 		vldr.32	s0, .L173
 1495 0030 FFF7FEFF 		bl	DAC_GetValue
 1496              	.LVL99:
 1497              		.loc 1 363 30 discriminator 3 view .LVU410
 1498 0034 05F13403 		add	r3, r5, #52
 1499 0038 04EB4303 		add	r3, r4, r3, lsl #1
 1500 003c 9880     		strh	r0, [r3, #4]	@ movhi
 364:Src/analog.c  ****       tempindex++;
 1501              		.loc 1 364 7 is_stmt 1 discriminator 3 view .LVU411
 1502              		.loc 1 364 16 is_stmt 0 discriminator 3 view .LVU412
 1503 003e 0135     		adds	r5, r5, #1
 1504              	.LVL100:
 1505              		.loc 1 364 16 discriminator 3 view .LVU413
 1506 0040 EDB2     		uxtb	r5, r5
 1507              	.LVL101:
 361:Src/analog.c  ****     for (size_t i = 0; i < kBLOCK_SIZE; i++)
 1508              		.loc 1 361 41 is_stmt 1 discriminator 3 view .LVU414
 361:Src/analog.c  ****     for (size_t i = 0; i < kBLOCK_SIZE; i++)
 1509              		.loc 1 361 42 is_stmt 0 discriminator 3 view .LVU415
 1510 0042 0136     		adds	r6, r6, #1
 1511              	.LVL102:
 1512              	.L145:
 361:Src/analog.c  ****     for (size_t i = 0; i < kBLOCK_SIZE; i++)
 1513              		.loc 1 361 24 is_stmt 1 discriminator 1 view .LVU416
 361:Src/analog.c  ****     for (size_t i = 0; i < kBLOCK_SIZE; i++)
 1514              		.loc 1 361 5 is_stmt 0 discriminator 1 view .LVU417
 1515 0044 052E     		cmp	r6, #5
 1516 0046 EFD9     		bls	.L146
 1517              	.LVL103:
 1518              	.L142:
 361:Src/analog.c  ****     for (size_t i = 0; i < kBLOCK_SIZE; i++)
 1519              		.loc 1 361 5 discriminator 1 view .LVU418
 1520              	.LBE8:
 365:Src/analog.c  ****     }
 366:Src/analog.c  ****   } else {
 367:Src/analog.c  ****     float output;
 368:Src/analog.c  ****     for (size_t i = 0; i < kBLOCK_SIZE; i++)
 369:Src/analog.c  ****     {
 370:Src/analog.c  ****         ana->phase += ana->oschz;
 371:Src/analog.c  ****         while(ana->phase >= 1){
 372:Src/analog.c  ****           ana->phase -= 1;
ARM GAS  /var/folders/80/65lm4rm97rv_n74c85vt01040000gn/T//ccuR6fPR.s 			page 37


 373:Src/analog.c  ****         }
 374:Src/analog.c  **** 
 375:Src/analog.c  ****         switch (ana->mode) {
 376:Src/analog.c  ****           case ANALOG_MONO_OSC_PULSE:
 377:Src/analog.c  ****           case ANALOG_POLY_OSC_PULSE_DUO:
 378:Src/analog.c  ****           case ANALOG_POLY_OSC_PULSE_QUAD:
 379:Src/analog.c  ****             if(ana->phase >= 0.5f) {
 380:Src/analog.c  ****               output = 1.0f;
 381:Src/analog.c  ****             } else {
 382:Src/analog.c  ****               output = -1.0f;
 383:Src/analog.c  ****             }
 384:Src/analog.c  ****             break;
 385:Src/analog.c  **** 
 386:Src/analog.c  ****           case ANALOG_MONO_OSC_SAW:
 387:Src/analog.c  ****           case ANALOG_POLY_OSC_SAW_DUO:
 388:Src/analog.c  ****           case ANALOG_POLY_OSC_SAW_QUAD:
 389:Src/analog.c  ****             output = ana->phase * 2 - 1;
 390:Src/analog.c  ****             break;
 391:Src/analog.c  **** 
 392:Src/analog.c  ****           case ANALOG_MONO_OSC_TRI:
 393:Src/analog.c  ****           case ANALOG_POLY_OSC_TRI_DUO:
 394:Src/analog.c  ****           case ANALOG_POLY_OSC_TRI_QUAD:
 395:Src/analog.c  ****             if(ana->phase >= 0.5f) {
 396:Src/analog.c  ****               output = -ana->phase * 4 + 3;
 397:Src/analog.c  ****             } else {
 398:Src/analog.c  ****               output = ana->phase * 4 - 1;
 399:Src/analog.c  ****             }
 400:Src/analog.c  ****             break;
 401:Src/analog.c  **** 
 402:Src/analog.c  ****           case ANALOG_MONO_OSC_SINE:
 403:Src/analog.c  ****           case ANALOG_POLY_OSC_SINE_DUO:
 404:Src/analog.c  ****           case ANALOG_POLY_OSC_SINE_QUAD:
 405:Src/analog.c  ****             output = sinelut[(int)(ana->phase*(sizeof(sinelut)/sizeof(float)))];
 406:Src/analog.c  ****             break;
 407:Src/analog.c  **** 
 408:Src/analog.c  ****           case ANALOG_OSC_NOISE:
 409:Src/analog.c  ****             output = (float)customrand() / (float)(0xFFFFFFFF*0.5f) - 1.0f;
 410:Src/analog.c  ****             break;          
 411:Src/analog.c  **** 
 412:Src/analog.c  ****           default:
 413:Src/analog.c  ****             output = 0;
 414:Src/analog.c  ****             break;
 415:Src/analog.c  ****         }
 416:Src/analog.c  ****       
 417:Src/analog.c  ****       ana->buffer[tempindex] = DAC_GetValue(output,ana->id);
 418:Src/analog.c  ****       tempindex++;
 419:Src/analog.c  ****     }
 420:Src/analog.c  ****   }
 421:Src/analog.c  **** }
 1521              		.loc 1 421 1 view .LVU419
 1522 0048 70BD     		pop	{r4, r5, r6, pc}
 1523              	.LVL104:
 1524              	.L149:
 1525              	.LBB9:
 1526              	.LBB10:
 372:Src/analog.c  ****         }
 1527              		.loc 1 372 11 is_stmt 1 view .LVU420
ARM GAS  /var/folders/80/65lm4rm97rv_n74c85vt01040000gn/T//ccuR6fPR.s 			page 38


 372:Src/analog.c  ****         }
 1528              		.loc 1 372 22 is_stmt 0 view .LVU421
 1529 004a B7EE007A 		vmov.f32	s14, #1.0e+0
 1530 004e 77EEC77A 		vsub.f32	s15, s15, s14
 1531 0052 C4ED067A 		vstr.32	s15, [r4, #24]
 1532              	.L148:
 371:Src/analog.c  ****           ana->phase -= 1;
 1533              		.loc 1 371 14 is_stmt 1 view .LVU422
 371:Src/analog.c  ****           ana->phase -= 1;
 1534              		.loc 1 371 18 is_stmt 0 view .LVU423
 1535 0056 D4ED067A 		vldr.32	s15, [r4, #24]
 371:Src/analog.c  ****           ana->phase -= 1;
 1536              		.loc 1 371 14 view .LVU424
 1537 005a B7EE007A 		vmov.f32	s14, #1.0e+0
 1538 005e F4EEC77A 		vcmpe.f32	s15, s14
 1539 0062 F1EE10FA 		vmrs	APSR_nzcv, FPSCR
 1540 0066 F0DA     		bge	.L149
 375:Src/analog.c  ****           case ANALOG_MONO_OSC_PULSE:
 1541              		.loc 1 375 9 is_stmt 1 view .LVU425
 375:Src/analog.c  ****           case ANALOG_MONO_OSC_PULSE:
 1542              		.loc 1 375 20 is_stmt 0 view .LVU426
 1543 0068 E378     		ldrb	r3, [r4, #3]	@ zero_extendqisi2
 1544 006a 0D3B     		subs	r3, r3, #13
 1545 006c 0C2B     		cmp	r3, #12
 1546 006e 61D8     		bhi	.L165
 1547 0070 DFE803F0 		tbb	[pc, r3]
 1548              	.L152:
 1549 0074 51       		.byte	(.L156-.L152)/2
 1550 0075 07       		.byte	(.L155-.L152)/2
 1551 0076 11       		.byte	(.L154-.L152)/2
 1552 0077 2E       		.byte	(.L153-.L152)/2
 1553 0078 47       		.byte	(.L151-.L152)/2
 1554 0079 07       		.byte	(.L155-.L152)/2
 1555 007a 11       		.byte	(.L154-.L152)/2
 1556 007b 2E       		.byte	(.L153-.L152)/2
 1557 007c 47       		.byte	(.L151-.L152)/2
 1558 007d 07       		.byte	(.L155-.L152)/2
 1559 007e 11       		.byte	(.L154-.L152)/2
 1560 007f 2E       		.byte	(.L153-.L152)/2
 1561 0080 47       		.byte	(.L151-.L152)/2
 1562 0081 00       		.p2align 1
 1563              	.L155:
 379:Src/analog.c  ****               output = 1.0f;
 1564              		.loc 1 379 13 is_stmt 1 view .LVU427
 379:Src/analog.c  ****               output = 1.0f;
 1565              		.loc 1 379 15 is_stmt 0 view .LVU428
 1566 0082 B6EE007A 		vmov.f32	s14, #5.0e-1
 1567 0086 F4EEC77A 		vcmpe.f32	s15, s14
 1568 008a F1EE10FA 		vmrs	APSR_nzcv, FPSCR
 1569 008e 54DB     		blt	.L169
 380:Src/analog.c  ****             } else {
 1570              		.loc 1 380 22 view .LVU429
 1571 0090 B7EE000A 		vmov.f32	s0, #1.0e+0
 1572 0094 05E0     		b	.L150
 1573              	.L154:
 389:Src/analog.c  ****             break;
 1574              		.loc 1 389 13 is_stmt 1 view .LVU430
ARM GAS  /var/folders/80/65lm4rm97rv_n74c85vt01040000gn/T//ccuR6fPR.s 			page 39


 389:Src/analog.c  ****             break;
 1575              		.loc 1 389 33 is_stmt 0 view .LVU431
 1576 0096 77EEA77A 		vadd.f32	s15, s15, s15
 389:Src/analog.c  ****             break;
 1577              		.loc 1 389 20 view .LVU432
 1578 009a B7EE000A 		vmov.f32	s0, #1.0e+0
 1579 009e 37EEC00A 		vsub.f32	s0, s15, s0
 1580              	.LVL105:
 390:Src/analog.c  **** 
 1581              		.loc 1 390 13 is_stmt 1 view .LVU433
 1582              	.L150:
 417:Src/analog.c  ****       tempindex++;
 1583              		.loc 1 417 7 discriminator 2 view .LVU434
 417:Src/analog.c  ****       tempindex++;
 1584              		.loc 1 417 32 is_stmt 0 discriminator 2 view .LVU435
 1585 00a2 94F88500 		ldrb	r0, [r4, #133]	@ zero_extendqisi2
 1586 00a6 FFF7FEFF 		bl	DAC_GetValue
 1587              	.LVL106:
 417:Src/analog.c  ****       tempindex++;
 1588              		.loc 1 417 30 discriminator 2 view .LVU436
 1589 00aa 05F13403 		add	r3, r5, #52
 1590 00ae 04EB4303 		add	r3, r4, r3, lsl #1
 1591 00b2 9880     		strh	r0, [r3, #4]	@ movhi
 418:Src/analog.c  ****     }
 1592              		.loc 1 418 7 is_stmt 1 discriminator 2 view .LVU437
 418:Src/analog.c  ****     }
 1593              		.loc 1 418 16 is_stmt 0 discriminator 2 view .LVU438
 1594 00b4 0135     		adds	r5, r5, #1
 1595              	.LVL107:
 418:Src/analog.c  ****     }
 1596              		.loc 1 418 16 discriminator 2 view .LVU439
 1597 00b6 EDB2     		uxtb	r5, r5
 1598              	.LVL108:
 368:Src/analog.c  ****     {
 1599              		.loc 1 368 41 is_stmt 1 discriminator 2 view .LVU440
 368:Src/analog.c  ****     {
 1600              		.loc 1 368 42 is_stmt 0 discriminator 2 view .LVU441
 1601 00b8 0136     		adds	r6, r6, #1
 1602              	.LVL109:
 1603              	.L160:
 368:Src/analog.c  ****     {
 1604              		.loc 1 368 24 is_stmt 1 discriminator 1 view .LVU442
 368:Src/analog.c  ****     {
 1605              		.loc 1 368 5 is_stmt 0 discriminator 1 view .LVU443
 1606 00ba 052E     		cmp	r6, #5
 1607 00bc C4D8     		bhi	.L142
 370:Src/analog.c  ****         while(ana->phase >= 1){
 1608              		.loc 1 370 9 is_stmt 1 view .LVU444
 370:Src/analog.c  ****         while(ana->phase >= 1){
 1609              		.loc 1 370 26 is_stmt 0 view .LVU445
 1610 00be 94ED047A 		vldr.32	s14, [r4, #16]
 370:Src/analog.c  ****         while(ana->phase >= 1){
 1611              		.loc 1 370 20 view .LVU446
 1612 00c2 D4ED067A 		vldr.32	s15, [r4, #24]
 1613 00c6 77EE877A 		vadd.f32	s15, s15, s14
 1614 00ca C4ED067A 		vstr.32	s15, [r4, #24]
 371:Src/analog.c  ****           ana->phase -= 1;
ARM GAS  /var/folders/80/65lm4rm97rv_n74c85vt01040000gn/T//ccuR6fPR.s 			page 40


 1615              		.loc 1 371 9 is_stmt 1 view .LVU447
 371:Src/analog.c  ****           ana->phase -= 1;
 1616              		.loc 1 371 14 is_stmt 0 view .LVU448
 1617 00ce C2E7     		b	.L148
 1618              	.L153:
 395:Src/analog.c  ****               output = -ana->phase * 4 + 3;
 1619              		.loc 1 395 13 is_stmt 1 view .LVU449
 395:Src/analog.c  ****               output = -ana->phase * 4 + 3;
 1620              		.loc 1 395 15 is_stmt 0 view .LVU450
 1621 00d0 B6EE007A 		vmov.f32	s14, #5.0e-1
 1622 00d4 F4EEC77A 		vcmpe.f32	s15, s14
 1623 00d8 F1EE10FA 		vmrs	APSR_nzcv, FPSCR
 1624 00dc 08DB     		blt	.L170
 396:Src/analog.c  ****             } else {
 1625              		.loc 1 396 15 is_stmt 1 view .LVU451
 396:Src/analog.c  ****             } else {
 1626              		.loc 1 396 36 is_stmt 0 view .LVU452
 1627 00de B1EE000A 		vmov.f32	s0, #4.0e+0
 1628 00e2 67EEC07A 		vnmul.f32	s15, s15, s0
 396:Src/analog.c  ****             } else {
 1629              		.loc 1 396 22 view .LVU453
 1630 00e6 B0EE080A 		vmov.f32	s0, #3.0e+0
 1631 00ea 37EE800A 		vadd.f32	s0, s15, s0
 1632              	.LVL110:
 396:Src/analog.c  ****             } else {
 1633              		.loc 1 396 22 view .LVU454
 1634 00ee D8E7     		b	.L150
 1635              	.LVL111:
 1636              	.L170:
 398:Src/analog.c  ****             }
 1637              		.loc 1 398 15 is_stmt 1 view .LVU455
 398:Src/analog.c  ****             }
 1638              		.loc 1 398 35 is_stmt 0 view .LVU456
 1639 00f0 B1EE000A 		vmov.f32	s0, #4.0e+0
 1640 00f4 67EE807A 		vmul.f32	s15, s15, s0
 398:Src/analog.c  ****             }
 1641              		.loc 1 398 22 view .LVU457
 1642 00f8 B7EE000A 		vmov.f32	s0, #1.0e+0
 1643 00fc 37EEC00A 		vsub.f32	s0, s15, s0
 1644              	.LVL112:
 398:Src/analog.c  ****             }
 1645              		.loc 1 398 22 view .LVU458
 1646 0100 CFE7     		b	.L150
 1647              	.LVL113:
 1648              	.L151:
 405:Src/analog.c  ****             break;
 1649              		.loc 1 405 13 is_stmt 1 view .LVU459
 405:Src/analog.c  ****             break;
 1650              		.loc 1 405 30 is_stmt 0 view .LVU460
 1651 0102 FEEEEA7A 		vcvt.s32.f32	s15, s15, #11
 405:Src/analog.c  ****             break;
 1652              		.loc 1 405 20 view .LVU461
 1653 0106 104B     		ldr	r3, .L173+4
 1654 0108 17EE902A 		vmov	r2, s15	@ int
 1655 010c 03EB8203 		add	r3, r3, r2, lsl #2
 1656 0110 93ED000A 		vldr.32	s0, [r3]
 1657              	.LVL114:
ARM GAS  /var/folders/80/65lm4rm97rv_n74c85vt01040000gn/T//ccuR6fPR.s 			page 41


 406:Src/analog.c  **** 
 1658              		.loc 1 406 13 is_stmt 1 view .LVU462
 1659 0114 C5E7     		b	.L150
 1660              	.LVL115:
 1661              	.L156:
 409:Src/analog.c  ****             break;          
 1662              		.loc 1 409 13 view .LVU463
 409:Src/analog.c  ****             break;          
 1663              		.loc 1 409 29 is_stmt 0 view .LVU464
 1664 0116 FFF7FEFF 		bl	customrand
 1665              	.LVL116:
 1666 011a 00EE100A 		vmov	s0, r0	@ int
 409:Src/analog.c  ****             break;          
 1667              		.loc 1 409 22 view .LVU465
 1668 011e B8EE400A 		vcvt.f32.u32	s0, s0
 409:Src/analog.c  ****             break;          
 1669              		.loc 1 409 42 view .LVU466
 1670 0122 DFED0A7A 		vldr.32	s15, .L173+8
 1671 0126 20EE270A 		vmul.f32	s0, s0, s15
 409:Src/analog.c  ****             break;          
 1672              		.loc 1 409 20 view .LVU467
 1673 012a F7EE007A 		vmov.f32	s15, #1.0e+0
 1674 012e 30EE670A 		vsub.f32	s0, s0, s15
 1675              	.LVL117:
 410:Src/analog.c  **** 
 1676              		.loc 1 410 13 is_stmt 1 view .LVU468
 1677 0132 B6E7     		b	.L150
 1678              	.LVL118:
 1679              	.L165:
 375:Src/analog.c  ****           case ANALOG_MONO_OSC_PULSE:
 1680              		.loc 1 375 20 is_stmt 0 view .LVU469
 1681 0134 9FED030A 		vldr.32	s0, .L173
 1682 0138 B3E7     		b	.L150
 1683              	.L169:
 382:Src/analog.c  ****             }
 1684              		.loc 1 382 22 view .LVU470
 1685 013a BFEE000A 		vmov.f32	s0, #-1.0e+0
 1686 013e B0E7     		b	.L150
 1687              	.LVL119:
 1688              	.L164:
 382:Src/analog.c  ****             }
 1689              		.loc 1 382 22 view .LVU471
 1690              	.LBE10:
 1691              	.LBE9:
 1692 0140 0026     		movs	r6, #0
 1693 0142 BAE7     		b	.L160
 1694              	.L174:
 1695              		.align	2
 1696              	.L173:
 1697 0144 00000000 		.word	0
 1698 0148 00000000 		.word	sinelut
 1699 014c 00000030 		.word	805306368
 1700              		.cfi_endproc
 1701              	.LFE140:
 1703              		.section	.text.Analog_TimerUpdate,"ax",%progbits
 1704              		.align	1
 1705              		.global	Analog_TimerUpdate
ARM GAS  /var/folders/80/65lm4rm97rv_n74c85vt01040000gn/T//ccuR6fPR.s 			page 42


 1706              		.syntax unified
 1707              		.thumb
 1708              		.thumb_func
 1709              		.fpu fpv4-sp-d16
 1711              	Analog_TimerUpdate:
 1712              	.LVL120:
 1713              	.LFB136:
 188:Src/analog.c  ****   if(ana->trigger) {
 1714              		.loc 1 188 40 is_stmt 1 view -0
 1715              		.cfi_startproc
 1716              		@ args = 0, pretend = 0, frame = 0
 1717              		@ frame_needed = 0, uses_anonymous_args = 0
 188:Src/analog.c  ****   if(ana->trigger) {
 1718              		.loc 1 188 40 is_stmt 0 view .LVU473
 1719 0000 10B5     		push	{r4, lr}
 1720              	.LCFI13:
 1721              		.cfi_def_cfa_offset 8
 1722              		.cfi_offset 4, -8
 1723              		.cfi_offset 14, -4
 1724 0002 0446     		mov	r4, r0
 189:Src/analog.c  ****     ana->trigger--;
 1725              		.loc 1 189 3 is_stmt 1 view .LVU474
 189:Src/analog.c  ****     ana->trigger--;
 1726              		.loc 1 189 9 is_stmt 0 view .LVU475
 1727 0004 4379     		ldrb	r3, [r0, #5]	@ zero_extendqisi2
 189:Src/analog.c  ****     ana->trigger--;
 1728              		.loc 1 189 5 view .LVU476
 1729 0006 1BB1     		cbz	r3, .L176
 190:Src/analog.c  ****     if(ana->trigger == 0) {
 1730              		.loc 1 190 5 is_stmt 1 view .LVU477
 190:Src/analog.c  ****     if(ana->trigger == 0) {
 1731              		.loc 1 190 17 is_stmt 0 view .LVU478
 1732 0008 013B     		subs	r3, r3, #1
 1733 000a DBB2     		uxtb	r3, r3
 1734 000c 4371     		strb	r3, [r0, #5]
 191:Src/analog.c  ****       Analog_DigitalValue(false,false,ana);
 1735              		.loc 1 191 5 is_stmt 1 view .LVU479
 191:Src/analog.c  ****       Analog_DigitalValue(false,false,ana);
 1736              		.loc 1 191 7 is_stmt 0 view .LVU480
 1737 000e 8BB1     		cbz	r3, .L184
 1738              	.LVL121:
 1739              	.L176:
 195:Src/analog.c  ****     if(ana->osccounter == 0) {
 1740              		.loc 1 195 3 is_stmt 1 view .LVU481
 195:Src/analog.c  ****     if(ana->osccounter == 0) {
 1741              		.loc 1 195 10 is_stmt 0 view .LVU482
 1742 0010 237D     		ldrb	r3, [r4, #20]	@ zero_extendqisi2
 195:Src/analog.c  ****     if(ana->osccounter == 0) {
 1743              		.loc 1 195 6 view .LVU483
 1744 0012 CBB1     		cbz	r3, .L177
 196:Src/analog.c  ****       Analog_Oscillator(ana);
 1745              		.loc 1 196 5 is_stmt 1 view .LVU484
 196:Src/analog.c  ****       Analog_Oscillator(ana);
 1746              		.loc 1 196 11 is_stmt 0 view .LVU485
 1747 0014 637D     		ldrb	r3, [r4, #21]	@ zero_extendqisi2
 196:Src/analog.c  ****       Analog_Oscillator(ana);
 1748              		.loc 1 196 7 view .LVU486
ARM GAS  /var/folders/80/65lm4rm97rv_n74c85vt01040000gn/T//ccuR6fPR.s 			page 43


 1749 0016 9BB1     		cbz	r3, .L185
 1750              	.L178:
 199:Src/analog.c  ****     ana->osccounter %= (kBLOCK_SIZE);
 1751              		.loc 1 199 5 is_stmt 1 view .LVU487
 199:Src/analog.c  ****     ana->osccounter %= (kBLOCK_SIZE);
 1752              		.loc 1 199 8 is_stmt 0 view .LVU488
 1753 0018 637D     		ldrb	r3, [r4, #21]	@ zero_extendqisi2
 199:Src/analog.c  ****     ana->osccounter %= (kBLOCK_SIZE);
 1754              		.loc 1 199 20 view .LVU489
 1755 001a 0133     		adds	r3, r3, #1
 1756 001c DBB2     		uxtb	r3, r3
 1757 001e 6375     		strb	r3, [r4, #21]
 200:Src/analog.c  ****   } else if(ana->envelope) {
 1758              		.loc 1 200 5 is_stmt 1 view .LVU490
 200:Src/analog.c  ****   } else if(ana->envelope) {
 1759              		.loc 1 200 21 is_stmt 0 view .LVU491
 1760 0020 204A     		ldr	r2, .L188
 1761 0022 A2FB0312 		umull	r1, r2, r2, r3
 1762 0026 9208     		lsrs	r2, r2, #2
 1763 0028 02EB4202 		add	r2, r2, r2, lsl #1
 1764 002c A3EB4203 		sub	r3, r3, r2, lsl #1
 1765 0030 6375     		strb	r3, [r4, #21]
 1766              	.L175:
 214:Src/analog.c  **** 
 1767              		.loc 1 214 1 view .LVU492
 1768 0032 10BD     		pop	{r4, pc}
 1769              	.LVL122:
 1770              	.L184:
 192:Src/analog.c  ****     }
 1771              		.loc 1 192 7 is_stmt 1 view .LVU493
 1772 0034 0246     		mov	r2, r0
 1773 0036 0021     		movs	r1, #0
 1774 0038 0846     		mov	r0, r1
 1775              	.LVL123:
 192:Src/analog.c  ****     }
 1776              		.loc 1 192 7 is_stmt 0 view .LVU494
 1777 003a FFF7FEFF 		bl	Analog_DigitalValue
 1778              	.LVL124:
 1779 003e E7E7     		b	.L176
 1780              	.L185:
 197:Src/analog.c  ****     }
 1781              		.loc 1 197 7 is_stmt 1 view .LVU495
 1782 0040 2046     		mov	r0, r4
 1783 0042 FFF7FEFF 		bl	Analog_Oscillator
 1784              	.LVL125:
 1785 0046 E7E7     		b	.L178
 1786              	.L177:
 201:Src/analog.c  ****     if(ana->osccounter == 0) {
 1787              		.loc 1 201 10 view .LVU496
 201:Src/analog.c  ****     if(ana->osccounter == 0) {
 1788              		.loc 1 201 16 is_stmt 0 view .LVU497
 1789 0048 237F     		ldrb	r3, [r4, #28]	@ zero_extendqisi2
 201:Src/analog.c  ****     if(ana->osccounter == 0) {
 1790              		.loc 1 201 12 view .LVU498
 1791 004a 9BB1     		cbz	r3, .L180
 202:Src/analog.c  ****       Analog_Envelope(ana);
 1792              		.loc 1 202 5 is_stmt 1 view .LVU499
ARM GAS  /var/folders/80/65lm4rm97rv_n74c85vt01040000gn/T//ccuR6fPR.s 			page 44


 202:Src/analog.c  ****       Analog_Envelope(ana);
 1793              		.loc 1 202 11 is_stmt 0 view .LVU500
 1794 004c 637D     		ldrb	r3, [r4, #21]	@ zero_extendqisi2
 202:Src/analog.c  ****       Analog_Envelope(ana);
 1795              		.loc 1 202 7 view .LVU501
 1796 004e 6BB1     		cbz	r3, .L186
 1797              	.L181:
 205:Src/analog.c  ****     ana->osccounter %= (kBLOCK_SIZE);
 1798              		.loc 1 205 5 is_stmt 1 view .LVU502
 205:Src/analog.c  ****     ana->osccounter %= (kBLOCK_SIZE);
 1799              		.loc 1 205 8 is_stmt 0 view .LVU503
 1800 0050 637D     		ldrb	r3, [r4, #21]	@ zero_extendqisi2
 205:Src/analog.c  ****     ana->osccounter %= (kBLOCK_SIZE);
 1801              		.loc 1 205 20 view .LVU504
 1802 0052 0133     		adds	r3, r3, #1
 1803 0054 DBB2     		uxtb	r3, r3
 1804 0056 6375     		strb	r3, [r4, #21]
 206:Src/analog.c  ****   } else if(ana->random) {
 1805              		.loc 1 206 5 is_stmt 1 view .LVU505
 206:Src/analog.c  ****   } else if(ana->random) {
 1806              		.loc 1 206 21 is_stmt 0 view .LVU506
 1807 0058 124A     		ldr	r2, .L188
 1808 005a A2FB0312 		umull	r1, r2, r2, r3
 1809 005e 9208     		lsrs	r2, r2, #2
 1810 0060 02EB4202 		add	r2, r2, r2, lsl #1
 1811 0064 A3EB4203 		sub	r3, r3, r2, lsl #1
 1812 0068 6375     		strb	r3, [r4, #21]
 1813 006a E2E7     		b	.L175
 1814              	.L186:
 203:Src/analog.c  ****     }
 1815              		.loc 1 203 7 is_stmt 1 view .LVU507
 1816 006c 2046     		mov	r0, r4
 1817 006e FFF7FEFF 		bl	Analog_Envelope
 1818              	.LVL126:
 1819 0072 EDE7     		b	.L181
 1820              	.L180:
 207:Src/analog.c  ****     if(ana->osccounter == 0) {
 1821              		.loc 1 207 10 view .LVU508
 207:Src/analog.c  ****     if(ana->osccounter == 0) {
 1822              		.loc 1 207 16 is_stmt 0 view .LVU509
 1823 0074 94F82530 		ldrb	r3, [r4, #37]	@ zero_extendqisi2
 207:Src/analog.c  ****     if(ana->osccounter == 0) {
 1824              		.loc 1 207 12 view .LVU510
 1825 0078 002B     		cmp	r3, #0
 1826 007a DAD0     		beq	.L175
 208:Src/analog.c  ****       Analog_Random(ana);
 1827              		.loc 1 208 5 is_stmt 1 view .LVU511
 208:Src/analog.c  ****       Analog_Random(ana);
 1828              		.loc 1 208 11 is_stmt 0 view .LVU512
 1829 007c 637D     		ldrb	r3, [r4, #21]	@ zero_extendqisi2
 208:Src/analog.c  ****       Analog_Random(ana);
 1830              		.loc 1 208 7 view .LVU513
 1831 007e 6BB1     		cbz	r3, .L187
 1832              	.L182:
 211:Src/analog.c  ****     ana->osccounter %= (kBLOCK_SIZE);
 1833              		.loc 1 211 5 is_stmt 1 view .LVU514
 211:Src/analog.c  ****     ana->osccounter %= (kBLOCK_SIZE);
ARM GAS  /var/folders/80/65lm4rm97rv_n74c85vt01040000gn/T//ccuR6fPR.s 			page 45


 1834              		.loc 1 211 8 is_stmt 0 view .LVU515
 1835 0080 637D     		ldrb	r3, [r4, #21]	@ zero_extendqisi2
 211:Src/analog.c  ****     ana->osccounter %= (kBLOCK_SIZE);
 1836              		.loc 1 211 20 view .LVU516
 1837 0082 0133     		adds	r3, r3, #1
 1838 0084 DBB2     		uxtb	r3, r3
 1839 0086 6375     		strb	r3, [r4, #21]
 212:Src/analog.c  ****   }
 1840              		.loc 1 212 5 is_stmt 1 view .LVU517
 212:Src/analog.c  ****   }
 1841              		.loc 1 212 21 is_stmt 0 view .LVU518
 1842 0088 064A     		ldr	r2, .L188
 1843 008a A2FB0312 		umull	r1, r2, r2, r3
 1844 008e 9208     		lsrs	r2, r2, #2
 1845 0090 02EB4202 		add	r2, r2, r2, lsl #1
 1846 0094 A3EB4203 		sub	r3, r3, r2, lsl #1
 1847 0098 6375     		strb	r3, [r4, #21]
 214:Src/analog.c  **** 
 1848              		.loc 1 214 1 view .LVU519
 1849 009a CAE7     		b	.L175
 1850              	.L187:
 209:Src/analog.c  ****     }
 1851              		.loc 1 209 7 is_stmt 1 view .LVU520
 1852 009c 2046     		mov	r0, r4
 1853 009e FFF7FEFF 		bl	Analog_Random
 1854              	.LVL127:
 1855 00a2 EDE7     		b	.L182
 1856              	.L189:
 1857              		.align	2
 1858              	.L188:
 1859 00a4 ABAAAAAA 		.word	-1431655765
 1860              		.cfi_endproc
 1861              	.LFE136:
 1863              		.section	.text.Analog_CC,"ax",%progbits
 1864              		.align	1
 1865              		.global	Analog_CC
 1866              		.syntax unified
 1867              		.thumb
 1868              		.thumb_func
 1869              		.fpu fpv4-sp-d16
 1871              	Analog_CC:
 1872              	.LVL128:
 1873              	.LFB141:
 422:Src/analog.c  **** 
 423:Src/analog.c  **** void Analog_CC(MidiMessage *message, Analog_t *ana) {
 1874              		.loc 1 423 53 view -0
 1875              		.cfi_startproc
 1876              		@ args = 0, pretend = 0, frame = 0
 1877              		@ frame_needed = 0, uses_anonymous_args = 0
 1878              		.loc 1 423 53 is_stmt 0 view .LVU522
 1879 0000 08B5     		push	{r3, lr}
 1880              	.LCFI14:
 1881              		.cfi_def_cfa_offset 8
 1882              		.cfi_offset 3, -8
 1883              		.cfi_offset 14, -4
 424:Src/analog.c  ****   switch (ana->mode) {
 1884              		.loc 1 424 3 is_stmt 1 view .LVU523
ARM GAS  /var/folders/80/65lm4rm97rv_n74c85vt01040000gn/T//ccuR6fPR.s 			page 46


 1885              		.loc 1 424 14 is_stmt 0 view .LVU524
 1886 0002 CB78     		ldrb	r3, [r1, #3]	@ zero_extendqisi2
 1887              		.loc 1 424 3 view .LVU525
 1888 0004 052B     		cmp	r3, #5
 1889 0006 02D0     		beq	.L191
 1890 0008 062B     		cmp	r3, #6
 1891 000a 18D0     		beq	.L192
 1892              	.LVL129:
 1893              	.L190:
 425:Src/analog.c  ****     case ANALOG_CC_UNI:
 426:Src/analog.c  ****       if(message->midichannel == ana->settings.midichannel || ana->settings.midichannel == 255) {
 427:Src/analog.c  ****         if(ana->settings.byte2 == message->byte2) {
 428:Src/analog.c  ****           float value = (float)message->byte3 / (127.0f/5.0f);
 429:Src/analog.c  ****           DAC_InsertValue(value, ana->id);
 430:Src/analog.c  ****         }
 431:Src/analog.c  ****       }
 432:Src/analog.c  ****       break;
 433:Src/analog.c  ****     case ANALOG_CC_BI:
 434:Src/analog.c  ****       if(message->midichannel == ana->settings.midichannel || ana->settings.midichannel == 255) {
 435:Src/analog.c  ****         if(ana->settings.byte2 == message->byte2) {
 436:Src/analog.c  ****           float value = (float)message->byte3 / (127.0f/2.5f) - 5.0f;
 437:Src/analog.c  ****           DAC_InsertValue(value, ana->id);
 438:Src/analog.c  ****         }
 439:Src/analog.c  ****       }
 440:Src/analog.c  ****       break;
 441:Src/analog.c  ****     default:
 442:Src/analog.c  ****       break;
 443:Src/analog.c  ****   }
 444:Src/analog.c  **** }
 1894              		.loc 1 444 1 view .LVU526
 1895 000c 08BD     		pop	{r3, pc}
 1896              	.LVL130:
 1897              	.L191:
 426:Src/analog.c  ****         if(ana->settings.byte2 == message->byte2) {
 1898              		.loc 1 426 7 is_stmt 1 view .LVU527
 426:Src/analog.c  ****         if(ana->settings.byte2 == message->byte2) {
 1899              		.loc 1 426 17 is_stmt 0 view .LVU528
 1900 000e C278     		ldrb	r2, [r0, #3]	@ zero_extendqisi2
 426:Src/analog.c  ****         if(ana->settings.byte2 == message->byte2) {
 1901              		.loc 1 426 47 view .LVU529
 1902 0010 0B78     		ldrb	r3, [r1]	@ zero_extendqisi2
 426:Src/analog.c  ****         if(ana->settings.byte2 == message->byte2) {
 1903              		.loc 1 426 9 view .LVU530
 1904 0012 9A42     		cmp	r2, r3
 1905 0014 01D0     		beq	.L194
 426:Src/analog.c  ****         if(ana->settings.byte2 == message->byte2) {
 1906              		.loc 1 426 60 discriminator 1 view .LVU531
 1907 0016 FF2B     		cmp	r3, #255
 1908 0018 F8D1     		bne	.L190
 1909              	.L194:
 427:Src/analog.c  ****           float value = (float)message->byte3 / (127.0f/5.0f);
 1910              		.loc 1 427 9 is_stmt 1 view .LVU532
 427:Src/analog.c  ****           float value = (float)message->byte3 / (127.0f/5.0f);
 1911              		.loc 1 427 25 is_stmt 0 view .LVU533
 1912 001a 4A78     		ldrb	r2, [r1, #1]	@ zero_extendqisi2
 427:Src/analog.c  ****           float value = (float)message->byte3 / (127.0f/5.0f);
 1913              		.loc 1 427 42 view .LVU534
ARM GAS  /var/folders/80/65lm4rm97rv_n74c85vt01040000gn/T//ccuR6fPR.s 			page 47


 1914 001c 0379     		ldrb	r3, [r0, #4]	@ zero_extendqisi2
 427:Src/analog.c  ****           float value = (float)message->byte3 / (127.0f/5.0f);
 1915              		.loc 1 427 11 view .LVU535
 1916 001e 9A42     		cmp	r2, r3
 1917 0020 F4D1     		bne	.L190
 1918              	.LBB11:
 428:Src/analog.c  ****           DAC_InsertValue(value, ana->id);
 1919              		.loc 1 428 11 is_stmt 1 view .LVU536
 428:Src/analog.c  ****           DAC_InsertValue(value, ana->id);
 1920              		.loc 1 428 39 is_stmt 0 view .LVU537
 1921 0022 4379     		ldrb	r3, [r0, #5]	@ zero_extendqisi2
 1922 0024 07EE903A 		vmov	s15, r3	@ int
 428:Src/analog.c  ****           DAC_InsertValue(value, ana->id);
 1923              		.loc 1 428 25 view .LVU538
 1924 0028 F8EE677A 		vcvt.f32.u32	s15, s15
 1925              	.LVL131:
 429:Src/analog.c  ****         }
 1926              		.loc 1 429 11 is_stmt 1 view .LVU539
 1927 002c 91F88500 		ldrb	r0, [r1, #133]	@ zero_extendqisi2
 1928              	.LVL132:
 429:Src/analog.c  ****         }
 1929              		.loc 1 429 11 is_stmt 0 view .LVU540
 1930 0030 9FED110A 		vldr.32	s0, .L197
 1931 0034 87EE800A 		vdiv.f32	s0, s15, s0
 1932              	.LVL133:
 429:Src/analog.c  ****         }
 1933              		.loc 1 429 11 view .LVU541
 1934 0038 FFF7FEFF 		bl	DAC_InsertValue
 1935              	.LVL134:
 429:Src/analog.c  ****         }
 1936              		.loc 1 429 11 view .LVU542
 1937 003c E6E7     		b	.L190
 1938              	.LVL135:
 1939              	.L192:
 429:Src/analog.c  ****         }
 1940              		.loc 1 429 11 view .LVU543
 1941              	.LBE11:
 434:Src/analog.c  ****         if(ana->settings.byte2 == message->byte2) {
 1942              		.loc 1 434 7 is_stmt 1 view .LVU544
 434:Src/analog.c  ****         if(ana->settings.byte2 == message->byte2) {
 1943              		.loc 1 434 17 is_stmt 0 view .LVU545
 1944 003e C278     		ldrb	r2, [r0, #3]	@ zero_extendqisi2
 434:Src/analog.c  ****         if(ana->settings.byte2 == message->byte2) {
 1945              		.loc 1 434 47 view .LVU546
 1946 0040 0B78     		ldrb	r3, [r1]	@ zero_extendqisi2
 434:Src/analog.c  ****         if(ana->settings.byte2 == message->byte2) {
 1947              		.loc 1 434 9 view .LVU547
 1948 0042 9A42     		cmp	r2, r3
 1949 0044 01D0     		beq	.L195
 434:Src/analog.c  ****         if(ana->settings.byte2 == message->byte2) {
 1950              		.loc 1 434 60 discriminator 1 view .LVU548
 1951 0046 FF2B     		cmp	r3, #255
 1952 0048 E0D1     		bne	.L190
 1953              	.L195:
 435:Src/analog.c  ****           float value = (float)message->byte3 / (127.0f/2.5f) - 5.0f;
 1954              		.loc 1 435 9 is_stmt 1 view .LVU549
 435:Src/analog.c  ****           float value = (float)message->byte3 / (127.0f/2.5f) - 5.0f;
ARM GAS  /var/folders/80/65lm4rm97rv_n74c85vt01040000gn/T//ccuR6fPR.s 			page 48


 1955              		.loc 1 435 25 is_stmt 0 view .LVU550
 1956 004a 4A78     		ldrb	r2, [r1, #1]	@ zero_extendqisi2
 435:Src/analog.c  ****           float value = (float)message->byte3 / (127.0f/2.5f) - 5.0f;
 1957              		.loc 1 435 42 view .LVU551
 1958 004c 0379     		ldrb	r3, [r0, #4]	@ zero_extendqisi2
 435:Src/analog.c  ****           float value = (float)message->byte3 / (127.0f/2.5f) - 5.0f;
 1959              		.loc 1 435 11 view .LVU552
 1960 004e 9A42     		cmp	r2, r3
 1961 0050 DCD1     		bne	.L190
 1962              	.LBB12:
 436:Src/analog.c  ****           DAC_InsertValue(value, ana->id);
 1963              		.loc 1 436 11 is_stmt 1 view .LVU553
 436:Src/analog.c  ****           DAC_InsertValue(value, ana->id);
 1964              		.loc 1 436 39 is_stmt 0 view .LVU554
 1965 0052 4379     		ldrb	r3, [r0, #5]	@ zero_extendqisi2
 1966 0054 07EE903A 		vmov	s15, r3	@ int
 436:Src/analog.c  ****           DAC_InsertValue(value, ana->id);
 1967              		.loc 1 436 25 view .LVU555
 1968 0058 F8EE677A 		vcvt.f32.u32	s15, s15
 436:Src/analog.c  ****           DAC_InsertValue(value, ana->id);
 1969              		.loc 1 436 47 view .LVU556
 1970 005c 9FED077A 		vldr.32	s14, .L197+4
 1971 0060 87EE870A 		vdiv.f32	s0, s15, s14
 1972              	.LVL136:
 437:Src/analog.c  ****         }
 1973              		.loc 1 437 11 is_stmt 1 view .LVU557
 1974 0064 91F88500 		ldrb	r0, [r1, #133]	@ zero_extendqisi2
 1975              	.LVL137:
 437:Src/analog.c  ****         }
 1976              		.loc 1 437 11 is_stmt 0 view .LVU558
 1977 0068 F1EE047A 		vmov.f32	s15, #5.0e+0
 1978 006c 30EE670A 		vsub.f32	s0, s0, s15
 1979              	.LVL138:
 437:Src/analog.c  ****         }
 1980              		.loc 1 437 11 view .LVU559
 1981 0070 FFF7FEFF 		bl	DAC_InsertValue
 1982              	.LVL139:
 437:Src/analog.c  ****         }
 1983              		.loc 1 437 11 view .LVU560
 1984              	.LBE12:
 1985              		.loc 1 444 1 view .LVU561
 1986 0074 CAE7     		b	.L190
 1987              	.L198:
 1988 0076 00BF     		.align	2
 1989              	.L197:
 1990 0078 3333CB41 		.word	1103835955
 1991 007c 33334B42 		.word	1112224563
 1992              		.cfi_endproc
 1993              	.LFE141:
 1995              		.section	.text.Analog_NoteOn,"ax",%progbits
 1996              		.align	1
 1997              		.global	Analog_NoteOn
 1998              		.syntax unified
 1999              		.thumb
 2000              		.thumb_func
 2001              		.fpu fpv4-sp-d16
 2003              	Analog_NoteOn:
ARM GAS  /var/folders/80/65lm4rm97rv_n74c85vt01040000gn/T//ccuR6fPR.s 			page 49


 2004              	.LVL140:
 2005              	.LFB142:
 445:Src/analog.c  **** 
 446:Src/analog.c  **** void Analog_NoteOn(MidiMessage *message, Analog_t *ana) {
 2006              		.loc 1 446 57 is_stmt 1 view -0
 2007              		.cfi_startproc
 2008              		@ args = 0, pretend = 0, frame = 0
 2009              		@ frame_needed = 0, uses_anonymous_args = 0
 2010              		.loc 1 446 57 is_stmt 0 view .LVU563
 2011 0000 70B5     		push	{r4, r5, r6, lr}
 2012              	.LCFI15:
 2013              		.cfi_def_cfa_offset 16
 2014              		.cfi_offset 4, -16
 2015              		.cfi_offset 5, -12
 2016              		.cfi_offset 6, -8
 2017              		.cfi_offset 14, -4
 2018 0002 0546     		mov	r5, r0
 2019 0004 0C46     		mov	r4, r1
 447:Src/analog.c  ****   switch (ana->mode) {
 2020              		.loc 1 447 3 is_stmt 1 view .LVU564
 2021              		.loc 1 447 14 is_stmt 0 view .LVU565
 2022 0006 CB78     		ldrb	r3, [r1, #3]	@ zero_extendqisi2
 2023 0008 023B     		subs	r3, r3, #2
 2024 000a 282B     		cmp	r3, #40
 2025 000c 30D8     		bhi	.L199
 2026 000e DFE813F0 		tbh	[pc, r3, lsl #1]
 2027              	.L202:
 2028 0012 7300     		.2byte	(.L213-.L202)/2
 2029 0014 D000     		.2byte	(.L209-.L202)/2
 2030 0016 E900     		.2byte	(.L208-.L202)/2
 2031 0018 2F00     		.2byte	(.L199-.L202)/2
 2032 001a 2F00     		.2byte	(.L199-.L202)/2
 2033 001c 8C00     		.2byte	(.L212-.L202)/2
 2034 001e AB00     		.2byte	(.L211-.L202)/2
 2035 0020 2F00     		.2byte	(.L199-.L202)/2
 2036 0022 2F00     		.2byte	(.L199-.L202)/2
 2037 0024 8C00     		.2byte	(.L212-.L202)/2
 2038 0026 AB00     		.2byte	(.L211-.L202)/2
 2039 0028 2F00     		.2byte	(.L199-.L202)/2
 2040 002a 2900     		.2byte	(.L210-.L202)/2
 2041 002c 2900     		.2byte	(.L210-.L202)/2
 2042 002e 2900     		.2byte	(.L210-.L202)/2
 2043 0030 2900     		.2byte	(.L210-.L202)/2
 2044 0032 D000     		.2byte	(.L209-.L202)/2
 2045 0034 D000     		.2byte	(.L209-.L202)/2
 2046 0036 D000     		.2byte	(.L209-.L202)/2
 2047 0038 D000     		.2byte	(.L209-.L202)/2
 2048 003a E900     		.2byte	(.L208-.L202)/2
 2049 003c E900     		.2byte	(.L208-.L202)/2
 2050 003e E900     		.2byte	(.L208-.L202)/2
 2051 0040 E900     		.2byte	(.L208-.L202)/2
 2052 0042 3901     		.2byte	(.L207-.L202)/2
 2053 0044 4D01     		.2byte	(.L206-.L202)/2
 2054 0046 2F00     		.2byte	(.L199-.L202)/2
 2055 0048 2F00     		.2byte	(.L199-.L202)/2
 2056 004a 2F00     		.2byte	(.L199-.L202)/2
 2057 004c 2F00     		.2byte	(.L199-.L202)/2
ARM GAS  /var/folders/80/65lm4rm97rv_n74c85vt01040000gn/T//ccuR6fPR.s 			page 50


 2058 004e FB00     		.2byte	(.L205-.L202)/2
 2059 0050 1901     		.2byte	(.L204-.L202)/2
 2060 0052 4A00     		.2byte	(.L203-.L202)/2
 2061 0054 4A00     		.2byte	(.L203-.L202)/2
 2062 0056 4A00     		.2byte	(.L203-.L202)/2
 2063 0058 4A00     		.2byte	(.L203-.L202)/2
 2064 005a 4A00     		.2byte	(.L203-.L202)/2
 2065 005c 4A00     		.2byte	(.L203-.L202)/2
 2066 005e 5C00     		.2byte	(.L201-.L202)/2
 2067 0060 5C00     		.2byte	(.L201-.L202)/2
 2068 0062 5C00     		.2byte	(.L201-.L202)/2
 2069              		.p2align 1
 2070              	.L210:
 448:Src/analog.c  ****     case ANALOG_MONO_OSC_PULSE:
 449:Src/analog.c  ****     case ANALOG_MONO_OSC_SAW:
 450:Src/analog.c  ****     case ANALOG_MONO_OSC_TRI:
 451:Src/analog.c  ****     case ANALOG_MONO_OSC_SINE:
 452:Src/analog.c  ****       if(message->midichannel == ana->settings.midichannel || ana->settings.midichannel == 255) {
 2071              		.loc 1 452 7 is_stmt 1 view .LVU566
 2072              		.loc 1 452 17 is_stmt 0 view .LVU567
 2073 0064 C278     		ldrb	r2, [r0, #3]	@ zero_extendqisi2
 2074              		.loc 1 452 47 view .LVU568
 2075 0066 0B78     		ldrb	r3, [r1]	@ zero_extendqisi2
 2076              		.loc 1 452 9 view .LVU569
 2077 0068 9A42     		cmp	r2, r3
 2078 006a 02D0     		beq	.L214
 2079              		.loc 1 452 60 discriminator 1 view .LVU570
 2080 006c FF2B     		cmp	r3, #255
 2081 006e 00D0     		beq	.L214
 2082              	.LVL141:
 2083              	.L199:
 453:Src/analog.c  ****         NoteStack_NoteOn(message->byte2,message->byte3,&ana->stack);
 454:Src/analog.c  ****         uint8_t tempnote = NoteStack_RecentNote(&ana->stack);
 455:Src/analog.c  ****         if(tempnote != 0xFF) {
 456:Src/analog.c  ****           ana->oscnote = tempnote;
 457:Src/analog.c  ****           Analog_CalculateFrequency(ana);
 458:Src/analog.c  ****           Analog_DigitalVoice(true,ana);
 459:Src/analog.c  ****         } else {
 460:Src/analog.c  ****           Analog_DigitalVoice(false,ana);
 461:Src/analog.c  ****         }
 462:Src/analog.c  ****       }
 463:Src/analog.c  ****       break;
 464:Src/analog.c  **** 
 465:Src/analog.c  ****     case ANALOG_ENVELOPE_ASR_EXPO:
 466:Src/analog.c  ****     case ANALOG_ENVELOPE_ASR_LINEAR:
 467:Src/analog.c  ****     case ANALOG_ENVELOPE_ASR_LOG:
 468:Src/analog.c  ****     case ANALOG_ENVELOPE_AD_EXPO:
 469:Src/analog.c  ****     case ANALOG_ENVELOPE_AD_LINEAR:
 470:Src/analog.c  ****     case ANALOG_ENVELOPE_AD_LOG:
 471:Src/analog.c  ****       if(message->midichannel == ana->settings.midichannel || ana->settings.midichannel == 255) {
 472:Src/analog.c  ****         NoteStack_NoteOn(message->byte2,message->byte3,&ana->stack);
 473:Src/analog.c  ****         uint8_t tempnote = NoteStack_RecentNote(&ana->stack);
 474:Src/analog.c  ****         ana->oscnote = tempnote;
 475:Src/analog.c  ****       }
 476:Src/analog.c  ****       break;
 477:Src/analog.c  **** 
 478:Src/analog.c  ****     case ANALOG_ENVELOPE_VELOCITY_DECAY_EXPO:
ARM GAS  /var/folders/80/65lm4rm97rv_n74c85vt01040000gn/T//ccuR6fPR.s 			page 51


 479:Src/analog.c  ****     case ANALOG_ENVELOPE_VELOCITY_DECAY_LINEAR:
 480:Src/analog.c  ****     case ANALOG_ENVELOPE_VELOCITY_DECAY_LOG:
 481:Src/analog.c  ****       if(message->midichannel == ana->settings.midichannel || ana->settings.midichannel == 255) {
 482:Src/analog.c  ****         NoteStack_NoteOn(message->byte2,message->byte3,&ana->stack);
 483:Src/analog.c  ****         uint8_t tempnote = NoteStack_RecentNote(&ana->stack);
 484:Src/analog.c  ****         ana->oscnote = tempnote;
 485:Src/analog.c  ****         ana->envelopeout = 5;
 486:Src/analog.c  ****         ana->envelopesize = message->byte3;
 487:Src/analog.c  ****       }
 488:Src/analog.c  ****       break;
 489:Src/analog.c  **** 
 490:Src/analog.c  ****     case ANALOG_VOCT:
 491:Src/analog.c  ****       if(message->midichannel == ana->settings.midichannel || ana->settings.midichannel == 255) {
 492:Src/analog.c  ****         NoteStack_NoteOn(message->byte2,message->byte3,&ana->stack);
 493:Src/analog.c  ****         uint8_t note = NoteStack_RecentNote(&ana->stack);
 494:Src/analog.c  ****         bool state = true;
 495:Src/analog.c  ****         if(note == 0xFF) {
 496:Src/analog.c  ****           state = false;
 497:Src/analog.c  ****         }
 498:Src/analog.c  ****         Analog_ChangeNote(note,state,ana);      
 499:Src/analog.c  ****       }
 500:Src/analog.c  ****       break;
 501:Src/analog.c  **** 
 502:Src/analog.c  ****     case ANALOG_VELOCITY_UNI:
 503:Src/analog.c  ****     case ANALOG_KEYPRESSURE_UNI:
 504:Src/analog.c  ****       if(message->midichannel == ana->settings.midichannel || ana->settings.midichannel == 255) {
 505:Src/analog.c  ****         NoteStack_NoteOn(message->byte2, message->byte3, &ana->stack);
 506:Src/analog.c  ****         uint8_t vel = NoteStack_RecentVelocity(&ana->stack);
 507:Src/analog.c  ****         DAC_InsertValue((5*vel)/127.0f,ana->id);
 508:Src/analog.c  ****       }
 509:Src/analog.c  ****       break;
 510:Src/analog.c  **** 
 511:Src/analog.c  ****     case ANALOG_VELOCITY_BI:
 512:Src/analog.c  ****     case ANALOG_KEYPRESSURE_BI:
 513:Src/analog.c  ****       if(message->midichannel == ana->settings.midichannel || ana->settings.midichannel == 255) {
 514:Src/analog.c  ****         NoteStack_NoteOn(message->byte2, message->byte3, &ana->stack);
 515:Src/analog.c  ****         uint8_t vel = NoteStack_RecentVelocity(&ana->stack);
 516:Src/analog.c  ****         DAC_InsertValue((10*vel)/127.0f - 5.0f,ana->id);
 517:Src/analog.c  ****       }
 518:Src/analog.c  ****       break;
 519:Src/analog.c  **** 
 520:Src/analog.c  ****     case ANALOG_POLY_DUO:
 521:Src/analog.c  ****     case ANALOG_POLY_OSC_SAW_DUO:
 522:Src/analog.c  ****     case ANALOG_POLY_OSC_PULSE_DUO:
 523:Src/analog.c  ****     case ANALOG_POLY_OSC_TRI_DUO:
 524:Src/analog.c  ****     case ANALOG_POLY_OSC_SINE_DUO:
 525:Src/analog.c  ****       if(message->midichannel == ana->settings.midichannel || ana->settings.midichannel == 255) {
 526:Src/analog.c  ****         if(ana->id == 0) {
 527:Src/analog.c  ****           Poly_NoteOn(message->byte2, message->byte3, &poly[0]);
 528:Src/analog.c  ****         } else if(ana->id == 2) {
 529:Src/analog.c  ****           Poly_NoteOn(message->byte2, message->byte3, &poly[1]); 
 530:Src/analog.c  ****         }
 531:Src/analog.c  ****       }
 532:Src/analog.c  ****       break;
 533:Src/analog.c  **** 
 534:Src/analog.c  ****     case ANALOG_POLY_QUAD:
 535:Src/analog.c  ****     case ANALOG_POLY_OSC_SAW_QUAD:
ARM GAS  /var/folders/80/65lm4rm97rv_n74c85vt01040000gn/T//ccuR6fPR.s 			page 52


 536:Src/analog.c  ****     case ANALOG_POLY_OSC_PULSE_QUAD:
 537:Src/analog.c  ****     case ANALOG_POLY_OSC_TRI_QUAD:
 538:Src/analog.c  ****     case ANALOG_POLY_OSC_SINE_QUAD:
 539:Src/analog.c  ****       if(message->midichannel == ana->settings.midichannel || ana->settings.midichannel == 255) {
 540:Src/analog.c  ****         if(ana->id == 0) {
 541:Src/analog.c  ****           Poly_NoteOn(message->byte2, message->byte3, &poly[0]);
 542:Src/analog.c  ****         }
 543:Src/analog.c  ****       }
 544:Src/analog.c  ****       break;
 545:Src/analog.c  **** 
 546:Src/analog.c  ****     case ANALOG_VELOCITY_GATE:
 547:Src/analog.c  ****       if(message->midichannel == ana->settings.midichannel || ana->settings.midichannel == 255) {
 548:Src/analog.c  ****         if(ana->settings.byte2 == message->byte2 || ana->settings.byte2 == 255) {
 549:Src/analog.c  ****           DAC_InsertValue((5*message->byte3)/127.0f,ana->id);
 550:Src/analog.c  ****         }
 551:Src/analog.c  ****       }
 552:Src/analog.c  ****       break;
 553:Src/analog.c  **** 
 554:Src/analog.c  ****     case ANALOG_VELOCITY_TRIGGER:
 555:Src/analog.c  ****       if(message->midichannel == ana->settings.midichannel || ana->settings.midichannel == 255) {
 556:Src/analog.c  ****         if(ana->settings.byte2 == message->byte2 || ana->settings.byte2 == 255) {
 557:Src/analog.c  ****           DAC_InsertValue((5*message->byte3)/127.0f,ana->id);
 558:Src/analog.c  ****           ana->trigger = (kSAMPLE_RATE/1000);
 559:Src/analog.c  ****         }
 560:Src/analog.c  ****       }
 561:Src/analog.c  ****       break;
 562:Src/analog.c  **** 
 563:Src/analog.c  ****     case ANALOG_DIGITAL_GATE:
 564:Src/analog.c  ****       if(message->midichannel == ana->settings.midichannel || ana->settings.midichannel == 255) {
 565:Src/analog.c  ****         if(ana->settings.byte2 == message->byte2 || ana->settings.byte2 == 255) {
 566:Src/analog.c  ****           Analog_DigitalValuePedal(true,false,ana);
 567:Src/analog.c  ****         }
 568:Src/analog.c  ****       }
 569:Src/analog.c  ****       break;
 570:Src/analog.c  **** 
 571:Src/analog.c  ****     case ANALOG_DIGITAL_TRIGGER:
 572:Src/analog.c  ****       if(message->midichannel == ana->settings.midichannel || ana->settings.midichannel == 255) {
 573:Src/analog.c  ****         if(ana->settings.byte2 == message->byte2 || ana->settings.byte2 == 255) {
 574:Src/analog.c  ****           Analog_DigitalValue(true,true,ana);
 575:Src/analog.c  ****         }
 576:Src/analog.c  ****       }
 577:Src/analog.c  ****       break;
 578:Src/analog.c  ****       
 579:Src/analog.c  ****     default:
 580:Src/analog.c  ****       break;
 581:Src/analog.c  ****   }
 582:Src/analog.c  **** }
 2084              		.loc 1 582 1 view .LVU571
 2085 0070 70BD     		pop	{r4, r5, r6, pc}
 2086              	.LVL142:
 2087              	.L214:
 2088              	.LBB13:
 453:Src/analog.c  ****         NoteStack_NoteOn(message->byte2,message->byte3,&ana->stack);
 2089              		.loc 1 453 9 is_stmt 1 view .LVU572
 2090 0072 04F12606 		add	r6, r4, #38
 2091 0076 3246     		mov	r2, r6
 2092 0078 6979     		ldrb	r1, [r5, #5]	@ zero_extendqisi2
ARM GAS  /var/folders/80/65lm4rm97rv_n74c85vt01040000gn/T//ccuR6fPR.s 			page 53


 2093              	.LVL143:
 453:Src/analog.c  ****         NoteStack_NoteOn(message->byte2,message->byte3,&ana->stack);
 2094              		.loc 1 453 9 is_stmt 0 view .LVU573
 2095 007a 2879     		ldrb	r0, [r5, #4]	@ zero_extendqisi2
 2096              	.LVL144:
 453:Src/analog.c  ****         NoteStack_NoteOn(message->byte2,message->byte3,&ana->stack);
 2097              		.loc 1 453 9 view .LVU574
 2098 007c FFF7FEFF 		bl	NoteStack_NoteOn
 2099              	.LVL145:
 454:Src/analog.c  ****         if(tempnote != 0xFF) {
 2100              		.loc 1 454 9 is_stmt 1 view .LVU575
 454:Src/analog.c  ****         if(tempnote != 0xFF) {
 2101              		.loc 1 454 28 is_stmt 0 view .LVU576
 2102 0080 3046     		mov	r0, r6
 2103 0082 FFF7FEFF 		bl	NoteStack_RecentNote
 2104              	.LVL146:
 455:Src/analog.c  ****           ana->oscnote = tempnote;
 2105              		.loc 1 455 9 is_stmt 1 view .LVU577
 455:Src/analog.c  ****           ana->oscnote = tempnote;
 2106              		.loc 1 455 11 is_stmt 0 view .LVU578
 2107 0086 FF28     		cmp	r0, #255
 2108 0088 08D0     		beq	.L215
 456:Src/analog.c  ****           Analog_CalculateFrequency(ana);
 2109              		.loc 1 456 11 is_stmt 1 view .LVU579
 456:Src/analog.c  ****           Analog_CalculateFrequency(ana);
 2110              		.loc 1 456 24 is_stmt 0 view .LVU580
 2111 008a A071     		strb	r0, [r4, #6]
 457:Src/analog.c  ****           Analog_DigitalVoice(true,ana);
 2112              		.loc 1 457 11 is_stmt 1 view .LVU581
 2113 008c 2046     		mov	r0, r4
 2114              	.LVL147:
 457:Src/analog.c  ****           Analog_DigitalVoice(true,ana);
 2115              		.loc 1 457 11 is_stmt 0 view .LVU582
 2116 008e FFF7FEFF 		bl	Analog_CalculateFrequency
 2117              	.LVL148:
 458:Src/analog.c  ****         } else {
 2118              		.loc 1 458 11 is_stmt 1 view .LVU583
 2119 0092 2146     		mov	r1, r4
 2120 0094 0120     		movs	r0, #1
 2121 0096 FFF7FEFF 		bl	Analog_DigitalVoice
 2122              	.LVL149:
 2123 009a E9E7     		b	.L199
 2124              	.LVL150:
 2125              	.L215:
 460:Src/analog.c  ****         }
 2126              		.loc 1 460 11 view .LVU584
 2127 009c 2146     		mov	r1, r4
 2128 009e 0020     		movs	r0, #0
 2129              	.LVL151:
 460:Src/analog.c  ****         }
 2130              		.loc 1 460 11 is_stmt 0 view .LVU585
 2131 00a0 FFF7FEFF 		bl	Analog_DigitalVoice
 2132              	.LVL152:
 2133 00a4 E4E7     		b	.L199
 2134              	.LVL153:
 2135              	.L203:
 460:Src/analog.c  ****         }
ARM GAS  /var/folders/80/65lm4rm97rv_n74c85vt01040000gn/T//ccuR6fPR.s 			page 54


 2136              		.loc 1 460 11 view .LVU586
 2137              	.LBE13:
 471:Src/analog.c  ****         NoteStack_NoteOn(message->byte2,message->byte3,&ana->stack);
 2138              		.loc 1 471 7 is_stmt 1 view .LVU587
 471:Src/analog.c  ****         NoteStack_NoteOn(message->byte2,message->byte3,&ana->stack);
 2139              		.loc 1 471 17 is_stmt 0 view .LVU588
 2140 00a6 C278     		ldrb	r2, [r0, #3]	@ zero_extendqisi2
 471:Src/analog.c  ****         NoteStack_NoteOn(message->byte2,message->byte3,&ana->stack);
 2141              		.loc 1 471 47 view .LVU589
 2142 00a8 0B78     		ldrb	r3, [r1]	@ zero_extendqisi2
 471:Src/analog.c  ****         NoteStack_NoteOn(message->byte2,message->byte3,&ana->stack);
 2143              		.loc 1 471 9 view .LVU590
 2144 00aa 9A42     		cmp	r2, r3
 2145 00ac 01D0     		beq	.L216
 471:Src/analog.c  ****         NoteStack_NoteOn(message->byte2,message->byte3,&ana->stack);
 2146              		.loc 1 471 60 discriminator 1 view .LVU591
 2147 00ae FF2B     		cmp	r3, #255
 2148 00b0 DED1     		bne	.L199
 2149              	.L216:
 2150              	.LBB14:
 472:Src/analog.c  ****         uint8_t tempnote = NoteStack_RecentNote(&ana->stack);
 2151              		.loc 1 472 9 is_stmt 1 view .LVU592
 2152 00b2 04F12606 		add	r6, r4, #38
 2153 00b6 3246     		mov	r2, r6
 2154 00b8 6979     		ldrb	r1, [r5, #5]	@ zero_extendqisi2
 2155              	.LVL154:
 472:Src/analog.c  ****         uint8_t tempnote = NoteStack_RecentNote(&ana->stack);
 2156              		.loc 1 472 9 is_stmt 0 view .LVU593
 2157 00ba 2879     		ldrb	r0, [r5, #4]	@ zero_extendqisi2
 2158              	.LVL155:
 472:Src/analog.c  ****         uint8_t tempnote = NoteStack_RecentNote(&ana->stack);
 2159              		.loc 1 472 9 view .LVU594
 2160 00bc FFF7FEFF 		bl	NoteStack_NoteOn
 2161              	.LVL156:
 473:Src/analog.c  ****         ana->oscnote = tempnote;
 2162              		.loc 1 473 9 is_stmt 1 view .LVU595
 473:Src/analog.c  ****         ana->oscnote = tempnote;
 2163              		.loc 1 473 28 is_stmt 0 view .LVU596
 2164 00c0 3046     		mov	r0, r6
 2165 00c2 FFF7FEFF 		bl	NoteStack_RecentNote
 2166              	.LVL157:
 474:Src/analog.c  ****       }
 2167              		.loc 1 474 9 is_stmt 1 view .LVU597
 474:Src/analog.c  ****       }
 2168              		.loc 1 474 22 is_stmt 0 view .LVU598
 2169 00c6 A071     		strb	r0, [r4, #6]
 2170 00c8 D2E7     		b	.L199
 2171              	.LVL158:
 2172              	.L201:
 474:Src/analog.c  ****       }
 2173              		.loc 1 474 22 view .LVU599
 2174              	.LBE14:
 481:Src/analog.c  ****         NoteStack_NoteOn(message->byte2,message->byte3,&ana->stack);
 2175              		.loc 1 481 7 is_stmt 1 view .LVU600
 481:Src/analog.c  ****         NoteStack_NoteOn(message->byte2,message->byte3,&ana->stack);
 2176              		.loc 1 481 17 is_stmt 0 view .LVU601
 2177 00ca C278     		ldrb	r2, [r0, #3]	@ zero_extendqisi2
ARM GAS  /var/folders/80/65lm4rm97rv_n74c85vt01040000gn/T//ccuR6fPR.s 			page 55


 481:Src/analog.c  ****         NoteStack_NoteOn(message->byte2,message->byte3,&ana->stack);
 2178              		.loc 1 481 47 view .LVU602
 2179 00cc 0B78     		ldrb	r3, [r1]	@ zero_extendqisi2
 481:Src/analog.c  ****         NoteStack_NoteOn(message->byte2,message->byte3,&ana->stack);
 2180              		.loc 1 481 9 view .LVU603
 2181 00ce 9A42     		cmp	r2, r3
 2182 00d0 01D0     		beq	.L217
 481:Src/analog.c  ****         NoteStack_NoteOn(message->byte2,message->byte3,&ana->stack);
 2183              		.loc 1 481 60 discriminator 1 view .LVU604
 2184 00d2 FF2B     		cmp	r3, #255
 2185 00d4 CCD1     		bne	.L199
 2186              	.L217:
 2187              	.LBB15:
 482:Src/analog.c  ****         uint8_t tempnote = NoteStack_RecentNote(&ana->stack);
 2188              		.loc 1 482 9 is_stmt 1 view .LVU605
 2189 00d6 04F12606 		add	r6, r4, #38
 2190 00da 3246     		mov	r2, r6
 2191 00dc 6979     		ldrb	r1, [r5, #5]	@ zero_extendqisi2
 2192              	.LVL159:
 482:Src/analog.c  ****         uint8_t tempnote = NoteStack_RecentNote(&ana->stack);
 2193              		.loc 1 482 9 is_stmt 0 view .LVU606
 2194 00de 2879     		ldrb	r0, [r5, #4]	@ zero_extendqisi2
 2195              	.LVL160:
 482:Src/analog.c  ****         uint8_t tempnote = NoteStack_RecentNote(&ana->stack);
 2196              		.loc 1 482 9 view .LVU607
 2197 00e0 FFF7FEFF 		bl	NoteStack_NoteOn
 2198              	.LVL161:
 483:Src/analog.c  ****         ana->oscnote = tempnote;
 2199              		.loc 1 483 9 is_stmt 1 view .LVU608
 483:Src/analog.c  ****         ana->oscnote = tempnote;
 2200              		.loc 1 483 28 is_stmt 0 view .LVU609
 2201 00e4 3046     		mov	r0, r6
 2202 00e6 FFF7FEFF 		bl	NoteStack_RecentNote
 2203              	.LVL162:
 484:Src/analog.c  ****         ana->envelopeout = 5;
 2204              		.loc 1 484 9 is_stmt 1 view .LVU610
 484:Src/analog.c  ****         ana->envelopeout = 5;
 2205              		.loc 1 484 22 is_stmt 0 view .LVU611
 2206 00ea A071     		strb	r0, [r4, #6]
 485:Src/analog.c  ****         ana->envelopesize = message->byte3;
 2207              		.loc 1 485 9 is_stmt 1 view .LVU612
 485:Src/analog.c  ****         ana->envelopesize = message->byte3;
 2208              		.loc 1 485 26 is_stmt 0 view .LVU613
 2209 00ec 794B     		ldr	r3, .L236
 2210 00ee 2362     		str	r3, [r4, #32]	@ float
 486:Src/analog.c  ****       }
 2211              		.loc 1 486 9 is_stmt 1 view .LVU614
 486:Src/analog.c  ****       }
 2212              		.loc 1 486 36 is_stmt 0 view .LVU615
 2213 00f0 6B79     		ldrb	r3, [r5, #5]	@ zero_extendqisi2
 486:Src/analog.c  ****       }
 2214              		.loc 1 486 27 view .LVU616
 2215 00f2 84F82430 		strb	r3, [r4, #36]
 2216 00f6 BBE7     		b	.L199
 2217              	.LVL163:
 2218              	.L213:
 486:Src/analog.c  ****       }
ARM GAS  /var/folders/80/65lm4rm97rv_n74c85vt01040000gn/T//ccuR6fPR.s 			page 56


 2219              		.loc 1 486 27 view .LVU617
 2220              	.LBE15:
 491:Src/analog.c  ****         NoteStack_NoteOn(message->byte2,message->byte3,&ana->stack);
 2221              		.loc 1 491 7 is_stmt 1 view .LVU618
 491:Src/analog.c  ****         NoteStack_NoteOn(message->byte2,message->byte3,&ana->stack);
 2222              		.loc 1 491 17 is_stmt 0 view .LVU619
 2223 00f8 C278     		ldrb	r2, [r0, #3]	@ zero_extendqisi2
 491:Src/analog.c  ****         NoteStack_NoteOn(message->byte2,message->byte3,&ana->stack);
 2224              		.loc 1 491 47 view .LVU620
 2225 00fa 0B78     		ldrb	r3, [r1]	@ zero_extendqisi2
 491:Src/analog.c  ****         NoteStack_NoteOn(message->byte2,message->byte3,&ana->stack);
 2226              		.loc 1 491 9 view .LVU621
 2227 00fc 9A42     		cmp	r2, r3
 2228 00fe 01D0     		beq	.L218
 491:Src/analog.c  ****         NoteStack_NoteOn(message->byte2,message->byte3,&ana->stack);
 2229              		.loc 1 491 60 discriminator 1 view .LVU622
 2230 0100 FF2B     		cmp	r3, #255
 2231 0102 B5D1     		bne	.L199
 2232              	.L218:
 2233              	.LBB16:
 492:Src/analog.c  ****         uint8_t note = NoteStack_RecentNote(&ana->stack);
 2234              		.loc 1 492 9 is_stmt 1 view .LVU623
 2235 0104 04F12606 		add	r6, r4, #38
 2236 0108 3246     		mov	r2, r6
 2237 010a 6979     		ldrb	r1, [r5, #5]	@ zero_extendqisi2
 2238              	.LVL164:
 492:Src/analog.c  ****         uint8_t note = NoteStack_RecentNote(&ana->stack);
 2239              		.loc 1 492 9 is_stmt 0 view .LVU624
 2240 010c 2879     		ldrb	r0, [r5, #4]	@ zero_extendqisi2
 2241              	.LVL165:
 492:Src/analog.c  ****         uint8_t note = NoteStack_RecentNote(&ana->stack);
 2242              		.loc 1 492 9 view .LVU625
 2243 010e FFF7FEFF 		bl	NoteStack_NoteOn
 2244              	.LVL166:
 493:Src/analog.c  ****         bool state = true;
 2245              		.loc 1 493 9 is_stmt 1 view .LVU626
 493:Src/analog.c  ****         bool state = true;
 2246              		.loc 1 493 24 is_stmt 0 view .LVU627
 2247 0112 3046     		mov	r0, r6
 2248 0114 FFF7FEFF 		bl	NoteStack_RecentNote
 2249              	.LVL167:
 494:Src/analog.c  ****         if(note == 0xFF) {
 2250              		.loc 1 494 9 is_stmt 1 view .LVU628
 495:Src/analog.c  ****           state = false;
 2251              		.loc 1 495 9 view .LVU629
 495:Src/analog.c  ****           state = false;
 2252              		.loc 1 495 11 is_stmt 0 view .LVU630
 2253 0118 FF28     		cmp	r0, #255
 2254 011a 04D0     		beq	.L233
 494:Src/analog.c  ****         if(note == 0xFF) {
 2255              		.loc 1 494 14 view .LVU631
 2256 011c 0121     		movs	r1, #1
 2257              	.L219:
 2258              	.LVL168:
 498:Src/analog.c  ****       }
 2259              		.loc 1 498 9 is_stmt 1 view .LVU632
 2260 011e 2246     		mov	r2, r4
ARM GAS  /var/folders/80/65lm4rm97rv_n74c85vt01040000gn/T//ccuR6fPR.s 			page 57


 2261 0120 FFF7FEFF 		bl	Analog_ChangeNote
 2262              	.LVL169:
 498:Src/analog.c  ****       }
 2263              		.loc 1 498 9 is_stmt 0 view .LVU633
 2264 0124 A4E7     		b	.L199
 2265              	.LVL170:
 2266              	.L233:
 496:Src/analog.c  ****         }
 2267              		.loc 1 496 17 view .LVU634
 2268 0126 0021     		movs	r1, #0
 2269 0128 F9E7     		b	.L219
 2270              	.LVL171:
 2271              	.L212:
 496:Src/analog.c  ****         }
 2272              		.loc 1 496 17 view .LVU635
 2273              	.LBE16:
 504:Src/analog.c  ****         NoteStack_NoteOn(message->byte2, message->byte3, &ana->stack);
 2274              		.loc 1 504 7 is_stmt 1 view .LVU636
 504:Src/analog.c  ****         NoteStack_NoteOn(message->byte2, message->byte3, &ana->stack);
 2275              		.loc 1 504 17 is_stmt 0 view .LVU637
 2276 012a C278     		ldrb	r2, [r0, #3]	@ zero_extendqisi2
 504:Src/analog.c  ****         NoteStack_NoteOn(message->byte2, message->byte3, &ana->stack);
 2277              		.loc 1 504 47 view .LVU638
 2278 012c 0B78     		ldrb	r3, [r1]	@ zero_extendqisi2
 504:Src/analog.c  ****         NoteStack_NoteOn(message->byte2, message->byte3, &ana->stack);
 2279              		.loc 1 504 9 view .LVU639
 2280 012e 9A42     		cmp	r2, r3
 2281 0130 01D0     		beq	.L220
 504:Src/analog.c  ****         NoteStack_NoteOn(message->byte2, message->byte3, &ana->stack);
 2282              		.loc 1 504 60 discriminator 1 view .LVU640
 2283 0132 FF2B     		cmp	r3, #255
 2284 0134 9CD1     		bne	.L199
 2285              	.L220:
 2286              	.LBB17:
 505:Src/analog.c  ****         uint8_t vel = NoteStack_RecentVelocity(&ana->stack);
 2287              		.loc 1 505 9 is_stmt 1 view .LVU641
 2288 0136 04F12606 		add	r6, r4, #38
 2289 013a 3246     		mov	r2, r6
 2290 013c 6979     		ldrb	r1, [r5, #5]	@ zero_extendqisi2
 2291              	.LVL172:
 505:Src/analog.c  ****         uint8_t vel = NoteStack_RecentVelocity(&ana->stack);
 2292              		.loc 1 505 9 is_stmt 0 view .LVU642
 2293 013e 2879     		ldrb	r0, [r5, #4]	@ zero_extendqisi2
 2294              	.LVL173:
 505:Src/analog.c  ****         uint8_t vel = NoteStack_RecentVelocity(&ana->stack);
 2295              		.loc 1 505 9 view .LVU643
 2296 0140 FFF7FEFF 		bl	NoteStack_NoteOn
 2297              	.LVL174:
 506:Src/analog.c  ****         DAC_InsertValue((5*vel)/127.0f,ana->id);
 2298              		.loc 1 506 9 is_stmt 1 view .LVU644
 506:Src/analog.c  ****         DAC_InsertValue((5*vel)/127.0f,ana->id);
 2299              		.loc 1 506 23 is_stmt 0 view .LVU645
 2300 0144 3046     		mov	r0, r6
 2301 0146 FFF7FEFF 		bl	NoteStack_RecentVelocity
 2302              	.LVL175:
 507:Src/analog.c  ****       }
 2303              		.loc 1 507 9 is_stmt 1 view .LVU646
ARM GAS  /var/folders/80/65lm4rm97rv_n74c85vt01040000gn/T//ccuR6fPR.s 			page 58


 507:Src/analog.c  ****       }
 2304              		.loc 1 507 27 is_stmt 0 view .LVU647
 2305 014a 00EB8000 		add	r0, r0, r0, lsl #2
 2306              	.LVL176:
 507:Src/analog.c  ****       }
 2307              		.loc 1 507 9 view .LVU648
 2308 014e 07EE900A 		vmov	s15, r0	@ int
 2309 0152 F8EEE77A 		vcvt.f32.s32	s15, s15
 2310 0156 94F88500 		ldrb	r0, [r4, #133]	@ zero_extendqisi2
 2311 015a 9FED5F0A 		vldr.32	s0, .L236+4
 2312 015e 87EE800A 		vdiv.f32	s0, s15, s0
 2313 0162 FFF7FEFF 		bl	DAC_InsertValue
 2314              	.LVL177:
 2315 0166 83E7     		b	.L199
 2316              	.LVL178:
 2317              	.L211:
 507:Src/analog.c  ****       }
 2318              		.loc 1 507 9 view .LVU649
 2319              	.LBE17:
 513:Src/analog.c  ****         NoteStack_NoteOn(message->byte2, message->byte3, &ana->stack);
 2320              		.loc 1 513 7 is_stmt 1 view .LVU650
 513:Src/analog.c  ****         NoteStack_NoteOn(message->byte2, message->byte3, &ana->stack);
 2321              		.loc 1 513 17 is_stmt 0 view .LVU651
 2322 0168 C278     		ldrb	r2, [r0, #3]	@ zero_extendqisi2
 513:Src/analog.c  ****         NoteStack_NoteOn(message->byte2, message->byte3, &ana->stack);
 2323              		.loc 1 513 47 view .LVU652
 2324 016a 0B78     		ldrb	r3, [r1]	@ zero_extendqisi2
 513:Src/analog.c  ****         NoteStack_NoteOn(message->byte2, message->byte3, &ana->stack);
 2325              		.loc 1 513 9 view .LVU653
 2326 016c 9A42     		cmp	r2, r3
 2327 016e 02D0     		beq	.L221
 513:Src/analog.c  ****         NoteStack_NoteOn(message->byte2, message->byte3, &ana->stack);
 2328              		.loc 1 513 60 discriminator 1 view .LVU654
 2329 0170 FF2B     		cmp	r3, #255
 2330 0172 7FF47DAF 		bne	.L199
 2331              	.L221:
 2332              	.LBB18:
 514:Src/analog.c  ****         uint8_t vel = NoteStack_RecentVelocity(&ana->stack);
 2333              		.loc 1 514 9 is_stmt 1 view .LVU655
 2334 0176 04F12606 		add	r6, r4, #38
 2335 017a 3246     		mov	r2, r6
 2336 017c 6979     		ldrb	r1, [r5, #5]	@ zero_extendqisi2
 2337              	.LVL179:
 514:Src/analog.c  ****         uint8_t vel = NoteStack_RecentVelocity(&ana->stack);
 2338              		.loc 1 514 9 is_stmt 0 view .LVU656
 2339 017e 2879     		ldrb	r0, [r5, #4]	@ zero_extendqisi2
 2340              	.LVL180:
 514:Src/analog.c  ****         uint8_t vel = NoteStack_RecentVelocity(&ana->stack);
 2341              		.loc 1 514 9 view .LVU657
 2342 0180 FFF7FEFF 		bl	NoteStack_NoteOn
 2343              	.LVL181:
 515:Src/analog.c  ****         DAC_InsertValue((10*vel)/127.0f - 5.0f,ana->id);
 2344              		.loc 1 515 9 is_stmt 1 view .LVU658
 515:Src/analog.c  ****         DAC_InsertValue((10*vel)/127.0f - 5.0f,ana->id);
 2345              		.loc 1 515 23 is_stmt 0 view .LVU659
 2346 0184 3046     		mov	r0, r6
 2347 0186 FFF7FEFF 		bl	NoteStack_RecentVelocity
ARM GAS  /var/folders/80/65lm4rm97rv_n74c85vt01040000gn/T//ccuR6fPR.s 			page 59


 2348              	.LVL182:
 516:Src/analog.c  ****       }
 2349              		.loc 1 516 9 is_stmt 1 view .LVU660
 516:Src/analog.c  ****       }
 2350              		.loc 1 516 28 is_stmt 0 view .LVU661
 2351 018a 00EB8000 		add	r0, r0, r0, lsl #2
 2352              	.LVL183:
 516:Src/analog.c  ****       }
 2353              		.loc 1 516 28 view .LVU662
 2354 018e 4000     		lsls	r0, r0, #1
 516:Src/analog.c  ****       }
 2355              		.loc 1 516 33 view .LVU663
 2356 0190 07EE900A 		vmov	s15, r0	@ int
 2357 0194 F8EEE77A 		vcvt.f32.s32	s15, s15
 2358 0198 9FED4F7A 		vldr.32	s14, .L236+4
 2359 019c 87EE870A 		vdiv.f32	s0, s15, s14
 516:Src/analog.c  ****       }
 2360              		.loc 1 516 9 view .LVU664
 2361 01a0 94F88500 		ldrb	r0, [r4, #133]	@ zero_extendqisi2
 2362 01a4 F1EE047A 		vmov.f32	s15, #5.0e+0
 2363 01a8 30EE670A 		vsub.f32	s0, s0, s15
 2364 01ac FFF7FEFF 		bl	DAC_InsertValue
 2365              	.LVL184:
 2366 01b0 5EE7     		b	.L199
 2367              	.LVL185:
 2368              	.L209:
 516:Src/analog.c  ****       }
 2369              		.loc 1 516 9 view .LVU665
 2370              	.LBE18:
 525:Src/analog.c  ****         if(ana->id == 0) {
 2371              		.loc 1 525 7 is_stmt 1 view .LVU666
 525:Src/analog.c  ****         if(ana->id == 0) {
 2372              		.loc 1 525 17 is_stmt 0 view .LVU667
 2373 01b2 C278     		ldrb	r2, [r0, #3]	@ zero_extendqisi2
 525:Src/analog.c  ****         if(ana->id == 0) {
 2374              		.loc 1 525 47 view .LVU668
 2375 01b4 0B78     		ldrb	r3, [r1]	@ zero_extendqisi2
 525:Src/analog.c  ****         if(ana->id == 0) {
 2376              		.loc 1 525 9 view .LVU669
 2377 01b6 9A42     		cmp	r2, r3
 2378 01b8 02D0     		beq	.L222
 525:Src/analog.c  ****         if(ana->id == 0) {
 2379              		.loc 1 525 60 discriminator 1 view .LVU670
 2380 01ba FF2B     		cmp	r3, #255
 2381 01bc 7FF458AF 		bne	.L199
 2382              	.L222:
 526:Src/analog.c  ****           Poly_NoteOn(message->byte2, message->byte3, &poly[0]);
 2383              		.loc 1 526 9 is_stmt 1 view .LVU671
 526:Src/analog.c  ****           Poly_NoteOn(message->byte2, message->byte3, &poly[0]);
 2384              		.loc 1 526 15 is_stmt 0 view .LVU672
 2385 01c0 94F88530 		ldrb	r3, [r4, #133]	@ zero_extendqisi2
 526:Src/analog.c  ****           Poly_NoteOn(message->byte2, message->byte3, &poly[0]);
 2386              		.loc 1 526 11 view .LVU673
 2387 01c4 43B1     		cbz	r3, .L235
 528:Src/analog.c  ****           Poly_NoteOn(message->byte2, message->byte3, &poly[1]); 
 2388              		.loc 1 528 16 is_stmt 1 view .LVU674
 528:Src/analog.c  ****           Poly_NoteOn(message->byte2, message->byte3, &poly[1]); 
ARM GAS  /var/folders/80/65lm4rm97rv_n74c85vt01040000gn/T//ccuR6fPR.s 			page 60


 2389              		.loc 1 528 18 is_stmt 0 view .LVU675
 2390 01c6 022B     		cmp	r3, #2
 2391 01c8 7FF452AF 		bne	.L199
 529:Src/analog.c  ****         }
 2392              		.loc 1 529 11 is_stmt 1 view .LVU676
 2393 01cc 434A     		ldr	r2, .L236+8
 2394 01ce 6979     		ldrb	r1, [r5, #5]	@ zero_extendqisi2
 2395              	.LVL186:
 529:Src/analog.c  ****         }
 2396              		.loc 1 529 11 is_stmt 0 view .LVU677
 2397 01d0 2879     		ldrb	r0, [r5, #4]	@ zero_extendqisi2
 2398              	.LVL187:
 529:Src/analog.c  ****         }
 2399              		.loc 1 529 11 view .LVU678
 2400 01d2 FFF7FEFF 		bl	Poly_NoteOn
 2401              	.LVL188:
 2402 01d6 4BE7     		b	.L199
 2403              	.LVL189:
 2404              	.L235:
 527:Src/analog.c  ****         } else if(ana->id == 2) {
 2405              		.loc 1 527 11 is_stmt 1 view .LVU679
 2406 01d8 414A     		ldr	r2, .L236+12
 2407 01da 6979     		ldrb	r1, [r5, #5]	@ zero_extendqisi2
 2408              	.LVL190:
 527:Src/analog.c  ****         } else if(ana->id == 2) {
 2409              		.loc 1 527 11 is_stmt 0 view .LVU680
 2410 01dc 2879     		ldrb	r0, [r5, #4]	@ zero_extendqisi2
 2411              	.LVL191:
 527:Src/analog.c  ****         } else if(ana->id == 2) {
 2412              		.loc 1 527 11 view .LVU681
 2413 01de FFF7FEFF 		bl	Poly_NoteOn
 2414              	.LVL192:
 2415 01e2 45E7     		b	.L199
 2416              	.LVL193:
 2417              	.L208:
 539:Src/analog.c  ****         if(ana->id == 0) {
 2418              		.loc 1 539 7 is_stmt 1 view .LVU682
 539:Src/analog.c  ****         if(ana->id == 0) {
 2419              		.loc 1 539 17 is_stmt 0 view .LVU683
 2420 01e4 C278     		ldrb	r2, [r0, #3]	@ zero_extendqisi2
 539:Src/analog.c  ****         if(ana->id == 0) {
 2421              		.loc 1 539 47 view .LVU684
 2422 01e6 0B78     		ldrb	r3, [r1]	@ zero_extendqisi2
 539:Src/analog.c  ****         if(ana->id == 0) {
 2423              		.loc 1 539 9 view .LVU685
 2424 01e8 9A42     		cmp	r2, r3
 2425 01ea 02D0     		beq	.L224
 539:Src/analog.c  ****         if(ana->id == 0) {
 2426              		.loc 1 539 60 discriminator 1 view .LVU686
 2427 01ec FF2B     		cmp	r3, #255
 2428 01ee 7FF43FAF 		bne	.L199
 2429              	.L224:
 540:Src/analog.c  ****           Poly_NoteOn(message->byte2, message->byte3, &poly[0]);
 2430              		.loc 1 540 9 is_stmt 1 view .LVU687
 540:Src/analog.c  ****           Poly_NoteOn(message->byte2, message->byte3, &poly[0]);
 2431              		.loc 1 540 15 is_stmt 0 view .LVU688
 2432 01f2 94F88530 		ldrb	r3, [r4, #133]	@ zero_extendqisi2
ARM GAS  /var/folders/80/65lm4rm97rv_n74c85vt01040000gn/T//ccuR6fPR.s 			page 61


 540:Src/analog.c  ****           Poly_NoteOn(message->byte2, message->byte3, &poly[0]);
 2433              		.loc 1 540 11 view .LVU689
 2434 01f6 002B     		cmp	r3, #0
 2435 01f8 7FF43AAF 		bne	.L199
 541:Src/analog.c  ****         }
 2436              		.loc 1 541 11 is_stmt 1 view .LVU690
 2437 01fc 384A     		ldr	r2, .L236+12
 2438 01fe 6979     		ldrb	r1, [r5, #5]	@ zero_extendqisi2
 2439              	.LVL194:
 541:Src/analog.c  ****         }
 2440              		.loc 1 541 11 is_stmt 0 view .LVU691
 2441 0200 2879     		ldrb	r0, [r5, #4]	@ zero_extendqisi2
 2442              	.LVL195:
 541:Src/analog.c  ****         }
 2443              		.loc 1 541 11 view .LVU692
 2444 0202 FFF7FEFF 		bl	Poly_NoteOn
 2445              	.LVL196:
 2446 0206 33E7     		b	.L199
 2447              	.LVL197:
 2448              	.L205:
 547:Src/analog.c  ****         if(ana->settings.byte2 == message->byte2 || ana->settings.byte2 == 255) {
 2449              		.loc 1 547 7 is_stmt 1 view .LVU693
 547:Src/analog.c  ****         if(ana->settings.byte2 == message->byte2 || ana->settings.byte2 == 255) {
 2450              		.loc 1 547 17 is_stmt 0 view .LVU694
 2451 0208 C278     		ldrb	r2, [r0, #3]	@ zero_extendqisi2
 547:Src/analog.c  ****         if(ana->settings.byte2 == message->byte2 || ana->settings.byte2 == 255) {
 2452              		.loc 1 547 47 view .LVU695
 2453 020a 0B78     		ldrb	r3, [r1]	@ zero_extendqisi2
 547:Src/analog.c  ****         if(ana->settings.byte2 == message->byte2 || ana->settings.byte2 == 255) {
 2454              		.loc 1 547 9 view .LVU696
 2455 020c 9A42     		cmp	r2, r3
 2456 020e 02D0     		beq	.L225
 547:Src/analog.c  ****         if(ana->settings.byte2 == message->byte2 || ana->settings.byte2 == 255) {
 2457              		.loc 1 547 60 discriminator 1 view .LVU697
 2458 0210 FF2B     		cmp	r3, #255
 2459 0212 7FF42DAF 		bne	.L199
 2460              	.L225:
 548:Src/analog.c  ****           DAC_InsertValue((5*message->byte3)/127.0f,ana->id);
 2461              		.loc 1 548 9 is_stmt 1 view .LVU698
 548:Src/analog.c  ****           DAC_InsertValue((5*message->byte3)/127.0f,ana->id);
 2462              		.loc 1 548 25 is_stmt 0 view .LVU699
 2463 0216 6378     		ldrb	r3, [r4, #1]	@ zero_extendqisi2
 548:Src/analog.c  ****           DAC_InsertValue((5*message->byte3)/127.0f,ana->id);
 2464              		.loc 1 548 42 view .LVU700
 2465 0218 2A79     		ldrb	r2, [r5, #4]	@ zero_extendqisi2
 548:Src/analog.c  ****           DAC_InsertValue((5*message->byte3)/127.0f,ana->id);
 2466              		.loc 1 548 11 view .LVU701
 2467 021a 9342     		cmp	r3, r2
 2468 021c 02D0     		beq	.L226
 548:Src/analog.c  ****           DAC_InsertValue((5*message->byte3)/127.0f,ana->id);
 2469              		.loc 1 548 50 discriminator 1 view .LVU702
 2470 021e FF2B     		cmp	r3, #255
 2471 0220 7FF426AF 		bne	.L199
 2472              	.L226:
 549:Src/analog.c  ****         }
 2473              		.loc 1 549 11 is_stmt 1 view .LVU703
 549:Src/analog.c  ****         }
ARM GAS  /var/folders/80/65lm4rm97rv_n74c85vt01040000gn/T//ccuR6fPR.s 			page 62


 2474              		.loc 1 549 37 is_stmt 0 view .LVU704
 2475 0224 6B79     		ldrb	r3, [r5, #5]	@ zero_extendqisi2
 549:Src/analog.c  ****         }
 2476              		.loc 1 549 29 view .LVU705
 2477 0226 03EB8303 		add	r3, r3, r3, lsl #2
 549:Src/analog.c  ****         }
 2478              		.loc 1 549 11 view .LVU706
 2479 022a 07EE903A 		vmov	s15, r3	@ int
 2480 022e F8EEE77A 		vcvt.f32.s32	s15, s15
 2481 0232 94F88500 		ldrb	r0, [r4, #133]	@ zero_extendqisi2
 2482              	.LVL198:
 549:Src/analog.c  ****         }
 2483              		.loc 1 549 11 view .LVU707
 2484 0236 9FED280A 		vldr.32	s0, .L236+4
 2485 023a 87EE800A 		vdiv.f32	s0, s15, s0
 2486 023e FFF7FEFF 		bl	DAC_InsertValue
 2487              	.LVL199:
 549:Src/analog.c  ****         }
 2488              		.loc 1 549 11 view .LVU708
 2489 0242 15E7     		b	.L199
 2490              	.LVL200:
 2491              	.L204:
 555:Src/analog.c  ****         if(ana->settings.byte2 == message->byte2 || ana->settings.byte2 == 255) {
 2492              		.loc 1 555 7 is_stmt 1 view .LVU709
 555:Src/analog.c  ****         if(ana->settings.byte2 == message->byte2 || ana->settings.byte2 == 255) {
 2493              		.loc 1 555 17 is_stmt 0 view .LVU710
 2494 0244 C278     		ldrb	r2, [r0, #3]	@ zero_extendqisi2
 555:Src/analog.c  ****         if(ana->settings.byte2 == message->byte2 || ana->settings.byte2 == 255) {
 2495              		.loc 1 555 47 view .LVU711
 2496 0246 0B78     		ldrb	r3, [r1]	@ zero_extendqisi2
 555:Src/analog.c  ****         if(ana->settings.byte2 == message->byte2 || ana->settings.byte2 == 255) {
 2497              		.loc 1 555 9 view .LVU712
 2498 0248 9A42     		cmp	r2, r3
 2499 024a 02D0     		beq	.L227
 555:Src/analog.c  ****         if(ana->settings.byte2 == message->byte2 || ana->settings.byte2 == 255) {
 2500              		.loc 1 555 60 discriminator 1 view .LVU713
 2501 024c FF2B     		cmp	r3, #255
 2502 024e 7FF40FAF 		bne	.L199
 2503              	.L227:
 556:Src/analog.c  ****           DAC_InsertValue((5*message->byte3)/127.0f,ana->id);
 2504              		.loc 1 556 9 is_stmt 1 view .LVU714
 556:Src/analog.c  ****           DAC_InsertValue((5*message->byte3)/127.0f,ana->id);
 2505              		.loc 1 556 25 is_stmt 0 view .LVU715
 2506 0252 6378     		ldrb	r3, [r4, #1]	@ zero_extendqisi2
 556:Src/analog.c  ****           DAC_InsertValue((5*message->byte3)/127.0f,ana->id);
 2507              		.loc 1 556 42 view .LVU716
 2508 0254 2A79     		ldrb	r2, [r5, #4]	@ zero_extendqisi2
 556:Src/analog.c  ****           DAC_InsertValue((5*message->byte3)/127.0f,ana->id);
 2509              		.loc 1 556 11 view .LVU717
 2510 0256 9342     		cmp	r3, r2
 2511 0258 02D0     		beq	.L228
 556:Src/analog.c  ****           DAC_InsertValue((5*message->byte3)/127.0f,ana->id);
 2512              		.loc 1 556 50 discriminator 1 view .LVU718
 2513 025a FF2B     		cmp	r3, #255
 2514 025c 7FF408AF 		bne	.L199
 2515              	.L228:
 557:Src/analog.c  ****           ana->trigger = (kSAMPLE_RATE/1000);
ARM GAS  /var/folders/80/65lm4rm97rv_n74c85vt01040000gn/T//ccuR6fPR.s 			page 63


 2516              		.loc 1 557 11 is_stmt 1 view .LVU719
 557:Src/analog.c  ****           ana->trigger = (kSAMPLE_RATE/1000);
 2517              		.loc 1 557 37 is_stmt 0 view .LVU720
 2518 0260 6B79     		ldrb	r3, [r5, #5]	@ zero_extendqisi2
 557:Src/analog.c  ****           ana->trigger = (kSAMPLE_RATE/1000);
 2519              		.loc 1 557 29 view .LVU721
 2520 0262 03EB8303 		add	r3, r3, r3, lsl #2
 557:Src/analog.c  ****           ana->trigger = (kSAMPLE_RATE/1000);
 2521              		.loc 1 557 11 view .LVU722
 2522 0266 07EE903A 		vmov	s15, r3	@ int
 2523 026a F8EEE77A 		vcvt.f32.s32	s15, s15
 2524 026e 94F88500 		ldrb	r0, [r4, #133]	@ zero_extendqisi2
 2525              	.LVL201:
 557:Src/analog.c  ****           ana->trigger = (kSAMPLE_RATE/1000);
 2526              		.loc 1 557 11 view .LVU723
 2527 0272 9FED190A 		vldr.32	s0, .L236+4
 2528 0276 87EE800A 		vdiv.f32	s0, s15, s0
 2529 027a FFF7FEFF 		bl	DAC_InsertValue
 2530              	.LVL202:
 558:Src/analog.c  ****         }
 2531              		.loc 1 558 11 is_stmt 1 view .LVU724
 558:Src/analog.c  ****         }
 2532              		.loc 1 558 24 is_stmt 0 view .LVU725
 2533 027e 0B23     		movs	r3, #11
 2534 0280 6371     		strb	r3, [r4, #5]
 2535 0282 F5E6     		b	.L199
 2536              	.LVL203:
 2537              	.L207:
 564:Src/analog.c  ****         if(ana->settings.byte2 == message->byte2 || ana->settings.byte2 == 255) {
 2538              		.loc 1 564 7 is_stmt 1 view .LVU726
 564:Src/analog.c  ****         if(ana->settings.byte2 == message->byte2 || ana->settings.byte2 == 255) {
 2539              		.loc 1 564 17 is_stmt 0 view .LVU727
 2540 0284 C278     		ldrb	r2, [r0, #3]	@ zero_extendqisi2
 564:Src/analog.c  ****         if(ana->settings.byte2 == message->byte2 || ana->settings.byte2 == 255) {
 2541              		.loc 1 564 47 view .LVU728
 2542 0286 0B78     		ldrb	r3, [r1]	@ zero_extendqisi2
 564:Src/analog.c  ****         if(ana->settings.byte2 == message->byte2 || ana->settings.byte2 == 255) {
 2543              		.loc 1 564 9 view .LVU729
 2544 0288 9A42     		cmp	r2, r3
 2545 028a 02D0     		beq	.L229
 564:Src/analog.c  ****         if(ana->settings.byte2 == message->byte2 || ana->settings.byte2 == 255) {
 2546              		.loc 1 564 60 discriminator 1 view .LVU730
 2547 028c FF2B     		cmp	r3, #255
 2548 028e 7FF4EFAE 		bne	.L199
 2549              	.L229:
 565:Src/analog.c  ****           Analog_DigitalValuePedal(true,false,ana);
 2550              		.loc 1 565 9 is_stmt 1 view .LVU731
 565:Src/analog.c  ****           Analog_DigitalValuePedal(true,false,ana);
 2551              		.loc 1 565 25 is_stmt 0 view .LVU732
 2552 0292 6378     		ldrb	r3, [r4, #1]	@ zero_extendqisi2
 565:Src/analog.c  ****           Analog_DigitalValuePedal(true,false,ana);
 2553              		.loc 1 565 42 view .LVU733
 2554 0294 2A79     		ldrb	r2, [r5, #4]	@ zero_extendqisi2
 565:Src/analog.c  ****           Analog_DigitalValuePedal(true,false,ana);
 2555              		.loc 1 565 11 view .LVU734
 2556 0296 9342     		cmp	r3, r2
 2557 0298 02D0     		beq	.L230
ARM GAS  /var/folders/80/65lm4rm97rv_n74c85vt01040000gn/T//ccuR6fPR.s 			page 64


 565:Src/analog.c  ****           Analog_DigitalValuePedal(true,false,ana);
 2558              		.loc 1 565 50 discriminator 1 view .LVU735
 2559 029a FF2B     		cmp	r3, #255
 2560 029c 7FF4E8AE 		bne	.L199
 2561              	.L230:
 566:Src/analog.c  ****         }
 2562              		.loc 1 566 11 is_stmt 1 view .LVU736
 2563 02a0 2246     		mov	r2, r4
 2564 02a2 0021     		movs	r1, #0
 2565              	.LVL204:
 566:Src/analog.c  ****         }
 2566              		.loc 1 566 11 is_stmt 0 view .LVU737
 2567 02a4 0120     		movs	r0, #1
 2568              	.LVL205:
 566:Src/analog.c  ****         }
 2569              		.loc 1 566 11 view .LVU738
 2570 02a6 FFF7FEFF 		bl	Analog_DigitalValuePedal
 2571              	.LVL206:
 2572 02aa E1E6     		b	.L199
 2573              	.LVL207:
 2574              	.L206:
 572:Src/analog.c  ****         if(ana->settings.byte2 == message->byte2 || ana->settings.byte2 == 255) {
 2575              		.loc 1 572 7 is_stmt 1 view .LVU739
 572:Src/analog.c  ****         if(ana->settings.byte2 == message->byte2 || ana->settings.byte2 == 255) {
 2576              		.loc 1 572 17 is_stmt 0 view .LVU740
 2577 02ac C278     		ldrb	r2, [r0, #3]	@ zero_extendqisi2
 572:Src/analog.c  ****         if(ana->settings.byte2 == message->byte2 || ana->settings.byte2 == 255) {
 2578              		.loc 1 572 47 view .LVU741
 2579 02ae 0B78     		ldrb	r3, [r1]	@ zero_extendqisi2
 572:Src/analog.c  ****         if(ana->settings.byte2 == message->byte2 || ana->settings.byte2 == 255) {
 2580              		.loc 1 572 9 view .LVU742
 2581 02b0 9A42     		cmp	r2, r3
 2582 02b2 02D0     		beq	.L231
 572:Src/analog.c  ****         if(ana->settings.byte2 == message->byte2 || ana->settings.byte2 == 255) {
 2583              		.loc 1 572 60 discriminator 1 view .LVU743
 2584 02b4 FF2B     		cmp	r3, #255
 2585 02b6 7FF4DBAE 		bne	.L199
 2586              	.L231:
 573:Src/analog.c  ****           Analog_DigitalValue(true,true,ana);
 2587              		.loc 1 573 9 is_stmt 1 view .LVU744
 573:Src/analog.c  ****           Analog_DigitalValue(true,true,ana);
 2588              		.loc 1 573 25 is_stmt 0 view .LVU745
 2589 02ba 6378     		ldrb	r3, [r4, #1]	@ zero_extendqisi2
 573:Src/analog.c  ****           Analog_DigitalValue(true,true,ana);
 2590              		.loc 1 573 42 view .LVU746
 2591 02bc 2A79     		ldrb	r2, [r5, #4]	@ zero_extendqisi2
 573:Src/analog.c  ****           Analog_DigitalValue(true,true,ana);
 2592              		.loc 1 573 11 view .LVU747
 2593 02be 9342     		cmp	r3, r2
 2594 02c0 02D0     		beq	.L232
 573:Src/analog.c  ****           Analog_DigitalValue(true,true,ana);
 2595              		.loc 1 573 50 discriminator 1 view .LVU748
 2596 02c2 FF2B     		cmp	r3, #255
 2597 02c4 7FF4D4AE 		bne	.L199
 2598              	.L232:
 574:Src/analog.c  ****         }
 2599              		.loc 1 574 11 is_stmt 1 view .LVU749
ARM GAS  /var/folders/80/65lm4rm97rv_n74c85vt01040000gn/T//ccuR6fPR.s 			page 65


 2600 02c8 2246     		mov	r2, r4
 2601 02ca 0121     		movs	r1, #1
 2602              	.LVL208:
 574:Src/analog.c  ****         }
 2603              		.loc 1 574 11 is_stmt 0 view .LVU750
 2604 02cc 0846     		mov	r0, r1
 2605              	.LVL209:
 574:Src/analog.c  ****         }
 2606              		.loc 1 574 11 view .LVU751
 2607 02ce FFF7FEFF 		bl	Analog_DigitalValue
 2608              	.LVL210:
 2609              		.loc 1 582 1 view .LVU752
 2610 02d2 CDE6     		b	.L199
 2611              	.L237:
 2612              		.align	2
 2613              	.L236:
 2614 02d4 0000A040 		.word	1084227584
 2615 02d8 0000FE42 		.word	1123942400
 2616 02dc 0F000000 		.word	poly+15
 2617 02e0 00000000 		.word	poly
 2618              		.cfi_endproc
 2619              	.LFE142:
 2621              		.section	.text.Analog_NoteOff,"ax",%progbits
 2622              		.align	1
 2623              		.global	Analog_NoteOff
 2624              		.syntax unified
 2625              		.thumb
 2626              		.thumb_func
 2627              		.fpu fpv4-sp-d16
 2629              	Analog_NoteOff:
 2630              	.LVL211:
 2631              	.LFB143:
 583:Src/analog.c  **** 
 584:Src/analog.c  **** void Analog_NoteOff(MidiMessage *message, Analog_t *ana) {
 2632              		.loc 1 584 58 is_stmt 1 view -0
 2633              		.cfi_startproc
 2634              		@ args = 0, pretend = 0, frame = 0
 2635              		@ frame_needed = 0, uses_anonymous_args = 0
 2636              		.loc 1 584 58 is_stmt 0 view .LVU754
 2637 0000 70B5     		push	{r4, r5, r6, lr}
 2638              	.LCFI16:
 2639              		.cfi_def_cfa_offset 16
 2640              		.cfi_offset 4, -16
 2641              		.cfi_offset 5, -12
 2642              		.cfi_offset 6, -8
 2643              		.cfi_offset 14, -4
 2644 0002 0546     		mov	r5, r0
 2645 0004 0C46     		mov	r4, r1
 585:Src/analog.c  ****   switch (ana->mode) {
 2646              		.loc 1 585 3 is_stmt 1 view .LVU755
 2647              		.loc 1 585 14 is_stmt 0 view .LVU756
 2648 0006 CB78     		ldrb	r3, [r1, #3]	@ zero_extendqisi2
 2649 0008 023B     		subs	r3, r3, #2
 2650 000a 252B     		cmp	r3, #37
 2651 000c 00F2FA80 		bhi	.L238
 2652 0010 DFE813F0 		tbh	[pc, r3, lsl #1]
 2653              	.L241:
ARM GAS  /var/folders/80/65lm4rm97rv_n74c85vt01040000gn/T//ccuR6fPR.s 			page 66


 2654 0014 6500     		.2byte	(.L249-.L241)/2
 2655 0016 C900     		.2byte	(.L245-.L241)/2
 2656 0018 DE00     		.2byte	(.L244-.L241)/2
 2657 001a F800     		.2byte	(.L238-.L241)/2
 2658 001c F800     		.2byte	(.L238-.L241)/2
 2659 001e 7E00     		.2byte	(.L248-.L241)/2
 2660 0020 A100     		.2byte	(.L247-.L241)/2
 2661 0022 F800     		.2byte	(.L238-.L241)/2
 2662 0024 F800     		.2byte	(.L238-.L241)/2
 2663 0026 7E00     		.2byte	(.L248-.L241)/2
 2664 0028 A100     		.2byte	(.L247-.L241)/2
 2665 002a F800     		.2byte	(.L238-.L241)/2
 2666 002c 2600     		.2byte	(.L246-.L241)/2
 2667 002e 2600     		.2byte	(.L246-.L241)/2
 2668 0030 2600     		.2byte	(.L246-.L241)/2
 2669 0032 2600     		.2byte	(.L246-.L241)/2
 2670 0034 C900     		.2byte	(.L245-.L241)/2
 2671 0036 C900     		.2byte	(.L245-.L241)/2
 2672 0038 C900     		.2byte	(.L245-.L241)/2
 2673 003a C900     		.2byte	(.L245-.L241)/2
 2674 003c DE00     		.2byte	(.L244-.L241)/2
 2675 003e DE00     		.2byte	(.L244-.L241)/2
 2676 0040 DE00     		.2byte	(.L244-.L241)/2
 2677 0042 DE00     		.2byte	(.L244-.L241)/2
 2678 0044 F200     		.2byte	(.L243-.L241)/2
 2679 0046 F800     		.2byte	(.L238-.L241)/2
 2680 0048 F800     		.2byte	(.L238-.L241)/2
 2681 004a F800     		.2byte	(.L238-.L241)/2
 2682 004c F800     		.2byte	(.L238-.L241)/2
 2683 004e F800     		.2byte	(.L238-.L241)/2
 2684 0050 EC00     		.2byte	(.L242-.L241)/2
 2685 0052 F800     		.2byte	(.L238-.L241)/2
 2686 0054 F800     		.2byte	(.L238-.L241)/2
 2687 0056 F800     		.2byte	(.L238-.L241)/2
 2688 0058 F800     		.2byte	(.L238-.L241)/2
 2689 005a 4C00     		.2byte	(.L240-.L241)/2
 2690 005c 4C00     		.2byte	(.L240-.L241)/2
 2691 005e 4C00     		.2byte	(.L240-.L241)/2
 2692              		.p2align 1
 2693              	.L246:
 586:Src/analog.c  ****     case ANALOG_MONO_OSC_PULSE:
 587:Src/analog.c  ****     case ANALOG_MONO_OSC_SAW:
 588:Src/analog.c  ****     case ANALOG_MONO_OSC_TRI:
 589:Src/analog.c  ****     case ANALOG_MONO_OSC_SINE:
 590:Src/analog.c  ****       if(message->midichannel == ana->settings.midichannel || ana->settings.midichannel == 255) {
 2694              		.loc 1 590 7 is_stmt 1 view .LVU757
 2695              		.loc 1 590 17 is_stmt 0 view .LVU758
 2696 0060 C278     		ldrb	r2, [r0, #3]	@ zero_extendqisi2
 2697              		.loc 1 590 47 view .LVU759
 2698 0062 0B78     		ldrb	r3, [r1]	@ zero_extendqisi2
 2699              		.loc 1 590 9 view .LVU760
 2700 0064 9A42     		cmp	r2, r3
 2701 0066 02D0     		beq	.L250
 2702              		.loc 1 590 60 discriminator 1 view .LVU761
 2703 0068 FF2B     		cmp	r3, #255
 2704 006a 40F0CB80 		bne	.L238
 2705              	.L250:
ARM GAS  /var/folders/80/65lm4rm97rv_n74c85vt01040000gn/T//ccuR6fPR.s 			page 67


 2706              	.LBB19:
 591:Src/analog.c  ****         NoteStack_NoteOff(message->byte2, &ana->stack);
 2707              		.loc 1 591 9 is_stmt 1 view .LVU762
 2708 006e 04F12606 		add	r6, r4, #38
 2709 0072 3146     		mov	r1, r6
 2710              	.LVL212:
 2711              		.loc 1 591 9 is_stmt 0 view .LVU763
 2712 0074 2879     		ldrb	r0, [r5, #4]	@ zero_extendqisi2
 2713              	.LVL213:
 2714              		.loc 1 591 9 view .LVU764
 2715 0076 FFF7FEFF 		bl	NoteStack_NoteOff
 2716              	.LVL214:
 592:Src/analog.c  ****         uint8_t tempnote = NoteStack_RecentNote(&ana->stack);
 2717              		.loc 1 592 9 is_stmt 1 view .LVU765
 2718              		.loc 1 592 28 is_stmt 0 view .LVU766
 2719 007a 3046     		mov	r0, r6
 2720 007c FFF7FEFF 		bl	NoteStack_RecentNote
 2721              	.LVL215:
 2722 0080 0546     		mov	r5, r0
 2723              	.LVL216:
 593:Src/analog.c  ****         if(tempnote == 0xFF && ana->pedal) {
 2724              		.loc 1 593 9 is_stmt 1 view .LVU767
 2725              		.loc 1 593 11 is_stmt 0 view .LVU768
 2726 0082 FF28     		cmp	r0, #255
 2727 0084 01D1     		bne	.L251
 2728              		.loc 1 593 35 discriminator 1 view .LVU769
 2729 0086 237B     		ldrb	r3, [r4, #12]	@ zero_extendqisi2
 2730              		.loc 1 593 29 discriminator 1 view .LVU770
 2731 0088 5BB9     		cbnz	r3, .L268
 2732              	.L251:
 594:Src/analog.c  ****           Analog_DigitalVoice(false,ana);
 595:Src/analog.c  ****         } else {
 596:Src/analog.c  ****           Analog_DigitalVoice(true,ana);
 2733              		.loc 1 596 11 is_stmt 1 view .LVU771
 2734 008a 2146     		mov	r1, r4
 2735 008c 0120     		movs	r0, #1
 2736              	.LVL217:
 2737              		.loc 1 596 11 is_stmt 0 view .LVU772
 2738 008e FFF7FEFF 		bl	Analog_DigitalVoice
 2739              	.LVL218:
 2740              	.L252:
 597:Src/analog.c  ****         } 
 598:Src/analog.c  ****         if(tempnote != 0xFF) {
 2741              		.loc 1 598 9 is_stmt 1 view .LVU773
 2742              		.loc 1 598 11 is_stmt 0 view .LVU774
 2743 0092 FF2D     		cmp	r5, #255
 2744 0094 00F0B680 		beq	.L238
 599:Src/analog.c  ****           ana->oscnote = tempnote;
 2745              		.loc 1 599 11 is_stmt 1 view .LVU775
 2746              		.loc 1 599 24 is_stmt 0 view .LVU776
 2747 0098 A571     		strb	r5, [r4, #6]
 600:Src/analog.c  ****           Analog_CalculateFrequency(ana);
 2748              		.loc 1 600 11 is_stmt 1 view .LVU777
 2749 009a 2046     		mov	r0, r4
 2750 009c FFF7FEFF 		bl	Analog_CalculateFrequency
 2751              	.LVL219:
 2752 00a0 B0E0     		b	.L238
ARM GAS  /var/folders/80/65lm4rm97rv_n74c85vt01040000gn/T//ccuR6fPR.s 			page 68


 2753              	.LVL220:
 2754              	.L268:
 594:Src/analog.c  ****         } else {
 2755              		.loc 1 594 11 view .LVU778
 2756 00a2 2146     		mov	r1, r4
 2757 00a4 0020     		movs	r0, #0
 2758              	.LVL221:
 594:Src/analog.c  ****         } else {
 2759              		.loc 1 594 11 is_stmt 0 view .LVU779
 2760 00a6 FFF7FEFF 		bl	Analog_DigitalVoice
 2761              	.LVL222:
 2762 00aa F2E7     		b	.L252
 2763              	.LVL223:
 2764              	.L240:
 594:Src/analog.c  ****         } else {
 2765              		.loc 1 594 11 view .LVU780
 2766              	.LBE19:
 601:Src/analog.c  ****         }
 602:Src/analog.c  ****         break;
 603:Src/analog.c  ****       }
 604:Src/analog.c  ****       break;
 605:Src/analog.c  **** 
 606:Src/analog.c  ****     case ANALOG_ENVELOPE_ASR_EXPO:
 607:Src/analog.c  ****     case ANALOG_ENVELOPE_ASR_LINEAR:
 608:Src/analog.c  ****     case ANALOG_ENVELOPE_ASR_LOG:
 609:Src/analog.c  ****       if(message->midichannel == ana->settings.midichannel || ana->settings.midichannel == 255) {
 2767              		.loc 1 609 7 is_stmt 1 view .LVU781
 2768              		.loc 1 609 17 is_stmt 0 view .LVU782
 2769 00ac C278     		ldrb	r2, [r0, #3]	@ zero_extendqisi2
 2770              		.loc 1 609 47 view .LVU783
 2771 00ae 0B78     		ldrb	r3, [r1]	@ zero_extendqisi2
 2772              		.loc 1 609 9 view .LVU784
 2773 00b0 9A42     		cmp	r2, r3
 2774 00b2 02D0     		beq	.L253
 2775              		.loc 1 609 60 discriminator 1 view .LVU785
 2776 00b4 FF2B     		cmp	r3, #255
 2777 00b6 40F0A580 		bne	.L238
 2778              	.L253:
 2779              	.LBB20:
 610:Src/analog.c  ****         NoteStack_NoteOff(message->byte2, &ana->stack);
 2780              		.loc 1 610 9 is_stmt 1 view .LVU786
 2781 00ba 04F12606 		add	r6, r4, #38
 2782 00be 3146     		mov	r1, r6
 2783              	.LVL224:
 2784              		.loc 1 610 9 is_stmt 0 view .LVU787
 2785 00c0 2879     		ldrb	r0, [r5, #4]	@ zero_extendqisi2
 2786              	.LVL225:
 2787              		.loc 1 610 9 view .LVU788
 2788 00c2 FFF7FEFF 		bl	NoteStack_NoteOff
 2789              	.LVL226:
 611:Src/analog.c  ****         uint8_t tempnote = NoteStack_RecentNote(&ana->stack);
 2790              		.loc 1 611 9 is_stmt 1 view .LVU789
 2791              		.loc 1 611 28 is_stmt 0 view .LVU790
 2792 00c6 3046     		mov	r0, r6
 2793 00c8 FFF7FEFF 		bl	NoteStack_RecentNote
 2794              	.LVL227:
 612:Src/analog.c  ****         if(tempnote == 0xFF && ana->pedal) {
ARM GAS  /var/folders/80/65lm4rm97rv_n74c85vt01040000gn/T//ccuR6fPR.s 			page 69


 2795              		.loc 1 612 9 is_stmt 1 view .LVU791
 2796              		.loc 1 612 11 is_stmt 0 view .LVU792
 2797 00cc FF28     		cmp	r0, #255
 2798 00ce 01D0     		beq	.L269
 2799              	.L254:
 613:Src/analog.c  ****         } else {
 614:Src/analog.c  ****           ana->oscnote = tempnote;
 2800              		.loc 1 614 11 is_stmt 1 view .LVU793
 2801              		.loc 1 614 24 is_stmt 0 view .LVU794
 2802 00d0 A071     		strb	r0, [r4, #6]
 2803 00d2 97E0     		b	.L238
 2804              	.L269:
 612:Src/analog.c  ****         if(tempnote == 0xFF && ana->pedal) {
 2805              		.loc 1 612 35 discriminator 1 view .LVU795
 2806 00d4 237B     		ldrb	r3, [r4, #12]	@ zero_extendqisi2
 612:Src/analog.c  ****         if(tempnote == 0xFF && ana->pedal) {
 2807              		.loc 1 612 29 discriminator 1 view .LVU796
 2808 00d6 002B     		cmp	r3, #0
 2809 00d8 40F09480 		bne	.L238
 2810 00dc F8E7     		b	.L254
 2811              	.LVL228:
 2812              	.L249:
 612:Src/analog.c  ****         if(tempnote == 0xFF && ana->pedal) {
 2813              		.loc 1 612 29 discriminator 1 view .LVU797
 2814              	.LBE20:
 615:Src/analog.c  ****         }
 616:Src/analog.c  ****       }
 617:Src/analog.c  ****       break;
 618:Src/analog.c  **** 
 619:Src/analog.c  ****     case ANALOG_VOCT:
 620:Src/analog.c  ****       if(message->midichannel == ana->settings.midichannel || ana->settings.midichannel == 255) {
 2815              		.loc 1 620 7 is_stmt 1 view .LVU798
 2816              		.loc 1 620 17 is_stmt 0 view .LVU799
 2817 00de C278     		ldrb	r2, [r0, #3]	@ zero_extendqisi2
 2818              		.loc 1 620 47 view .LVU800
 2819 00e0 0B78     		ldrb	r3, [r1]	@ zero_extendqisi2
 2820              		.loc 1 620 9 view .LVU801
 2821 00e2 9A42     		cmp	r2, r3
 2822 00e4 02D0     		beq	.L255
 2823              		.loc 1 620 60 discriminator 1 view .LVU802
 2824 00e6 FF2B     		cmp	r3, #255
 2825 00e8 40F08C80 		bne	.L238
 2826              	.L255:
 2827              	.LBB21:
 621:Src/analog.c  ****         NoteStack_NoteOff(message->byte2, &ana->stack);
 2828              		.loc 1 621 9 is_stmt 1 view .LVU803
 2829 00ec 04F12606 		add	r6, r4, #38
 2830 00f0 3146     		mov	r1, r6
 2831              	.LVL229:
 2832              		.loc 1 621 9 is_stmt 0 view .LVU804
 2833 00f2 2879     		ldrb	r0, [r5, #4]	@ zero_extendqisi2
 2834              	.LVL230:
 2835              		.loc 1 621 9 view .LVU805
 2836 00f4 FFF7FEFF 		bl	NoteStack_NoteOff
 2837              	.LVL231:
 622:Src/analog.c  ****         uint8_t note = NoteStack_RecentNote(&ana->stack);
 2838              		.loc 1 622 9 is_stmt 1 view .LVU806
ARM GAS  /var/folders/80/65lm4rm97rv_n74c85vt01040000gn/T//ccuR6fPR.s 			page 70


 2839              		.loc 1 622 24 is_stmt 0 view .LVU807
 2840 00f8 3046     		mov	r0, r6
 2841 00fa FFF7FEFF 		bl	NoteStack_RecentNote
 2842              	.LVL232:
 623:Src/analog.c  ****         bool state = true;
 2843              		.loc 1 623 9 is_stmt 1 view .LVU808
 624:Src/analog.c  ****         if(note == 0xFF) {
 2844              		.loc 1 624 9 view .LVU809
 2845              		.loc 1 624 11 is_stmt 0 view .LVU810
 2846 00fe FF28     		cmp	r0, #255
 2847 0100 04D0     		beq	.L266
 623:Src/analog.c  ****         bool state = true;
 2848              		.loc 1 623 14 view .LVU811
 2849 0102 0121     		movs	r1, #1
 2850              	.L256:
 2851              	.LVL233:
 625:Src/analog.c  ****           state = false;
 626:Src/analog.c  ****         }
 627:Src/analog.c  ****         Analog_ChangeNote(note,state,ana);
 2852              		.loc 1 627 9 is_stmt 1 view .LVU812
 2853 0104 2246     		mov	r2, r4
 2854 0106 FFF7FEFF 		bl	Analog_ChangeNote
 2855              	.LVL234:
 2856              		.loc 1 627 9 is_stmt 0 view .LVU813
 2857 010a 7BE0     		b	.L238
 2858              	.LVL235:
 2859              	.L266:
 625:Src/analog.c  ****           state = false;
 2860              		.loc 1 625 17 view .LVU814
 2861 010c 0021     		movs	r1, #0
 2862 010e F9E7     		b	.L256
 2863              	.LVL236:
 2864              	.L248:
 625:Src/analog.c  ****           state = false;
 2865              		.loc 1 625 17 view .LVU815
 2866              	.LBE21:
 628:Src/analog.c  ****       }
 629:Src/analog.c  ****       break;
 630:Src/analog.c  **** 
 631:Src/analog.c  ****     case ANALOG_VELOCITY_UNI:
 632:Src/analog.c  ****     case ANALOG_KEYPRESSURE_UNI:
 633:Src/analog.c  ****       if(message->midichannel == ana->settings.midichannel || ana->settings.midichannel == 255) {
 2867              		.loc 1 633 7 is_stmt 1 view .LVU816
 2868              		.loc 1 633 17 is_stmt 0 view .LVU817
 2869 0110 C278     		ldrb	r2, [r0, #3]	@ zero_extendqisi2
 2870              		.loc 1 633 47 view .LVU818
 2871 0112 0B78     		ldrb	r3, [r1]	@ zero_extendqisi2
 2872              		.loc 1 633 9 view .LVU819
 2873 0114 9A42     		cmp	r2, r3
 2874 0116 01D0     		beq	.L257
 2875              		.loc 1 633 60 discriminator 1 view .LVU820
 2876 0118 FF2B     		cmp	r3, #255
 2877 011a 73D1     		bne	.L238
 2878              	.L257:
 634:Src/analog.c  ****         NoteStack_NoteOff(message->byte2, &ana->stack);
 2879              		.loc 1 634 9 is_stmt 1 view .LVU821
 2880 011c 04F12606 		add	r6, r4, #38
ARM GAS  /var/folders/80/65lm4rm97rv_n74c85vt01040000gn/T//ccuR6fPR.s 			page 71


 2881 0120 3146     		mov	r1, r6
 2882              	.LVL237:
 2883              		.loc 1 634 9 is_stmt 0 view .LVU822
 2884 0122 2879     		ldrb	r0, [r5, #4]	@ zero_extendqisi2
 2885              	.LVL238:
 2886              		.loc 1 634 9 view .LVU823
 2887 0124 FFF7FEFF 		bl	NoteStack_NoteOff
 2888              	.LVL239:
 635:Src/analog.c  ****         if(NoteStack_RecentNote(&ana->stack) != 0xFF) {
 2889              		.loc 1 635 9 is_stmt 1 view .LVU824
 2890              		.loc 1 635 12 is_stmt 0 view .LVU825
 2891 0128 3046     		mov	r0, r6
 2892 012a FFF7FEFF 		bl	NoteStack_RecentNote
 2893              	.LVL240:
 2894              		.loc 1 635 11 view .LVU826
 2895 012e FF28     		cmp	r0, #255
 2896 0130 68D0     		beq	.L238
 2897              	.LBB22:
 636:Src/analog.c  ****           uint8_t vel = NoteStack_RecentVelocity(&ana->stack);
 2898              		.loc 1 636 11 is_stmt 1 view .LVU827
 2899              		.loc 1 636 25 is_stmt 0 view .LVU828
 2900 0132 3046     		mov	r0, r6
 2901 0134 FFF7FEFF 		bl	NoteStack_RecentVelocity
 2902              	.LVL241:
 637:Src/analog.c  ****           DAC_InsertValue((5*vel)/127.0f,ana->id);
 2903              		.loc 1 637 11 is_stmt 1 view .LVU829
 2904              		.loc 1 637 29 is_stmt 0 view .LVU830
 2905 0138 00EB8000 		add	r0, r0, r0, lsl #2
 2906              	.LVL242:
 2907              		.loc 1 637 11 view .LVU831
 2908 013c 07EE900A 		vmov	s15, r0	@ int
 2909 0140 F8EEE77A 		vcvt.f32.s32	s15, s15
 2910 0144 94F88500 		ldrb	r0, [r4, #133]	@ zero_extendqisi2
 2911 0148 9FED3B0A 		vldr.32	s0, .L271
 2912 014c 87EE800A 		vdiv.f32	s0, s15, s0
 2913 0150 FFF7FEFF 		bl	DAC_InsertValue
 2914              	.LVL243:
 2915 0154 56E0     		b	.L238
 2916              	.LVL244:
 2917              	.L247:
 2918              		.loc 1 637 11 view .LVU832
 2919              	.LBE22:
 638:Src/analog.c  ****         } 
 639:Src/analog.c  ****       }
 640:Src/analog.c  ****       break;
 641:Src/analog.c  **** 
 642:Src/analog.c  ****     case ANALOG_VELOCITY_BI:
 643:Src/analog.c  ****     case ANALOG_KEYPRESSURE_BI:
 644:Src/analog.c  ****       if(message->midichannel == ana->settings.midichannel || ana->settings.midichannel == 255) {
 2920              		.loc 1 644 7 is_stmt 1 view .LVU833
 2921              		.loc 1 644 17 is_stmt 0 view .LVU834
 2922 0156 C278     		ldrb	r2, [r0, #3]	@ zero_extendqisi2
 2923              		.loc 1 644 47 view .LVU835
 2924 0158 0B78     		ldrb	r3, [r1]	@ zero_extendqisi2
 2925              		.loc 1 644 9 view .LVU836
 2926 015a 9A42     		cmp	r2, r3
 2927 015c 01D0     		beq	.L258
ARM GAS  /var/folders/80/65lm4rm97rv_n74c85vt01040000gn/T//ccuR6fPR.s 			page 72


 2928              		.loc 1 644 60 discriminator 1 view .LVU837
 2929 015e FF2B     		cmp	r3, #255
 2930 0160 50D1     		bne	.L238
 2931              	.L258:
 645:Src/analog.c  ****         NoteStack_NoteOff(message->byte2, &ana->stack);
 2932              		.loc 1 645 9 is_stmt 1 view .LVU838
 2933 0162 04F12606 		add	r6, r4, #38
 2934 0166 3146     		mov	r1, r6
 2935              	.LVL245:
 2936              		.loc 1 645 9 is_stmt 0 view .LVU839
 2937 0168 2879     		ldrb	r0, [r5, #4]	@ zero_extendqisi2
 2938              	.LVL246:
 2939              		.loc 1 645 9 view .LVU840
 2940 016a FFF7FEFF 		bl	NoteStack_NoteOff
 2941              	.LVL247:
 646:Src/analog.c  ****         if(NoteStack_RecentNote(&ana->stack) != 0xFF) {
 2942              		.loc 1 646 9 is_stmt 1 view .LVU841
 2943              		.loc 1 646 12 is_stmt 0 view .LVU842
 2944 016e 3046     		mov	r0, r6
 2945 0170 FFF7FEFF 		bl	NoteStack_RecentNote
 2946              	.LVL248:
 2947              		.loc 1 646 11 view .LVU843
 2948 0174 FF28     		cmp	r0, #255
 2949 0176 45D0     		beq	.L238
 2950              	.LBB23:
 647:Src/analog.c  ****           uint8_t vel = NoteStack_RecentVelocity(&ana->stack);
 2951              		.loc 1 647 11 is_stmt 1 view .LVU844
 2952              		.loc 1 647 25 is_stmt 0 view .LVU845
 2953 0178 3046     		mov	r0, r6
 2954 017a FFF7FEFF 		bl	NoteStack_RecentVelocity
 2955              	.LVL249:
 648:Src/analog.c  ****           DAC_InsertValue((10*vel)/127.0f - 5.0f,ana->id);
 2956              		.loc 1 648 11 is_stmt 1 view .LVU846
 2957              		.loc 1 648 30 is_stmt 0 view .LVU847
 2958 017e 00EB8000 		add	r0, r0, r0, lsl #2
 2959              	.LVL250:
 2960              		.loc 1 648 30 view .LVU848
 2961 0182 4000     		lsls	r0, r0, #1
 2962              		.loc 1 648 35 view .LVU849
 2963 0184 07EE900A 		vmov	s15, r0	@ int
 2964 0188 F8EEE77A 		vcvt.f32.s32	s15, s15
 2965 018c 9FED2A7A 		vldr.32	s14, .L271
 2966 0190 87EE870A 		vdiv.f32	s0, s15, s14
 2967              		.loc 1 648 11 view .LVU850
 2968 0194 94F88500 		ldrb	r0, [r4, #133]	@ zero_extendqisi2
 2969 0198 F1EE047A 		vmov.f32	s15, #5.0e+0
 2970 019c 30EE670A 		vsub.f32	s0, s0, s15
 2971 01a0 FFF7FEFF 		bl	DAC_InsertValue
 2972              	.LVL251:
 2973 01a4 2EE0     		b	.L238
 2974              	.LVL252:
 2975              	.L245:
 2976              		.loc 1 648 11 view .LVU851
 2977              	.LBE23:
 649:Src/analog.c  ****         } 
 650:Src/analog.c  ****       }
 651:Src/analog.c  ****       break;
ARM GAS  /var/folders/80/65lm4rm97rv_n74c85vt01040000gn/T//ccuR6fPR.s 			page 73


 652:Src/analog.c  **** 
 653:Src/analog.c  ****     case ANALOG_POLY_DUO:
 654:Src/analog.c  ****     case ANALOG_POLY_OSC_SAW_DUO:
 655:Src/analog.c  ****     case ANALOG_POLY_OSC_PULSE_DUO:
 656:Src/analog.c  ****     case ANALOG_POLY_OSC_TRI_DUO:
 657:Src/analog.c  ****     case ANALOG_POLY_OSC_SINE_DUO:
 658:Src/analog.c  ****       if(message->midichannel == ana->settings.midichannel || ana->settings.midichannel == 255) {
 2978              		.loc 1 658 7 is_stmt 1 view .LVU852
 2979              		.loc 1 658 17 is_stmt 0 view .LVU853
 2980 01a6 C278     		ldrb	r2, [r0, #3]	@ zero_extendqisi2
 2981              		.loc 1 658 47 view .LVU854
 2982 01a8 0B78     		ldrb	r3, [r1]	@ zero_extendqisi2
 2983              		.loc 1 658 9 view .LVU855
 2984 01aa 9A42     		cmp	r2, r3
 2985 01ac 01D0     		beq	.L259
 2986              		.loc 1 658 60 discriminator 1 view .LVU856
 2987 01ae FF2B     		cmp	r3, #255
 2988 01b0 28D1     		bne	.L238
 2989              	.L259:
 659:Src/analog.c  ****         if(ana->id == 0) {
 2990              		.loc 1 659 9 is_stmt 1 view .LVU857
 2991              		.loc 1 659 15 is_stmt 0 view .LVU858
 2992 01b2 94F88530 		ldrb	r3, [r4, #133]	@ zero_extendqisi2
 2993              		.loc 1 659 11 view .LVU859
 2994 01b6 33B1     		cbz	r3, .L270
 660:Src/analog.c  ****           Poly_NoteOff(message->byte2, &poly[0]);
 661:Src/analog.c  ****         } else if(ana->id == 2) {
 2995              		.loc 1 661 16 is_stmt 1 view .LVU860
 2996              		.loc 1 661 18 is_stmt 0 view .LVU861
 2997 01b8 022B     		cmp	r3, #2
 2998 01ba 23D1     		bne	.L238
 662:Src/analog.c  ****           Poly_NoteOff(message->byte2, &poly[1]); 
 2999              		.loc 1 662 11 is_stmt 1 view .LVU862
 3000 01bc 1F49     		ldr	r1, .L271+4
 3001              	.LVL253:
 3002              		.loc 1 662 11 is_stmt 0 view .LVU863
 3003 01be 2879     		ldrb	r0, [r5, #4]	@ zero_extendqisi2
 3004              	.LVL254:
 3005              		.loc 1 662 11 view .LVU864
 3006 01c0 FFF7FEFF 		bl	Poly_NoteOff
 3007              	.LVL255:
 3008 01c4 1EE0     		b	.L238
 3009              	.LVL256:
 3010              	.L270:
 660:Src/analog.c  ****           Poly_NoteOff(message->byte2, &poly[0]);
 3011              		.loc 1 660 11 is_stmt 1 view .LVU865
 3012 01c6 1E49     		ldr	r1, .L271+8
 3013              	.LVL257:
 660:Src/analog.c  ****           Poly_NoteOff(message->byte2, &poly[0]);
 3014              		.loc 1 660 11 is_stmt 0 view .LVU866
 3015 01c8 2879     		ldrb	r0, [r5, #4]	@ zero_extendqisi2
 3016              	.LVL258:
 660:Src/analog.c  ****           Poly_NoteOff(message->byte2, &poly[0]);
 3017              		.loc 1 660 11 view .LVU867
 3018 01ca FFF7FEFF 		bl	Poly_NoteOff
 3019              	.LVL259:
 3020 01ce 19E0     		b	.L238
ARM GAS  /var/folders/80/65lm4rm97rv_n74c85vt01040000gn/T//ccuR6fPR.s 			page 74


 3021              	.LVL260:
 3022              	.L244:
 663:Src/analog.c  ****         }
 664:Src/analog.c  ****       }
 665:Src/analog.c  ****       break;
 666:Src/analog.c  **** 
 667:Src/analog.c  ****     case ANALOG_POLY_QUAD:
 668:Src/analog.c  ****     case ANALOG_POLY_OSC_SAW_QUAD:
 669:Src/analog.c  ****     case ANALOG_POLY_OSC_PULSE_QUAD:
 670:Src/analog.c  ****     case ANALOG_POLY_OSC_TRI_QUAD:
 671:Src/analog.c  ****     case ANALOG_POLY_OSC_SINE_QUAD:
 672:Src/analog.c  ****       if(message->midichannel == ana->settings.midichannel || ana->settings.midichannel == 255) {
 3023              		.loc 1 672 7 is_stmt 1 view .LVU868
 3024              		.loc 1 672 17 is_stmt 0 view .LVU869
 3025 01d0 C278     		ldrb	r2, [r0, #3]	@ zero_extendqisi2
 3026              		.loc 1 672 47 view .LVU870
 3027 01d2 0B78     		ldrb	r3, [r1]	@ zero_extendqisi2
 3028              		.loc 1 672 9 view .LVU871
 3029 01d4 9A42     		cmp	r2, r3
 3030 01d6 01D0     		beq	.L261
 3031              		.loc 1 672 60 discriminator 1 view .LVU872
 3032 01d8 FF2B     		cmp	r3, #255
 3033 01da 13D1     		bne	.L238
 3034              	.L261:
 673:Src/analog.c  ****         if(ana->id == 0) {
 3035              		.loc 1 673 9 is_stmt 1 view .LVU873
 3036              		.loc 1 673 15 is_stmt 0 view .LVU874
 3037 01dc 94F88530 		ldrb	r3, [r4, #133]	@ zero_extendqisi2
 3038              		.loc 1 673 11 view .LVU875
 3039 01e0 83B9     		cbnz	r3, .L238
 674:Src/analog.c  ****           Poly_NoteOff(message->byte2, &poly[0]);
 3040              		.loc 1 674 11 is_stmt 1 view .LVU876
 3041 01e2 1749     		ldr	r1, .L271+8
 3042              	.LVL261:
 3043              		.loc 1 674 11 is_stmt 0 view .LVU877
 3044 01e4 2879     		ldrb	r0, [r5, #4]	@ zero_extendqisi2
 3045              	.LVL262:
 3046              		.loc 1 674 11 view .LVU878
 3047 01e6 FFF7FEFF 		bl	Poly_NoteOff
 3048              	.LVL263:
 3049 01ea 0BE0     		b	.L238
 3050              	.LVL264:
 3051              	.L242:
 675:Src/analog.c  ****         }
 676:Src/analog.c  ****       }
 677:Src/analog.c  ****       break;
 678:Src/analog.c  ****     
 679:Src/analog.c  ****     case ANALOG_VELOCITY_GATE:
 680:Src/analog.c  ****       if(message->midichannel == ana->settings.midichannel || ana->settings.midichannel == 255) {
 3052              		.loc 1 680 7 is_stmt 1 view .LVU879
 3053              		.loc 1 680 17 is_stmt 0 view .LVU880
 3054 01ec C278     		ldrb	r2, [r0, #3]	@ zero_extendqisi2
 3055              		.loc 1 680 47 view .LVU881
 3056 01ee 0B78     		ldrb	r3, [r1]	@ zero_extendqisi2
 3057              		.loc 1 680 9 view .LVU882
 3058 01f0 9A42     		cmp	r2, r3
 3059 01f2 08D0     		beq	.L262
ARM GAS  /var/folders/80/65lm4rm97rv_n74c85vt01040000gn/T//ccuR6fPR.s 			page 75


 3060              		.loc 1 680 60 discriminator 1 view .LVU883
 3061 01f4 FF2B     		cmp	r3, #255
 3062 01f6 06D0     		beq	.L262
 3063              	.LVL265:
 3064              	.L243:
 681:Src/analog.c  ****         if(ana->settings.byte2 == message->byte2 || ana->settings.byte2 == 255) {
 682:Src/analog.c  ****           Analog_DigitalValuePedal(false,false,ana);
 683:Src/analog.c  ****         }
 684:Src/analog.c  ****       }
 685:Src/analog.c  **** 
 686:Src/analog.c  ****     case ANALOG_DIGITAL_GATE:
 687:Src/analog.c  ****       if(message->midichannel == ana->settings.midichannel || ana->settings.midichannel == 255) {
 3065              		.loc 1 687 7 is_stmt 1 view .LVU884
 3066              		.loc 1 687 17 is_stmt 0 view .LVU885
 3067 01f8 EA78     		ldrb	r2, [r5, #3]	@ zero_extendqisi2
 3068              		.loc 1 687 47 view .LVU886
 3069 01fa 2378     		ldrb	r3, [r4]	@ zero_extendqisi2
 3070              		.loc 1 687 9 view .LVU887
 3071 01fc 9A42     		cmp	r2, r3
 3072 01fe 0ED0     		beq	.L264
 3073              		.loc 1 687 60 discriminator 1 view .LVU888
 3074 0200 FF2B     		cmp	r3, #255
 3075 0202 0CD0     		beq	.L264
 3076              	.LVL266:
 3077              	.L238:
 688:Src/analog.c  ****         if(ana->settings.byte2 == message->byte2 || ana->settings.byte2 == 255) {
 689:Src/analog.c  ****           Analog_DigitalValuePedal(false,false,ana);
 690:Src/analog.c  ****         }
 691:Src/analog.c  ****       }
 692:Src/analog.c  ****       break;
 693:Src/analog.c  **** 
 694:Src/analog.c  ****     default:
 695:Src/analog.c  ****       break;
 696:Src/analog.c  ****   }
 697:Src/analog.c  **** }
 3078              		.loc 1 697 1 view .LVU889
 3079 0204 70BD     		pop	{r4, r5, r6, pc}
 3080              	.LVL267:
 3081              	.L262:
 681:Src/analog.c  ****         if(ana->settings.byte2 == message->byte2 || ana->settings.byte2 == 255) {
 3082              		.loc 1 681 9 is_stmt 1 view .LVU890
 681:Src/analog.c  ****         if(ana->settings.byte2 == message->byte2 || ana->settings.byte2 == 255) {
 3083              		.loc 1 681 25 is_stmt 0 view .LVU891
 3084 0206 6378     		ldrb	r3, [r4, #1]	@ zero_extendqisi2
 681:Src/analog.c  ****         if(ana->settings.byte2 == message->byte2 || ana->settings.byte2 == 255) {
 3085              		.loc 1 681 42 view .LVU892
 3086 0208 2A79     		ldrb	r2, [r5, #4]	@ zero_extendqisi2
 681:Src/analog.c  ****         if(ana->settings.byte2 == message->byte2 || ana->settings.byte2 == 255) {
 3087              		.loc 1 681 11 view .LVU893
 3088 020a 9342     		cmp	r3, r2
 3089 020c 01D0     		beq	.L263
 681:Src/analog.c  ****         if(ana->settings.byte2 == message->byte2 || ana->settings.byte2 == 255) {
 3090              		.loc 1 681 50 discriminator 1 view .LVU894
 3091 020e FF2B     		cmp	r3, #255
 3092 0210 F2D1     		bne	.L243
 3093              	.L263:
 682:Src/analog.c  ****         }
ARM GAS  /var/folders/80/65lm4rm97rv_n74c85vt01040000gn/T//ccuR6fPR.s 			page 76


 3094              		.loc 1 682 11 is_stmt 1 view .LVU895
 3095 0212 2246     		mov	r2, r4
 3096 0214 0021     		movs	r1, #0
 3097              	.LVL268:
 682:Src/analog.c  ****         }
 3098              		.loc 1 682 11 is_stmt 0 view .LVU896
 3099 0216 0846     		mov	r0, r1
 3100              	.LVL269:
 682:Src/analog.c  ****         }
 3101              		.loc 1 682 11 view .LVU897
 3102 0218 FFF7FEFF 		bl	Analog_DigitalValuePedal
 3103              	.LVL270:
 3104 021c ECE7     		b	.L243
 3105              	.L264:
 688:Src/analog.c  ****         if(ana->settings.byte2 == message->byte2 || ana->settings.byte2 == 255) {
 3106              		.loc 1 688 9 is_stmt 1 view .LVU898
 688:Src/analog.c  ****         if(ana->settings.byte2 == message->byte2 || ana->settings.byte2 == 255) {
 3107              		.loc 1 688 25 is_stmt 0 view .LVU899
 3108 021e 6378     		ldrb	r3, [r4, #1]	@ zero_extendqisi2
 688:Src/analog.c  ****         if(ana->settings.byte2 == message->byte2 || ana->settings.byte2 == 255) {
 3109              		.loc 1 688 42 view .LVU900
 3110 0220 2A79     		ldrb	r2, [r5, #4]	@ zero_extendqisi2
 688:Src/analog.c  ****         if(ana->settings.byte2 == message->byte2 || ana->settings.byte2 == 255) {
 3111              		.loc 1 688 11 view .LVU901
 3112 0222 9342     		cmp	r3, r2
 3113 0224 01D0     		beq	.L265
 688:Src/analog.c  ****         if(ana->settings.byte2 == message->byte2 || ana->settings.byte2 == 255) {
 3114              		.loc 1 688 50 discriminator 1 view .LVU902
 3115 0226 FF2B     		cmp	r3, #255
 3116 0228 ECD1     		bne	.L238
 3117              	.L265:
 689:Src/analog.c  ****         }
 3118              		.loc 1 689 11 is_stmt 1 view .LVU903
 3119 022a 2246     		mov	r2, r4
 3120 022c 0021     		movs	r1, #0
 3121 022e 0846     		mov	r0, r1
 3122 0230 FFF7FEFF 		bl	Analog_DigitalValuePedal
 3123              	.LVL271:
 3124              		.loc 1 697 1 is_stmt 0 view .LVU904
 3125 0234 E6E7     		b	.L238
 3126              	.L272:
 3127 0236 00BF     		.align	2
 3128              	.L271:
 3129 0238 0000FE42 		.word	1123942400
 3130 023c 0F000000 		.word	poly+15
 3131 0240 00000000 		.word	poly
 3132              		.cfi_endproc
 3133              	.LFE143:
 3135              		.section	.text.Analog_PolyInput,"ax",%progbits
 3136              		.align	1
 3137              		.global	Analog_PolyInput
 3138              		.syntax unified
 3139              		.thumb
 3140              		.thumb_func
 3141              		.fpu fpv4-sp-d16
 3143              	Analog_PolyInput:
 3144              	.LVL272:
ARM GAS  /var/folders/80/65lm4rm97rv_n74c85vt01040000gn/T//ccuR6fPR.s 			page 77


 3145              	.LFB144:
 698:Src/analog.c  **** 
 699:Src/analog.c  **** void Analog_PolyInput(uint8_t note, uint8_t velo, bool state, Analog_t *ana) {
 3146              		.loc 1 699 78 is_stmt 1 view -0
 3147              		.cfi_startproc
 3148              		@ args = 0, pretend = 0, frame = 0
 3149              		@ frame_needed = 0, uses_anonymous_args = 0
 3150              		.loc 1 699 78 is_stmt 0 view .LVU906
 3151 0000 70B5     		push	{r4, r5, r6, lr}
 3152              	.LCFI17:
 3153              		.cfi_def_cfa_offset 16
 3154              		.cfi_offset 4, -16
 3155              		.cfi_offset 5, -12
 3156              		.cfi_offset 6, -8
 3157              		.cfi_offset 14, -4
 3158 0002 0646     		mov	r6, r0
 3159 0004 1546     		mov	r5, r2
 3160 0006 1C46     		mov	r4, r3
 700:Src/analog.c  ****   switch (ana->mode) {
 3161              		.loc 1 700 3 is_stmt 1 view .LVU907
 3162              		.loc 1 700 14 is_stmt 0 view .LVU908
 3163 0008 93F803C0 		ldrb	ip, [r3, #3]	@ zero_extendqisi2
 3164              		.loc 1 700 3 view .LVU909
 3165 000c BCF1040F 		cmp	ip, #4
 3166 0010 12D9     		bls	.L282
 3167 0012 ACF1120C 		sub	ip, ip, #18
 3168 0016 5FFA8CFC 		uxtb	ip, ip
 3169 001a BCF1070F 		cmp	ip, #7
 3170 001e 0ED8     		bhi	.L273
 701:Src/analog.c  ****     case ANALOG_POLY_DUO:
 702:Src/analog.c  ****     case ANALOG_POLY_QUAD:
 703:Src/analog.c  ****       Analog_ChangeNote(note,state,ana);
 704:Src/analog.c  ****       break;
 705:Src/analog.c  **** 
 706:Src/analog.c  **** 
 707:Src/analog.c  ****     case ANALOG_POLY_OSC_PULSE_DUO:
 708:Src/analog.c  ****     case ANALOG_POLY_OSC_SAW_DUO:
 709:Src/analog.c  ****     case ANALOG_POLY_OSC_TRI_DUO:
 710:Src/analog.c  ****     case ANALOG_POLY_OSC_SINE_DUO:
 711:Src/analog.c  ****     case ANALOG_POLY_OSC_PULSE_QUAD:
 712:Src/analog.c  ****     case ANALOG_POLY_OSC_SAW_QUAD:
 713:Src/analog.c  ****     case ANALOG_POLY_OSC_TRI_QUAD:
 714:Src/analog.c  ****     case ANALOG_POLY_OSC_SINE_QUAD:
 715:Src/analog.c  ****       if(ana->digitalvoice) {
 3171              		.loc 1 715 7 is_stmt 1 view .LVU910
 3172              		.loc 1 715 13 is_stmt 0 view .LVU911
 3173 0020 1B79     		ldrb	r3, [r3, #4]	@ zero_extendqisi2
 3174              	.LVL273:
 3175              		.loc 1 715 9 view .LVU912
 3176 0022 93B9     		cbnz	r3, .L283
 716:Src/analog.c  ****         Analog_DigitalVoice(state,ana);
 717:Src/analog.c  ****         if(state) {
 718:Src/analog.c  ****           ana->oscnote = note;
 719:Src/analog.c  ****           Analog_CalculateFrequency(ana);
 720:Src/analog.c  ****         }
 721:Src/analog.c  ****       } else {
 722:Src/analog.c  ****         ana->digitalstate = state;
ARM GAS  /var/folders/80/65lm4rm97rv_n74c85vt01040000gn/T//ccuR6fPR.s 			page 78


 3177              		.loc 1 722 9 is_stmt 1 view .LVU913
 3178              		.loc 1 722 27 is_stmt 0 view .LVU914
 3179 0024 6273     		strb	r2, [r4, #13]
 723:Src/analog.c  ****         if(state == false) {
 3180              		.loc 1 723 9 is_stmt 1 view .LVU915
 3181              		.loc 1 723 11 is_stmt 0 view .LVU916
 3182 0026 DAB9     		cbnz	r2, .L279
 724:Src/analog.c  ****           if(ana->pedal == 0) {
 3183              		.loc 1 724 11 is_stmt 1 view .LVU917
 3184              		.loc 1 724 17 is_stmt 0 view .LVU918
 3185 0028 237B     		ldrb	r3, [r4, #12]	@ zero_extendqisi2
 3186              		.loc 1 724 13 view .LVU919
 3187 002a 43B9     		cbnz	r3, .L273
 725:Src/analog.c  ****             ana->oscnote = 0xFF;
 3188              		.loc 1 725 13 is_stmt 1 view .LVU920
 3189              		.loc 1 725 26 is_stmt 0 view .LVU921
 3190 002c FF23     		movs	r3, #255
 3191 002e A371     		strb	r3, [r4, #6]
 726:Src/analog.c  ****             Analog_CalculateFrequency(ana);
 3192              		.loc 1 726 13 is_stmt 1 view .LVU922
 3193 0030 2046     		mov	r0, r4
 3194              	.LVL274:
 3195              		.loc 1 726 13 is_stmt 0 view .LVU923
 3196 0032 FFF7FEFF 		bl	Analog_CalculateFrequency
 3197              	.LVL275:
 3198              		.loc 1 726 13 view .LVU924
 3199 0036 02E0     		b	.L273
 3200              	.LVL276:
 3201              	.L282:
 700:Src/analog.c  ****     case ANALOG_POLY_DUO:
 3202              		.loc 1 700 3 view .LVU925
 3203 0038 BCF1030F 		cmp	ip, #3
 3204 003c 00D2     		bcs	.L284
 3205              	.LVL277:
 3206              	.L273:
 727:Src/analog.c  ****           }
 728:Src/analog.c  ****         } else {
 729:Src/analog.c  ****           ana->oscnote = note;
 730:Src/analog.c  ****           Analog_CalculateFrequency(ana);
 731:Src/analog.c  ****         }
 732:Src/analog.c  ****       }
 733:Src/analog.c  ****       
 734:Src/analog.c  ****       break;
 735:Src/analog.c  **** 
 736:Src/analog.c  ****     default:
 737:Src/analog.c  ****       break;
 738:Src/analog.c  ****   }
 739:Src/analog.c  **** }
 3207              		.loc 1 739 1 view .LVU926
 3208 003e 70BD     		pop	{r4, r5, r6, pc}
 3209              	.LVL278:
 3210              	.L284:
 703:Src/analog.c  ****       break;
 3211              		.loc 1 703 7 is_stmt 1 view .LVU927
 3212 0040 1A46     		mov	r2, r3
 3213              	.LVL279:
 703:Src/analog.c  ****       break;
ARM GAS  /var/folders/80/65lm4rm97rv_n74c85vt01040000gn/T//ccuR6fPR.s 			page 79


 3214              		.loc 1 703 7 is_stmt 0 view .LVU928
 3215 0042 2946     		mov	r1, r5
 3216              	.LVL280:
 703:Src/analog.c  ****       break;
 3217              		.loc 1 703 7 view .LVU929
 3218 0044 FFF7FEFF 		bl	Analog_ChangeNote
 3219              	.LVL281:
 704:Src/analog.c  **** 
 3220              		.loc 1 704 7 is_stmt 1 view .LVU930
 3221 0048 F9E7     		b	.L273
 3222              	.LVL282:
 3223              	.L283:
 716:Src/analog.c  ****         if(state) {
 3224              		.loc 1 716 9 view .LVU931
 3225 004a 2146     		mov	r1, r4
 3226              	.LVL283:
 716:Src/analog.c  ****         if(state) {
 3227              		.loc 1 716 9 is_stmt 0 view .LVU932
 3228 004c 1046     		mov	r0, r2
 3229              	.LVL284:
 716:Src/analog.c  ****         if(state) {
 3230              		.loc 1 716 9 view .LVU933
 3231 004e FFF7FEFF 		bl	Analog_DigitalVoice
 3232              	.LVL285:
 717:Src/analog.c  ****           ana->oscnote = note;
 3233              		.loc 1 717 9 is_stmt 1 view .LVU934
 717:Src/analog.c  ****           ana->oscnote = note;
 3234              		.loc 1 717 11 is_stmt 0 view .LVU935
 3235 0052 002D     		cmp	r5, #0
 3236 0054 F3D0     		beq	.L273
 718:Src/analog.c  ****           Analog_CalculateFrequency(ana);
 3237              		.loc 1 718 11 is_stmt 1 view .LVU936
 718:Src/analog.c  ****           Analog_CalculateFrequency(ana);
 3238              		.loc 1 718 24 is_stmt 0 view .LVU937
 3239 0056 A671     		strb	r6, [r4, #6]
 719:Src/analog.c  ****         }
 3240              		.loc 1 719 11 is_stmt 1 view .LVU938
 3241 0058 2046     		mov	r0, r4
 3242 005a FFF7FEFF 		bl	Analog_CalculateFrequency
 3243              	.LVL286:
 3244 005e EEE7     		b	.L273
 3245              	.LVL287:
 3246              	.L279:
 729:Src/analog.c  ****           Analog_CalculateFrequency(ana);
 3247              		.loc 1 729 11 view .LVU939
 729:Src/analog.c  ****           Analog_CalculateFrequency(ana);
 3248              		.loc 1 729 24 is_stmt 0 view .LVU940
 3249 0060 A071     		strb	r0, [r4, #6]
 730:Src/analog.c  ****         }
 3250              		.loc 1 730 11 is_stmt 1 view .LVU941
 3251 0062 2046     		mov	r0, r4
 3252              	.LVL288:
 730:Src/analog.c  ****         }
 3253              		.loc 1 730 11 is_stmt 0 view .LVU942
 3254 0064 FFF7FEFF 		bl	Analog_CalculateFrequency
 3255              	.LVL289:
 3256              		.loc 1 739 1 view .LVU943
ARM GAS  /var/folders/80/65lm4rm97rv_n74c85vt01040000gn/T//ccuR6fPR.s 			page 80


 3257 0068 E9E7     		b	.L273
 3258              		.cfi_endproc
 3259              	.LFE144:
 3261              		.section	.text.Analog_Clock,"ax",%progbits
 3262              		.align	1
 3263              		.global	Analog_Clock
 3264              		.syntax unified
 3265              		.thumb
 3266              		.thumb_func
 3267              		.fpu fpv4-sp-d16
 3269              	Analog_Clock:
 3270              	.LVL290:
 3271              	.LFB145:
 740:Src/analog.c  **** 
 741:Src/analog.c  **** void Analog_Clock(MidiMessage *message, Analog_t *ana) {
 3272              		.loc 1 741 56 is_stmt 1 view -0
 3273              		.cfi_startproc
 3274              		@ args = 0, pretend = 0, frame = 0
 3275              		@ frame_needed = 0, uses_anonymous_args = 0
 3276              		.loc 1 741 56 is_stmt 0 view .LVU945
 3277 0000 08B5     		push	{r3, lr}
 3278              	.LCFI18:
 3279              		.cfi_def_cfa_offset 8
 3280              		.cfi_offset 3, -8
 3281              		.cfi_offset 14, -4
 742:Src/analog.c  ****   switch (ana->mode)
 3282              		.loc 1 742 3 is_stmt 1 view .LVU946
 3283              		.loc 1 742 14 is_stmt 0 view .LVU947
 3284 0002 CB78     		ldrb	r3, [r1, #3]	@ zero_extendqisi2
 3285              		.loc 1 742 3 view .LVU948
 3286 0004 1D2B     		cmp	r3, #29
 3287 0006 0DD0     		beq	.L286
 3288 0008 1E2B     		cmp	r3, #30
 3289 000a 14D0     		beq	.L287
 3290 000c 1C2B     		cmp	r3, #28
 3291 000e 00D0     		beq	.L291
 3292              	.LVL291:
 3293              	.L285:
 743:Src/analog.c  ****   {
 744:Src/analog.c  ****     case ANALOG_DIGITAL_CLOCK:
 745:Src/analog.c  ****       if(message->byte1 == 0xF8) { // Midi message Clock
 746:Src/analog.c  ****         Analog_DigitalValue(true,true,ana);
 747:Src/analog.c  ****       }
 748:Src/analog.c  ****       break;
 749:Src/analog.c  **** 
 750:Src/analog.c  ****     case ANALOG_DIGITAL_CLOCK_RESET:
 751:Src/analog.c  ****       if(message->byte1 == 0xFA) { // Midi Message Running
 752:Src/analog.c  ****         Analog_DigitalValue(true,true,ana);
 753:Src/analog.c  ****       }
 754:Src/analog.c  ****       break;
 755:Src/analog.c  ****     case ANALOG_DIGITAL_CLOCK_RUN:
 756:Src/analog.c  ****       if(message->byte1 == 0xFA) { // Midi Message Running
 757:Src/analog.c  ****         Analog_DigitalValue(true,false,ana);
 758:Src/analog.c  ****       } else if(message->byte1 == 0xFC) { // Midi Message stopped
 759:Src/analog.c  ****         Analog_DigitalValue(false,false,ana);
 760:Src/analog.c  ****       }
 761:Src/analog.c  ****       break;
ARM GAS  /var/folders/80/65lm4rm97rv_n74c85vt01040000gn/T//ccuR6fPR.s 			page 81


 762:Src/analog.c  ****       
 763:Src/analog.c  ****     default:
 764:Src/analog.c  ****       break;
 765:Src/analog.c  ****   }
 766:Src/analog.c  **** }
 3294              		.loc 1 766 1 view .LVU949
 3295 0010 08BD     		pop	{r3, pc}
 3296              	.LVL292:
 3297              	.L291:
 745:Src/analog.c  ****         Analog_DigitalValue(true,true,ana);
 3298              		.loc 1 745 7 is_stmt 1 view .LVU950
 745:Src/analog.c  ****         Analog_DigitalValue(true,true,ana);
 3299              		.loc 1 745 17 is_stmt 0 view .LVU951
 3300 0012 8378     		ldrb	r3, [r0, #2]	@ zero_extendqisi2
 745:Src/analog.c  ****         Analog_DigitalValue(true,true,ana);
 3301              		.loc 1 745 9 view .LVU952
 3302 0014 F82B     		cmp	r3, #248
 3303 0016 FBD1     		bne	.L285
 746:Src/analog.c  ****       }
 3304              		.loc 1 746 9 is_stmt 1 view .LVU953
 3305 0018 0A46     		mov	r2, r1
 3306 001a 0121     		movs	r1, #1
 3307              	.LVL293:
 746:Src/analog.c  ****       }
 3308              		.loc 1 746 9 is_stmt 0 view .LVU954
 3309 001c 0846     		mov	r0, r1
 3310              	.LVL294:
 746:Src/analog.c  ****       }
 3311              		.loc 1 746 9 view .LVU955
 3312 001e FFF7FEFF 		bl	Analog_DigitalValue
 3313              	.LVL295:
 746:Src/analog.c  ****       }
 3314              		.loc 1 746 9 view .LVU956
 3315 0022 F5E7     		b	.L285
 3316              	.LVL296:
 3317              	.L286:
 751:Src/analog.c  ****         Analog_DigitalValue(true,true,ana);
 3318              		.loc 1 751 7 is_stmt 1 view .LVU957
 751:Src/analog.c  ****         Analog_DigitalValue(true,true,ana);
 3319              		.loc 1 751 17 is_stmt 0 view .LVU958
 3320 0024 8378     		ldrb	r3, [r0, #2]	@ zero_extendqisi2
 751:Src/analog.c  ****         Analog_DigitalValue(true,true,ana);
 3321              		.loc 1 751 9 view .LVU959
 3322 0026 FA2B     		cmp	r3, #250
 3323 0028 F2D1     		bne	.L285
 752:Src/analog.c  ****       }
 3324              		.loc 1 752 9 is_stmt 1 view .LVU960
 3325 002a 0A46     		mov	r2, r1
 3326 002c 0121     		movs	r1, #1
 3327              	.LVL297:
 752:Src/analog.c  ****       }
 3328              		.loc 1 752 9 is_stmt 0 view .LVU961
 3329 002e 0846     		mov	r0, r1
 3330              	.LVL298:
 752:Src/analog.c  ****       }
 3331              		.loc 1 752 9 view .LVU962
 3332 0030 FFF7FEFF 		bl	Analog_DigitalValue
ARM GAS  /var/folders/80/65lm4rm97rv_n74c85vt01040000gn/T//ccuR6fPR.s 			page 82


 3333              	.LVL299:
 752:Src/analog.c  ****       }
 3334              		.loc 1 752 9 view .LVU963
 3335 0034 ECE7     		b	.L285
 3336              	.LVL300:
 3337              	.L287:
 756:Src/analog.c  ****         Analog_DigitalValue(true,false,ana);
 3338              		.loc 1 756 7 is_stmt 1 view .LVU964
 756:Src/analog.c  ****         Analog_DigitalValue(true,false,ana);
 3339              		.loc 1 756 17 is_stmt 0 view .LVU965
 3340 0036 8378     		ldrb	r3, [r0, #2]	@ zero_extendqisi2
 756:Src/analog.c  ****         Analog_DigitalValue(true,false,ana);
 3341              		.loc 1 756 9 view .LVU966
 3342 0038 FA2B     		cmp	r3, #250
 3343 003a 07D0     		beq	.L292
 758:Src/analog.c  ****         Analog_DigitalValue(false,false,ana);
 3344              		.loc 1 758 14 is_stmt 1 view .LVU967
 758:Src/analog.c  ****         Analog_DigitalValue(false,false,ana);
 3345              		.loc 1 758 16 is_stmt 0 view .LVU968
 3346 003c FC2B     		cmp	r3, #252
 3347 003e E7D1     		bne	.L285
 759:Src/analog.c  ****       }
 3348              		.loc 1 759 9 is_stmt 1 view .LVU969
 3349 0040 0A46     		mov	r2, r1
 3350 0042 0021     		movs	r1, #0
 3351              	.LVL301:
 759:Src/analog.c  ****       }
 3352              		.loc 1 759 9 is_stmt 0 view .LVU970
 3353 0044 0846     		mov	r0, r1
 3354              	.LVL302:
 759:Src/analog.c  ****       }
 3355              		.loc 1 759 9 view .LVU971
 3356 0046 FFF7FEFF 		bl	Analog_DigitalValue
 3357              	.LVL303:
 3358              		.loc 1 766 1 view .LVU972
 3359 004a E1E7     		b	.L285
 3360              	.LVL304:
 3361              	.L292:
 757:Src/analog.c  ****       } else if(message->byte1 == 0xFC) { // Midi Message stopped
 3362              		.loc 1 757 9 is_stmt 1 view .LVU973
 3363 004c 0A46     		mov	r2, r1
 3364 004e 0021     		movs	r1, #0
 3365              	.LVL305:
 757:Src/analog.c  ****       } else if(message->byte1 == 0xFC) { // Midi Message stopped
 3366              		.loc 1 757 9 is_stmt 0 view .LVU974
 3367 0050 0120     		movs	r0, #1
 3368              	.LVL306:
 757:Src/analog.c  ****       } else if(message->byte1 == 0xFC) { // Midi Message stopped
 3369              		.loc 1 757 9 view .LVU975
 3370 0052 FFF7FEFF 		bl	Analog_DigitalValue
 3371              	.LVL307:
 757:Src/analog.c  ****       } else if(message->byte1 == 0xFC) { // Midi Message stopped
 3372              		.loc 1 757 9 view .LVU976
 3373 0056 DBE7     		b	.L285
 3374              		.cfi_endproc
 3375              	.LFE145:
 3377              		.section	.text.Analog_Aftertouch,"ax",%progbits
ARM GAS  /var/folders/80/65lm4rm97rv_n74c85vt01040000gn/T//ccuR6fPR.s 			page 83


 3378              		.align	1
 3379              		.global	Analog_Aftertouch
 3380              		.syntax unified
 3381              		.thumb
 3382              		.thumb_func
 3383              		.fpu fpv4-sp-d16
 3385              	Analog_Aftertouch:
 3386              	.LVL308:
 3387              	.LFB146:
 767:Src/analog.c  **** 
 768:Src/analog.c  **** void Analog_Aftertouch(MidiMessage *message, Analog_t *ana) {
 3388              		.loc 1 768 61 is_stmt 1 view -0
 3389              		.cfi_startproc
 3390              		@ args = 0, pretend = 0, frame = 0
 3391              		@ frame_needed = 0, uses_anonymous_args = 0
 3392              		.loc 1 768 61 is_stmt 0 view .LVU978
 3393 0000 08B5     		push	{r3, lr}
 3394              	.LCFI19:
 3395              		.cfi_def_cfa_offset 8
 3396              		.cfi_offset 3, -8
 3397              		.cfi_offset 14, -4
 769:Src/analog.c  ****   switch (ana->mode) {
 3398              		.loc 1 769 3 is_stmt 1 view .LVU979
 3399              		.loc 1 769 14 is_stmt 0 view .LVU980
 3400 0002 CB78     		ldrb	r3, [r1, #3]	@ zero_extendqisi2
 3401              		.loc 1 769 3 view .LVU981
 3402 0004 092B     		cmp	r3, #9
 3403 0006 02D0     		beq	.L294
 3404 0008 0A2B     		cmp	r3, #10
 3405 000a 16D0     		beq	.L295
 3406              	.LVL309:
 3407              	.L293:
 770:Src/analog.c  ****     case ANALOG_AFTERTOUCH_UNI:
 771:Src/analog.c  ****       if(message->midichannel == ana->settings.midichannel || ana->settings.midichannel == 255) {
 772:Src/analog.c  ****         DAC_InsertValue((5*message->byte2)/127.0f,ana->id);
 773:Src/analog.c  ****       }
 774:Src/analog.c  ****       break;
 775:Src/analog.c  **** 
 776:Src/analog.c  ****     case ANALOG_AFTERTOUCH_BI:
 777:Src/analog.c  ****       if(message->midichannel == ana->settings.midichannel || ana->settings.midichannel == 255) {
 778:Src/analog.c  ****         DAC_InsertValue((10*message->byte2)/127.0f - 5.0f,ana->id);
 779:Src/analog.c  ****       }
 780:Src/analog.c  ****       break;
 781:Src/analog.c  ****       
 782:Src/analog.c  ****     default:
 783:Src/analog.c  ****       break;
 784:Src/analog.c  ****   }
 785:Src/analog.c  **** }
 3408              		.loc 1 785 1 view .LVU982
 3409 000c 08BD     		pop	{r3, pc}
 3410              	.LVL310:
 3411              	.L294:
 771:Src/analog.c  ****         DAC_InsertValue((5*message->byte2)/127.0f,ana->id);
 3412              		.loc 1 771 7 is_stmt 1 view .LVU983
 771:Src/analog.c  ****         DAC_InsertValue((5*message->byte2)/127.0f,ana->id);
 3413              		.loc 1 771 17 is_stmt 0 view .LVU984
 3414 000e C278     		ldrb	r2, [r0, #3]	@ zero_extendqisi2
ARM GAS  /var/folders/80/65lm4rm97rv_n74c85vt01040000gn/T//ccuR6fPR.s 			page 84


 771:Src/analog.c  ****         DAC_InsertValue((5*message->byte2)/127.0f,ana->id);
 3415              		.loc 1 771 47 view .LVU985
 3416 0010 0B78     		ldrb	r3, [r1]	@ zero_extendqisi2
 771:Src/analog.c  ****         DAC_InsertValue((5*message->byte2)/127.0f,ana->id);
 3417              		.loc 1 771 9 view .LVU986
 3418 0012 9A42     		cmp	r2, r3
 3419 0014 01D0     		beq	.L297
 771:Src/analog.c  ****         DAC_InsertValue((5*message->byte2)/127.0f,ana->id);
 3420              		.loc 1 771 60 discriminator 1 view .LVU987
 3421 0016 FF2B     		cmp	r3, #255
 3422 0018 F8D1     		bne	.L293
 3423              	.L297:
 772:Src/analog.c  ****       }
 3424              		.loc 1 772 9 is_stmt 1 view .LVU988
 772:Src/analog.c  ****       }
 3425              		.loc 1 772 35 is_stmt 0 view .LVU989
 3426 001a 0379     		ldrb	r3, [r0, #4]	@ zero_extendqisi2
 772:Src/analog.c  ****       }
 3427              		.loc 1 772 27 view .LVU990
 3428 001c 03EB8303 		add	r3, r3, r3, lsl #2
 772:Src/analog.c  ****       }
 3429              		.loc 1 772 9 view .LVU991
 3430 0020 07EE903A 		vmov	s15, r3	@ int
 3431 0024 F8EEE77A 		vcvt.f32.s32	s15, s15
 3432 0028 91F88500 		ldrb	r0, [r1, #133]	@ zero_extendqisi2
 3433              	.LVL311:
 772:Src/analog.c  ****       }
 3434              		.loc 1 772 9 view .LVU992
 3435 002c 9FED100A 		vldr.32	s0, .L300
 3436 0030 87EE800A 		vdiv.f32	s0, s15, s0
 3437 0034 FFF7FEFF 		bl	DAC_InsertValue
 3438              	.LVL312:
 772:Src/analog.c  ****       }
 3439              		.loc 1 772 9 view .LVU993
 3440 0038 E8E7     		b	.L293
 3441              	.LVL313:
 3442              	.L295:
 777:Src/analog.c  ****         DAC_InsertValue((10*message->byte2)/127.0f - 5.0f,ana->id);
 3443              		.loc 1 777 7 is_stmt 1 view .LVU994
 777:Src/analog.c  ****         DAC_InsertValue((10*message->byte2)/127.0f - 5.0f,ana->id);
 3444              		.loc 1 777 17 is_stmt 0 view .LVU995
 3445 003a C278     		ldrb	r2, [r0, #3]	@ zero_extendqisi2
 777:Src/analog.c  ****         DAC_InsertValue((10*message->byte2)/127.0f - 5.0f,ana->id);
 3446              		.loc 1 777 47 view .LVU996
 3447 003c 0B78     		ldrb	r3, [r1]	@ zero_extendqisi2
 777:Src/analog.c  ****         DAC_InsertValue((10*message->byte2)/127.0f - 5.0f,ana->id);
 3448              		.loc 1 777 9 view .LVU997
 3449 003e 9A42     		cmp	r2, r3
 3450 0040 01D0     		beq	.L298
 777:Src/analog.c  ****         DAC_InsertValue((10*message->byte2)/127.0f - 5.0f,ana->id);
 3451              		.loc 1 777 60 discriminator 1 view .LVU998
 3452 0042 FF2B     		cmp	r3, #255
 3453 0044 E2D1     		bne	.L293
 3454              	.L298:
 778:Src/analog.c  ****       }
 3455              		.loc 1 778 9 is_stmt 1 view .LVU999
 778:Src/analog.c  ****       }
ARM GAS  /var/folders/80/65lm4rm97rv_n74c85vt01040000gn/T//ccuR6fPR.s 			page 85


 3456              		.loc 1 778 36 is_stmt 0 view .LVU1000
 3457 0046 0379     		ldrb	r3, [r0, #4]	@ zero_extendqisi2
 778:Src/analog.c  ****       }
 3458              		.loc 1 778 28 view .LVU1001
 3459 0048 03EB8303 		add	r3, r3, r3, lsl #2
 3460 004c 5B00     		lsls	r3, r3, #1
 778:Src/analog.c  ****       }
 3461              		.loc 1 778 44 view .LVU1002
 3462 004e 07EE903A 		vmov	s15, r3	@ int
 3463 0052 F8EEE77A 		vcvt.f32.s32	s15, s15
 3464 0056 9FED067A 		vldr.32	s14, .L300
 3465 005a 87EE870A 		vdiv.f32	s0, s15, s14
 778:Src/analog.c  ****       }
 3466              		.loc 1 778 9 view .LVU1003
 3467 005e 91F88500 		ldrb	r0, [r1, #133]	@ zero_extendqisi2
 3468              	.LVL314:
 778:Src/analog.c  ****       }
 3469              		.loc 1 778 9 view .LVU1004
 3470 0062 F1EE047A 		vmov.f32	s15, #5.0e+0
 3471 0066 30EE670A 		vsub.f32	s0, s0, s15
 3472 006a FFF7FEFF 		bl	DAC_InsertValue
 3473              	.LVL315:
 3474              		.loc 1 785 1 view .LVU1005
 3475 006e CDE7     		b	.L293
 3476              	.L301:
 3477              		.align	2
 3478              	.L300:
 3479 0070 0000FE42 		.word	1123942400
 3480              		.cfi_endproc
 3481              	.LFE146:
 3483              		.section	.text.Analog_Pitchbend,"ax",%progbits
 3484              		.align	1
 3485              		.global	Analog_Pitchbend
 3486              		.syntax unified
 3487              		.thumb
 3488              		.thumb_func
 3489              		.fpu fpv4-sp-d16
 3491              	Analog_Pitchbend:
 3492              	.LVL316:
 3493              	.LFB147:
 786:Src/analog.c  **** 
 787:Src/analog.c  **** void Analog_Pitchbend(MidiMessage *message, Analog_t *ana) {
 3494              		.loc 1 787 60 is_stmt 1 view -0
 3495              		.cfi_startproc
 3496              		@ args = 0, pretend = 0, frame = 0
 3497              		@ frame_needed = 0, uses_anonymous_args = 0
 3498              		.loc 1 787 60 is_stmt 0 view .LVU1007
 3499 0000 08B5     		push	{r3, lr}
 3500              	.LCFI20:
 3501              		.cfi_def_cfa_offset 8
 3502              		.cfi_offset 3, -8
 3503              		.cfi_offset 14, -4
 788:Src/analog.c  ****   switch(ana->mode) {
 3504              		.loc 1 788 3 is_stmt 1 view .LVU1008
 3505              		.loc 1 788 13 is_stmt 0 view .LVU1009
 3506 0002 CB78     		ldrb	r3, [r1, #3]	@ zero_extendqisi2
 3507              		.loc 1 788 3 view .LVU1010
ARM GAS  /var/folders/80/65lm4rm97rv_n74c85vt01040000gn/T//ccuR6fPR.s 			page 86


 3508 0004 042B     		cmp	r3, #4
 3509 0006 14D9     		bls	.L309
 3510 0008 0E3B     		subs	r3, r3, #14
 3511 000a DBB2     		uxtb	r3, r3
 3512 000c 0B2B     		cmp	r3, #11
 3513 000e 12D8     		bhi	.L302
 789:Src/analog.c  ****     case ANALOG_POLY_OSC_SAW_DUO:
 790:Src/analog.c  ****     case ANALOG_POLY_OSC_PULSE_DUO:
 791:Src/analog.c  ****     case ANALOG_POLY_OSC_TRI_DUO:
 792:Src/analog.c  ****     case ANALOG_POLY_OSC_SINE_DUO:
 793:Src/analog.c  ****     case ANALOG_POLY_OSC_SAW_QUAD:
 794:Src/analog.c  ****     case ANALOG_POLY_OSC_PULSE_QUAD:
 795:Src/analog.c  ****     case ANALOG_POLY_OSC_TRI_QUAD:
 796:Src/analog.c  ****     case ANALOG_POLY_OSC_SINE_QUAD:
 797:Src/analog.c  ****     case ANALOG_MONO_OSC_PULSE:
 798:Src/analog.c  ****     case ANALOG_MONO_OSC_SAW:
 799:Src/analog.c  ****     case ANALOG_MONO_OSC_TRI:
 800:Src/analog.c  ****     case ANALOG_MONO_OSC_SINE:
 801:Src/analog.c  ****       if(message->midichannel == ana->settings.midichannel || ana->settings.midichannel == 255) {
 3514              		.loc 1 801 7 is_stmt 1 view .LVU1011
 3515              		.loc 1 801 17 is_stmt 0 view .LVU1012
 3516 0010 C278     		ldrb	r2, [r0, #3]	@ zero_extendqisi2
 3517              		.loc 1 801 47 view .LVU1013
 3518 0012 0B78     		ldrb	r3, [r1]	@ zero_extendqisi2
 3519              		.loc 1 801 9 view .LVU1014
 3520 0014 9A42     		cmp	r2, r3
 3521 0016 01D0     		beq	.L306
 3522              		.loc 1 801 60 discriminator 1 view .LVU1015
 3523 0018 FF2B     		cmp	r3, #255
 3524 001a 0CD1     		bne	.L302
 3525              	.L306:
 802:Src/analog.c  ****         ana->pitchbend = -8192 + message->byte2 + (message->byte3 << 7);
 3526              		.loc 1 802 9 is_stmt 1 view .LVU1016
 3527              		.loc 1 802 41 is_stmt 0 view .LVU1017
 3528 001c 0379     		ldrb	r3, [r0, #4]	@ zero_extendqisi2
 3529              		.loc 1 802 32 view .LVU1018
 3530 001e A3F50053 		sub	r3, r3, #8192
 3531              		.loc 1 802 59 view .LVU1019
 3532 0022 4279     		ldrb	r2, [r0, #5]	@ zero_extendqisi2
 3533              		.loc 1 802 49 view .LVU1020
 3534 0024 03EBC213 		add	r3, r3, r2, lsl #7
 3535              		.loc 1 802 24 view .LVU1021
 3536 0028 8B60     		str	r3, [r1, #8]
 803:Src/analog.c  ****         Analog_CalculateFrequency(ana);
 3537              		.loc 1 803 9 is_stmt 1 view .LVU1022
 3538 002a 0846     		mov	r0, r1
 3539              	.LVL317:
 3540              		.loc 1 803 9 is_stmt 0 view .LVU1023
 3541 002c FFF7FEFF 		bl	Analog_CalculateFrequency
 3542              	.LVL318:
 3543              		.loc 1 803 9 view .LVU1024
 3544 0030 01E0     		b	.L302
 3545              	.LVL319:
 3546              	.L309:
 788:Src/analog.c  ****     case ANALOG_POLY_OSC_SAW_DUO:
 3547              		.loc 1 788 3 view .LVU1025
 3548 0032 022B     		cmp	r3, #2
ARM GAS  /var/folders/80/65lm4rm97rv_n74c85vt01040000gn/T//ccuR6fPR.s 			page 87


 3549 0034 00D2     		bcs	.L310
 3550              	.LVL320:
 3551              	.L302:
 804:Src/analog.c  ****       }
 805:Src/analog.c  ****       break;
 806:Src/analog.c  **** 
 807:Src/analog.c  ****     case ANALOG_VOCT:
 808:Src/analog.c  ****     case ANALOG_POLY_DUO:
 809:Src/analog.c  ****     case ANALOG_POLY_QUAD:
 810:Src/analog.c  ****       if(message->midichannel == ana->settings.midichannel || ana->settings.midichannel == 255) {
 811:Src/analog.c  ****         ana->pitchbend = -8192 + message->byte2 + (message->byte3 << 7); 
 812:Src/analog.c  ****         Analog_NoteToDac(ana);
 813:Src/analog.c  ****       }
 814:Src/analog.c  ****       break;
 815:Src/analog.c  **** 
 816:Src/analog.c  ****     default:
 817:Src/analog.c  ****       break;
 818:Src/analog.c  ****   }
 819:Src/analog.c  **** }
 3552              		.loc 1 819 1 view .LVU1026
 3553 0036 08BD     		pop	{r3, pc}
 3554              	.LVL321:
 3555              	.L310:
 810:Src/analog.c  ****         ana->pitchbend = -8192 + message->byte2 + (message->byte3 << 7); 
 3556              		.loc 1 810 7 is_stmt 1 view .LVU1027
 810:Src/analog.c  ****         ana->pitchbend = -8192 + message->byte2 + (message->byte3 << 7); 
 3557              		.loc 1 810 17 is_stmt 0 view .LVU1028
 3558 0038 C278     		ldrb	r2, [r0, #3]	@ zero_extendqisi2
 810:Src/analog.c  ****         ana->pitchbend = -8192 + message->byte2 + (message->byte3 << 7); 
 3559              		.loc 1 810 47 view .LVU1029
 3560 003a 0B78     		ldrb	r3, [r1]	@ zero_extendqisi2
 810:Src/analog.c  ****         ana->pitchbend = -8192 + message->byte2 + (message->byte3 << 7); 
 3561              		.loc 1 810 9 view .LVU1030
 3562 003c 9A42     		cmp	r2, r3
 3563 003e 01D0     		beq	.L307
 810:Src/analog.c  ****         ana->pitchbend = -8192 + message->byte2 + (message->byte3 << 7); 
 3564              		.loc 1 810 60 discriminator 1 view .LVU1031
 3565 0040 FF2B     		cmp	r3, #255
 3566 0042 F8D1     		bne	.L302
 3567              	.L307:
 811:Src/analog.c  ****         Analog_NoteToDac(ana);
 3568              		.loc 1 811 9 is_stmt 1 view .LVU1032
 811:Src/analog.c  ****         Analog_NoteToDac(ana);
 3569              		.loc 1 811 41 is_stmt 0 view .LVU1033
 3570 0044 0379     		ldrb	r3, [r0, #4]	@ zero_extendqisi2
 811:Src/analog.c  ****         Analog_NoteToDac(ana);
 3571              		.loc 1 811 32 view .LVU1034
 3572 0046 A3F50053 		sub	r3, r3, #8192
 811:Src/analog.c  ****         Analog_NoteToDac(ana);
 3573              		.loc 1 811 59 view .LVU1035
 3574 004a 4279     		ldrb	r2, [r0, #5]	@ zero_extendqisi2
 811:Src/analog.c  ****         Analog_NoteToDac(ana);
 3575              		.loc 1 811 49 view .LVU1036
 3576 004c 03EBC213 		add	r3, r3, r2, lsl #7
 811:Src/analog.c  ****         Analog_NoteToDac(ana);
 3577              		.loc 1 811 24 view .LVU1037
 3578 0050 8B60     		str	r3, [r1, #8]
ARM GAS  /var/folders/80/65lm4rm97rv_n74c85vt01040000gn/T//ccuR6fPR.s 			page 88


 812:Src/analog.c  ****       }
 3579              		.loc 1 812 9 is_stmt 1 view .LVU1038
 3580 0052 0846     		mov	r0, r1
 3581              	.LVL322:
 812:Src/analog.c  ****       }
 3582              		.loc 1 812 9 is_stmt 0 view .LVU1039
 3583 0054 FFF7FEFF 		bl	Analog_NoteToDac
 3584              	.LVL323:
 3585              		.loc 1 819 1 view .LVU1040
 3586 0058 EDE7     		b	.L302
 3587              		.cfi_endproc
 3588              	.LFE147:
 3590              		.section	.text.Analog_Pedal,"ax",%progbits
 3591              		.align	1
 3592              		.global	Analog_Pedal
 3593              		.syntax unified
 3594              		.thumb
 3595              		.thumb_func
 3596              		.fpu fpv4-sp-d16
 3598              	Analog_Pedal:
 3599              	.LVL324:
 3600              	.LFB148:
 820:Src/analog.c  **** 
 821:Src/analog.c  **** void Analog_Pedal(MidiMessage *message, Analog_t *ana) {
 3601              		.loc 1 821 56 is_stmt 1 view -0
 3602              		.cfi_startproc
 3603              		@ args = 0, pretend = 0, frame = 0
 3604              		@ frame_needed = 0, uses_anonymous_args = 0
 3605              		.loc 1 821 56 is_stmt 0 view .LVU1042
 3606 0000 10B5     		push	{r4, lr}
 3607              	.LCFI21:
 3608              		.cfi_def_cfa_offset 8
 3609              		.cfi_offset 4, -8
 3610              		.cfi_offset 14, -4
 3611 0002 0C46     		mov	r4, r1
 822:Src/analog.c  ****   if(message->midichannel == ana->settings.midichannel || ana->settings.midichannel == 255) {
 3612              		.loc 1 822 3 is_stmt 1 view .LVU1043
 3613              		.loc 1 822 13 is_stmt 0 view .LVU1044
 3614 0004 C278     		ldrb	r2, [r0, #3]	@ zero_extendqisi2
 3615              		.loc 1 822 43 view .LVU1045
 3616 0006 0B78     		ldrb	r3, [r1]	@ zero_extendqisi2
 3617              		.loc 1 822 5 view .LVU1046
 3618 0008 9A42     		cmp	r2, r3
 3619 000a 02D0     		beq	.L312
 3620              		.loc 1 822 56 discriminator 1 view .LVU1047
 3621 000c FF2B     		cmp	r3, #255
 3622 000e 00D0     		beq	.L312
 3623              	.LVL325:
 3624              	.L311:
 823:Src/analog.c  ****     ana->pedal = message->byte3;
 824:Src/analog.c  ****     uint8_t tempnote = NoteStack_RecentNote(&ana->stack);
 825:Src/analog.c  ****     switch(ana->mode) {
 826:Src/analog.c  ****       case ANALOG_DIGITAL_GATE:
 827:Src/analog.c  ****         if(ana->pedal == 0) {
 828:Src/analog.c  ****           Analog_DigitalValue(ana->digitalstate,false,ana);
 829:Src/analog.c  ****         }
 830:Src/analog.c  ****         break;
ARM GAS  /var/folders/80/65lm4rm97rv_n74c85vt01040000gn/T//ccuR6fPR.s 			page 89


 831:Src/analog.c  **** 
 832:Src/analog.c  ****       case ANALOG_ENVELOPE_ASR_EXPO:
 833:Src/analog.c  ****       case ANALOG_ENVELOPE_ASR_LOG:
 834:Src/analog.c  ****       case ANALOG_ENVELOPE_ASR_LINEAR:
 835:Src/analog.c  ****         if(tempnote == 0xFF && ana->pedal == 0) {
 836:Src/analog.c  ****           ana->oscnote = tempnote;
 837:Src/analog.c  ****         }
 838:Src/analog.c  ****         break;
 839:Src/analog.c  **** 
 840:Src/analog.c  **** 
 841:Src/analog.c  ****       case ANALOG_POLY_OSC_PULSE_DUO:
 842:Src/analog.c  ****       case ANALOG_POLY_OSC_SAW_DUO:
 843:Src/analog.c  ****       case ANALOG_POLY_OSC_TRI_DUO:
 844:Src/analog.c  ****       case ANALOG_POLY_OSC_SINE_DUO:
 845:Src/analog.c  ****       case ANALOG_POLY_OSC_PULSE_QUAD:
 846:Src/analog.c  ****       case ANALOG_POLY_OSC_SAW_QUAD:
 847:Src/analog.c  ****       case ANALOG_POLY_OSC_TRI_QUAD:
 848:Src/analog.c  ****       case ANALOG_POLY_OSC_SINE_QUAD:
 849:Src/analog.c  ****       case ANALOG_MONO_OSC_PULSE:
 850:Src/analog.c  ****       case ANALOG_MONO_OSC_SAW:
 851:Src/analog.c  ****       case ANALOG_MONO_OSC_TRI:
 852:Src/analog.c  ****       case ANALOG_MONO_OSC_SINE:
 853:Src/analog.c  ****         if(ana->pedal == 0) {
 854:Src/analog.c  ****           if(ana->digitalstate == 0) {
 855:Src/analog.c  ****             ana->oscnote = 0xFF;
 856:Src/analog.c  ****           }
 857:Src/analog.c  ****         }
 858:Src/analog.c  **** 
 859:Src/analog.c  ****       default:
 860:Src/analog.c  ****         break;
 861:Src/analog.c  ****     }
 862:Src/analog.c  ****   }
 863:Src/analog.c  **** }...
 3625              		.loc 1 863 1 view .LVU1048
 3626 0010 10BD     		pop	{r4, pc}
 3627              	.LVL326:
 3628              	.L312:
 3629              	.LBB24:
 823:Src/analog.c  ****     ana->pedal = message->byte3;
 3630              		.loc 1 823 5 is_stmt 1 view .LVU1049
 823:Src/analog.c  ****     ana->pedal = message->byte3;
 3631              		.loc 1 823 25 is_stmt 0 view .LVU1050
 3632 0012 4379     		ldrb	r3, [r0, #5]	@ zero_extendqisi2
 823:Src/analog.c  ****     ana->pedal = message->byte3;
 3633              		.loc 1 823 16 view .LVU1051
 3634 0014 2373     		strb	r3, [r4, #12]
 824:Src/analog.c  ****     uint8_t tempnote = NoteStack_RecentNote(&ana->stack);
 3635              		.loc 1 824 5 is_stmt 1 view .LVU1052
 824:Src/analog.c  ****     uint8_t tempnote = NoteStack_RecentNote(&ana->stack);
 3636              		.loc 1 824 24 is_stmt 0 view .LVU1053
 3637 0016 04F12600 		add	r0, r4, #38
 3638              	.LVL327:
 824:Src/analog.c  ****     uint8_t tempnote = NoteStack_RecentNote(&ana->stack);
 3639              		.loc 1 824 24 view .LVU1054
 3640 001a FFF7FEFF 		bl	NoteStack_RecentNote
 3641              	.LVL328:
 825:Src/analog.c  ****     switch(ana->mode) {
ARM GAS  /var/folders/80/65lm4rm97rv_n74c85vt01040000gn/T//ccuR6fPR.s 			page 90


 3642              		.loc 1 825 5 is_stmt 1 view .LVU1055
 825:Src/analog.c  ****     switch(ana->mode) {
 3643              		.loc 1 825 15 is_stmt 0 view .LVU1056
 3644 001e E378     		ldrb	r3, [r4, #3]	@ zero_extendqisi2
 825:Src/analog.c  ****     switch(ana->mode) {
 3645              		.loc 1 825 5 view .LVU1057
 3646 0020 1A2B     		cmp	r3, #26
 3647 0022 18D0     		beq	.L314
 3648 0024 0CD8     		bhi	.L315
 3649 0026 0E3B     		subs	r3, r3, #14
 3650 0028 DBB2     		uxtb	r3, r3
 3651 002a 0B2B     		cmp	r3, #11
 3652 002c F0D8     		bhi	.L311
 853:Src/analog.c  ****         if(ana->pedal == 0) {
 3653              		.loc 1 853 9 is_stmt 1 view .LVU1058
 853:Src/analog.c  ****         if(ana->pedal == 0) {
 3654              		.loc 1 853 15 is_stmt 0 view .LVU1059
 3655 002e 237B     		ldrb	r3, [r4, #12]	@ zero_extendqisi2
 853:Src/analog.c  ****         if(ana->pedal == 0) {
 3656              		.loc 1 853 11 view .LVU1060
 3657 0030 002B     		cmp	r3, #0
 3658 0032 EDD1     		bne	.L311
 854:Src/analog.c  ****           if(ana->digitalstate == 0) {
 3659              		.loc 1 854 11 is_stmt 1 view .LVU1061
 854:Src/analog.c  ****           if(ana->digitalstate == 0) {
 3660              		.loc 1 854 17 is_stmt 0 view .LVU1062
 3661 0034 637B     		ldrb	r3, [r4, #13]	@ zero_extendqisi2
 854:Src/analog.c  ****           if(ana->digitalstate == 0) {
 3662              		.loc 1 854 13 view .LVU1063
 3663 0036 002B     		cmp	r3, #0
 3664 0038 EAD1     		bne	.L311
 855:Src/analog.c  ****             ana->oscnote = 0xFF;
 3665              		.loc 1 855 13 is_stmt 1 view .LVU1064
 855:Src/analog.c  ****             ana->oscnote = 0xFF;
 3666              		.loc 1 855 26 is_stmt 0 view .LVU1065
 3667 003a FF23     		movs	r3, #255
 3668 003c A371     		strb	r3, [r4, #6]
 3669              	.LBE24:
 3670              		.loc 1 863 1 view .LVU1066
 3671 003e E7E7     		b	.L311
 3672              	.L315:
 3673              	.LBB25:
 825:Src/analog.c  ****     switch(ana->mode) {
 3674              		.loc 1 825 5 view .LVU1067
 3675 0040 253B     		subs	r3, r3, #37
 3676 0042 DBB2     		uxtb	r3, r3
 3677 0044 022B     		cmp	r3, #2
 3678 0046 E3D8     		bhi	.L311
 835:Src/analog.c  ****         if(tempnote == 0xFF && ana->pedal == 0) {
 3679              		.loc 1 835 9 is_stmt 1 view .LVU1068
 835:Src/analog.c  ****         if(tempnote == 0xFF && ana->pedal == 0) {
 3680              		.loc 1 835 11 is_stmt 0 view .LVU1069
 3681 0048 FF28     		cmp	r0, #255
 3682 004a E1D1     		bne	.L311
 835:Src/analog.c  ****         if(tempnote == 0xFF && ana->pedal == 0) {
 3683              		.loc 1 835 35 discriminator 1 view .LVU1070
 3684 004c 237B     		ldrb	r3, [r4, #12]	@ zero_extendqisi2
ARM GAS  /var/folders/80/65lm4rm97rv_n74c85vt01040000gn/T//ccuR6fPR.s 			page 91


 835:Src/analog.c  ****         if(tempnote == 0xFF && ana->pedal == 0) {
 3685              		.loc 1 835 29 discriminator 1 view .LVU1071
 3686 004e 002B     		cmp	r3, #0
 3687 0050 DED1     		bne	.L311
 836:Src/analog.c  ****           ana->oscnote = tempnote;
 3688              		.loc 1 836 11 is_stmt 1 view .LVU1072
 836:Src/analog.c  ****           ana->oscnote = tempnote;
 3689              		.loc 1 836 24 is_stmt 0 view .LVU1073
 3690 0052 A071     		strb	r0, [r4, #6]
 3691 0054 DCE7     		b	.L311
 3692              	.L314:
 827:Src/analog.c  ****         if(ana->pedal == 0) {
 3693              		.loc 1 827 9 is_stmt 1 view .LVU1074
 827:Src/analog.c  ****         if(ana->pedal == 0) {
 3694              		.loc 1 827 15 is_stmt 0 view .LVU1075
 3695 0056 237B     		ldrb	r3, [r4, #12]	@ zero_extendqisi2
 827:Src/analog.c  ****         if(ana->pedal == 0) {
 3696              		.loc 1 827 11 view .LVU1076
 3697 0058 002B     		cmp	r3, #0
 3698 005a D9D1     		bne	.L311
 828:Src/analog.c  ****           Analog_DigitalValue(ana->digitalstate,false,ana);
 3699              		.loc 1 828 11 is_stmt 1 view .LVU1077
 3700 005c 2246     		mov	r2, r4
 3701 005e 0021     		movs	r1, #0
 3702 0060 607B     		ldrb	r0, [r4, #13]	@ zero_extendqisi2
 3703              	.LVL329:
 828:Src/analog.c  ****           Analog_DigitalValue(ana->digitalstate,false,ana);
 3704              		.loc 1 828 11 is_stmt 0 view .LVU1078
 3705 0062 FFF7FEFF 		bl	Analog_DigitalValue
 3706              	.LVL330:
 3707 0066 D3E7     		b	.L311
 3708              	.LBE25:
 3709              		.cfi_endproc
 3710              	.LFE148:
 3712              		.global	state
 3713              		.global	randomthreshold
 3714              		.global	analog
 3715              		.global	envelopetime
 3716              		.global	envelopeexpo
 3717              		.global	sinelut
 3718              		.section	.bss.analog,"aw",%nobits
 3719              		.align	2
 3720              		.set	.LANCHOR1,. + 0
 3723              	analog:
 3724 0000 00000000 		.space	544
 3724      00000000 
 3724      00000000 
 3724      00000000 
 3724      00000000 
 3725              		.section	.bss.state,"aw",%nobits
 3726              		.align	2
 3727              		.set	.LANCHOR0,. + 0
 3730              	state:
 3731 0000 00000000 		.space	4
 3732              		.section	.data.randomthreshold,"aw"
 3733              		.align	2
 3734              		.set	.LANCHOR2,. + 0
ARM GAS  /var/folders/80/65lm4rm97rv_n74c85vt01040000gn/T//ccuR6fPR.s 			page 92


 3737              	randomthreshold:
 3738 0000 411DD401 		.word	30678337
 3739 0004 19D36400 		.word	6607641
 3740 0008 C8451800 		.word	1590728
 3741 000c D69E0700 		.word	499414
 3742              		.section	.rodata.envelopeexpo,"a"
 3743              		.align	2
 3746              	envelopeexpo:
 3747 0000 00000000 		.word	0
 3748 0004 12721D38 		.word	941453842
 3749 0008 498B9D38 		.word	949848905
 3750 000c C976EC38 		.word	955021001
 3751 0010 C8BD1D39 		.word	958250440
 3752 0014 D44C4539 		.word	960842964
 3753 0018 8CE86C39 		.word	963438732
 3754 001c 7A488A39 		.word	965363834
 3755 0020 07239E39 		.word	966664967
 3756 0024 F103B239 		.word	967967729
 3757 0028 39EBC539 		.word	969272121
 3758 002c E1D8D939 		.word	970578145
 3759 0030 ECCCED39 		.word	971885804
 3760 0034 ADE3003A 		.word	973136813
 3761 0038 18E40A3A 		.word	973792280
 3762 003c B6E7143A 		.word	974448566
 3763 0040 8AEE1E3A 		.word	975105674
 3764 0044 94F8283A 		.word	975763604
 3765 0048 D505333A 		.word	976422357
 3766 004c 4F163D3A 		.word	977081935
 3767 0050 012A473A 		.word	977742337
 3768 0054 EE40513A 		.word	978403566
 3769 0058 175B5B3A 		.word	979065623
 3770 005c 7C78653A 		.word	979728508
 3771 0060 1E996F3A 		.word	980392222
 3772 0064 FFBC793A 		.word	981056767
 3773 0068 10F2813A 		.word	981594640
 3774 006c 4007873A 		.word	981927744
 3775 0070 111E8C3A 		.word	982261265
 3776 0074 8436913A 		.word	982595204
 3777 0078 9850963A 		.word	982929560
 3778 007c 4F6C9B3A 		.word	983264335
 3779 0080 A989A03A 		.word	983599529
 3780 0084 A6A8A53A 		.word	983935142
 3781 0088 47C9AA3A 		.word	984271175
 3782 008c 8DEBAF3A 		.word	984607629
 3783 0090 770FB53A 		.word	984944503
 3784 0094 0735BA3A 		.word	985281799
 3785 0098 3D5CBF3A 		.word	985619517
 3786 009c 1A85C43A 		.word	985957658
 3787 00a0 9EAFC93A 		.word	986296222
 3788 00a4 C9DBCE3A 		.word	986635209
 3789 00a8 9D09D43A 		.word	986974621
 3790 00ac 1939D93A 		.word	987314457
 3791 00b0 3E6ADE3A 		.word	987654718
 3792 00b4 0E9DE33A 		.word	987995406
 3793 00b8 87D1E83A 		.word	988336519
 3794 00bc AB07EE3A 		.word	988678059
 3795 00c0 7B3FF33A 		.word	989020027
ARM GAS  /var/folders/80/65lm4rm97rv_n74c85vt01040000gn/T//ccuR6fPR.s 			page 93


 3796 00c4 F778F83A 		.word	989362423
 3797 00c8 1FB4FD3A 		.word	989705247
 3798 00cc 7A78013B 		.word	989952122
 3799 00d0 BB17043B 		.word	990123963
 3800 00d4 D3B7063B 		.word	990296019
 3801 00d8 C358093B 		.word	990468291
 3802 00dc 8AFA0B3B 		.word	990640778
 3803 00e0 299D0E3B 		.word	990813481
 3804 00e4 A040113B 		.word	990986400
 3805 00e8 EFE4133B 		.word	991159535
 3806 00ec 178A163B 		.word	991332887
 3807 00f0 1830193B 		.word	991506456
 3808 00f4 F2D61B3B 		.word	991680242
 3809 00f8 A67E1E3B 		.word	991854246
 3810 00fc 3327213B 		.word	992028467
 3811 0100 9BD0233B 		.word	992202907
 3812 0104 DC7A263B 		.word	992377564
 3813 0108 F825293B 		.word	992552440
 3814 010c EFD12B3B 		.word	992727535
 3815 0110 C17E2E3B 		.word	992902849
 3816 0114 6F2C313B 		.word	993078383
 3817 0118 F8DA333B 		.word	993254136
 3818 011c 5D8A363B 		.word	993430109
 3819 0120 9E3A393B 		.word	993606302
 3820 0124 BBEB3B3B 		.word	993782715
 3821 0128 B69D3E3B 		.word	993959350
 3822 012c 8D50413B 		.word	994136205
 3823 0130 4204443B 		.word	994313282
 3824 0134 D4B8463B 		.word	994490580
 3825 0138 446E493B 		.word	994668100
 3826 013c 92244C3B 		.word	994845842
 3827 0140 BFDB4E3B 		.word	995023807
 3828 0144 CA93513B 		.word	995201994
 3829 0148 B44C543B 		.word	995380404
 3830 014c 7E06573B 		.word	995559038
 3831 0150 27C1593B 		.word	995737895
 3832 0154 AF7C5C3B 		.word	995916975
 3833 0158 18395F3B 		.word	996096280
 3834 015c 61F6613B 		.word	996275809
 3835 0160 8BB4643B 		.word	996455563
 3836 0164 9673673B 		.word	996635542
 3837 0168 82336A3B 		.word	996815746
 3838 016c 50F46C3B 		.word	996996176
 3839 0170 FFB56F3B 		.word	997176831
 3840 0174 9078723B 		.word	997357712
 3841 0178 043C753B 		.word	997538820
 3842 017c 5A00783B 		.word	997720154
 3843 0180 93C57A3B 		.word	997901715
 3844 0184 AF8B7D3B 		.word	998083503
 3845 0188 5729803B 		.word	998254935
 3846 018c 498D813B 		.word	998346057
 3847 0190 ADF1823B 		.word	998437293
 3848 0194 8356843B 		.word	998528643
 3849 0198 CBBB853B 		.word	998620107
 3850 019c 8621873B 		.word	998711686
 3851 01a0 B387883B 		.word	998803379
 3852 01a4 53EE893B 		.word	998895187
ARM GAS  /var/folders/80/65lm4rm97rv_n74c85vt01040000gn/T//ccuR6fPR.s 			page 94


 3853 01a8 66558B3B 		.word	998987110
 3854 01ac ECBC8C3B 		.word	999079148
 3855 01b0 E5248E3B 		.word	999171301
 3856 01b4 518D8F3B 		.word	999263569
 3857 01b8 31F6903B 		.word	999355953
 3858 01bc 855F923B 		.word	999448453
 3859 01c0 4CC9933B 		.word	999541068
 3860 01c4 8733953B 		.word	999633799
 3861 01c8 369E963B 		.word	999726646
 3862 01cc 5909983B 		.word	999819609
 3863 01d0 F174993B 		.word	999912689
 3864 01d4 FDE09A3B 		.word	1000005885
 3865 01d8 7D4D9C3B 		.word	1000099197
 3866 01dc 73BA9D3B 		.word	1000192627
 3867 01e0 DD279F3B 		.word	1000286173
 3868 01e4 BC95A03B 		.word	1000379836
 3869 01e8 1104A23B 		.word	1000473617
 3870 01ec DB72A33B 		.word	1000567515
 3871 01f0 1AE2A43B 		.word	1000661530
 3872 01f4 CF51A63B 		.word	1000755663
 3873 01f8 FAC1A73B 		.word	1000849914
 3874 01fc 9B32A93B 		.word	1000944283
 3875 0200 B2A3AA3B 		.word	1001038770
 3876 0204 3F15AC3B 		.word	1001133375
 3877 0208 4287AD3B 		.word	1001228098
 3878 020c BCF9AE3B 		.word	1001322940
 3879 0210 AD6CB03B 		.word	1001417901
 3880 0214 14E0B13B 		.word	1001512980
 3881 0218 F353B33B 		.word	1001608179
 3882 021c 48C8B43B 		.word	1001703496
 3883 0220 153DB63B 		.word	1001798933
 3884 0224 59B2B73B 		.word	1001894489
 3885 0228 1528B93B 		.word	1001990165
 3886 022c 499EBA3B 		.word	1002085961
 3887 0230 F414BC3B 		.word	1002181876
 3888 0234 188CBD3B 		.word	1002277912
 3889 0238 B303BF3B 		.word	1002374067
 3890 023c C77BC03B 		.word	1002470343
 3891 0240 53F4C13B 		.word	1002566739
 3892 0244 586DC33B 		.word	1002663256
 3893 0248 D6E6C43B 		.word	1002759894
 3894 024c CD60C63B 		.word	1002856653
 3895 0250 3CDBC73B 		.word	1002953532
 3896 0254 2556C93B 		.word	1003050533
 3897 0258 88D1CA3B 		.word	1003147656
 3898 025c 634DCC3B 		.word	1003244899
 3899 0260 B9C9CD3B 		.word	1003342265
 3900 0264 8846CF3B 		.word	1003439752
 3901 0268 D2C3D03B 		.word	1003537362
 3902 026c 9541D23B 		.word	1003635093
 3903 0270 D3BFD33B 		.word	1003732947
 3904 0274 8B3ED53B 		.word	1003830923
 3905 0278 BEBDD63B 		.word	1003929022
 3906 027c 6B3DD83B 		.word	1004027243
 3907 0280 94BDD93B 		.word	1004125588
 3908 0284 373EDB3B 		.word	1004224055
 3909 0288 56BFDC3B 		.word	1004322646
ARM GAS  /var/folders/80/65lm4rm97rv_n74c85vt01040000gn/T//ccuR6fPR.s 			page 95


 3910 028c F040DE3B 		.word	1004421360
 3911 0290 06C3DF3B 		.word	1004520198
 3912 0294 9745E13B 		.word	1004619159
 3913 0298 A4C8E23B 		.word	1004718244
 3914 029c 2D4CE43B 		.word	1004817453
 3915 02a0 32D0E53B 		.word	1004916786
 3916 02a4 B454E73B 		.word	1005016244
 3917 02a8 B2D9E83B 		.word	1005115826
 3918 02ac 2C5FEA3B 		.word	1005215532
 3919 02b0 24E5EB3B 		.word	1005315364
 3920 02b4 986BED3B 		.word	1005415320
 3921 02b8 89F2EE3B 		.word	1005515401
 3922 02bc F879F03B 		.word	1005615608
 3923 02c0 E401F23B 		.word	1005715940
 3924 02c4 4D8AF33B 		.word	1005816397
 3925 02c8 3413F53B 		.word	1005916980
 3926 02cc 999CF63B 		.word	1006017689
 3927 02d0 7C26F83B 		.word	1006118524
 3928 02d4 DDB0F93B 		.word	1006219485
 3929 02d8 BD3BFB3B 		.word	1006320573
 3930 02dc 1BC7FC3B 		.word	1006421787
 3931 02e0 F752FE3B 		.word	1006523127
 3932 02e4 53DFFF3B 		.word	1006624595
 3933 02e8 17B6003C 		.word	1006679575
 3934 02ec C37C013C 		.word	1006730435
 3935 02f0 B043023C 		.word	1006781360
 3936 02f4 DC0A033C 		.word	1006832348
 3937 02f8 48D2033C 		.word	1006883400
 3938 02fc F499043C 		.word	1006934516
 3939 0300 DF61053C 		.word	1006985695
 3940 0304 0B2A063C 		.word	1007036939
 3941 0308 77F2063C 		.word	1007088247
 3942 030c 23BB073C 		.word	1007139619
 3943 0310 1084083C 		.word	1007191056
 3944 0314 3D4D093C 		.word	1007242557
 3945 0318 AA160A3C 		.word	1007294122
 3946 031c 57E00A3C 		.word	1007345751
 3947 0320 46AA0B3C 		.word	1007397446
 3948 0324 75740C3C 		.word	1007449205
 3949 0328 E53E0D3C 		.word	1007501029
 3950 032c 95090E3C 		.word	1007552917
 3951 0330 87D40E3C 		.word	1007604871
 3952 0334 B99F0F3C 		.word	1007656889
 3953 0338 2D6B103C 		.word	1007708973
 3954 033c E236113C 		.word	1007761122
 3955 0340 D802123C 		.word	1007813336
 3956 0344 0FCF123C 		.word	1007865615
 3957 0348 889B133C 		.word	1007917960
 3958 034c 4268143C 		.word	1007970370
 3959 0350 3E35153C 		.word	1008022846
 3960 0354 7C02163C 		.word	1008075388
 3961 0358 FBCF163C 		.word	1008127995
 3962 035c BC9D173C 		.word	1008180668
 3963 0360 BF6B183C 		.word	1008233407
 3964 0364 043A193C 		.word	1008286212
 3965 0368 8B081A3C 		.word	1008339083
 3966 036c 55D71A3C 		.word	1008392021
ARM GAS  /var/folders/80/65lm4rm97rv_n74c85vt01040000gn/T//ccuR6fPR.s 			page 96


 3967 0370 60A61B3C 		.word	1008445024
 3968 0374 AE751C3C 		.word	1008498094
 3969 0378 3E451D3C 		.word	1008551230
 3970 037c 11151E3C 		.word	1008604433
 3971 0380 26E51E3C 		.word	1008657702
 3972 0384 7EB51F3C 		.word	1008711038
 3973 0388 1986203C 		.word	1008764441
 3974 038c F656213C 		.word	1008817910
 3975 0390 1728223C 		.word	1008871447
 3976 0394 7AF9223C 		.word	1008925050
 3977 0398 21CB233C 		.word	1008978721
 3978 039c 0A9D243C 		.word	1009032458
 3979 03a0 376F253C 		.word	1009086263
 3980 03a4 A741263C 		.word	1009140135
 3981 03a8 5B14273C 		.word	1009194075
 3982 03ac 52E7273C 		.word	1009248082
 3983 03b0 8CBA283C 		.word	1009302156
 3984 03b4 0B8E293C 		.word	1009356299
 3985 03b8 CD612A3C 		.word	1009410509
 3986 03bc D3352B3C 		.word	1009464787
 3987 03c0 1D0A2C3C 		.word	1009519133
 3988 03c4 AADE2C3C 		.word	1009573546
 3989 03c8 7CB32D3C 		.word	1009628028
 3990 03cc 92882E3C 		.word	1009682578
 3991 03d0 ED5D2F3C 		.word	1009737197
 3992 03d4 8B33303C 		.word	1009791883
 3993 03d8 6E09313C 		.word	1009846638
 3994 03dc 96DF313C 		.word	1009901462
 3995 03e0 02B6323C 		.word	1009956354
 3996 03e4 B38C333C 		.word	1010011315
 3997 03e8 A963343C 		.word	1010066345
 3998 03ec E33A353C 		.word	1010121443
 3999 03f0 6312363C 		.word	1010176611
 4000 03f4 27EA363C 		.word	1010231847
 4001 03f8 31C2373C 		.word	1010287153
 4002 03fc 809A383C 		.word	1010342528
 4003 0400 1473393C 		.word	1010397972
 4004 0404 ED4B3A3C 		.word	1010453485
 4005 0408 0C253B3C 		.word	1010509068
 4006 040c 71FE3B3C 		.word	1010564721
 4007 0410 1BD83C3C 		.word	1010620443
 4008 0414 0BB23D3C 		.word	1010676235
 4009 0418 408C3E3C 		.word	1010732096
 4010 041c BC663F3C 		.word	1010788028
 4011 0420 7D41403C 		.word	1010844029
 4012 0424 851C413C 		.word	1010900101
 4013 0428 D3F7413C 		.word	1010956243
 4014 042c 67D3423C 		.word	1011012455
 4015 0430 41AF433C 		.word	1011068737
 4016 0434 628B443C 		.word	1011125090
 4017 0438 C967453C 		.word	1011181513
 4018 043c 7744463C 		.word	1011238007
 4019 0440 6B21473C 		.word	1011294571
 4020 0444 A7FE473C 		.word	1011351207
 4021 0448 29DC483C 		.word	1011407913
 4022 044c F2B9493C 		.word	1011464690
 4023 0450 02984A3C 		.word	1011521538
ARM GAS  /var/folders/80/65lm4rm97rv_n74c85vt01040000gn/T//ccuR6fPR.s 			page 97


 4024 0454 5A764B3C 		.word	1011578458
 4025 0458 F8544C3C 		.word	1011635448
 4026 045c DE334D3C 		.word	1011692510
 4027 0460 0C134E3C 		.word	1011749644
 4028 0464 80F24E3C 		.word	1011806848
 4029 0468 3DD24F3C 		.word	1011864125
 4030 046c 41B2503C 		.word	1011921473
 4031 0470 8C92513C 		.word	1011978892
 4032 0474 2073523C 		.word	1012036384
 4033 0478 FC53533C 		.word	1012093948
 4034 047c 1F35543C 		.word	1012151583
 4035 0480 8B16553C 		.word	1012209291
 4036 0484 3FF8553C 		.word	1012267071
 4037 0488 3BDA563C 		.word	1012324923
 4038 048c 80BC573C 		.word	1012382848
 4039 0490 0D9F583C 		.word	1012440845
 4040 0494 E281593C 		.word	1012498914
 4041 0498 01655A3C 		.word	1012557057
 4042 049c 68485B3C 		.word	1012615272
 4043 04a0 182C5C3C 		.word	1012673560
 4044 04a4 10105D3C 		.word	1012731920
 4045 04a8 52F45D3C 		.word	1012790354
 4046 04ac DDD85E3C 		.word	1012848861
 4047 04b0 B1BD5F3C 		.word	1012907441
 4048 04b4 CFA2603C 		.word	1012966095
 4049 04b8 3688613C 		.word	1013024822
 4050 04bc E66D623C 		.word	1013083622
 4051 04c0 E053633C 		.word	1013142496
 4052 04c4 243A643C 		.word	1013201444
 4053 04c8 B120653C 		.word	1013260465
 4054 04cc 8807663C 		.word	1013319560
 4055 04d0 A9EE663C 		.word	1013378729
 4056 04d4 15D6673C 		.word	1013437973
 4057 04d8 CABD683C 		.word	1013497290
 4058 04dc C9A5693C 		.word	1013556681
 4059 04e0 138E6A3C 		.word	1013616147
 4060 04e4 A8766B3C 		.word	1013675688
 4061 04e8 865F6C3C 		.word	1013735302
 4062 04ec B0486D3C 		.word	1013794992
 4063 04f0 24326E3C 		.word	1013854756
 4064 04f4 E21B6F3C 		.word	1013914594
 4065 04f8 EC05703C 		.word	1013974508
 4066 04fc 41F0703C 		.word	1014034497
 4067 0500 E1DA713C 		.word	1014094561
 4068 0504 CBC5723C 		.word	1014154699
 4069 0508 02B1733C 		.word	1014214914
 4070 050c 839C743C 		.word	1014275203
 4071 0510 5088753C 		.word	1014335568
 4072 0514 6874763C 		.word	1014396008
 4073 0518 CC60773C 		.word	1014456524
 4074 051c 7C4D783C 		.word	1014517116
 4075 0520 783A793C 		.word	1014577784
 4076 0524 BF277A3C 		.word	1014638527
 4077 0528 53157B3C 		.word	1014699347
 4078 052c 33037C3C 		.word	1014760243
 4079 0530 5EF17C3C 		.word	1014821214
 4080 0534 D7DF7D3C 		.word	1014882263
ARM GAS  /var/folders/80/65lm4rm97rv_n74c85vt01040000gn/T//ccuR6fPR.s 			page 98


 4081 0538 9BCE7E3C 		.word	1014943387
 4082 053c ACBD7F3C 		.word	1015004588
 4083 0540 8556803C 		.word	1015043717
 4084 0544 5ACE803C 		.word	1015074394
 4085 0548 5546813C 		.word	1015105109
 4086 054c 77BE813C 		.word	1015135863
 4087 0550 C036823C 		.word	1015166656
 4088 0554 2FAF823C 		.word	1015197487
 4089 0558 C427833C 		.word	1015228356
 4090 055c 80A0833C 		.word	1015259264
 4091 0560 6319843C 		.word	1015290211
 4092 0564 6D92843C 		.word	1015321197
 4093 0568 9D0B853C 		.word	1015352221
 4094 056c F484853C 		.word	1015383284
 4095 0570 72FE853C 		.word	1015414386
 4096 0574 1778863C 		.word	1015445527
 4097 0578 E3F1863C 		.word	1015476707
 4098 057c D66B873C 		.word	1015507926
 4099 0580 F0E5873C 		.word	1015539184
 4100 0584 3160883C 		.word	1015570481
 4101 0588 99DA883C 		.word	1015601817
 4102 058c 2955893C 		.word	1015633193
 4103 0590 DFCF893C 		.word	1015664607
 4104 0594 BD4A8A3C 		.word	1015696061
 4105 0598 C3C58A3C 		.word	1015727555
 4106 059c F0408B3C 		.word	1015759088
 4107 05a0 44BC8B3C 		.word	1015790660
 4108 05a4 C0378C3C 		.word	1015822272
 4109 05a8 63B38C3C 		.word	1015853923
 4110 05ac 2E2F8D3C 		.word	1015885614
 4111 05b0 20AB8D3C 		.word	1015917344
 4112 05b4 3B278E3C 		.word	1015949115
 4113 05b8 7DA38E3C 		.word	1015980925
 4114 05bc E61F8F3C 		.word	1016012774
 4115 05c0 789C8F3C 		.word	1016044664
 4116 05c4 3219903C 		.word	1016076594
 4117 05c8 1396903C 		.word	1016108563
 4118 05cc 1D13913C 		.word	1016140573
 4119 05d0 4E90913C 		.word	1016172622
 4120 05d4 A80D923C 		.word	1016204712
 4121 05d8 2A8B923C 		.word	1016236842
 4122 05dc D408933C 		.word	1016269012
 4123 05e0 A686933C 		.word	1016301222
 4124 05e4 A104943C 		.word	1016333473
 4125 05e8 C482943C 		.word	1016365764
 4126 05ec 0F01953C 		.word	1016398095
 4127 05f0 837F953C 		.word	1016430467
 4128 05f4 1FFE953C 		.word	1016462879
 4129 05f8 E47C963C 		.word	1016495332
 4130 05fc D2FB963C 		.word	1016527826
 4131 0600 E87A973C 		.word	1016560360
 4132 0604 26FA973C 		.word	1016592934
 4133 0608 8E79983C 		.word	1016625550
 4134 060c 1FF9983C 		.word	1016658207
 4135 0610 D878993C 		.word	1016690904
 4136 0614 BAF8993C 		.word	1016723642
 4137 0618 C5789A3C 		.word	1016756421
ARM GAS  /var/folders/80/65lm4rm97rv_n74c85vt01040000gn/T//ccuR6fPR.s 			page 99


 4138 061c F9F89A3C 		.word	1016789241
 4139 0620 57799B3C 		.word	1016822103
 4140 0624 DDF99B3C 		.word	1016855005
 4141 0628 8C7A9C3C 		.word	1016887948
 4142 062c 65FB9C3C 		.word	1016920933
 4143 0630 677C9D3C 		.word	1016953959
 4144 0634 92FD9D3C 		.word	1016987026
 4145 0638 E77E9E3C 		.word	1017020135
 4146 063c 65009F3C 		.word	1017053285
 4147 0640 0D829F3C 		.word	1017086477
 4148 0644 DE03A03C 		.word	1017119710
 4149 0648 D985A03C 		.word	1017152985
 4150 064c FD07A13C 		.word	1017186301
 4151 0650 4B8AA13C 		.word	1017219659
 4152 0654 C30CA23C 		.word	1017253059
 4153 0658 658FA23C 		.word	1017286501
 4154 065c 3012A33C 		.word	1017319984
 4155 0660 2595A33C 		.word	1017353509
 4156 0664 4518A43C 		.word	1017387077
 4157 0668 8E9BA43C 		.word	1017420686
 4158 066c 011FA53C 		.word	1017454337
 4159 0670 9FA2A53C 		.word	1017488031
 4160 0674 6626A63C 		.word	1017521766
 4161 0678 58AAA63C 		.word	1017555544
 4162 067c 742EA73C 		.word	1017589364
 4163 0680 BBB2A73C 		.word	1017623227
 4164 0684 2C37A83C 		.word	1017657132
 4165 0688 C7BBA83C 		.word	1017691079
 4166 068c 8C40A93C 		.word	1017725068
 4167 0690 7DC5A93C 		.word	1017759101
 4168 0694 974AAA3C 		.word	1017793175
 4169 0698 DDCFAA3C 		.word	1017827293
 4170 069c 4D55AB3C 		.word	1017861453
 4171 06a0 E8DAAB3C 		.word	1017895656
 4172 06a4 AD60AC3C 		.word	1017929901
 4173 06a8 9EE6AC3C 		.word	1017964190
 4174 06ac B96CAD3C 		.word	1017998521
 4175 06b0 00F3AD3C 		.word	1018032896
 4176 06b4 7179AE3C 		.word	1018067313
 4177 06b8 0D00AF3C 		.word	1018101773
 4178 06bc D586AF3C 		.word	1018136277
 4179 06c0 C80DB03C 		.word	1018170824
 4180 06c4 E694B03C 		.word	1018205414
 4181 06c8 2F1CB13C 		.word	1018240047
 4182 06cc A4A3B13C 		.word	1018274724
 4183 06d0 442BB23C 		.word	1018309444
 4184 06d4 0FB3B23C 		.word	1018344207
 4185 06d8 063BB33C 		.word	1018379014
 4186 06dc 28C3B33C 		.word	1018413864
 4187 06e0 764BB43C 		.word	1018448758
 4188 06e4 F0D3B43C 		.word	1018483696
 4189 06e8 965CB53C 		.word	1018518678
 4190 06ec 67E5B53C 		.word	1018553703
 4191 06f0 646EB63C 		.word	1018588772
 4192 06f4 8DF7B63C 		.word	1018623885
 4193 06f8 E280B73C 		.word	1018659042
 4194 06fc 620AB83C 		.word	1018694242
ARM GAS  /var/folders/80/65lm4rm97rv_n74c85vt01040000gn/T//ccuR6fPR.s 			page 100


 4195 0700 0F94B83C 		.word	1018729487
 4196 0704 E81DB93C 		.word	1018764776
 4197 0708 EDA7B93C 		.word	1018800109
 4198 070c 1F32BA3C 		.word	1018835487
 4199 0710 7CBCBA3C 		.word	1018870908
 4200 0714 0647BB3C 		.word	1018906374
 4201 0718 BDD1BB3C 		.word	1018941885
 4202 071c A05CBC3C 		.word	1018977440
 4203 0720 AFE7BC3C 		.word	1019013039
 4204 0724 EB72BD3C 		.word	1019048683
 4205 0728 53FEBD3C 		.word	1019084371
 4206 072c E889BE3C 		.word	1019120104
 4207 0730 AA15BF3C 		.word	1019155882
 4208 0734 98A1BF3C 		.word	1019191704
 4209 0738 B42DC03C 		.word	1019227572
 4210 073c FCB9C03C 		.word	1019263484
 4211 0740 7146C13C 		.word	1019299441
 4212 0744 13D3C13C 		.word	1019335443
 4213 0748 E25FC23C 		.word	1019371490
 4214 074c DFECC23C 		.word	1019407583
 4215 0750 087AC33C 		.word	1019443720
 4216 0754 5F07C43C 		.word	1019479903
 4217 0758 E394C43C 		.word	1019516131
 4218 075c 9422C53C 		.word	1019552404
 4219 0760 73B0C53C 		.word	1019588723
 4220 0764 7F3EC63C 		.word	1019625087
 4221 0768 B9CCC63C 		.word	1019661497
 4222 076c 205BC73C 		.word	1019697952
 4223 0770 B5E9C73C 		.word	1019734453
 4224 0774 7778C83C 		.word	1019770999
 4225 0778 6707C93C 		.word	1019807591
 4226 077c 8596C93C 		.word	1019844229
 4227 0780 D125CA3C 		.word	1019880913
 4228 0784 4BB5CA3C 		.word	1019917643
 4229 0788 F344CB3C 		.word	1019954419
 4230 078c C8D4CB3C 		.word	1019991240
 4231 0790 CC64CC3C 		.word	1020028108
 4232 0794 FEF4CC3C 		.word	1020065022
 4233 0798 5E85CD3C 		.word	1020101982
 4234 079c EC15CE3C 		.word	1020138988
 4235 07a0 A9A6CE3C 		.word	1020176041
 4236 07a4 9437CF3C 		.word	1020213140
 4237 07a8 AEC8CF3C 		.word	1020250286
 4238 07ac F559D03C 		.word	1020287477
 4239 07b0 6CEBD03C 		.word	1020324716
 4240 07b4 117DD13C 		.word	1020362001
 4241 07b8 E50ED23C 		.word	1020399333
 4242 07bc E7A0D23C 		.word	1020436711
 4243 07c0 1833D33C 		.word	1020474136
 4244 07c4 78C5D33C 		.word	1020511608
 4245 07c8 0758D43C 		.word	1020549127
 4246 07cc C5EAD43C 		.word	1020586693
 4247 07d0 B27DD53C 		.word	1020624306
 4248 07d4 CE10D63C 		.word	1020661966
 4249 07d8 19A4D63C 		.word	1020699673
 4250 07dc 9337D73C 		.word	1020737427
 4251 07e0 3CCBD73C 		.word	1020775228
ARM GAS  /var/folders/80/65lm4rm97rv_n74c85vt01040000gn/T//ccuR6fPR.s 			page 101


 4252 07e4 155FD83C 		.word	1020813077
 4253 07e8 1DF3D83C 		.word	1020850973
 4254 07ec 5587D93C 		.word	1020888917
 4255 07f0 BC1BDA3C 		.word	1020926908
 4256 07f4 52B0DA3C 		.word	1020964946
 4257 07f8 1945DB3C 		.word	1021003033
 4258 07fc 0EDADB3C 		.word	1021041166
 4259 0800 346FDC3C 		.word	1021079348
 4260 0804 8904DD3C 		.word	1021117577
 4261 0808 0E9ADD3C 		.word	1021155854
 4262 080c C32FDE3C 		.word	1021194179
 4263 0810 A8C5DE3C 		.word	1021232552
 4264 0814 BD5BDF3C 		.word	1021270973
 4265 0818 02F2DF3C 		.word	1021309442
 4266 081c 7888E03C 		.word	1021347960
 4267 0820 1D1FE13C 		.word	1021386525
 4268 0824 F3B5E13C 		.word	1021425139
 4269 0828 F94CE23C 		.word	1021463801
 4270 082c 2FE4E23C 		.word	1021502511
 4271 0830 967BE33C 		.word	1021541270
 4272 0834 2D13E43C 		.word	1021580077
 4273 0838 F5AAE43C 		.word	1021618933
 4274 083c ED42E53C 		.word	1021657837
 4275 0840 17DBE53C 		.word	1021696791
 4276 0844 7073E63C 		.word	1021735792
 4277 0848 FB0BE73C 		.word	1021774843
 4278 084c B7A4E73C 		.word	1021813943
 4279 0850 A33DE83C 		.word	1021853091
 4280 0854 C1D6E83C 		.word	1021892289
 4281 0858 0F70E93C 		.word	1021931535
 4282 085c 8F09EA3C 		.word	1021970831
 4283 0860 3FA3EA3C 		.word	1022010175
 4284 0864 213DEB3C 		.word	1022049569
 4285 0868 35D7EB3C 		.word	1022089013
 4286 086c 7971EC3C 		.word	1022128505
 4287 0870 EF0BED3C 		.word	1022168047
 4288 0874 97A6ED3C 		.word	1022207639
 4289 0878 7041EE3C 		.word	1022247280
 4290 087c 7BDCEE3C 		.word	1022286971
 4291 0880 B777EF3C 		.word	1022326711
 4292 0884 2513F03C 		.word	1022366501
 4293 0888 C5AEF03C 		.word	1022406341
 4294 088c 974AF13C 		.word	1022446231
 4295 0890 9AE6F13C 		.word	1022486170
 4296 0894 D082F23C 		.word	1022526160
 4297 0898 381FF33C 		.word	1022566200
 4298 089c D1BBF33C 		.word	1022606289
 4299 08a0 9D58F43C 		.word	1022646429
 4300 08a4 9BF5F43C 		.word	1022686619
 4301 08a8 CC92F53C 		.word	1022726860
 4302 08ac 2F30F63C 		.word	1022767151
 4303 08b0 C4CDF63C 		.word	1022807492
 4304 08b4 8B6BF73C 		.word	1022847883
 4305 08b8 8609F83C 		.word	1022888326
 4306 08bc B2A7F83C 		.word	1022928818
 4307 08c0 1246F93C 		.word	1022969362
 4308 08c4 A4E4F93C 		.word	1023009956
ARM GAS  /var/folders/80/65lm4rm97rv_n74c85vt01040000gn/T//ccuR6fPR.s 			page 102


 4309 08c8 6983FA3C 		.word	1023050601
 4310 08cc 6122FB3C 		.word	1023091297
 4311 08d0 8CC1FB3C 		.word	1023132044
 4312 08d4 EA60FC3C 		.word	1023172842
 4313 08d8 7A00FD3C 		.word	1023213690
 4314 08dc 3EA0FD3C 		.word	1023254590
 4315 08e0 3540FE3C 		.word	1023295541
 4316 08e4 60E0FE3C 		.word	1023336544
 4317 08e8 BD80FF3C 		.word	1023377597
 4318 08ec A710003D 		.word	1023414439
 4319 08f0 0961003D 		.word	1023435017
 4320 08f4 85B1003D 		.word	1023455621
 4321 08f8 1B02013D 		.word	1023476251
 4322 08fc CB52013D 		.word	1023496907
 4323 0900 94A3013D 		.word	1023517588
 4324 0904 77F4013D 		.word	1023538295
 4325 0908 7545023D 		.word	1023559029
 4326 090c 8C96023D 		.word	1023579788
 4327 0910 BDE7023D 		.word	1023600573
 4328 0914 0839033D 		.word	1023621384
 4329 0918 6D8A033D 		.word	1023642221
 4330 091c ECDB033D 		.word	1023663084
 4331 0920 862D043D 		.word	1023683974
 4332 0924 397F043D 		.word	1023704889
 4333 0928 07D1043D 		.word	1023725831
 4334 092c EF22053D 		.word	1023746799
 4335 0930 F174053D 		.word	1023767793
 4336 0934 0DC7053D 		.word	1023788813
 4337 0938 4419063D 		.word	1023809860
 4338 093c 956B063D 		.word	1023830933
 4339 0940 00BE063D 		.word	1023852032
 4340 0944 8610073D 		.word	1023873158
 4341 0948 2663073D 		.word	1023894310
 4342 094c E1B5073D 		.word	1023915489
 4343 0950 B608083D 		.word	1023936694
 4344 0954 A65B083D 		.word	1023957926
 4345 0958 B0AE083D 		.word	1023979184
 4346 095c D501093D 		.word	1024000469
 4347 0960 1455093D 		.word	1024021780
 4348 0964 6FA8093D 		.word	1024043119
 4349 0968 E3FB093D 		.word	1024064483
 4350 096c 734F0A3D 		.word	1024085875
 4351 0970 1DA30A3D 		.word	1024107293
 4352 0974 E3F60A3D 		.word	1024128739
 4353 0978 C34A0B3D 		.word	1024150211
 4354 097c BD9E0B3D 		.word	1024171709
 4355 0980 D3F20B3D 		.word	1024193235
 4356 0984 04470C3D 		.word	1024214788
 4357 0988 509B0C3D 		.word	1024236368
 4358 098c B6EF0C3D 		.word	1024257974
 4359 0990 38440D3D 		.word	1024279608
 4360 0994 D5980D3D 		.word	1024301269
 4361 0998 8DED0D3D 		.word	1024322957
 4362 099c 60420E3D 		.word	1024344672
 4363 09a0 4E970E3D 		.word	1024366414
 4364 09a4 57EC0E3D 		.word	1024388183
 4365 09a8 7C410F3D 		.word	1024409980
ARM GAS  /var/folders/80/65lm4rm97rv_n74c85vt01040000gn/T//ccuR6fPR.s 			page 103


 4366 09ac BC960F3D 		.word	1024431804
 4367 09b0 17EC0F3D 		.word	1024453655
 4368 09b4 8E41103D 		.word	1024475534
 4369 09b8 1F97103D 		.word	1024497439
 4370 09bc CDEC103D 		.word	1024519373
 4371 09c0 9642113D 		.word	1024541334
 4372 09c4 7A98113D 		.word	1024563322
 4373 09c8 7AEE113D 		.word	1024585338
 4374 09cc 9544123D 		.word	1024607381
 4375 09d0 CC9A123D 		.word	1024629452
 4376 09d4 1EF1123D 		.word	1024651550
 4377 09d8 8D47133D 		.word	1024673677
 4378 09dc 169E133D 		.word	1024695830
 4379 09e0 BCF4133D 		.word	1024718012
 4380 09e4 7D4B143D 		.word	1024740221
 4381 09e8 5BA2143D 		.word	1024762459
 4382 09ec 53F9143D 		.word	1024784723
 4383 09f0 6850153D 		.word	1024807016
 4384 09f4 99A7153D 		.word	1024829337
 4385 09f8 E6FE153D 		.word	1024851686
 4386 09fc 4E56163D 		.word	1024874062
 4387 0a00 D3AD163D 		.word	1024896467
 4388 0a04 7305173D 		.word	1024918899
 4389 0a08 305D173D 		.word	1024941360
 4390 0a0c 09B5173D 		.word	1024963849
 4391 0a10 FE0C183D 		.word	1024986366
 4392 0a14 0F65183D 		.word	1025008911
 4393 0a18 3CBD183D 		.word	1025031484
 4394 0a1c 8615193D 		.word	1025054086
 4395 0a20 EC6D193D 		.word	1025076716
 4396 0a24 6EC6193D 		.word	1025099374
 4397 0a28 0C1F1A3D 		.word	1025122060
 4398 0a2c C7771A3D 		.word	1025144775
 4399 0a30 9FD01A3D 		.word	1025167519
 4400 0a34 93291B3D 		.word	1025190291
 4401 0a38 A3821B3D 		.word	1025213091
 4402 0a3c D0DB1B3D 		.word	1025235920
 4403 0a40 19351C3D 		.word	1025258777
 4404 0a44 7F8E1C3D 		.word	1025281663
 4405 0a48 02E81C3D 		.word	1025304578
 4406 0a4c A1411D3D 		.word	1025327521
 4407 0a50 5D9B1D3D 		.word	1025350493
 4408 0a54 36F51D3D 		.word	1025373494
 4409 0a58 2B4F1E3D 		.word	1025396523
 4410 0a5c 3DA91E3D 		.word	1025419581
 4411 0a60 6D031F3D 		.word	1025442669
 4412 0a64 B95D1F3D 		.word	1025465785
 4413 0a68 22B81F3D 		.word	1025488930
 4414 0a6c A812203D 		.word	1025512104
 4415 0a70 4B6D203D 		.word	1025535307
 4416 0a74 0BC8203D 		.word	1025558539
 4417 0a78 E822213D 		.word	1025581800
 4418 0a7c E27D213D 		.word	1025605090
 4419 0a80 F9D8213D 		.word	1025628409
 4420 0a84 2E34223D 		.word	1025651758
 4421 0a88 7F8F223D 		.word	1025675135
 4422 0a8c EEEA223D 		.word	1025698542
ARM GAS  /var/folders/80/65lm4rm97rv_n74c85vt01040000gn/T//ccuR6fPR.s 			page 104


 4423 0a90 7B46233D 		.word	1025721979
 4424 0a94 24A2233D 		.word	1025745444
 4425 0a98 EBFD233D 		.word	1025768939
 4426 0a9c CF59243D 		.word	1025792463
 4427 0aa0 D1B5243D 		.word	1025816017
 4428 0aa4 F011253D 		.word	1025839600
 4429 0aa8 2D6E253D 		.word	1025863213
 4430 0aac 87CA253D 		.word	1025886855
 4431 0ab0 FF26263D 		.word	1025910527
 4432 0ab4 9583263D 		.word	1025934229
 4433 0ab8 48E0263D 		.word	1025957960
 4434 0abc 193D273D 		.word	1025981721
 4435 0ac0 079A273D 		.word	1026005511
 4436 0ac4 14F7273D 		.word	1026029332
 4437 0ac8 3E54283D 		.word	1026053182
 4438 0acc 86B1283D 		.word	1026077062
 4439 0ad0 EC0E293D 		.word	1026100972
 4440 0ad4 6F6C293D 		.word	1026124911
 4441 0ad8 11CA293D 		.word	1026148881
 4442 0adc D1272A3D 		.word	1026172881
 4443 0ae0 AF852A3D 		.word	1026196911
 4444 0ae4 ABE32A3D 		.word	1026220971
 4445 0ae8 C4412B3D 		.word	1026245060
 4446 0aec FD9F2B3D 		.word	1026269181
 4447 0af0 53FE2B3D 		.word	1026293331
 4448 0af4 C75C2C3D 		.word	1026317511
 4449 0af8 5ABB2C3D 		.word	1026341722
 4450 0afc 0B1A2D3D 		.word	1026365963
 4451 0b00 DA782D3D 		.word	1026390234
 4452 0b04 C8D72D3D 		.word	1026414536
 4453 0b08 D4362E3D 		.word	1026438868
 4454 0b0c FF952E3D 		.word	1026463231
 4455 0b10 48F52E3D 		.word	1026487624
 4456 0b14 B0542F3D 		.word	1026512048
 4457 0b18 36B42F3D 		.word	1026536502
 4458 0b1c DA13303D 		.word	1026560986
 4459 0b20 9E73303D 		.word	1026585502
 4460 0b24 80D3303D 		.word	1026610048
 4461 0b28 8133313D 		.word	1026634625
 4462 0b2c A093313D 		.word	1026659232
 4463 0b30 DFF3313D 		.word	1026683871
 4464 0b34 3C54323D 		.word	1026708540
 4465 0b38 B8B4323D 		.word	1026733240
 4466 0b3c 5315333D 		.word	1026757971
 4467 0b40 0D76333D 		.word	1026782733
 4468 0b44 E5D6333D 		.word	1026807525
 4469 0b48 DD37343D 		.word	1026832349
 4470 0b4c F498343D 		.word	1026857204
 4471 0b50 2AFA343D 		.word	1026882090
 4472 0b54 7F5B353D 		.word	1026907007
 4473 0b58 F4BC353D 		.word	1026931956
 4474 0b5c 871E363D 		.word	1026956935
 4475 0b60 3A80363D 		.word	1026981946
 4476 0b64 0CE2363D 		.word	1027006988
 4477 0b68 FE43373D 		.word	1027032062
 4478 0b6c 0FA6373D 		.word	1027057167
 4479 0b70 3F08383D 		.word	1027082303
ARM GAS  /var/folders/80/65lm4rm97rv_n74c85vt01040000gn/T//ccuR6fPR.s 			page 105


 4480 0b74 8E6A383D 		.word	1027107470
 4481 0b78 FECC383D 		.word	1027132670
 4482 0b7c 8C2F393D 		.word	1027157900
 4483 0b80 3B92393D 		.word	1027183163
 4484 0b84 09F5393D 		.word	1027208457
 4485 0b88 F6573A3D 		.word	1027233782
 4486 0b8c 03BB3A3D 		.word	1027259139
 4487 0b90 301E3B3D 		.word	1027284528
 4488 0b94 7D813B3D 		.word	1027309949
 4489 0b98 EAE43B3D 		.word	1027335402
 4490 0b9c 76483C3D 		.word	1027360886
 4491 0ba0 22AC3C3D 		.word	1027386402
 4492 0ba4 EE0F3D3D 		.word	1027411950
 4493 0ba8 DB733D3D 		.word	1027437531
 4494 0bac E7D73D3D 		.word	1027463143
 4495 0bb0 133C3E3D 		.word	1027488787
 4496 0bb4 5FA03E3D 		.word	1027514463
 4497 0bb8 CC043F3D 		.word	1027540172
 4498 0bbc 58693F3D 		.word	1027565912
 4499 0bc0 05CE3F3D 		.word	1027591685
 4500 0bc4 D232403D 		.word	1027617490
 4501 0bc8 C097403D 		.word	1027643328
 4502 0bcc CDFC403D 		.word	1027669197
 4503 0bd0 FB61413D 		.word	1027695099
 4504 0bd4 4AC7413D 		.word	1027721034
 4505 0bd8 B92C423D 		.word	1027747001
 4506 0bdc 4892423D 		.word	1027773000
 4507 0be0 F8F7423D 		.word	1027799032
 4508 0be4 C95D433D 		.word	1027825097
 4509 0be8 BAC3433D 		.word	1027851194
 4510 0bec CB29443D 		.word	1027877323
 4511 0bf0 FE8F443D 		.word	1027903486
 4512 0bf4 51F6443D 		.word	1027929681
 4513 0bf8 C55C453D 		.word	1027955909
 4514 0bfc 5AC3453D 		.word	1027982170
 4515 0c00 102A463D 		.word	1028008464
 4516 0c04 E690463D 		.word	1028034790
 4517 0c08 DEF7463D 		.word	1028061150
 4518 0c0c F65E473D 		.word	1028087542
 4519 0c10 30C6473D 		.word	1028113968
 4520 0c14 8A2D483D 		.word	1028140426
 4521 0c18 0695483D 		.word	1028166918
 4522 0c1c A3FC483D 		.word	1028193443
 4523 0c20 6164493D 		.word	1028220001
 4524 0c24 40CC493D 		.word	1028246592
 4525 0c28 41344A3D 		.word	1028273217
 4526 0c2c 629C4A3D 		.word	1028299874
 4527 0c30 A6044B3D 		.word	1028326566
 4528 0c34 0A6D4B3D 		.word	1028353290
 4529 0c38 90D54B3D 		.word	1028380048
 4530 0c3c 383E4C3D 		.word	1028406840
 4531 0c40 01A74C3D 		.word	1028433665
 4532 0c44 EB0F4D3D 		.word	1028460523
 4533 0c48 F8784D3D 		.word	1028487416
 4534 0c4c 26E24D3D 		.word	1028514342
 4535 0c50 754B4E3D 		.word	1028541301
 4536 0c54 E6B44E3D 		.word	1028568294
ARM GAS  /var/folders/80/65lm4rm97rv_n74c85vt01040000gn/T//ccuR6fPR.s 			page 106


 4537 0c58 791E4F3D 		.word	1028595321
 4538 0c5c 2E884F3D 		.word	1028622382
 4539 0c60 05F24F3D 		.word	1028649477
 4540 0c64 FE5B503D 		.word	1028676606
 4541 0c68 18C6503D 		.word	1028703768
 4542 0c6c 5530513D 		.word	1028730965
 4543 0c70 B39A513D 		.word	1028758195
 4544 0c74 3405523D 		.word	1028785460
 4545 0c78 D76F523D 		.word	1028812759
 4546 0c7c 9CDA523D 		.word	1028840092
 4547 0c80 8345533D 		.word	1028867459
 4548 0c84 8CB0533D 		.word	1028894860
 4549 0c88 B81B543D 		.word	1028922296
 4550 0c8c 0687543D 		.word	1028949766
 4551 0c90 77F2543D 		.word	1028977271
 4552 0c94 095E553D 		.word	1029004809
 4553 0c98 BFC9553D 		.word	1029032383
 4554 0c9c 9635563D 		.word	1029059990
 4555 0ca0 91A1563D 		.word	1029087633
 4556 0ca4 AE0D573D 		.word	1029115310
 4557 0ca8 ED79573D 		.word	1029143021
 4558 0cac 4FE6573D 		.word	1029170767
 4559 0cb0 D452583D 		.word	1029198548
 4560 0cb4 7CBF583D 		.word	1029226364
 4561 0cb8 462C593D 		.word	1029254214
 4562 0cbc 3499593D 		.word	1029282100
 4563 0cc0 44065A3D 		.word	1029310020
 4564 0cc4 77735A3D 		.word	1029337975
 4565 0cc8 CDE05A3D 		.word	1029365965
 4566 0ccc 464E5B3D 		.word	1029393990
 4567 0cd0 E3BB5B3D 		.word	1029422051
 4568 0cd4 A2295C3D 		.word	1029450146
 4569 0cd8 84975C3D 		.word	1029478276
 4570 0cdc 8A055D3D 		.word	1029506442
 4571 0ce0 B3735D3D 		.word	1029534643
 4572 0ce4 FFE15D3D 		.word	1029562879
 4573 0ce8 6F505E3D 		.word	1029591151
 4574 0cec 02BF5E3D 		.word	1029619458
 4575 0cf0 B82D5F3D 		.word	1029647800
 4576 0cf4 929C5F3D 		.word	1029676178
 4577 0cf8 8F0B603D 		.word	1029704591
 4578 0cfc B07A603D 		.word	1029733040
 4579 0d00 F5E9603D 		.word	1029761525
 4580 0d04 5D59613D 		.word	1029790045
 4581 0d08 E8C8613D 		.word	1029818600
 4582 0d0c 9838623D 		.word	1029847192
 4583 0d10 6BA8623D 		.word	1029875819
 4584 0d14 6218633D 		.word	1029904482
 4585 0d18 7D88633D 		.word	1029933181
 4586 0d1c BCF8633D 		.word	1029961916
 4587 0d20 1F69643D 		.word	1029990687
 4588 0d24 A6D9643D 		.word	1030019494
 4589 0d28 514A653D 		.word	1030048337
 4590 0d2c 20BB653D 		.word	1030077216
 4591 0d30 132C663D 		.word	1030106131
 4592 0d34 2A9D663D 		.word	1030135082
 4593 0d38 660E673D 		.word	1030164070
ARM GAS  /var/folders/80/65lm4rm97rv_n74c85vt01040000gn/T//ccuR6fPR.s 			page 107


 4594 0d3c C67F673D 		.word	1030193094
 4595 0d40 4AF1673D 		.word	1030222154
 4596 0d44 F262683D 		.word	1030251250
 4597 0d48 BFD4683D 		.word	1030280383
 4598 0d4c B046693D 		.word	1030309552
 4599 0d50 C6B8693D 		.word	1030338758
 4600 0d54 012B6A3D 		.word	1030368001
 4601 0d58 609D6A3D 		.word	1030397280
 4602 0d5c E30F6B3D 		.word	1030426595
 4603 0d60 8C826B3D 		.word	1030455948
 4604 0d64 59F56B3D 		.word	1030485337
 4605 0d68 4A686C3D 		.word	1030514762
 4606 0d6c 61DB6C3D 		.word	1030544225
 4607 0d70 9C4E6D3D 		.word	1030573724
 4608 0d74 FDC16D3D 		.word	1030603261
 4609 0d78 82356E3D 		.word	1030632834
 4610 0d7c 2DA96E3D 		.word	1030662445
 4611 0d80 FC1C6F3D 		.word	1030692092
 4612 0d84 F0906F3D 		.word	1030721776
 4613 0d88 0A05703D 		.word	1030751498
 4614 0d8c 4979703D 		.word	1030781257
 4615 0d90 ADED703D 		.word	1030811053
 4616 0d94 3662713D 		.word	1030840886
 4617 0d98 E5D6713D 		.word	1030870757
 4618 0d9c B94B723D 		.word	1030900665
 4619 0da0 B2C0723D 		.word	1030930610
 4620 0da4 D135733D 		.word	1030960593
 4621 0da8 16AB733D 		.word	1030990614
 4622 0dac 8020743D 		.word	1031020672
 4623 0db0 1096743D 		.word	1031050768
 4624 0db4 C50B753D 		.word	1031080901
 4625 0db8 A081753D 		.word	1031111072
 4626 0dbc A1F7753D 		.word	1031141281
 4627 0dc0 C76D763D 		.word	1031171527
 4628 0dc4 14E4763D 		.word	1031201812
 4629 0dc8 865A773D 		.word	1031232134
 4630 0dcc 1ED1773D 		.word	1031262494
 4631 0dd0 DC47783D 		.word	1031292892
 4632 0dd4 C1BE783D 		.word	1031323329
 4633 0dd8 CB35793D 		.word	1031353803
 4634 0ddc FBAC793D 		.word	1031384315
 4635 0de0 52247A3D 		.word	1031414866
 4636 0de4 CF9B7A3D 		.word	1031445455
 4637 0de8 72137B3D 		.word	1031476082
 4638 0dec 3C8B7B3D 		.word	1031506748
 4639 0df0 2B037C3D 		.word	1031537451
 4640 0df4 427B7C3D 		.word	1031568194
 4641 0df8 7EF37C3D 		.word	1031598974
 4642 0dfc E26B7D3D 		.word	1031629794
 4643 0e00 6BE47D3D 		.word	1031660651
 4644 0e04 1C5D7E3D 		.word	1031691548
 4645 0e08 F3D57E3D 		.word	1031722483
 4646 0e0c F14E7F3D 		.word	1031753457
 4647 0e10 15C87F3D 		.word	1031784469
 4648 0e14 B020803D 		.word	1031807152
 4649 0e18 695D803D 		.word	1031822697
 4650 0e1c 369A803D 		.word	1031838262
ARM GAS  /var/folders/80/65lm4rm97rv_n74c85vt01040000gn/T//ccuR6fPR.s 			page 108


 4651 0e20 16D7803D 		.word	1031853846
 4652 0e24 0A14813D 		.word	1031869450
 4653 0e28 1151813D 		.word	1031885073
 4654 0e2c 2B8E813D 		.word	1031900715
 4655 0e30 59CB813D 		.word	1031916377
 4656 0e34 9B08823D 		.word	1031932059
 4657 0e38 F145823D 		.word	1031947761
 4658 0e3c 5A83823D 		.word	1031963482
 4659 0e40 D6C0823D 		.word	1031979222
 4660 0e44 67FE823D 		.word	1031994983
 4661 0e48 0B3C833D 		.word	1032010763
 4662 0e4c C379833D 		.word	1032026563
 4663 0e50 8EB7833D 		.word	1032042382
 4664 0e54 6EF5833D 		.word	1032058222
 4665 0e58 6133843D 		.word	1032074081
 4666 0e5c 6871843D 		.word	1032089960
 4667 0e60 83AF843D 		.word	1032105859
 4668 0e64 B2ED843D 		.word	1032121778
 4669 0e68 F52B853D 		.word	1032137717
 4670 0e6c 4B6A853D 		.word	1032153675
 4671 0e70 B6A8853D 		.word	1032169654
 4672 0e74 35E7853D 		.word	1032185653
 4673 0e78 C825863D 		.word	1032201672
 4674 0e7c 6E64863D 		.word	1032217710
 4675 0e80 29A3863D 		.word	1032233769
 4676 0e84 F8E1863D 		.word	1032249848
 4677 0e88 DB20873D 		.word	1032265947
 4678 0e8c D25F873D 		.word	1032282066
 4679 0e90 DE9E873D 		.word	1032298206
 4680 0e94 FDDD873D 		.word	1032314365
 4681 0e98 311D883D 		.word	1032330545
 4682 0e9c 795C883D 		.word	1032346745
 4683 0ea0 D59B883D 		.word	1032362965
 4684 0ea4 46DB883D 		.word	1032379206
 4685 0ea8 CB1A893D 		.word	1032395467
 4686 0eac 645A893D 		.word	1032411748
 4687 0eb0 119A893D 		.word	1032428049
 4688 0eb4 D3D9893D 		.word	1032444371
 4689 0eb8 AA198A3D 		.word	1032460714
 4690 0ebc 95598A3D 		.word	1032477077
 4691 0ec0 94998A3D 		.word	1032493460
 4692 0ec4 A8D98A3D 		.word	1032509864
 4693 0ec8 D0198B3D 		.word	1032526288
 4694 0ecc 0D5A8B3D 		.word	1032542733
 4695 0ed0 5F9A8B3D 		.word	1032559199
 4696 0ed4 C5DA8B3D 		.word	1032575685
 4697 0ed8 401B8C3D 		.word	1032592192
 4698 0edc CF5B8C3D 		.word	1032608719
 4699 0ee0 739C8C3D 		.word	1032625267
 4700 0ee4 2CDD8C3D 		.word	1032641836
 4701 0ee8 F91D8D3D 		.word	1032658425
 4702 0eec DC5E8D3D 		.word	1032675036
 4703 0ef0 D39F8D3D 		.word	1032691667
 4704 0ef4 DFE08D3D 		.word	1032708319
 4705 0ef8 FF218E3D 		.word	1032724991
 4706 0efc 35638E3D 		.word	1032741685
 4707 0f00 7FA48E3D 		.word	1032758399
ARM GAS  /var/folders/80/65lm4rm97rv_n74c85vt01040000gn/T//ccuR6fPR.s 			page 109


 4708 0f04 DFE58E3D 		.word	1032775135
 4709 0f08 53278F3D 		.word	1032791891
 4710 0f0c DC688F3D 		.word	1032808668
 4711 0f10 7BAA8F3D 		.word	1032825467
 4712 0f14 2EEC8F3D 		.word	1032842286
 4713 0f18 F62D903D 		.word	1032859126
 4714 0f1c D46F903D 		.word	1032875988
 4715 0f20 C6B1903D 		.word	1032892870
 4716 0f24 CEF3903D 		.word	1032909774
 4717 0f28 EA35913D 		.word	1032926698
 4718 0f2c 1C78913D 		.word	1032943644
 4719 0f30 64BA913D 		.word	1032960612
 4720 0f34 C0FC913D 		.word	1032977600
 4721 0f38 323F923D 		.word	1032994610
 4722 0f3c B881923D 		.word	1033011640
 4723 0f40 55C4923D 		.word	1033028693
 4724 0f44 0607933D 		.word	1033045766
 4725 0f48 CD49933D 		.word	1033062861
 4726 0f4c AA8C933D 		.word	1033079978
 4727 0f50 9BCF933D 		.word	1033097115
 4728 0f54 A212943D 		.word	1033114274
 4729 0f58 BF55943D 		.word	1033131455
 4730 0f5c F198943D 		.word	1033148657
 4731 0f60 39DC943D 		.word	1033165881
 4732 0f64 961F953D 		.word	1033183126
 4733 0f68 0963953D 		.word	1033200393
 4734 0f6c 91A6953D 		.word	1033217681
 4735 0f70 2FEA953D 		.word	1033234991
 4736 0f74 E32D963D 		.word	1033252323
 4737 0f78 AD71963D 		.word	1033269677
 4738 0f7c 8CB5963D 		.word	1033287052
 4739 0f80 81F9963D 		.word	1033304449
 4740 0f84 8B3D973D 		.word	1033321867
 4741 0f88 AC81973D 		.word	1033339308
 4742 0f8c E2C5973D 		.word	1033356770
 4743 0f90 2E0A983D 		.word	1033374254
 4744 0f94 904E983D 		.word	1033391760
 4745 0f98 0893983D 		.word	1033409288
 4746 0f9c 95D7983D 		.word	1033426837
 4747 0fa0 391C993D 		.word	1033444409
 4748 0fa4 F360993D 		.word	1033462003
 4749 0fa8 C3A5993D 		.word	1033479619
 4750 0fac A9EA993D 		.word	1033497257
 4751 0fb0 A42F9A3D 		.word	1033514916
 4752 0fb4 B6749A3D 		.word	1033532598
 4753 0fb8 DEB99A3D 		.word	1033550302
 4754 0fbc 1DFF9A3D 		.word	1033568029
 4755 0fc0 71449B3D 		.word	1033585777
 4756 0fc4 DC899B3D 		.word	1033603548
 4757 0fc8 5DCF9B3D 		.word	1033621341
 4758 0fcc F4149C3D 		.word	1033639156
 4759 0fd0 A15A9C3D 		.word	1033656993
 4760 0fd4 65A09C3D 		.word	1033674853
 4761 0fd8 3FE69C3D 		.word	1033692735
 4762 0fdc 302C9D3D 		.word	1033710640
 4763 0fe0 36729D3D 		.word	1033728566
 4764 0fe4 54B89D3D 		.word	1033746516
ARM GAS  /var/folders/80/65lm4rm97rv_n74c85vt01040000gn/T//ccuR6fPR.s 			page 110


 4765 0fe8 87FE9D3D 		.word	1033764487
 4766 0fec D2449E3D 		.word	1033782482
 4767 0ff0 328B9E3D 		.word	1033800498
 4768 0ff4 AAD19E3D 		.word	1033818538
 4769 0ff8 38189F3D 		.word	1033836600
 4770 0ffc DC5E9F3D 		.word	1033854684
 4771 1000 97A59F3D 		.word	1033872791
 4772 1004 69EC9F3D 		.word	1033890921
 4773 1008 5133A03D 		.word	1033909073
 4774 100c 517AA03D 		.word	1033927249
 4775 1010 66C1A03D 		.word	1033945446
 4776 1014 9308A13D 		.word	1033963667
 4777 1018 D74FA13D 		.word	1033981911
 4778 101c 3197A13D 		.word	1034000177
 4779 1020 A2DEA13D 		.word	1034018466
 4780 1024 2A26A23D 		.word	1034036778
 4781 1028 C96DA23D 		.word	1034055113
 4782 102c 7FB5A23D 		.word	1034073471
 4783 1030 4CFDA23D 		.word	1034091852
 4784 1034 3045A33D 		.word	1034110256
 4785 1038 2B8DA33D 		.word	1034128683
 4786 103c 3DD5A33D 		.word	1034147133
 4787 1040 661DA43D 		.word	1034165606
 4788 1044 A665A43D 		.word	1034184102
 4789 1048 FDADA43D 		.word	1034202621
 4790 104c 6CF6A43D 		.word	1034221164
 4791 1050 F13EA53D 		.word	1034239729
 4792 1054 8E87A53D 		.word	1034258318
 4793 1058 42D0A53D 		.word	1034276930
 4794 105c 0E19A63D 		.word	1034295566
 4795 1060 F061A63D 		.word	1034314224
 4796 1064 EBAAA63D 		.word	1034332907
 4797 1068 FCF3A63D 		.word	1034351612
 4798 106c 253DA73D 		.word	1034370341
 4799 1070 6586A73D 		.word	1034389093
 4800 1074 BDCFA73D 		.word	1034407869
 4801 1078 2C19A83D 		.word	1034426668
 4802 107c B362A83D 		.word	1034445491
 4803 1080 52ACA83D 		.word	1034464338
 4804 1084 07F6A83D 		.word	1034483207
 4805 1088 D53FA93D 		.word	1034502101
 4806 108c BA89A93D 		.word	1034521018
 4807 1090 B7D3A93D 		.word	1034539959
 4808 1094 CC1DAA3D 		.word	1034558924
 4809 1098 F867AA3D 		.word	1034577912
 4810 109c 3CB2AA3D 		.word	1034596924
 4811 10a0 98FCAA3D 		.word	1034615960
 4812 10a4 0C47AB3D 		.word	1034635020
 4813 10a8 9791AB3D 		.word	1034654103
 4814 10ac 3ADCAB3D 		.word	1034673210
 4815 10b0 F626AC3D 		.word	1034692342
 4816 10b4 C971AC3D 		.word	1034711497
 4817 10b8 B4BCAC3D 		.word	1034730676
 4818 10bc B707AD3D 		.word	1034749879
 4819 10c0 D352AD3D 		.word	1034769107
 4820 10c4 069EAD3D 		.word	1034788358
 4821 10c8 51E9AD3D 		.word	1034807633
ARM GAS  /var/folders/80/65lm4rm97rv_n74c85vt01040000gn/T//ccuR6fPR.s 			page 111


 4822 10cc B534AE3D 		.word	1034826933
 4823 10d0 3080AE3D 		.word	1034846256
 4824 10d4 C4CBAE3D 		.word	1034865604
 4825 10d8 7017AF3D 		.word	1034884976
 4826 10dc 3563AF3D 		.word	1034904373
 4827 10e0 11AFAF3D 		.word	1034923793
 4828 10e4 06FBAF3D 		.word	1034943238
 4829 10e8 1347B03D 		.word	1034962707
 4830 10ec 3993B03D 		.word	1034982201
 4831 10f0 77DFB03D 		.word	1035001719
 4832 10f4 CD2BB13D 		.word	1035021261
 4833 10f8 3C78B13D 		.word	1035040828
 4834 10fc C3C4B13D 		.word	1035060419
 4835 1100 6311B23D 		.word	1035080035
 4836 1104 1B5EB23D 		.word	1035099675
 4837 1108 ECAAB23D 		.word	1035119340
 4838 110c D6F7B23D 		.word	1035139030
 4839 1110 D844B33D 		.word	1035158744
 4840 1114 F391B33D 		.word	1035178483
 4841 1118 26DFB33D 		.word	1035198246
 4842 111c 722CB43D 		.word	1035218034
 4843 1120 D779B43D 		.word	1035237847
 4844 1124 55C7B43D 		.word	1035257685
 4845 1128 EC14B53D 		.word	1035277548
 4846 112c 9B62B53D 		.word	1035297435
 4847 1130 64B0B53D 		.word	1035317348
 4848 1134 45FEB53D 		.word	1035337285
 4849 1138 3F4CB63D 		.word	1035357247
 4850 113c 529AB63D 		.word	1035377234
 4851 1140 7FE8B63D 		.word	1035397247
 4852 1144 C436B73D 		.word	1035417284
 4853 1148 2285B73D 		.word	1035437346
 4854 114c 9AD3B73D 		.word	1035457434
 4855 1150 2A22B83D 		.word	1035477546
 4856 1154 D470B83D 		.word	1035497684
 4857 1158 97BFB83D 		.word	1035517847
 4858 115c 730EB93D 		.word	1035538035
 4859 1160 695DB93D 		.word	1035558249
 4860 1164 77ACB93D 		.word	1035578487
 4861 1168 9FFBB93D 		.word	1035598751
 4862 116c E14ABA3D 		.word	1035619041
 4863 1170 3C9ABA3D 		.word	1035639356
 4864 1174 B0E9BA3D 		.word	1035659696
 4865 1178 3D39BB3D 		.word	1035680061
 4866 117c E588BB3D 		.word	1035700453
 4867 1180 A5D8BB3D 		.word	1035720869
 4868 1184 7F28BC3D 		.word	1035741311
 4869 1188 7378BC3D 		.word	1035761779
 4870 118c 81C8BC3D 		.word	1035782273
 4871 1190 A818BD3D 		.word	1035802792
 4872 1194 E868BD3D 		.word	1035823336
 4873 1198 43B9BD3D 		.word	1035843907
 4874 119c B709BE3D 		.word	1035864503
 4875 11a0 455ABE3D 		.word	1035885125
 4876 11a4 ECAABE3D 		.word	1035905772
 4877 11a8 AEFBBE3D 		.word	1035926446
 4878 11ac 894CBF3D 		.word	1035947145
ARM GAS  /var/folders/80/65lm4rm97rv_n74c85vt01040000gn/T//ccuR6fPR.s 			page 112


 4879 11b0 7F9DBF3D 		.word	1035967871
 4880 11b4 8EEEBF3D 		.word	1035988622
 4881 11b8 B73FC03D 		.word	1036009399
 4882 11bc FB90C03D 		.word	1036030203
 4883 11c0 58E2C03D 		.word	1036051032
 4884 11c4 CF33C13D 		.word	1036071887
 4885 11c8 6185C13D 		.word	1036092769
 4886 11cc 0CD7C13D 		.word	1036113676
 4887 11d0 D228C23D 		.word	1036134610
 4888 11d4 B27AC23D 		.word	1036155570
 4889 11d8 ACCCC23D 		.word	1036176556
 4890 11dc C01EC33D 		.word	1036197568
 4891 11e0 EF70C33D 		.word	1036218607
 4892 11e4 38C3C33D 		.word	1036239672
 4893 11e8 9B15C43D 		.word	1036260763
 4894 11ec 1968C43D 		.word	1036281881
 4895 11f0 B1BAC43D 		.word	1036303025
 4896 11f4 640DC53D 		.word	1036324196
 4897 11f8 3160C53D 		.word	1036345393
 4898 11fc 19B3C53D 		.word	1036366617
 4899 1200 1B06C63D 		.word	1036387867
 4900 1204 3859C63D 		.word	1036409144
 4901 1208 6FACC63D 		.word	1036430447
 4902 120c C1FFC63D 		.word	1036451777
 4903 1210 2E53C73D 		.word	1036473134
 4904 1214 B5A6C73D 		.word	1036494517
 4905 1218 57FAC73D 		.word	1036515927
 4906 121c 144EC83D 		.word	1036537364
 4907 1220 ECA1C83D 		.word	1036558828
 4908 1224 DFF5C83D 		.word	1036580319
 4909 1228 ED49C93D 		.word	1036601837
 4910 122c 159EC93D 		.word	1036623381
 4911 1230 59F2C93D 		.word	1036644953
 4912 1234 B746CA3D 		.word	1036666551
 4913 1238 319BCA3D 		.word	1036688177
 4914 123c C5EFCA3D 		.word	1036709829
 4915 1240 7544CB3D 		.word	1036731509
 4916 1244 4099CB3D 		.word	1036753216
 4917 1248 26EECB3D 		.word	1036774950
 4918 124c 2743CC3D 		.word	1036796711
 4919 1250 4398CC3D 		.word	1036818499
 4920 1254 7BEDCC3D 		.word	1036840315
 4921 1258 CE42CD3D 		.word	1036862158
 4922 125c 3C98CD3D 		.word	1036884028
 4923 1260 C5EDCD3D 		.word	1036905925
 4924 1264 6A43CE3D 		.word	1036927850
 4925 1268 2B99CE3D 		.word	1036949803
 4926 126c 07EFCE3D 		.word	1036971783
 4927 1270 FE44CF3D 		.word	1036993790
 4928 1274 119BCF3D 		.word	1037015825
 4929 1278 40F1CF3D 		.word	1037037888
 4930 127c 8A47D03D 		.word	1037059978
 4931 1280 F09DD03D 		.word	1037082096
 4932 1284 71F4D03D 		.word	1037104241
 4933 1288 0E4BD13D 		.word	1037126414
 4934 128c C7A1D13D 		.word	1037148615
 4935 1290 9CF8D13D 		.word	1037170844
ARM GAS  /var/folders/80/65lm4rm97rv_n74c85vt01040000gn/T//ccuR6fPR.s 			page 113


 4936 1294 8C4FD23D 		.word	1037193100
 4937 1298 99A6D23D 		.word	1037215385
 4938 129c C1FDD23D 		.word	1037237697
 4939 12a0 0555D33D 		.word	1037260037
 4940 12a4 65ACD33D 		.word	1037282405
 4941 12a8 E103D43D 		.word	1037304801
 4942 12ac 795BD43D 		.word	1037327225
 4943 12b0 2EB3D43D 		.word	1037349678
 4944 12b4 FE0AD53D 		.word	1037372158
 4945 12b8 EA62D53D 		.word	1037394666
 4946 12bc F3BAD53D 		.word	1037417203
 4947 12c0 1813D63D 		.word	1037439768
 4948 12c4 596BD63D 		.word	1037462361
 4949 12c8 B6C3D63D 		.word	1037484982
 4950 12cc 2F1CD73D 		.word	1037507631
 4951 12d0 C574D73D 		.word	1037530309
 4952 12d4 78CDD73D 		.word	1037553016
 4953 12d8 4626D83D 		.word	1037575750
 4954 12dc 327FD83D 		.word	1037598514
 4955 12e0 39D8D83D 		.word	1037621305
 4956 12e4 5D31D93D 		.word	1037644125
 4957 12e8 9E8AD93D 		.word	1037666974
 4958 12ec FBE3D93D 		.word	1037689851
 4959 12f0 753DDA3D 		.word	1037712757
 4960 12f4 0C97DA3D 		.word	1037735692
 4961 12f8 BFF0DA3D 		.word	1037758655
 4962 12fc 8F4ADB3D 		.word	1037781647
 4963 1300 7CA4DB3D 		.word	1037804668
 4964 1304 85FEDB3D 		.word	1037827717
 4965 1308 AC58DC3D 		.word	1037850796
 4966 130c EFB2DC3D 		.word	1037873903
 4967 1310 4F0DDD3D 		.word	1037897039
 4968 1314 CD67DD3D 		.word	1037920205
 4969 1318 67C2DD3D 		.word	1037943399
 4970 131c 1E1DDE3D 		.word	1037966622
 4971 1320 F277DE3D 		.word	1037989874
 4972 1324 E3D2DE3D 		.word	1038013155
 4973 1328 F22DDF3D 		.word	1038036466
 4974 132c 1D89DF3D 		.word	1038059805
 4975 1330 66E4DF3D 		.word	1038083174
 4976 1334 CC3FE03D 		.word	1038106572
 4977 1338 509BE03D 		.word	1038130000
 4978 133c F0F6E03D 		.word	1038153456
 4979 1340 AE52E13D 		.word	1038176942
 4980 1344 8AAEE13D 		.word	1038200458
 4981 1348 830AE23D 		.word	1038224003
 4982 134c 9966E23D 		.word	1038247577
 4983 1350 CDC2E23D 		.word	1038271181
 4984 1354 1E1FE33D 		.word	1038294814
 4985 1358 8D7BE33D 		.word	1038318477
 4986 135c 19D8E33D 		.word	1038342169
 4987 1360 C434E43D 		.word	1038365892
 4988 1364 8B91E43D 		.word	1038389643
 4989 1368 71EEE43D 		.word	1038413425
 4990 136c 744BE53D 		.word	1038437236
 4991 1370 95A8E53D 		.word	1038461077
 4992 1374 D405E63D 		.word	1038484948
ARM GAS  /var/folders/80/65lm4rm97rv_n74c85vt01040000gn/T//ccuR6fPR.s 			page 114


 4993 1378 3163E63D 		.word	1038508849
 4994 137c ACC0E63D 		.word	1038532780
 4995 1380 441EE73D 		.word	1038556740
 4996 1384 FB7BE73D 		.word	1038580731
 4997 1388 D0D9E73D 		.word	1038604752
 4998 138c C237E83D 		.word	1038628802
 4999 1390 D395E83D 		.word	1038652883
 5000 1394 02F4E83D 		.word	1038676994
 5001 1398 4F52E93D 		.word	1038701135
 5002 139c BAB0E93D 		.word	1038725306
 5003 13a0 440FEA3D 		.word	1038749508
 5004 13a4 EC6DEA3D 		.word	1038773740
 5005 13a8 B2CCEA3D 		.word	1038798002
 5006 13ac 962BEB3D 		.word	1038822294
 5007 13b0 998AEB3D 		.word	1038846617
 5008 13b4 BBE9EB3D 		.word	1038870971
 5009 13b8 FB48EC3D 		.word	1038895355
 5010 13bc 59A8EC3D 		.word	1038919769
 5011 13c0 D607ED3D 		.word	1038944214
 5012 13c4 7167ED3D 		.word	1038968689
 5013 13c8 2BC7ED3D 		.word	1038993195
 5014 13cc 0427EE3D 		.word	1039017732
 5015 13d0 FB86EE3D 		.word	1039042299
 5016 13d4 12E7EE3D 		.word	1039066898
 5017 13d8 4747EF3D 		.word	1039091527
 5018 13dc 9AA7EF3D 		.word	1039116186
 5019 13e0 0D08F03D 		.word	1039140877
 5020 13e4 9F68F03D 		.word	1039165599
 5021 13e8 4FC9F03D 		.word	1039190351
 5022 13ec 1E2AF13D 		.word	1039215134
 5023 13f0 0D8BF13D 		.word	1039239949
 5024 13f4 1AECF13D 		.word	1039264794
 5025 13f8 474DF23D 		.word	1039289671
 5026 13fc 93AEF23D 		.word	1039314579
 5027 1400 FE0FF33D 		.word	1039339518
 5028 1404 8871F33D 		.word	1039364488
 5029 1408 31D3F33D 		.word	1039389489
 5030 140c FA34F43D 		.word	1039414522
 5031 1410 E296F43D 		.word	1039439586
 5032 1414 E9F8F43D 		.word	1039464681
 5033 1418 105BF53D 		.word	1039489808
 5034 141c 56BDF53D 		.word	1039514966
 5035 1420 BB1FF63D 		.word	1039540155
 5036 1424 4082F63D 		.word	1039565376
 5037 1428 E5E4F63D 		.word	1039590629
 5038 142c A947F73D 		.word	1039615913
 5039 1430 8DAAF73D 		.word	1039641229
 5040 1434 910DF83D 		.word	1039666577
 5041 1438 B470F83D 		.word	1039691956
 5042 143c F7D3F83D 		.word	1039717367
 5043 1440 5A37F93D 		.word	1039742810
 5044 1444 DD9AF93D 		.word	1039768285
 5045 1448 80FEF93D 		.word	1039793792
 5046 144c 4262FA3D 		.word	1039819330
 5047 1450 25C6FA3D 		.word	1039844901
 5048 1454 272AFB3D 		.word	1039870503
 5049 1458 498EFB3D 		.word	1039896137
ARM GAS  /var/folders/80/65lm4rm97rv_n74c85vt01040000gn/T//ccuR6fPR.s 			page 115


 5050 145c 8CF2FB3D 		.word	1039921804
 5051 1460 EF56FC3D 		.word	1039947503
 5052 1464 72BBFC3D 		.word	1039973234
 5053 1468 1520FD3D 		.word	1039998997
 5054 146c D884FD3D 		.word	1040024792
 5055 1470 BBE9FD3D 		.word	1040050619
 5056 1474 BF4EFE3D 		.word	1040076479
 5057 1478 E4B3FE3D 		.word	1040102372
 5058 147c 2819FF3D 		.word	1040128296
 5059 1480 8D7EFF3D 		.word	1040154253
 5060 1484 13E4FF3D 		.word	1040180243
 5061 1488 DC24003E 		.word	1040196828
 5062 148c C057003E 		.word	1040209856
 5063 1490 B38A003E 		.word	1040222899
 5064 1494 B7BD003E 		.word	1040235959
 5065 1498 CCF0003E 		.word	1040249036
 5066 149c F023013E 		.word	1040262128
 5067 14a0 2557013E 		.word	1040275237
 5068 14a4 6B8A013E 		.word	1040288363
 5069 14a8 C0BD013E 		.word	1040301504
 5070 14ac 27F1013E 		.word	1040314663
 5071 14b0 9D24023E 		.word	1040327837
 5072 14b4 2558023E 		.word	1040341029
 5073 14b8 BC8B023E 		.word	1040354236
 5074 14bc 65BF023E 		.word	1040367461
 5075 14c0 1EF3023E 		.word	1040380702
 5076 14c4 E726033E 		.word	1040393959
 5077 14c8 C15A033E 		.word	1040407233
 5078 14cc AB8E033E 		.word	1040420523
 5079 14d0 A7C2033E 		.word	1040433831
 5080 14d4 B3F6033E 		.word	1040447155
 5081 14d8 CF2A043E 		.word	1040460495
 5082 14dc FC5E043E 		.word	1040473852
 5083 14e0 3A93043E 		.word	1040487226
 5084 14e4 89C7043E 		.word	1040500617
 5085 14e8 E8FB043E 		.word	1040514024
 5086 14ec 5930053E 		.word	1040527449
 5087 14f0 DA64053E 		.word	1040540890
 5088 14f4 6B99053E 		.word	1040554347
 5089 14f8 0ECE053E 		.word	1040567822
 5090 14fc C202063E 		.word	1040581314
 5091 1500 8637063E 		.word	1040594822
 5092 1504 5B6C063E 		.word	1040608347
 5093 1508 41A1063E 		.word	1040621889
 5094 150c 39D6063E 		.word	1040635449
 5095 1510 410B073E 		.word	1040649025
 5096 1514 5A40073E 		.word	1040662618
 5097 1518 8475073E 		.word	1040676228
 5098 151c BFAA073E 		.word	1040689855
 5099 1520 0BE0073E 		.word	1040703499
 5100 1524 6915083E 		.word	1040717161
 5101 1528 D74A083E 		.word	1040730839
 5102 152c 5780083E 		.word	1040744535
 5103 1530 E7B5083E 		.word	1040758247
 5104 1534 89EB083E 		.word	1040771977
 5105 1538 3C21093E 		.word	1040785724
 5106 153c 0057093E 		.word	1040799488
ARM GAS  /var/folders/80/65lm4rm97rv_n74c85vt01040000gn/T//ccuR6fPR.s 			page 116


 5107 1540 D68C093E 		.word	1040813270
 5108 1544 BCC2093E 		.word	1040827068
 5109 1548 B4F8093E 		.word	1040840884
 5110 154c BD2E0A3E 		.word	1040854717
 5111 1550 D8640A3E 		.word	1040868568
 5112 1554 049B0A3E 		.word	1040882436
 5113 1558 41D10A3E 		.word	1040896321
 5114 155c 8F070B3E 		.word	1040910223
 5115 1560 EF3D0B3E 		.word	1040924143
 5116 1564 61740B3E 		.word	1040938081
 5117 1568 E4AA0B3E 		.word	1040952036
 5118 156c 78E10B3E 		.word	1040966008
 5119 1570 1E180C3E 		.word	1040979998
 5120 1574 D54E0C3E 		.word	1040994005
 5121 1578 9E850C3E 		.word	1041008030
 5122 157c 78BC0C3E 		.word	1041022072
 5123 1580 64F30C3E 		.word	1041036132
 5124 1584 612A0D3E 		.word	1041050209
 5125 1588 70610D3E 		.word	1041064304
 5126 158c 91980D3E 		.word	1041078417
 5127 1590 C4CF0D3E 		.word	1041092548
 5128 1594 08070E3E 		.word	1041106696
 5129 1598 5E3E0E3E 		.word	1041120862
 5130 159c C5750E3E 		.word	1041135045
 5131 15a0 3EAD0E3E 		.word	1041149246
 5132 15a4 C9E40E3E 		.word	1041163465
 5133 15a8 661C0F3E 		.word	1041177702
 5134 15ac 15540F3E 		.word	1041191957
 5135 15b0 D58B0F3E 		.word	1041206229
 5136 15b4 A8C30F3E 		.word	1041220520
 5137 15b8 8CFB0F3E 		.word	1041234828
 5138 15bc 8233103E 		.word	1041249154
 5139 15c0 8A6B103E 		.word	1041263498
 5140 15c4 A4A3103E 		.word	1041277860
 5141 15c8 D0DB103E 		.word	1041292240
 5142 15cc 0E14113E 		.word	1041306638
 5143 15d0 5E4C113E 		.word	1041321054
 5144 15d4 C084113E 		.word	1041335488
 5145 15d8 34BD113E 		.word	1041349940
 5146 15dc BAF5113E 		.word	1041364410
 5147 15e0 522E123E 		.word	1041378898
 5148 15e4 FD66123E 		.word	1041393405
 5149 15e8 B99F123E 		.word	1041407929
 5150 15ec 88D8123E 		.word	1041422472
 5151 15f0 6911133E 		.word	1041437033
 5152 15f4 5C4A133E 		.word	1041451612
 5153 15f8 6183133E 		.word	1041466209
 5154 15fc 79BC133E 		.word	1041480825
 5155 1600 A3F5133E 		.word	1041495459
 5156 1604 DF2E143E 		.word	1041510111
 5157 1608 2E68143E 		.word	1041524782
 5158 160c 8FA1143E 		.word	1041539471
 5159 1610 02DB143E 		.word	1041554178
 5160 1614 8814153E 		.word	1041568904
 5161 1618 204E153E 		.word	1041583648
 5162 161c CB87153E 		.word	1041598411
 5163 1620 88C1153E 		.word	1041613192
ARM GAS  /var/folders/80/65lm4rm97rv_n74c85vt01040000gn/T//ccuR6fPR.s 			page 117


 5164 1624 57FB153E 		.word	1041627991
 5165 1628 3935163E 		.word	1041642809
 5166 162c 2E6F163E 		.word	1041657646
 5167 1630 35A9163E 		.word	1041672501
 5168 1634 4FE3163E 		.word	1041687375
 5169 1638 7B1D173E 		.word	1041702267
 5170 163c BA57173E 		.word	1041717178
 5171 1640 0C92173E 		.word	1041732108
 5172 1644 70CC173E 		.word	1041747056
 5173 1648 E706183E 		.word	1041762023
 5174 164c 7141183E 		.word	1041777009
 5175 1650 0E7C183E 		.word	1041792014
 5176 1654 BDB6183E 		.word	1041807037
 5177 1658 7FF1183E 		.word	1041822079
 5178 165c 542C193E 		.word	1041837140
 5179 1660 3C67193E 		.word	1041852220
 5180 1664 36A2193E 		.word	1041867318
 5181 1668 44DD193E 		.word	1041882436
 5182 166c 64181A3E 		.word	1041897572
 5183 1670 98531A3E 		.word	1041912728
 5184 1674 DE8E1A3E 		.word	1041927902
 5185 1678 37CA1A3E 		.word	1041943095
 5186 167c A4051B3E 		.word	1041958308
 5187 1680 23411B3E 		.word	1041973539
 5188 1684 B67C1B3E 		.word	1041988790
 5189 1688 5BB81B3E 		.word	1042004059
 5190 168c 14F41B3E 		.word	1042019348
 5191 1690 E02F1C3E 		.word	1042034656
 5192 1694 BE6B1C3E 		.word	1042049982
 5193 1698 B1A71C3E 		.word	1042065329
 5194 169c B6E31C3E 		.word	1042080694
 5195 16a0 CE1F1D3E 		.word	1042096078
 5196 16a4 FA5B1D3E 		.word	1042111482
 5197 16a8 39981D3E 		.word	1042126905
 5198 16ac 8CD41D3E 		.word	1042142348
 5199 16b0 F1101E3E 		.word	1042157809
 5200 16b4 6A4D1E3E 		.word	1042173290
 5201 16b8 F7891E3E 		.word	1042188791
 5202 16bc 96C61E3E 		.word	1042204310
 5203 16c0 4A031F3E 		.word	1042219850
 5204 16c4 10401F3E 		.word	1042235408
 5205 16c8 EA7C1F3E 		.word	1042250986
 5206 16cc D8B91F3E 		.word	1042266584
 5207 16d0 D9F61F3E 		.word	1042282201
 5208 16d4 EE33203E 		.word	1042297838
 5209 16d8 1671203E 		.word	1042313494
 5210 16dc 52AE203E 		.word	1042329170
 5211 16e0 A1EB203E 		.word	1042344865
 5212 16e4 0429213E 		.word	1042360580
 5213 16e8 7B66213E 		.word	1042376315
 5214 16ec 05A4213E 		.word	1042392069
 5215 16f0 A4E1213E 		.word	1042407844
 5216 16f4 551F223E 		.word	1042423637
 5217 16f8 1B5D223E 		.word	1042439451
 5218 16fc F49A223E 		.word	1042455284
 5219 1700 E2D8223E 		.word	1042471138
 5220 1704 E316233E 		.word	1042487011
ARM GAS  /var/folders/80/65lm4rm97rv_n74c85vt01040000gn/T//ccuR6fPR.s 			page 118


 5221 1708 F854233E 		.word	1042502904
 5222 170c 2193233E 		.word	1042518817
 5223 1710 5DD1233E 		.word	1042534749
 5224 1714 AE0F243E 		.word	1042550702
 5225 1718 134E243E 		.word	1042566675
 5226 171c 8B8C243E 		.word	1042582667
 5227 1720 18CB243E 		.word	1042598680
 5228 1724 B809253E 		.word	1042614712
 5229 1728 6D48253E 		.word	1042630765
 5230 172c 3687253E 		.word	1042646838
 5231 1730 13C6253E 		.word	1042662931
 5232 1734 0405263E 		.word	1042679044
 5233 1738 0944263E 		.word	1042695177
 5234 173c 2383263E 		.word	1042711331
 5235 1740 50C2263E 		.word	1042727504
 5236 1744 9201273E 		.word	1042743698
 5237 1748 E840273E 		.word	1042759912
 5238 174c 5380273E 		.word	1042776147
 5239 1750 D1BF273E 		.word	1042792401
 5240 1754 64FF273E 		.word	1042808676
 5241 1758 0C3F283E 		.word	1042824972
 5242 175c C87E283E 		.word	1042841288
 5243 1760 98BE283E 		.word	1042857624
 5244 1764 7DFE283E 		.word	1042873981
 5245 1768 763E293E 		.word	1042890358
 5246 176c 837E293E 		.word	1042906755
 5247 1770 A5BE293E 		.word	1042923173
 5248 1774 DCFE293E 		.word	1042939612
 5249 1778 273F2A3E 		.word	1042956071
 5250 177c 877F2A3E 		.word	1042972551
 5251 1780 FCBF2A3E 		.word	1042989052
 5252 1784 85002B3E 		.word	1043005573
 5253 1788 23412B3E 		.word	1043022115
 5254 178c D5812B3E 		.word	1043038677
 5255 1790 9CC22B3E 		.word	1043055260
 5256 1794 78032C3E 		.word	1043071864
 5257 1798 69442C3E 		.word	1043088489
 5258 179c 6F852C3E 		.word	1043105135
 5259 17a0 89C62C3E 		.word	1043121801
 5260 17a4 B8072D3E 		.word	1043138488
 5261 17a8 FC482D3E 		.word	1043155196
 5262 17ac 558A2D3E 		.word	1043171925
 5263 17b0 C3CB2D3E 		.word	1043188675
 5264 17b4 460D2E3E 		.word	1043205446
 5265 17b8 DE4E2E3E 		.word	1043222238
 5266 17bc 8B902E3E 		.word	1043239051
 5267 17c0 4DD22E3E 		.word	1043255885
 5268 17c4 24142F3E 		.word	1043272740
 5269 17c8 10562F3E 		.word	1043289616
 5270 17cc 11982F3E 		.word	1043306513
 5271 17d0 27DA2F3E 		.word	1043323431
 5272 17d4 531C303E 		.word	1043340371
 5273 17d8 945E303E 		.word	1043357332
 5274 17dc EAA0303E 		.word	1043374314
 5275 17e0 55E3303E 		.word	1043391317
 5276 17e4 D525313E 		.word	1043408341
 5277 17e8 6B68313E 		.word	1043425387
ARM GAS  /var/folders/80/65lm4rm97rv_n74c85vt01040000gn/T//ccuR6fPR.s 			page 119


 5278 17ec 16AB313E 		.word	1043442454
 5279 17f0 D7ED313E 		.word	1043459543
 5280 17f4 AC30323E 		.word	1043476652
 5281 17f8 9873323E 		.word	1043493784
 5282 17fc 98B6323E 		.word	1043510936
 5283 1800 AEF9323E 		.word	1043528110
 5284 1804 DA3C333E 		.word	1043545306
 5285 1808 1B80333E 		.word	1043562523
 5286 180c 72C3333E 		.word	1043579762
 5287 1810 DE06343E 		.word	1043597022
 5288 1814 604A343E 		.word	1043614304
 5289 1818 F88D343E 		.word	1043631608
 5290 181c A5D1343E 		.word	1043648933
 5291 1820 6715353E 		.word	1043666279
 5292 1824 4059353E 		.word	1043683648
 5293 1828 2E9D353E 		.word	1043701038
 5294 182c 32E1353E 		.word	1043718450
 5295 1830 4C25363E 		.word	1043735884
 5296 1834 7C69363E 		.word	1043753340
 5297 1838 C1AD363E 		.word	1043770817
 5298 183c 1CF2363E 		.word	1043788316
 5299 1840 8E36373E 		.word	1043805838
 5300 1844 157B373E 		.word	1043823381
 5301 1848 B2BF373E 		.word	1043840946
 5302 184c 6504383E 		.word	1043858533
 5303 1850 2E49383E 		.word	1043876142
 5304 1854 0D8E383E 		.word	1043893773
 5305 1858 02D3383E 		.word	1043911426
 5306 185c 0D18393E 		.word	1043929101
 5307 1860 2F5D393E 		.word	1043946799
 5308 1864 66A2393E 		.word	1043964518
 5309 1868 B4E7393E 		.word	1043982260
 5310 186c 182D3A3E 		.word	1044000024
 5311 1870 92723A3E 		.word	1044017810
 5312 1874 22B83A3E 		.word	1044035618
 5313 1878 C9FD3A3E 		.word	1044053449
 5314 187c 86433B3E 		.word	1044071302
 5315 1880 59893B3E 		.word	1044089177
 5316 1884 43CF3B3E 		.word	1044107075
 5317 1888 43153C3E 		.word	1044124995
 5318 188c 5A5B3C3E 		.word	1044142938
 5319 1890 87A13C3E 		.word	1044160903
 5320 1894 CAE73C3E 		.word	1044178890
 5321 1898 242E3D3E 		.word	1044196900
 5322 189c 94743D3E 		.word	1044214932
 5323 18a0 1BBB3D3E 		.word	1044232987
 5324 18a4 B9013E3E 		.word	1044251065
 5325 18a8 6D483E3E 		.word	1044269165
 5326 18ac 388F3E3E 		.word	1044287288
 5327 18b0 1AD63E3E 		.word	1044305434
 5328 18b4 121D3F3E 		.word	1044323602
 5329 18b8 21643F3E 		.word	1044341793
 5330 18bc 47AB3F3E 		.word	1044360007
 5331 18c0 83F23F3E 		.word	1044378243
 5332 18c4 D739403E 		.word	1044396503
 5333 18c8 4181403E 		.word	1044414785
 5334 18cc C2C8403E 		.word	1044433090
ARM GAS  /var/folders/80/65lm4rm97rv_n74c85vt01040000gn/T//ccuR6fPR.s 			page 120


 5335 18d0 5A10413E 		.word	1044451418
 5336 18d4 0958413E 		.word	1044469769
 5337 18d8 CF9F413E 		.word	1044488143
 5338 18dc ACE7413E 		.word	1044506540
 5339 18e0 9F2F423E 		.word	1044524959
 5340 18e4 AA77423E 		.word	1044543402
 5341 18e8 CCBF423E 		.word	1044561868
 5342 18ec 0608433E 		.word	1044580358
 5343 18f0 5650433E 		.word	1044598870
 5344 18f4 BD98433E 		.word	1044617405
 5345 18f8 3CE1433E 		.word	1044635964
 5346 18fc D229443E 		.word	1044654546
 5347 1900 7F72443E 		.word	1044673151
 5348 1904 43BB443E 		.word	1044691779
 5349 1908 1F04453E 		.word	1044710431
 5350 190c 124D453E 		.word	1044729106
 5351 1910 1C96453E 		.word	1044747804
 5352 1914 3EDF453E 		.word	1044766526
 5353 1918 7728463E 		.word	1044785271
 5354 191c C871463E 		.word	1044804040
 5355 1920 30BB463E 		.word	1044822832
 5356 1924 B004473E 		.word	1044841648
 5357 1928 474E473E 		.word	1044860487
 5358 192c F697473E 		.word	1044879350
 5359 1930 BCE1473E 		.word	1044898236
 5360 1934 9A2B483E 		.word	1044917146
 5361 1938 9075483E 		.word	1044936080
 5362 193c 9DBF483E 		.word	1044955037
 5363 1940 C209493E 		.word	1044974018
 5364 1944 FF53493E 		.word	1044993023
 5365 1948 549E493E 		.word	1045012052
 5366 194c C0E8493E 		.word	1045031104
 5367 1950 44334A3E 		.word	1045050180
 5368 1954 E17D4A3E 		.word	1045069281
 5369 1958 95C84A3E 		.word	1045088405
 5370 195c 61134B3E 		.word	1045107553
 5371 1960 455E4B3E 		.word	1045126725
 5372 1964 40A94B3E 		.word	1045145920
 5373 1968 54F44B3E 		.word	1045165140
 5374 196c 803F4C3E 		.word	1045184384
 5375 1970 C48A4C3E 		.word	1045203652
 5376 1974 21D64C3E 		.word	1045222945
 5377 1978 95214D3E 		.word	1045242261
 5378 197c 216D4D3E 		.word	1045261601
 5379 1980 C6B84D3E 		.word	1045280966
 5380 1984 83044E3E 		.word	1045300355
 5381 1988 58504E3E 		.word	1045319768
 5382 198c 469C4E3E 		.word	1045339206
 5383 1990 4BE84E3E 		.word	1045358667
 5384 1994 6A344F3E 		.word	1045378154
 5385 1998 A0804F3E 		.word	1045397664
 5386 199c EFCC4F3E 		.word	1045417199
 5387 19a0 5619503E 		.word	1045436758
 5388 19a4 D665503E 		.word	1045456342
 5389 19a8 6FB2503E 		.word	1045475951
 5390 19ac 1FFF503E 		.word	1045495583
 5391 19b0 E94B513E 		.word	1045515241
ARM GAS  /var/folders/80/65lm4rm97rv_n74c85vt01040000gn/T//ccuR6fPR.s 			page 121


 5392 19b4 CB98513E 		.word	1045534923
 5393 19b8 C6E5513E 		.word	1045554630
 5394 19bc D932523E 		.word	1045574361
 5395 19c0 0580523E 		.word	1045594117
 5396 19c4 4ACD523E 		.word	1045613898
 5397 19c8 A71A533E 		.word	1045633703
 5398 19cc 1E68533E 		.word	1045653534
 5399 19d0 ADB5533E 		.word	1045673389
 5400 19d4 5503543E 		.word	1045693269
 5401 19d8 1551543E 		.word	1045713173
 5402 19dc EF9E543E 		.word	1045733103
 5403 19e0 E2EC543E 		.word	1045753058
 5404 19e4 ED3A553E 		.word	1045773037
 5405 19e8 1289553E 		.word	1045793042
 5406 19ec 50D7553E 		.word	1045813072
 5407 19f0 A625563E 		.word	1045833126
 5408 19f4 1674563E 		.word	1045853206
 5409 19f8 9FC2563E 		.word	1045873311
 5410 19fc 4111573E 		.word	1045893441
 5411 1a00 FC5F573E 		.word	1045913596
 5412 1a04 D1AE573E 		.word	1045933777
 5413 1a08 BFFD573E 		.word	1045953983
 5414 1a0c C64C583E 		.word	1045974214
 5415 1a10 E69B583E 		.word	1045994470
 5416 1a14 20EB583E 		.word	1046014752
 5417 1a18 733A593E 		.word	1046035059
 5418 1a1c DF89593E 		.word	1046055391
 5419 1a20 65D9593E 		.word	1046075749
 5420 1a24 05295A3E 		.word	1046096133
 5421 1a28 BE785A3E 		.word	1046116542
 5422 1a2c 90C85A3E 		.word	1046136976
 5423 1a30 7C185B3E 		.word	1046157436
 5424 1a34 82685B3E 		.word	1046177922
 5425 1a38 A1B85B3E 		.word	1046198433
 5426 1a3c DA085C3E 		.word	1046218970
 5427 1a40 2C595C3E 		.word	1046239532
 5428 1a44 99A95C3E 		.word	1046260121
 5429 1a48 1FFA5C3E 		.word	1046280735
 5430 1a4c BF4A5D3E 		.word	1046301375
 5431 1a50 789B5D3E 		.word	1046322040
 5432 1a54 4CEC5D3E 		.word	1046342732
 5433 1a58 393D5E3E 		.word	1046363449
 5434 1a5c 418E5E3E 		.word	1046384193
 5435 1a60 62DF5E3E 		.word	1046404962
 5436 1a64 9E305F3E 		.word	1046425758
 5437 1a68 F3815F3E 		.word	1046446579
 5438 1a6c 62D35F3E 		.word	1046467426
 5439 1a70 EC24603E 		.word	1046488300
 5440 1a74 8F76603E 		.word	1046509199
 5441 1a78 4DC8603E 		.word	1046530125
 5442 1a7c 251A613E 		.word	1046551077
 5443 1a80 176C613E 		.word	1046572055
 5444 1a84 24BE613E 		.word	1046593060
 5445 1a88 4A10623E 		.word	1046614090
 5446 1a8c 8B62623E 		.word	1046635147
 5447 1a90 E7B4623E 		.word	1046656231
 5448 1a94 5C07633E 		.word	1046677340
ARM GAS  /var/folders/80/65lm4rm97rv_n74c85vt01040000gn/T//ccuR6fPR.s 			page 122


 5449 1a98 ED59633E 		.word	1046698477
 5450 1a9c 97AC633E 		.word	1046719639
 5451 1aa0 5CFF633E 		.word	1046740828
 5452 1aa4 3C52643E 		.word	1046762044
 5453 1aa8 36A5643E 		.word	1046783286
 5454 1aac 4BF8643E 		.word	1046804555
 5455 1ab0 7A4B653E 		.word	1046825850
 5456 1ab4 C49E653E 		.word	1046847172
 5457 1ab8 29F2653E 		.word	1046868521
 5458 1abc A845663E 		.word	1046889896
 5459 1ac0 4299663E 		.word	1046911298
 5460 1ac4 F7EC663E 		.word	1046932727
 5461 1ac8 C740673E 		.word	1046954183
 5462 1acc B194673E 		.word	1046975665
 5463 1ad0 B7E8673E 		.word	1046997175
 5464 1ad4 D73C683E 		.word	1047018711
 5465 1ad8 1291683E 		.word	1047040274
 5466 1adc 69E5683E 		.word	1047061865
 5467 1ae0 DA39693E 		.word	1047083482
 5468 1ae4 668E693E 		.word	1047105126
 5469 1ae8 0EE3693E 		.word	1047126798
 5470 1aec D0376A3E 		.word	1047148496
 5471 1af0 AE8C6A3E 		.word	1047170222
 5472 1af4 A7E16A3E 		.word	1047191975
 5473 1af8 BB366B3E 		.word	1047213755
 5474 1afc EA8B6B3E 		.word	1047235562
 5475 1b00 35E16B3E 		.word	1047257397
 5476 1b04 9B366C3E 		.word	1047279259
 5477 1b08 1C8C6C3E 		.word	1047301148
 5478 1b0c B9E16C3E 		.word	1047323065
 5479 1b10 71376D3E 		.word	1047345009
 5480 1b14 448D6D3E 		.word	1047366980
 5481 1b18 34E36D3E 		.word	1047388980
 5482 1b1c 3E396E3E 		.word	1047411006
 5483 1b20 648F6E3E 		.word	1047433060
 5484 1b24 A6E56E3E 		.word	1047455142
 5485 1b28 033C6F3E 		.word	1047477251
 5486 1b2c 7C926F3E 		.word	1047499388
 5487 1b30 11E96F3E 		.word	1047521553
 5488 1b34 C23F703E 		.word	1047543746
 5489 1b38 8E96703E 		.word	1047565966
 5490 1b3c 76ED703E 		.word	1047588214
 5491 1b40 7A44713E 		.word	1047610490
 5492 1b44 9A9B713E 		.word	1047632794
 5493 1b48 D5F2713E 		.word	1047655125
 5494 1b4c 2D4A723E 		.word	1047677485
 5495 1b50 A1A1723E 		.word	1047699873
 5496 1b54 30F9723E 		.word	1047722288
 5497 1b58 DC50733E 		.word	1047744732
 5498 1b5c A4A8733E 		.word	1047767204
 5499 1b60 8700743E 		.word	1047789703
 5500 1b64 8758743E 		.word	1047812231
 5501 1b68 A4B0743E 		.word	1047834788
 5502 1b6c DC08753E 		.word	1047857372
 5503 1b70 3161753E 		.word	1047879985
 5504 1b74 A2B9753E 		.word	1047902626
 5505 1b78 2F12763E 		.word	1047925295
ARM GAS  /var/folders/80/65lm4rm97rv_n74c85vt01040000gn/T//ccuR6fPR.s 			page 123


 5506 1b7c D96A763E 		.word	1047947993
 5507 1b80 9FC3763E 		.word	1047970719
 5508 1b84 811C773E 		.word	1047993473
 5509 1b88 8075773E 		.word	1048016256
 5510 1b8c 9CCE773E 		.word	1048039068
 5511 1b90 D427783E 		.word	1048061908
 5512 1b94 2881783E 		.word	1048084776
 5513 1b98 9ADA783E 		.word	1048107674
 5514 1b9c 2734793E 		.word	1048130599
 5515 1ba0 D28D793E 		.word	1048153554
 5516 1ba4 99E7793E 		.word	1048176537
 5517 1ba8 7D417A3E 		.word	1048199549
 5518 1bac 7E9B7A3E 		.word	1048222590
 5519 1bb0 9CF57A3E 		.word	1048245660
 5520 1bb4 D64F7B3E 		.word	1048268758
 5521 1bb8 2EAA7B3E 		.word	1048291886
 5522 1bbc A2047C3E 		.word	1048315042
 5523 1bc0 335F7C3E 		.word	1048338227
 5524 1bc4 E2B97C3E 		.word	1048361442
 5525 1bc8 AD147D3E 		.word	1048384685
 5526 1bcc 966F7D3E 		.word	1048407958
 5527 1bd0 9BCA7D3E 		.word	1048431259
 5528 1bd4 BE257E3E 		.word	1048454590
 5529 1bd8 FE807E3E 		.word	1048477950
 5530 1bdc 5BDC7E3E 		.word	1048501339
 5531 1be0 D6377F3E 		.word	1048524758
 5532 1be4 6D937F3E 		.word	1048548205
 5533 1be8 23EF7F3E 		.word	1048571683
 5534 1bec 7B25803E 		.word	1048585595
 5535 1bf0 7253803E 		.word	1048597362
 5536 1bf4 7981803E 		.word	1048609145
 5537 1bf8 8FAF803E 		.word	1048620943
 5538 1bfc B3DD803E 		.word	1048632755
 5539 1c00 E60B813E 		.word	1048644582
 5540 1c04 273A813E 		.word	1048656423
 5541 1c08 7868813E 		.word	1048668280
 5542 1c0c D796813E 		.word	1048680151
 5543 1c10 46C5813E 		.word	1048692038
 5544 1c14 C3F3813E 		.word	1048703939
 5545 1c18 4F22823E 		.word	1048715855
 5546 1c1c EA50823E 		.word	1048727786
 5547 1c20 947F823E 		.word	1048739732
 5548 1c24 4CAE823E 		.word	1048751692
 5549 1c28 14DD823E 		.word	1048763668
 5550 1c2c EB0B833E 		.word	1048775659
 5551 1c30 D13A833E 		.word	1048787665
 5552 1c34 C569833E 		.word	1048799685
 5553 1c38 C998833E 		.word	1048811721
 5554 1c3c DCC7833E 		.word	1048823772
 5555 1c40 FEF6833E 		.word	1048835838
 5556 1c44 2F26843E 		.word	1048847919
 5557 1c48 6F55843E 		.word	1048860015
 5558 1c4c BF84843E 		.word	1048872127
 5559 1c50 1DB4843E 		.word	1048884253
 5560 1c54 8BE3843E 		.word	1048896395
 5561 1c58 0813853E 		.word	1048908552
 5562 1c5c 9442853E 		.word	1048920724
ARM GAS  /var/folders/80/65lm4rm97rv_n74c85vt01040000gn/T//ccuR6fPR.s 			page 124


 5563 1c60 2F72853E 		.word	1048932911
 5564 1c64 D9A1853E 		.word	1048945113
 5565 1c68 93D1853E 		.word	1048957331
 5566 1c6c 5C01863E 		.word	1048969564
 5567 1c70 3531863E 		.word	1048981813
 5568 1c74 1C61863E 		.word	1048994076
 5569 1c78 1491863E 		.word	1049006356
 5570 1c7c 1AC1863E 		.word	1049018650
 5571 1c80 30F1863E 		.word	1049030960
 5572 1c84 5521873E 		.word	1049043285
 5573 1c88 8A51873E 		.word	1049055626
 5574 1c8c CE81873E 		.word	1049067982
 5575 1c90 21B2873E 		.word	1049080353
 5576 1c94 84E2873E 		.word	1049092740
 5577 1c98 F712883E 		.word	1049105143
 5578 1c9c 7943883E 		.word	1049117561
 5579 1ca0 0A74883E 		.word	1049129994
 5580 1ca4 ACA4883E 		.word	1049142444
 5581 1ca8 5CD5883E 		.word	1049154908
 5582 1cac 1D06893E 		.word	1049167389
 5583 1cb0 EC36893E 		.word	1049179884
 5584 1cb4 CC67893E 		.word	1049192396
 5585 1cb8 BB98893E 		.word	1049204923
 5586 1cbc BAC9893E 		.word	1049217466
 5587 1cc0 C9FA893E 		.word	1049230025
 5588 1cc4 E72B8A3E 		.word	1049242599
 5589 1cc8 155D8A3E 		.word	1049255189
 5590 1ccc 538E8A3E 		.word	1049267795
 5591 1cd0 A0BF8A3E 		.word	1049280416
 5592 1cd4 FEF08A3E 		.word	1049293054
 5593 1cd8 6B228B3E 		.word	1049305707
 5594 1cdc E8538B3E 		.word	1049318376
 5595 1ce0 75858B3E 		.word	1049331061
 5596 1ce4 11B78B3E 		.word	1049343761
 5597 1ce8 BEE88B3E 		.word	1049356478
 5598 1cec 7B1A8C3E 		.word	1049369211
 5599 1cf0 474C8C3E 		.word	1049381959
 5600 1cf4 237E8C3E 		.word	1049394723
 5601 1cf8 10B08C3E 		.word	1049407504
 5602 1cfc 0CE28C3E 		.word	1049420300
 5603 1d00 19148D3E 		.word	1049433113
 5604 1d04 35468D3E 		.word	1049445941
 5605 1d08 61788D3E 		.word	1049458785
 5606 1d0c 9EAA8D3E 		.word	1049471646
 5607 1d10 EBDC8D3E 		.word	1049484523
 5608 1d14 470F8E3E 		.word	1049497415
 5609 1d18 B4418E3E 		.word	1049510324
 5610 1d1c 31748E3E 		.word	1049523249
 5611 1d20 BEA68E3E 		.word	1049536190
 5612 1d24 5CD98E3E 		.word	1049549148
 5613 1d28 090C8F3E 		.word	1049562121
 5614 1d2c C73E8F3E 		.word	1049575111
 5615 1d30 95718F3E 		.word	1049588117
 5616 1d34 74A48F3E 		.word	1049601140
 5617 1d38 62D78F3E 		.word	1049614178
 5618 1d3c 610A903E 		.word	1049627233
 5619 1d40 713D903E 		.word	1049640305
ARM GAS  /var/folders/80/65lm4rm97rv_n74c85vt01040000gn/T//ccuR6fPR.s 			page 125


 5620 1d44 9070903E 		.word	1049653392
 5621 1d48 C0A3903E 		.word	1049666496
 5622 1d4c 01D7903E 		.word	1049679617
 5623 1d50 520A913E 		.word	1049692754
 5624 1d54 B33D913E 		.word	1049705907
 5625 1d58 2571913E 		.word	1049719077
 5626 1d5c A7A4913E 		.word	1049732263
 5627 1d60 3AD8913E 		.word	1049745466
 5628 1d64 DD0B923E 		.word	1049758685
 5629 1d68 913F923E 		.word	1049771921
 5630 1d6c 5573923E 		.word	1049785173
 5631 1d70 2AA7923E 		.word	1049798442
 5632 1d74 0FDB923E 		.word	1049811727
 5633 1d78 060F933E 		.word	1049825030
 5634 1d7c 0C43933E 		.word	1049838348
 5635 1d80 2477933E 		.word	1049851684
 5636 1d84 4CAB933E 		.word	1049865036
 5637 1d88 85DF933E 		.word	1049878405
 5638 1d8c CE13943E 		.word	1049891790
 5639 1d90 2948943E 		.word	1049905193
 5640 1d94 947C943E 		.word	1049918612
 5641 1d98 10B1943E 		.word	1049932048
 5642 1d9c 9DE5943E 		.word	1049945501
 5643 1da0 3A1A953E 		.word	1049958970
 5644 1da4 E84E953E 		.word	1049972456
 5645 1da8 A883953E 		.word	1049985960
 5646 1dac 78B8953E 		.word	1049999480
 5647 1db0 59ED953E 		.word	1050013017
 5648 1db4 4B22963E 		.word	1050026571
 5649 1db8 4E57963E 		.word	1050040142
 5650 1dbc 628C963E 		.word	1050053730
 5651 1dc0 87C1963E 		.word	1050067335
 5652 1dc4 BDF6963E 		.word	1050080957
 5653 1dc8 042C973E 		.word	1050094596
 5654 1dcc 5C61973E 		.word	1050108252
 5655 1dd0 C596973E 		.word	1050121925
 5656 1dd4 40CC973E 		.word	1050135616
 5657 1dd8 CB01983E 		.word	1050149323
 5658 1ddc 6837983E 		.word	1050163048
 5659 1de0 156D983E 		.word	1050176789
 5660 1de4 D4A2983E 		.word	1050190548
 5661 1de8 A4D8983E 		.word	1050204324
 5662 1dec 860E993E 		.word	1050218118
 5663 1df0 7944993E 		.word	1050231929
 5664 1df4 7C7A993E 		.word	1050245756
 5665 1df8 92B0993E 		.word	1050259602
 5666 1dfc B8E6993E 		.word	1050273464
 5667 1e00 F01C9A3E 		.word	1050287344
 5668 1e04 39539A3E 		.word	1050301241
 5669 1e08 94899A3E 		.word	1050315156
 5670 1e0c 00C09A3E 		.word	1050329088
 5671 1e10 7EF69A3E 		.word	1050343038
 5672 1e14 0D2D9B3E 		.word	1050357005
 5673 1e18 AD639B3E 		.word	1050370989
 5674 1e1c 5F9A9B3E 		.word	1050384991
 5675 1e20 23D19B3E 		.word	1050399011
 5676 1e24 F8079C3E 		.word	1050413048
ARM GAS  /var/folders/80/65lm4rm97rv_n74c85vt01040000gn/T//ccuR6fPR.s 			page 126


 5677 1e28 DE3E9C3E 		.word	1050427102
 5678 1e2c D6759C3E 		.word	1050441174
 5679 1e30 E0AC9C3E 		.word	1050455264
 5680 1e34 FBE39C3E 		.word	1050469371
 5681 1e38 291B9D3E 		.word	1050483497
 5682 1e3c 67529D3E 		.word	1050497639
 5683 1e40 B8899D3E 		.word	1050511800
 5684 1e44 1AC19D3E 		.word	1050525978
 5685 1e48 8EF89D3E 		.word	1050540174
 5686 1e4c 13309E3E 		.word	1050554387
 5687 1e50 AB679E3E 		.word	1050568619
 5688 1e54 549F9E3E 		.word	1050582868
 5689 1e58 0FD79E3E 		.word	1050597135
 5690 1e5c DC0E9F3E 		.word	1050611420
 5691 1e60 BB469F3E 		.word	1050625723
 5692 1e64 AB7E9F3E 		.word	1050640043
 5693 1e68 AEB69F3E 		.word	1050654382
 5694 1e6c C3EE9F3E 		.word	1050668739
 5695 1e70 E926A03E 		.word	1050683113
 5696 1e74 225FA03E 		.word	1050697506
 5697 1e78 6C97A03E 		.word	1050711916
 5698 1e7c C9CFA03E 		.word	1050726345
 5699 1e80 3708A13E 		.word	1050740791
 5700 1e84 B840A13E 		.word	1050755256
 5701 1e88 4B79A13E 		.word	1050769739
 5702 1e8c EFB1A13E 		.word	1050784239
 5703 1e90 A7EAA13E 		.word	1050798759
 5704 1e94 7023A23E 		.word	1050813296
 5705 1e98 4B5CA23E 		.word	1050827851
 5706 1e9c 3995A23E 		.word	1050842425
 5707 1ea0 39CEA23E 		.word	1050857017
 5708 1ea4 4B07A33E 		.word	1050871627
 5709 1ea8 6F40A33E 		.word	1050886255
 5710 1eac A679A33E 		.word	1050900902
 5711 1eb0 EFB2A33E 		.word	1050915567
 5712 1eb4 4AECA33E 		.word	1050930250
 5713 1eb8 B825A43E 		.word	1050944952
 5714 1ebc 385FA43E 		.word	1050959672
 5715 1ec0 CA98A43E 		.word	1050974410
 5716 1ec4 6FD2A43E 		.word	1050989167
 5717 1ec8 270CA53E 		.word	1051003943
 5718 1ecc F145A53E 		.word	1051018737
 5719 1ed0 CD7FA53E 		.word	1051033549
 5720 1ed4 BCB9A53E 		.word	1051048380
 5721 1ed8 BEF3A53E 		.word	1051063230
 5722 1edc D22DA63E 		.word	1051078098
 5723 1ee0 F967A63E 		.word	1051092985
 5724 1ee4 32A2A63E 		.word	1051107890
 5725 1ee8 7EDCA63E 		.word	1051122814
 5726 1eec DD16A73E 		.word	1051137757
 5727 1ef0 4E51A73E 		.word	1051152718
 5728 1ef4 D28BA73E 		.word	1051167698
 5729 1ef8 69C6A73E 		.word	1051182697
 5730 1efc 1301A83E 		.word	1051197715
 5731 1f00 CF3BA83E 		.word	1051212751
 5732 1f04 9E76A83E 		.word	1051227806
 5733 1f08 80B1A83E 		.word	1051242880
ARM GAS  /var/folders/80/65lm4rm97rv_n74c85vt01040000gn/T//ccuR6fPR.s 			page 127


 5734 1f0c 75ECA83E 		.word	1051257973
 5735 1f10 7D27A93E 		.word	1051273085
 5736 1f14 9862A93E 		.word	1051288216
 5737 1f18 C59DA93E 		.word	1051303365
 5738 1f1c 06D9A93E 		.word	1051318534
 5739 1f20 5914AA3E 		.word	1051333721
 5740 1f24 C04FAA3E 		.word	1051348928
 5741 1f28 3A8BAA3E 		.word	1051364154
 5742 1f2c C6C6AA3E 		.word	1051379398
 5743 1f30 6602AB3E 		.word	1051394662
 5744 1f34 193EAB3E 		.word	1051409945
 5745 1f38 DF79AB3E 		.word	1051425247
 5746 1f3c B8B5AB3E 		.word	1051440568
 5747 1f40 A4F1AB3E 		.word	1051455908
 5748 1f44 A42DAC3E 		.word	1051471268
 5749 1f48 B669AC3E 		.word	1051486646
 5750 1f4c DCA5AC3E 		.word	1051502044
 5751 1f50 15E2AC3E 		.word	1051517461
 5752 1f54 621EAD3E 		.word	1051532898
 5753 1f58 C25AAD3E 		.word	1051548354
 5754 1f5c 3597AD3E 		.word	1051563829
 5755 1f60 BBD3AD3E 		.word	1051579323
 5756 1f64 5510AE3E 		.word	1051594837
 5757 1f68 034DAE3E 		.word	1051610371
 5758 1f6c C389AE3E 		.word	1051625923
 5759 1f70 97C6AE3E 		.word	1051641495
 5760 1f74 7F03AF3E 		.word	1051657087
 5761 1f78 7A40AF3E 		.word	1051672698
 5762 1f7c 897DAF3E 		.word	1051688329
 5763 1f80 ABBAAF3E 		.word	1051703979
 5764 1f84 E1F7AF3E 		.word	1051719649
 5765 1f88 2B35B03E 		.word	1051735339
 5766 1f8c 8872B03E 		.word	1051751048
 5767 1f90 F9AFB03E 		.word	1051766777
 5768 1f94 7DEDB03E 		.word	1051782525
 5769 1f98 152BB13E 		.word	1051798293
 5770 1f9c C168B13E 		.word	1051814081
 5771 1fa0 81A6B13E 		.word	1051829889
 5772 1fa4 54E4B13E 		.word	1051845716
 5773 1fa8 3B22B23E 		.word	1051861563
 5774 1fac 3660B23E 		.word	1051877430
 5775 1fb0 459EB23E 		.word	1051893317
 5776 1fb4 68DCB23E 		.word	1051909224
 5777 1fb8 9F1AB33E 		.word	1051925151
 5778 1fbc E958B33E 		.word	1051941097
 5779 1fc0 4897B33E 		.word	1051957064
 5780 1fc4 BAD5B33E 		.word	1051973050
 5781 1fc8 4114B43E 		.word	1051989057
 5782 1fcc DC52B43E 		.word	1052005084
 5783 1fd0 8A91B43E 		.word	1052021130
 5784 1fd4 4DD0B43E 		.word	1052037197
 5785 1fd8 240FB53E 		.word	1052053284
 5786 1fdc 0F4EB53E 		.word	1052069391
 5787 1fe0 0E8DB53E 		.word	1052085518
 5788 1fe4 21CCB53E 		.word	1052101665
 5789 1fe8 490BB63E 		.word	1052117833
 5790 1fec 844AB63E 		.word	1052134020
ARM GAS  /var/folders/80/65lm4rm97rv_n74c85vt01040000gn/T//ccuR6fPR.s 			page 128


 5791 1ff0 D489B63E 		.word	1052150228
 5792 1ff4 38C9B63E 		.word	1052166456
 5793 1ff8 B108B73E 		.word	1052182705
 5794 1ffc 3E48B73E 		.word	1052198974
 5795 2000 DF87B73E 		.word	1052215263
 5796 2004 95C7B73E 		.word	1052231573
 5797 2008 5F07B83E 		.word	1052247903
 5798 200c 3D47B83E 		.word	1052264253
 5799 2010 3087B83E 		.word	1052280624
 5800 2014 38C7B83E 		.word	1052297016
 5801 2018 5307B93E 		.word	1052313427
 5802 201c 8447B93E 		.word	1052329860
 5803 2020 C987B93E 		.word	1052346313
 5804 2024 22C8B93E 		.word	1052362786
 5805 2028 9108BA3E 		.word	1052379281
 5806 202c 1449BA3E 		.word	1052395796
 5807 2030 AB89BA3E 		.word	1052412331
 5808 2034 57CABA3E 		.word	1052428887
 5809 2038 180BBB3E 		.word	1052445464
 5810 203c EE4BBB3E 		.word	1052462062
 5811 2040 D88CBB3E 		.word	1052478680
 5812 2044 D8CDBB3E 		.word	1052495320
 5813 2048 EC0EBC3E 		.word	1052511980
 5814 204c 1450BC3E 		.word	1052528660
 5815 2050 5291BC3E 		.word	1052545362
 5816 2054 A5D2BC3E 		.word	1052562085
 5817 2058 0C14BD3E 		.word	1052578828
 5818 205c 8955BD3E 		.word	1052595593
 5819 2060 1B97BD3E 		.word	1052612379
 5820 2064 C1D8BD3E 		.word	1052629185
 5821 2068 7D1ABE3E 		.word	1052646013
 5822 206c 4D5CBE3E 		.word	1052662861
 5823 2070 339EBE3E 		.word	1052679731
 5824 2074 2EE0BE3E 		.word	1052696622
 5825 2078 3E22BF3E 		.word	1052713534
 5826 207c 6364BF3E 		.word	1052730467
 5827 2080 9DA6BF3E 		.word	1052747421
 5828 2084 ECE8BF3E 		.word	1052764396
 5829 2088 512BC03E 		.word	1052781393
 5830 208c CB6DC03E 		.word	1052798411
 5831 2090 5AB0C03E 		.word	1052815450
 5832 2094 FFF2C03E 		.word	1052832511
 5833 2098 B935C13E 		.word	1052849593
 5834 209c 8878C13E 		.word	1052866696
 5835 20a0 6DBBC13E 		.word	1052883821
 5836 20a4 67FEC13E 		.word	1052900967
 5837 20a8 7741C23E 		.word	1052918135
 5838 20ac 9C84C23E 		.word	1052935324
 5839 20b0 D7C7C23E 		.word	1052952535
 5840 20b4 270BC33E 		.word	1052969767
 5841 20b8 8C4EC33E 		.word	1052987020
 5842 20bc 0892C33E 		.word	1053004296
 5843 20c0 99D5C33E 		.word	1053021593
 5844 20c4 3F19C43E 		.word	1053038911
 5845 20c8 FB5CC43E 		.word	1053056251
 5846 20cc CDA0C43E 		.word	1053073613
 5847 20d0 B5E4C43E 		.word	1053090997
ARM GAS  /var/folders/80/65lm4rm97rv_n74c85vt01040000gn/T//ccuR6fPR.s 			page 129


 5848 20d4 B228C53E 		.word	1053108402
 5849 20d8 C66CC53E 		.word	1053125830
 5850 20dc EFB0C53E 		.word	1053143279
 5851 20e0 2DF5C53E 		.word	1053160749
 5852 20e4 8239C63E 		.word	1053178242
 5853 20e8 ED7DC63E 		.word	1053195757
 5854 20ec 6DC2C63E 		.word	1053213293
 5855 20f0 0307C73E 		.word	1053230851
 5856 20f4 B04BC73E 		.word	1053248432
 5857 20f8 7290C73E 		.word	1053266034
 5858 20fc 4BD5C73E 		.word	1053283659
 5859 2100 391AC83E 		.word	1053301305
 5860 2104 3E5FC83E 		.word	1053318974
 5861 2108 58A4C83E 		.word	1053336664
 5862 210c 89E9C83E 		.word	1053354377
 5863 2110 D02EC93E 		.word	1053372112
 5864 2114 2D74C93E 		.word	1053389869
 5865 2118 A1B9C93E 		.word	1053407649
 5866 211c 2AFFC93E 		.word	1053425450
 5867 2120 CA44CA3E 		.word	1053443274
 5868 2124 808ACA3E 		.word	1053461120
 5869 2128 4DD0CA3E 		.word	1053478989
 5870 212c 3016CB3E 		.word	1053496880
 5871 2130 295CCB3E 		.word	1053514793
 5872 2134 39A2CB3E 		.word	1053532729
 5873 2138 5FE8CB3E 		.word	1053550687
 5874 213c 9B2ECC3E 		.word	1053568667
 5875 2140 EE74CC3E 		.word	1053586670
 5876 2144 58BBCC3E 		.word	1053604696
 5877 2148 D801CD3E 		.word	1053622744
 5878 214c 6F48CD3E 		.word	1053640815
 5879 2150 1C8FCD3E 		.word	1053658908
 5880 2154 E0D5CD3E 		.word	1053677024
 5881 2158 BB1CCE3E 		.word	1053695163
 5882 215c AC63CE3E 		.word	1053713324
 5883 2160 B4AACE3E 		.word	1053731508
 5884 2164 D3F1CE3E 		.word	1053749715
 5885 2168 0939CF3E 		.word	1053767945
 5886 216c 5580CF3E 		.word	1053786197
 5887 2170 B9C7CF3E 		.word	1053804473
 5888 2174 330FD03E 		.word	1053822771
 5889 2178 C456D03E 		.word	1053841092
 5890 217c 6C9ED03E 		.word	1053859436
 5891 2180 2BE6D03E 		.word	1053877803
 5892 2184 012ED13E 		.word	1053896193
 5893 2188 ED75D13E 		.word	1053914605
 5894 218c F1BDD13E 		.word	1053933041
 5895 2190 0C06D23E 		.word	1053951500
 5896 2194 3E4ED23E 		.word	1053969982
 5897 2198 8896D23E 		.word	1053988488
 5898 219c E8DED23E 		.word	1054007016
 5899 21a0 6027D33E 		.word	1054025568
 5900 21a4 EE6FD33E 		.word	1054044142
 5901 21a8 95B8D33E 		.word	1054062741
 5902 21ac 5201D43E 		.word	1054081362
 5903 21b0 264AD43E 		.word	1054100006
 5904 21b4 1293D43E 		.word	1054118674
ARM GAS  /var/folders/80/65lm4rm97rv_n74c85vt01040000gn/T//ccuR6fPR.s 			page 130


 5905 21b8 16DCD43E 		.word	1054137366
 5906 21bc 3025D53E 		.word	1054156080
 5907 21c0 626ED53E 		.word	1054174818
 5908 21c4 ACB7D53E 		.word	1054193580
 5909 21c8 0D01D63E 		.word	1054212365
 5910 21cc 864AD63E 		.word	1054231174
 5911 21d0 1694D63E 		.word	1054250006
 5912 21d4 BDDDD63E 		.word	1054268861
 5913 21d8 7C27D73E 		.word	1054287740
 5914 21dc 5371D73E 		.word	1054306643
 5915 21e0 42BBD73E 		.word	1054325570
 5916 21e4 4805D83E 		.word	1054344520
 5917 21e8 664FD83E 		.word	1054363494
 5918 21ec 9B99D83E 		.word	1054382491
 5919 21f0 E9E3D83E 		.word	1054401513
 5920 21f4 4E2ED93E 		.word	1054420558
 5921 21f8 CB78D93E 		.word	1054439627
 5922 21fc 60C3D93E 		.word	1054458720
 5923 2200 0D0EDA3E 		.word	1054477837
 5924 2204 D158DA3E 		.word	1054496977
 5925 2208 AEA3DA3E 		.word	1054516142
 5926 220c A3EEDA3E 		.word	1054535331
 5927 2210 AF39DB3E 		.word	1054554543
 5928 2214 D484DB3E 		.word	1054573780
 5929 2218 11D0DB3E 		.word	1054593041
 5930 221c 661BDC3E 		.word	1054612326
 5931 2220 D366DC3E 		.word	1054631635
 5932 2224 58B2DC3E 		.word	1054650968
 5933 2228 F5FDDC3E 		.word	1054670325
 5934 222c AB49DD3E 		.word	1054689707
 5935 2230 7895DD3E 		.word	1054709112
 5936 2234 5FE1DD3E 		.word	1054728543
 5937 2238 5D2DDE3E 		.word	1054747997
 5938 223c 7479DE3E 		.word	1054767476
 5939 2240 A3C5DE3E 		.word	1054786979
 5940 2244 EA11DF3E 		.word	1054806506
 5941 2248 4A5EDF3E 		.word	1054826058
 5942 224c C3AADF3E 		.word	1054845635
 5943 2250 54F7DF3E 		.word	1054865236
 5944 2254 FD43E03E 		.word	1054884861
 5945 2258 BF90E03E 		.word	1054904511
 5946 225c 9ADDE03E 		.word	1054924186
 5947 2260 8D2AE13E 		.word	1054943885
 5948 2264 9977E13E 		.word	1054963609
 5949 2268 BDC4E13E 		.word	1054983357
 5950 226c FA11E23E 		.word	1055003130
 5951 2270 505FE23E 		.word	1055022928
 5952 2274 BFACE23E 		.word	1055042751
 5953 2278 47FAE23E 		.word	1055062599
 5954 227c E747E33E 		.word	1055082471
 5955 2280 A095E33E 		.word	1055102368
 5956 2284 72E3E33E 		.word	1055122290
 5957 2288 5E31E43E 		.word	1055142238
 5958 228c 627FE43E 		.word	1055162210
 5959 2290 7FCDE43E 		.word	1055182207
 5960 2294 B51BE53E 		.word	1055202229
 5961 2298 046AE53E 		.word	1055222276
ARM GAS  /var/folders/80/65lm4rm97rv_n74c85vt01040000gn/T//ccuR6fPR.s 			page 131


 5962 229c 6CB8E53E 		.word	1055242348
 5963 22a0 ED06E63E 		.word	1055262445
 5964 22a4 8855E63E 		.word	1055282568
 5965 22a8 3BA4E63E 		.word	1055302715
 5966 22ac 08F3E63E 		.word	1055322888
 5967 22b0 EE41E73E 		.word	1055343086
 5968 22b4 EE90E73E 		.word	1055363310
 5969 22b8 06E0E73E 		.word	1055383558
 5970 22bc 382FE83E 		.word	1055403832
 5971 22c0 847EE83E 		.word	1055424132
 5972 22c4 E8CDE83E 		.word	1055444456
 5973 22c8 671DE93E 		.word	1055464807
 5974 22cc FE6CE93E 		.word	1055485182
 5975 22d0 AFBCE93E 		.word	1055505583
 5976 22d4 7A0CEA3E 		.word	1055526010
 5977 22d8 5E5CEA3E 		.word	1055546462
 5978 22dc 5CACEA3E 		.word	1055566940
 5979 22e0 74FCEA3E 		.word	1055587444
 5980 22e4 A54CEB3E 		.word	1055607973
 5981 22e8 F09CEB3E 		.word	1055628528
 5982 22ec 54EDEB3E 		.word	1055649108
 5983 22f0 D23DEC3E 		.word	1055669714
 5984 22f4 6A8EEC3E 		.word	1055690346
 5985 22f8 1CDFEC3E 		.word	1055711004
 5986 22fc E82FED3E 		.word	1055731688
 5987 2300 CE80ED3E 		.word	1055752398
 5988 2304 CDD1ED3E 		.word	1055773133
 5989 2308 E722EE3E 		.word	1055793895
 5990 230c 1A74EE3E 		.word	1055814682
 5991 2310 67C5EE3E 		.word	1055835495
 5992 2314 CF16EF3E 		.word	1055856335
 5993 2318 5068EF3E 		.word	1055877200
 5994 231c ECB9EF3E 		.word	1055898092
 5995 2320 A20BF03E 		.word	1055919010
 5996 2324 725DF03E 		.word	1055939954
 5997 2328 5CAFF03E 		.word	1055960924
 5998 232c 6101F13E 		.word	1055981921
 5999 2330 7F53F13E 		.word	1056002943
 6000 2334 B8A5F13E 		.word	1056023992
 6001 2338 0CF8F13E 		.word	1056045068
 6002 233c 794AF23E 		.word	1056066169
 6003 2340 029DF23E 		.word	1056087298
 6004 2344 A4EFF23E 		.word	1056108452
 6005 2348 6142F33E 		.word	1056129633
 6006 234c 3995F33E 		.word	1056150841
 6007 2350 2BE8F33E 		.word	1056172075
 6008 2354 373BF43E 		.word	1056193335
 6009 2358 5F8EF43E 		.word	1056214623
 6010 235c A0E1F43E 		.word	1056235936
 6011 2360 FD34F53E 		.word	1056257277
 6012 2364 7488F53E 		.word	1056278644
 6013 2368 06DCF53E 		.word	1056300038
 6014 236c B32FF63E 		.word	1056321459
 6015 2370 7B83F63E 		.word	1056342907
 6016 2374 5DD7F63E 		.word	1056364381
 6017 2378 5A2BF73E 		.word	1056385882
 6018 237c 727FF73E 		.word	1056407410
ARM GAS  /var/folders/80/65lm4rm97rv_n74c85vt01040000gn/T//ccuR6fPR.s 			page 132


 6019 2380 A6D3F73E 		.word	1056428966
 6020 2384 F427F83E 		.word	1056450548
 6021 2388 5D7CF83E 		.word	1056472157
 6022 238c E1D0F83E 		.word	1056493793
 6023 2390 8025F93E 		.word	1056515456
 6024 2394 3A7AF93E 		.word	1056537146
 6025 2398 10CFF93E 		.word	1056558864
 6026 239c 0024FA3E 		.word	1056580608
 6027 23a0 0C79FA3E 		.word	1056602380
 6028 23a4 33CEFA3E 		.word	1056624179
 6029 23a8 7623FB3E 		.word	1056646006
 6030 23ac D378FB3E 		.word	1056667859
 6031 23b0 4CCEFB3E 		.word	1056689740
 6032 23b4 E123FC3E 		.word	1056711649
 6033 23b8 9079FC3E 		.word	1056733584
 6034 23bc 5CCFFC3E 		.word	1056755548
 6035 23c0 4225FD3E 		.word	1056777538
 6036 23c4 457BFD3E 		.word	1056799557
 6037 23c8 62D1FD3E 		.word	1056821602
 6038 23cc 9C27FE3E 		.word	1056843676
 6039 23d0 F17DFE3E 		.word	1056865777
 6040 23d4 61D4FE3E 		.word	1056887905
 6041 23d8 EE2AFF3E 		.word	1056910062
 6042 23dc 9681FF3E 		.word	1056932246
 6043 23e0 5AD8FF3E 		.word	1056954458
 6044 23e4 9D17003F 		.word	1056970653
 6045 23e8 1A43003F 		.word	1056981786
 6046 23ec A66E003F 		.word	1056992934
 6047 23f0 409A003F 		.word	1057004096
 6048 23f4 E7C5003F 		.word	1057015271
 6049 23f8 9DF1003F 		.word	1057026461
 6050 23fc 601D013F 		.word	1057037664
 6051 2400 3249013F 		.word	1057048882
 6052 2404 1175013F 		.word	1057060113
 6053 2408 FFA0013F 		.word	1057071359
 6054 240c FBCC013F 		.word	1057082619
 6055 2410 05F9013F 		.word	1057093893
 6056 2414 1D25023F 		.word	1057105181
 6057 2418 4351023F 		.word	1057116483
 6058 241c 777D023F 		.word	1057127799
 6059 2420 B9A9023F 		.word	1057139129
 6060 2424 0AD6023F 		.word	1057150474
 6061 2428 6802033F 		.word	1057161832
 6062 242c D52E033F 		.word	1057173205
 6063 2430 505B033F 		.word	1057184592
 6064 2434 DA87033F 		.word	1057195994
 6065 2438 72B4033F 		.word	1057207410
 6066 243c 18E1033F 		.word	1057218840
 6067 2440 CC0D043F 		.word	1057230284
 6068 2444 8E3A043F 		.word	1057241742
 6069 2448 5F67043F 		.word	1057253215
 6070 244c 3F94043F 		.word	1057264703
 6071 2450 2CC1043F 		.word	1057276204
 6072 2454 28EE043F 		.word	1057287720
 6073 2458 331B053F 		.word	1057299251
 6074 245c 4C48053F 		.word	1057310796
 6075 2460 7375053F 		.word	1057322355
ARM GAS  /var/folders/80/65lm4rm97rv_n74c85vt01040000gn/T//ccuR6fPR.s 			page 133


 6076 2464 A9A2053F 		.word	1057333929
 6077 2468 EDCF053F 		.word	1057345517
 6078 246c 40FD053F 		.word	1057357120
 6079 2470 A12A063F 		.word	1057368737
 6080 2474 1158063F 		.word	1057380369
 6081 2478 8F85063F 		.word	1057392015
 6082 247c 1CB3063F 		.word	1057403676
 6083 2480 B8E0063F 		.word	1057415352
 6084 2484 620E073F 		.word	1057427042
 6085 2488 1B3C073F 		.word	1057438747
 6086 248c E269073F 		.word	1057450466
 6087 2490 B897073F 		.word	1057462200
 6088 2494 9DC5073F 		.word	1057473949
 6089 2498 90F3073F 		.word	1057485712
 6090 249c 9321083F 		.word	1057497491
 6091 24a0 A44F083F 		.word	1057509284
 6092 24a4 C37D083F 		.word	1057521091
 6093 24a8 F2AB083F 		.word	1057532914
 6094 24ac 2FDA083F 		.word	1057544751
 6095 24b0 7B08093F 		.word	1057556603
 6096 24b4 D636093F 		.word	1057568470
 6097 24b8 4065093F 		.word	1057580352
 6098 24bc B893093F 		.word	1057592248
 6099 24c0 40C2093F 		.word	1057604160
 6100 24c4 D6F0093F 		.word	1057616086
 6101 24c8 7C1F0A3F 		.word	1057628028
 6102 24cc 304E0A3F 		.word	1057639984
 6103 24d0 F37C0A3F 		.word	1057651955
 6104 24d4 C5AB0A3F 		.word	1057663941
 6105 24d8 A6DA0A3F 		.word	1057675942
 6106 24dc 97090B3F 		.word	1057687959
 6107 24e0 96380B3F 		.word	1057699990
 6108 24e4 A4670B3F 		.word	1057712036
 6109 24e8 C2960B3F 		.word	1057724098
 6110 24ec EEC50B3F 		.word	1057736174
 6111 24f0 2AF50B3F 		.word	1057748266
 6112 24f4 74240C3F 		.word	1057760372
 6113 24f8 CE530C3F 		.word	1057772494
 6114 24fc 37830C3F 		.word	1057784631
 6115 2500 B0B20C3F 		.word	1057796784
 6116 2504 37E20C3F 		.word	1057808951
 6117 2508 CE110D3F 		.word	1057821134
 6118 250c 74410D3F 		.word	1057833332
 6119 2510 29710D3F 		.word	1057845545
 6120 2514 EDA00D3F 		.word	1057857773
 6121 2518 C1D00D3F 		.word	1057870017
 6122 251c A4000E3F 		.word	1057882276
 6123 2520 96300E3F 		.word	1057894550
 6124 2524 98600E3F 		.word	1057906840
 6125 2528 A9900E3F 		.word	1057919145
 6126 252c CAC00E3F 		.word	1057931466
 6127 2530 FAF00E3F 		.word	1057943802
 6128 2534 39210F3F 		.word	1057956153
 6129 2538 88510F3F 		.word	1057968520
 6130 253c E6810F3F 		.word	1057980902
 6131 2540 54B20F3F 		.word	1057993300
 6132 2544 D1E20F3F 		.word	1058005713
ARM GAS  /var/folders/80/65lm4rm97rv_n74c85vt01040000gn/T//ccuR6fPR.s 			page 134


 6133 2548 5E13103F 		.word	1058018142
 6134 254c FB43103F 		.word	1058030587
 6135 2550 A774103F 		.word	1058043047
 6136 2554 62A5103F 		.word	1058055522
 6137 2558 2DD6103F 		.word	1058068013
 6138 255c 0807113F 		.word	1058080520
 6139 2560 F337113F 		.word	1058093043
 6140 2564 ED68113F 		.word	1058105581
 6141 2568 F799113F 		.word	1058118135
 6142 256c 10CB113F 		.word	1058130704
 6143 2570 39FC113F 		.word	1058143289
 6144 2574 722D123F 		.word	1058155890
 6145 2578 BB5E123F 		.word	1058168507
 6146 257c 1490123F 		.word	1058181140
 6147 2580 7CC1123F 		.word	1058193788
 6148 2584 F4F2123F 		.word	1058206452
 6149 2588 7C24133F 		.word	1058219132
 6150 258c 1456133F 		.word	1058231828
 6151 2590 BC87133F 		.word	1058244540
 6152 2594 74B9133F 		.word	1058257268
 6153 2598 3BEB133F 		.word	1058270011
 6154 259c 131D143F 		.word	1058282771
 6155 25a0 FA4E143F 		.word	1058295546
 6156 25a4 F280143F 		.word	1058308338
 6157 25a8 F9B2143F 		.word	1058321145
 6158 25ac 11E5143F 		.word	1058333969
 6159 25b0 3817153F 		.word	1058346808
 6160 25b4 7049153F 		.word	1058359664
 6161 25b8 B87B153F 		.word	1058372536
 6162 25bc 10AE153F 		.word	1058385424
 6163 25c0 78E0153F 		.word	1058398328
 6164 25c4 F012163F 		.word	1058411248
 6165 25c8 7845163F 		.word	1058424184
 6166 25cc 1078163F 		.word	1058437136
 6167 25d0 B9AA163F 		.word	1058450105
 6168 25d4 72DD163F 		.word	1058463090
 6169 25d8 3B10173F 		.word	1058476091
 6170 25dc 1543173F 		.word	1058489109
 6171 25e0 FE75173F 		.word	1058502142
 6172 25e4 F8A8173F 		.word	1058515192
 6173 25e8 03DC173F 		.word	1058528259
 6174 25ec 1D0F183F 		.word	1058541341
 6175 25f0 4842183F 		.word	1058554440
 6176 25f4 8475183F 		.word	1058567556
 6177 25f8 D0A8183F 		.word	1058580688
 6178 25fc 2CDC183F 		.word	1058593836
 6179 2600 990F193F 		.word	1058607001
 6180 2604 1643193F 		.word	1058620182
 6181 2608 A476193F 		.word	1058633380
 6182 260c 42AA193F 		.word	1058646594
 6183 2610 F1DD193F 		.word	1058659825
 6184 2614 B0111A3F 		.word	1058673072
 6185 2618 80451A3F 		.word	1058686336
 6186 261c 61791A3F 		.word	1058699617
 6187 2620 52AD1A3F 		.word	1058712914
 6188 2624 53E11A3F 		.word	1058726227
 6189 2628 66151B3F 		.word	1058739558
ARM GAS  /var/folders/80/65lm4rm97rv_n74c85vt01040000gn/T//ccuR6fPR.s 			page 135


 6190 262c 89491B3F 		.word	1058752905
 6191 2630 BD7D1B3F 		.word	1058766269
 6192 2634 01B21B3F 		.word	1058779649
 6193 2638 56E61B3F 		.word	1058793046
 6194 263c BC1A1C3F 		.word	1058806460
 6195 2640 334F1C3F 		.word	1058819891
 6196 2644 BB831C3F 		.word	1058833339
 6197 2648 53B81C3F 		.word	1058846803
 6198 264c FDEC1C3F 		.word	1058860285
 6199 2650 B7211D3F 		.word	1058873783
 6200 2654 82561D3F 		.word	1058887298
 6201 2658 5E8B1D3F 		.word	1058900830
 6202 265c 4BC01D3F 		.word	1058914379
 6203 2660 48F51D3F 		.word	1058927944
 6204 2664 572A1E3F 		.word	1058941527
 6205 2668 775F1E3F 		.word	1058955127
 6206 266c A8941E3F 		.word	1058968744
 6207 2670 EAC91E3F 		.word	1058982378
 6208 2674 3DFF1E3F 		.word	1058996029
 6209 2678 A1341F3F 		.word	1059009697
 6210 267c 166A1F3F 		.word	1059023382
 6211 2680 9C9F1F3F 		.word	1059037084
 6212 2684 33D51F3F 		.word	1059050803
 6213 2688 DC0A203F 		.word	1059064540
 6214 268c 9640203F 		.word	1059078294
 6215 2690 6076203F 		.word	1059092064
 6216 2694 3DAC203F 		.word	1059105853
 6217 2698 2AE2203F 		.word	1059119658
 6218 269c 2918213F 		.word	1059133481
 6219 26a0 394E213F 		.word	1059147321
 6220 26a4 5A84213F 		.word	1059161178
 6221 26a8 8DBA213F 		.word	1059175053
 6222 26ac D1F0213F 		.word	1059188945
 6223 26b0 2627223F 		.word	1059202854
 6224 26b4 8D5D223F 		.word	1059216781
 6225 26b8 0594223F 		.word	1059230725
 6226 26bc 8FCA223F 		.word	1059244687
 6227 26c0 2A01233F 		.word	1059258666
 6228 26c4 D737233F 		.word	1059272663
 6229 26c8 956E233F 		.word	1059286677
 6230 26cc 64A5233F 		.word	1059300708
 6231 26d0 46DC233F 		.word	1059314758
 6232 26d4 3813243F 		.word	1059328824
 6233 26d8 3D4A243F 		.word	1059342909
 6234 26dc 5381243F 		.word	1059357011
 6235 26e0 7BB8243F 		.word	1059371131
 6236 26e4 B4EF243F 		.word	1059385268
 6237 26e8 FF26253F 		.word	1059399423
 6238 26ec 5C5E253F 		.word	1059413596
 6239 26f0 CA95253F 		.word	1059427786
 6240 26f4 4ACD253F 		.word	1059441994
 6241 26f8 DC04263F 		.word	1059456220
 6242 26fc 803C263F 		.word	1059470464
 6243 2700 3674263F 		.word	1059484726
 6244 2704 FDAB263F 		.word	1059499005
 6245 2708 D7E3263F 		.word	1059513303
 6246 270c C21B273F 		.word	1059527618
ARM GAS  /var/folders/80/65lm4rm97rv_n74c85vt01040000gn/T//ccuR6fPR.s 			page 136


 6247 2710 BF53273F 		.word	1059541951
 6248 2714 CE8B273F 		.word	1059556302
 6249 2718 EFC3273F 		.word	1059570671
 6250 271c 22FC273F 		.word	1059585058
 6251 2720 6734283F 		.word	1059599463
 6252 2724 BE6C283F 		.word	1059613886
 6253 2728 28A5283F 		.word	1059628328
 6254 272c A3DD283F 		.word	1059642787
 6255 2730 3016293F 		.word	1059657264
 6256 2734 CF4E293F 		.word	1059671759
 6257 2738 8187293F 		.word	1059686273
 6258 273c 45C0293F 		.word	1059700805
 6259 2740 1AF9293F 		.word	1059715354
 6260 2744 03322A3F 		.word	1059729923
 6261 2748 FD6A2A3F 		.word	1059744509
 6262 274c 09A42A3F 		.word	1059759113
 6263 2750 28DD2A3F 		.word	1059773736
 6264 2754 59162B3F 		.word	1059788377
 6265 2758 9D4F2B3F 		.word	1059803037
 6266 275c F3882B3F 		.word	1059817715
 6267 2760 5BC22B3F 		.word	1059832411
 6268 2764 D5FB2B3F 		.word	1059847125
 6269 2768 62352C3F 		.word	1059861858
 6270 276c 026F2C3F 		.word	1059876610
 6271 2770 B3A82C3F 		.word	1059891379
 6272 2774 78E22C3F 		.word	1059906168
 6273 2778 4F1C2D3F 		.word	1059920975
 6274 277c 38562D3F 		.word	1059935800
 6275 2780 34902D3F 		.word	1059950644
 6276 2784 42CA2D3F 		.word	1059965506
 6277 2788 63042E3F 		.word	1059980387
 6278 278c 973E2E3F 		.word	1059995287
 6279 2790 DD782E3F 		.word	1060010205
 6280 2794 36B32E3F 		.word	1060025142
 6281 2798 A2ED2E3F 		.word	1060040098
 6282 279c 20282F3F 		.word	1060055072
 6283 27a0 B2622F3F 		.word	1060070066
 6284 27a4 559D2F3F 		.word	1060085077
 6285 27a8 0CD82F3F 		.word	1060100108
 6286 27ac D612303F 		.word	1060115158
 6287 27b0 B24D303F 		.word	1060130226
 6288 27b4 A188303F 		.word	1060145313
 6289 27b8 A3C3303F 		.word	1060160419
 6290 27bc B8FE303F 		.word	1060175544
 6291 27c0 E039313F 		.word	1060190688
 6292 27c4 1B75313F 		.word	1060205851
 6293 27c8 69B0313F 		.word	1060221033
 6294 27cc CAEB313F 		.word	1060236234
 6295 27d0 3D27323F 		.word	1060251453
 6296 27d4 C462323F 		.word	1060266692
 6297 27d8 5E9E323F 		.word	1060281950
 6298 27dc 0BDA323F 		.word	1060297227
 6299 27e0 CB15333F 		.word	1060312523
 6300 27e4 9F51333F 		.word	1060327839
 6301 27e8 858D333F 		.word	1060343173
 6302 27ec 7FC9333F 		.word	1060358527
 6303 27f0 8C05343F 		.word	1060373900
ARM GAS  /var/folders/80/65lm4rm97rv_n74c85vt01040000gn/T//ccuR6fPR.s 			page 137


 6304 27f4 AC41343F 		.word	1060389292
 6305 27f8 DF7D343F 		.word	1060404703
 6306 27fc 26BA343F 		.word	1060420134
 6307 2800 80F6343F 		.word	1060435584
 6308 2804 ED32353F 		.word	1060451053
 6309 2808 6D6F353F 		.word	1060466541
 6310 280c 01AC353F 		.word	1060482049
 6311 2810 A9E8353F 		.word	1060497577
 6312 2814 6425363F 		.word	1060513124
 6313 2818 3262363F 		.word	1060528690
 6314 281c 149F363F 		.word	1060544276
 6315 2820 09DC363F 		.word	1060559881
 6316 2824 1219373F 		.word	1060575506
 6317 2828 2E56373F 		.word	1060591150
 6318 282c 5E93373F 		.word	1060606814
 6319 2830 A2D0373F 		.word	1060622498
 6320 2834 F90D383F 		.word	1060638201
 6321 2838 644B383F 		.word	1060653924
 6322 283c E288383F 		.word	1060669666
 6323 2840 74C6383F 		.word	1060685428
 6324 2844 1A04393F 		.word	1060701210
 6325 2848 D441393F 		.word	1060717012
 6326 284c A17F393F 		.word	1060732833
 6327 2850 82BD393F 		.word	1060748674
 6328 2854 77FB393F 		.word	1060764535
 6329 2858 80393A3F 		.word	1060780416
 6330 285c 9D773A3F 		.word	1060796317
 6331 2860 CEB53A3F 		.word	1060812238
 6332 2864 12F43A3F 		.word	1060828178
 6333 2868 6B323B3F 		.word	1060844139
 6334 286c D7703B3F 		.word	1060860119
 6335 2870 58AF3B3F 		.word	1060876120
 6336 2874 ECED3B3F 		.word	1060892140
 6337 2878 952C3C3F 		.word	1060908181
 6338 287c 516B3C3F 		.word	1060924241
 6339 2880 22AA3C3F 		.word	1060940322
 6340 2884 07E93C3F 		.word	1060956423
 6341 2888 00283D3F 		.word	1060972544
 6342 288c 0D673D3F 		.word	1060988685
 6343 2890 2EA63D3F 		.word	1061004846
 6344 2894 64E53D3F 		.word	1061021028
 6345 2898 AE243E3F 		.word	1061037230
 6346 289c 0C643E3F 		.word	1061053452
 6347 28a0 7EA33E3F 		.word	1061069694
 6348 28a4 05E33E3F 		.word	1061085957
 6349 28a8 A0223F3F 		.word	1061102240
 6350 28ac 4F623F3F 		.word	1061118543
 6351 28b0 13A23F3F 		.word	1061134867
 6352 28b4 EBE13F3F 		.word	1061151211
 6353 28b8 D821403F 		.word	1061167576
 6354 28bc D961403F 		.word	1061183961
 6355 28c0 EFA1403F 		.word	1061200367
 6356 28c4 19E2403F 		.word	1061216793
 6357 28c8 5822413F 		.word	1061233240
 6358 28cc AB62413F 		.word	1061249707
 6359 28d0 13A3413F 		.word	1061266195
 6360 28d4 90E3413F 		.word	1061282704
ARM GAS  /var/folders/80/65lm4rm97rv_n74c85vt01040000gn/T//ccuR6fPR.s 			page 138


 6361 28d8 2124423F 		.word	1061299233
 6362 28dc C764423F 		.word	1061315783
 6363 28e0 81A5423F 		.word	1061332353
 6364 28e4 51E6423F 		.word	1061348945
 6365 28e8 3527433F 		.word	1061365557
 6366 28ec 2E68433F 		.word	1061382190
 6367 28f0 3CA9433F 		.word	1061398844
 6368 28f4 5EEA433F 		.word	1061415518
 6369 28f8 962B443F 		.word	1061432214
 6370 28fc E26C443F 		.word	1061448930
 6371 2900 43AE443F 		.word	1061465667
 6372 2904 B9EF443F 		.word	1061482425
 6373 2908 4431453F 		.word	1061499204
 6374 290c E572453F 		.word	1061516005
 6375 2910 9AB4453F 		.word	1061532826
 6376 2914 64F6453F 		.word	1061549668
 6377 2918 4338463F 		.word	1061566531
 6378 291c 387A463F 		.word	1061583416
 6379 2920 41BC463F 		.word	1061600321
 6380 2924 60FE463F 		.word	1061617248
 6381 2928 9440473F 		.word	1061634196
 6382 292c DD82473F 		.word	1061651165
 6383 2930 3BC5473F 		.word	1061668155
 6384 2934 AE07483F 		.word	1061685166
 6385 2938 374A483F 		.word	1061702199
 6386 293c D58C483F 		.word	1061719253
 6387 2940 89CF483F 		.word	1061736329
 6388 2944 5212493F 		.word	1061753426
 6389 2948 3055493F 		.word	1061770544
 6390 294c 2498493F 		.word	1061787684
 6391 2950 2DDB493F 		.word	1061804845
 6392 2954 4B1E4A3F 		.word	1061822027
 6393 2958 7F614A3F 		.word	1061839231
 6394 295c C9A44A3F 		.word	1061856457
 6395 2960 28E84A3F 		.word	1061873704
 6396 2964 9D2B4B3F 		.word	1061890973
 6397 2968 276F4B3F 		.word	1061908263
 6398 296c C7B24B3F 		.word	1061925575
 6399 2970 7DF64B3F 		.word	1061942909
 6400 2974 483A4C3F 		.word	1061960264
 6401 2978 297E4C3F 		.word	1061977641
 6402 297c 20C24C3F 		.word	1061995040
 6403 2980 2D064D3F 		.word	1062012461
 6404 2984 4F4A4D3F 		.word	1062029903
 6405 2988 878E4D3F 		.word	1062047367
 6406 298c D5D24D3F 		.word	1062064853
 6407 2990 39174E3F 		.word	1062082361
 6408 2994 B35B4E3F 		.word	1062099891
 6409 2998 43A04E3F 		.word	1062117443
 6410 299c E8E44E3F 		.word	1062135016
 6411 29a0 A4294F3F 		.word	1062152612
 6412 29a4 766E4F3F 		.word	1062170230
 6413 29a8 5EB34F3F 		.word	1062187870
 6414 29ac 5BF84F3F 		.word	1062205531
 6415 29b0 6F3D503F 		.word	1062223215
 6416 29b4 9982503F 		.word	1062240921
 6417 29b8 DAC7503F 		.word	1062258650
ARM GAS  /var/folders/80/65lm4rm97rv_n74c85vt01040000gn/T//ccuR6fPR.s 			page 139


 6418 29bc 300D513F 		.word	1062276400
 6419 29c0 9D52513F 		.word	1062294173
 6420 29c4 1F98513F 		.word	1062311967
 6421 29c8 B9DD513F 		.word	1062329785
 6422 29cc 6823523F 		.word	1062347624
 6423 29d0 2E69523F 		.word	1062365486
 6424 29d4 0AAF523F 		.word	1062383370
 6425 29d8 FCF4523F 		.word	1062401276
 6426 29dc 053B533F 		.word	1062419205
 6427 29e0 2481533F 		.word	1062437156
 6428 29e4 5AC7533F 		.word	1062455130
 6429 29e8 A60D543F 		.word	1062473126
 6430 29ec 0954543F 		.word	1062491145
 6431 29f0 839A543F 		.word	1062509187
 6432 29f4 12E1543F 		.word	1062527250
 6433 29f8 B927553F 		.word	1062545337
 6434 29fc 766E553F 		.word	1062563446
 6435 2a00 4AB5553F 		.word	1062581578
 6436 2a04 34FC553F 		.word	1062599732
 6437 2a08 3643563F 		.word	1062617910
 6438 2a0c 4D8A563F 		.word	1062636109
 6439 2a10 7CD1563F 		.word	1062654332
 6440 2a14 C218573F 		.word	1062672578
 6441 2a18 1E60573F 		.word	1062690846
 6442 2a1c 91A7573F 		.word	1062709137
 6443 2a20 1BEF573F 		.word	1062727451
 6444 2a24 BC36583F 		.word	1062745788
 6445 2a28 747E583F 		.word	1062764148
 6446 2a2c 43C6583F 		.word	1062782531
 6447 2a30 290E593F 		.word	1062800937
 6448 2a34 2656593F 		.word	1062819366
 6449 2a38 3A9E593F 		.word	1062837818
 6450 2a3c 65E6593F 		.word	1062856293
 6451 2a40 A72E5A3F 		.word	1062874791
 6452 2a44 01775A3F 		.word	1062893313
 6453 2a48 71BF5A3F 		.word	1062911857
 6454 2a4c F9075B3F 		.word	1062930425
 6455 2a50 98505B3F 		.word	1062949016
 6456 2a54 4E995B3F 		.word	1062967630
 6457 2a58 1CE25B3F 		.word	1062986268
 6458 2a5c 012B5C3F 		.word	1063004929
 6459 2a60 FD735C3F 		.word	1063023613
 6460 2a64 10BD5C3F 		.word	1063042320
 6461 2a68 3B065D3F 		.word	1063061051
 6462 2a6c 7E4F5D3F 		.word	1063079806
 6463 2a70 D8985D3F 		.word	1063098584
 6464 2a74 49E25D3F 		.word	1063117385
 6465 2a78 D22B5E3F 		.word	1063136210
 6466 2a7c 72755E3F 		.word	1063155058
 6467 2a80 2ABF5E3F 		.word	1063173930
 6468 2a84 FA085F3F 		.word	1063192826
 6469 2a88 E1525F3F 		.word	1063211745
 6470 2a8c E09C5F3F 		.word	1063230688
 6471 2a90 F7E65F3F 		.word	1063249655
 6472 2a94 2531603F 		.word	1063268645
 6473 2a98 6C7B603F 		.word	1063287660
 6474 2a9c CAC5603F 		.word	1063306698
ARM GAS  /var/folders/80/65lm4rm97rv_n74c85vt01040000gn/T//ccuR6fPR.s 			page 140


 6475 2aa0 3F10613F 		.word	1063325759
 6476 2aa4 CD5A613F 		.word	1063344845
 6477 2aa8 73A5613F 		.word	1063363955
 6478 2aac 30F0613F 		.word	1063383088
 6479 2ab0 053B623F 		.word	1063402245
 6480 2ab4 F385623F 		.word	1063421427
 6481 2ab8 F8D0623F 		.word	1063440632
 6482 2abc 151C633F 		.word	1063459861
 6483 2ac0 4B67633F 		.word	1063479115
 6484 2ac4 98B2633F 		.word	1063498392
 6485 2ac8 FEFD633F 		.word	1063517694
 6486 2acc 7C49643F 		.word	1063537020
 6487 2ad0 1295643F 		.word	1063556370
 6488 2ad4 C0E0643F 		.word	1063575744
 6489 2ad8 862C653F 		.word	1063595142
 6490 2adc 6578653F 		.word	1063614565
 6491 2ae0 5CC4653F 		.word	1063634012
 6492 2ae4 6C10663F 		.word	1063653484
 6493 2ae8 935C663F 		.word	1063672979
 6494 2aec D3A8663F 		.word	1063692499
 6495 2af0 2CF5663F 		.word	1063712044
 6496 2af4 9D41673F 		.word	1063731613
 6497 2af8 268E673F 		.word	1063751206
 6498 2afc C8DA673F 		.word	1063770824
 6499 2b00 8327683F 		.word	1063790467
 6500 2b04 5674683F 		.word	1063810134
 6501 2b08 42C1683F 		.word	1063829826
 6502 2b0c 460E693F 		.word	1063849542
 6503 2b10 635B693F 		.word	1063869283
 6504 2b14 99A8693F 		.word	1063889049
 6505 2b18 E7F5693F 		.word	1063908839
 6506 2b1c 4F436A3F 		.word	1063928655
 6507 2b20 CF906A3F 		.word	1063948495
 6508 2b24 67DE6A3F 		.word	1063968359
 6509 2b28 192C6B3F 		.word	1063988249
 6510 2b2c E4796B3F 		.word	1064008164
 6511 2b30 C7C76B3F 		.word	1064028103
 6512 2b34 C4156C3F 		.word	1064048068
 6513 2b38 D9636C3F 		.word	1064068057
 6514 2b3c 08B26C3F 		.word	1064088072
 6515 2b40 4F006D3F 		.word	1064108111
 6516 2b44 B04E6D3F 		.word	1064128176
 6517 2b48 299D6D3F 		.word	1064148265
 6518 2b4c BCEB6D3F 		.word	1064168380
 6519 2b50 683A6E3F 		.word	1064188520
 6520 2b54 2D896E3F 		.word	1064208685
 6521 2b58 0CD86E3F 		.word	1064228876
 6522 2b5c 03276F3F 		.word	1064249091
 6523 2b60 14766F3F 		.word	1064269332
 6524 2b64 3FC56F3F 		.word	1064289599
 6525 2b68 8214703F 		.word	1064309890
 6526 2b6c DF63703F 		.word	1064330207
 6527 2b70 56B3703F 		.word	1064350550
 6528 2b74 E602713F 		.word	1064370918
 6529 2b78 8F52713F 		.word	1064391311
 6530 2b7c 52A2713F 		.word	1064411730
 6531 2b80 2FF2713F 		.word	1064432175
ARM GAS  /var/folders/80/65lm4rm97rv_n74c85vt01040000gn/T//ccuR6fPR.s 			page 141


 6532 2b84 2542723F 		.word	1064452645
 6533 2b88 3492723F 		.word	1064473140
 6534 2b8c 5EE2723F 		.word	1064493662
 6535 2b90 A132733F 		.word	1064514209
 6536 2b94 FD82733F 		.word	1064534781
 6537 2b98 74D3733F 		.word	1064555380
 6538 2b9c 0424743F 		.word	1064576004
 6539 2ba0 AE74743F 		.word	1064596654
 6540 2ba4 72C5743F 		.word	1064617330
 6541 2ba8 5016753F 		.word	1064638032
 6542 2bac 4767753F 		.word	1064658759
 6543 2bb0 59B8753F 		.word	1064679513
 6544 2bb4 8409763F 		.word	1064700292
 6545 2bb8 CA5A763F 		.word	1064721098
 6546 2bbc 29AC763F 		.word	1064741929
 6547 2bc0 A3FD763F 		.word	1064762787
 6548 2bc4 374F773F 		.word	1064783671
 6549 2bc8 E5A0773F 		.word	1064804581
 6550 2bcc ADF2773F 		.word	1064825517
 6551 2bd0 8F44783F 		.word	1064846479
 6552 2bd4 8B96783F 		.word	1064867467
 6553 2bd8 A2E8783F 		.word	1064888482
 6554 2bdc D33A793F 		.word	1064909523
 6555 2be0 1F8D793F 		.word	1064930591
 6556 2be4 84DF793F 		.word	1064951684
 6557 2be8 04327A3F 		.word	1064972804
 6558 2bec 9F847A3F 		.word	1064993951
 6559 2bf0 54D77A3F 		.word	1065015124
 6560 2bf4 232A7B3F 		.word	1065036323
 6561 2bf8 0D7D7B3F 		.word	1065057549
 6562 2bfc 12D07B3F 		.word	1065078802
 6563 2c00 31237C3F 		.word	1065100081
 6564 2c04 6B767C3F 		.word	1065121387
 6565 2c08 BFC97C3F 		.word	1065142719
 6566 2c0c 2F1D7D3F 		.word	1065164079
 6567 2c10 B8707D3F 		.word	1065185464
 6568 2c14 5DC47D3F 		.word	1065206877
 6569 2c18 1C187E3F 		.word	1065228316
 6570 2c1c F76B7E3F 		.word	1065249783
 6571 2c20 ECBF7E3F 		.word	1065271276
 6572 2c24 FC137F3F 		.word	1065292796
 6573 2c28 27687F3F 		.word	1065314343
 6574 2c2c 6DBC7F3F 		.word	1065335917
 6575 2c30 6708803F 		.word	1065355367
 6576 2c34 A532803F 		.word	1065366181
 6577 2c38 F05C803F 		.word	1065377008
 6578 2c3c 4987803F 		.word	1065387849
 6579 2c40 B0B1803F 		.word	1065398704
 6580 2c44 24DC803F 		.word	1065409572
 6581 2c48 A606813F 		.word	1065420454
 6582 2c4c 3531813F 		.word	1065431349
 6583 2c50 D25B813F 		.word	1065442258
 6584 2c54 7D86813F 		.word	1065453181
 6585 2c58 35B1813F 		.word	1065464117
 6586 2c5c FBDB813F 		.word	1065475067
 6587 2c60 CF06823F 		.word	1065486031
 6588 2c64 B031823F 		.word	1065497008
ARM GAS  /var/folders/80/65lm4rm97rv_n74c85vt01040000gn/T//ccuR6fPR.s 			page 142


 6589 2c68 A05C823F 		.word	1065508000
 6590 2c6c 9D87823F 		.word	1065519005
 6591 2c70 A7B2823F 		.word	1065530023
 6592 2c74 C0DD823F 		.word	1065541056
 6593 2c78 E608833F 		.word	1065552102
 6594 2c7c 1A34833F 		.word	1065563162
 6595 2c80 5C5F833F 		.word	1065574236
 6596 2c84 AC8A833F 		.word	1065585324
 6597 2c88 0AB6833F 		.word	1065596426
 6598 2c8c 75E1833F 		.word	1065607541
 6599 2c90 EF0C843F 		.word	1065618671
 6600 2c94 7638843F 		.word	1065629814
 6601 2c98 0C64843F 		.word	1065640972
 6602 2c9c AF8F843F 		.word	1065652143
 6603 2ca0 60BB843F 		.word	1065663328
 6604 2ca4 1FE7843F 		.word	1065674527
 6605 2ca8 ED12853F 		.word	1065685741
 6606 2cac C83E853F 		.word	1065696968
 6607 2cb0 B16A853F 		.word	1065708209
 6608 2cb4 A996853F 		.word	1065719465
 6609 2cb8 AEC2853F 		.word	1065730734
 6610 2cbc C2EE853F 		.word	1065742018
 6611 2cc0 E41A863F 		.word	1065753316
 6612 2cc4 1447863F 		.word	1065764628
 6613 2cc8 5273863F 		.word	1065775954
 6614 2ccc 9E9F863F 		.word	1065787294
 6615 2cd0 F8CB863F 		.word	1065798648
 6616 2cd4 61F8863F 		.word	1065810017
 6617 2cd8 D824873F 		.word	1065821400
 6618 2cdc 5D51873F 		.word	1065832797
 6619 2ce0 F07D873F 		.word	1065844208
 6620 2ce4 92AA873F 		.word	1065855634
 6621 2ce8 42D7873F 		.word	1065867074
 6622 2cec 0004883F 		.word	1065878528
 6623 2cf0 CD30883F 		.word	1065889997
 6624 2cf4 A85D883F 		.word	1065901480
 6625 2cf8 918A883F 		.word	1065912977
 6626 2cfc 89B7883F 		.word	1065924489
 6627 2d00 8FE4883F 		.word	1065936015
 6628 2d04 A311893F 		.word	1065947555
 6629 2d08 C63E893F 		.word	1065959110
 6630 2d0c F76B893F 		.word	1065970679
 6631 2d10 3799893F 		.word	1065982263
 6632 2d14 86C6893F 		.word	1065993862
 6633 2d18 E3F3893F 		.word	1066005475
 6634 2d1c 4E218A3F 		.word	1066017102
 6635 2d20 C84E8A3F 		.word	1066028744
 6636 2d24 507C8A3F 		.word	1066040400
 6637 2d28 E8A98A3F 		.word	1066052072
 6638 2d2c 8DD78A3F 		.word	1066063757
 6639 2d30 42058B3F 		.word	1066075458
 6640 2d34 05338B3F 		.word	1066087173
 6641 2d38 D6608B3F 		.word	1066098902
 6642 2d3c B78E8B3F 		.word	1066110647
 6643 2d40 A6BC8B3F 		.word	1066122406
 6644 2d44 A3EA8B3F 		.word	1066134179
 6645 2d48 B0188C3F 		.word	1066145968
ARM GAS  /var/folders/80/65lm4rm97rv_n74c85vt01040000gn/T//ccuR6fPR.s 			page 143


 6646 2d4c CB468C3F 		.word	1066157771
 6647 2d50 F5748C3F 		.word	1066169589
 6648 2d54 2EA38C3F 		.word	1066181422
 6649 2d58 75D18C3F 		.word	1066193269
 6650 2d5c CCFF8C3F 		.word	1066205132
 6651 2d60 312E8D3F 		.word	1066217009
 6652 2d64 A55C8D3F 		.word	1066228901
 6653 2d68 288B8D3F 		.word	1066240808
 6654 2d6c BAB98D3F 		.word	1066252730
 6655 2d70 5BE88D3F 		.word	1066264667
 6656 2d74 0A178E3F 		.word	1066276618
 6657 2d78 C9458E3F 		.word	1066288585
 6658 2d7c 97748E3F 		.word	1066300567
 6659 2d80 73A38E3F 		.word	1066312563
 6660 2d84 5FD28E3F 		.word	1066324575
 6661 2d88 5A018F3F 		.word	1066336602
 6662 2d8c 63308F3F 		.word	1066348643
 6663 2d90 7C5F8F3F 		.word	1066360700
 6664 2d94 A48E8F3F 		.word	1066372772
 6665 2d98 DBBD8F3F 		.word	1066384859
 6666 2d9c 21ED8F3F 		.word	1066396961
 6667 2da0 771C903F 		.word	1066409079
 6668 2da4 DB4B903F 		.word	1066421211
 6669 2da8 4F7B903F 		.word	1066433359
 6670 2dac D1AA903F 		.word	1066445521
 6671 2db0 63DA903F 		.word	1066457699
 6672 2db4 050A913F 		.word	1066469893
 6673 2db8 B539913F 		.word	1066482101
 6674 2dbc 7569913F 		.word	1066494325
 6675 2dc0 4499913F 		.word	1066506564
 6676 2dc4 22C9913F 		.word	1066518818
 6677 2dc8 10F9913F 		.word	1066531088
 6678 2dcc 0D29923F 		.word	1066543373
 6679 2dd0 1A59923F 		.word	1066555674
 6680 2dd4 3689923F 		.word	1066567990
 6681 2dd8 61B9923F 		.word	1066580321
 6682 2ddc 9CE9923F 		.word	1066592668
 6683 2de0 E619933F 		.word	1066605030
 6684 2de4 3F4A933F 		.word	1066617407
 6685 2de8 A87A933F 		.word	1066629800
 6686 2dec 21AB933F 		.word	1066642209
 6687 2df0 A9DB933F 		.word	1066654633
 6688 2df4 410C943F 		.word	1066667073
 6689 2df8 E83C943F 		.word	1066679528
 6690 2dfc 9F6D943F 		.word	1066691999
 6691 2e00 659E943F 		.word	1066704485
 6692 2e04 3BCF943F 		.word	1066716987
 6693 2e08 2100953F 		.word	1066729505
 6694 2e0c 1731953F 		.word	1066742039
 6695 2e10 1C62953F 		.word	1066754588
 6696 2e14 3093953F 		.word	1066767152
 6697 2e18 55C4953F 		.word	1066779733
 6698 2e1c 89F5953F 		.word	1066792329
 6699 2e20 CD26963F 		.word	1066804941
 6700 2e24 2158963F 		.word	1066817569
 6701 2e28 8489963F 		.word	1066830212
 6702 2e2c F8BA963F 		.word	1066842872
ARM GAS  /var/folders/80/65lm4rm97rv_n74c85vt01040000gn/T//ccuR6fPR.s 			page 144


 6703 2e30 7BEC963F 		.word	1066855547
 6704 2e34 0E1E973F 		.word	1066868238
 6705 2e38 B14F973F 		.word	1066880945
 6706 2e3c 6481973F 		.word	1066893668
 6707 2e40 27B3973F 		.word	1066906407
 6708 2e44 F9E4973F 		.word	1066919161
 6709 2e48 DC16983F 		.word	1066931932
 6710 2e4c CF48983F 		.word	1066944719
 6711 2e50 D17A983F 		.word	1066957521
 6712 2e54 E4AC983F 		.word	1066970340
 6713 2e58 07DF983F 		.word	1066983175
 6714 2e5c 3911993F 		.word	1066996025
 6715 2e60 7C43993F 		.word	1067008892
 6716 2e64 CF75993F 		.word	1067021775
 6717 2e68 32A8993F 		.word	1067034674
 6718 2e6c A6DA993F 		.word	1067047590
 6719 2e70 290D9A3F 		.word	1067060521
 6720 2e74 BC3F9A3F 		.word	1067073468
 6721 2e78 60729A3F 		.word	1067086432
 6722 2e7c 14A59A3F 		.word	1067099412
 6723 2e80 D8D79A3F 		.word	1067112408
 6724 2e84 AD0A9B3F 		.word	1067125421
 6725 2e88 923D9B3F 		.word	1067138450
 6726 2e8c 87709B3F 		.word	1067151495
 6727 2e90 8CA39B3F 		.word	1067164556
 6728 2e94 A2D69B3F 		.word	1067177634
 6729 2e98 C8099C3F 		.word	1067190728
 6730 2e9c FE3C9C3F 		.word	1067203838
 6731 2ea0 45709C3F 		.word	1067216965
 6732 2ea4 9DA39C3F 		.word	1067230109
 6733 2ea8 04D79C3F 		.word	1067243268
 6734 2eac 7D0A9D3F 		.word	1067256445
 6735 2eb0 053E9D3F 		.word	1067269637
 6736 2eb4 9E719D3F 		.word	1067282846
 6737 2eb8 48A59D3F 		.word	1067296072
 6738 2ebc 03D99D3F 		.word	1067309315
 6739 2ec0 CD0C9E3F 		.word	1067322573
 6740 2ec4 A9409E3F 		.word	1067335849
 6741 2ec8 95749E3F 		.word	1067349141
 6742 2ecc 92A89E3F 		.word	1067362450
 6743 2ed0 9FDC9E3F 		.word	1067375775
 6744 2ed4 BD109F3F 		.word	1067389117
 6745 2ed8 EC449F3F 		.word	1067402476
 6746 2edc 2B799F3F 		.word	1067415851
 6747 2ee0 7BAD9F3F 		.word	1067429243
 6748 2ee4 DCE19F3F 		.word	1067442652
 6749 2ee8 4E16A03F 		.word	1067456078
 6750 2eec D04AA03F 		.word	1067469520
 6751 2ef0 647FA03F 		.word	1067482980
 6752 2ef4 08B4A03F 		.word	1067496456
 6753 2ef8 BDE8A03F 		.word	1067509949
 6754 2efc 831DA13F 		.word	1067523459
 6755 2f00 5A52A13F 		.word	1067536986
 6756 2f04 4187A13F 		.word	1067550529
 6757 2f08 3ABCA13F 		.word	1067564090
 6758 2f0c 44F1A13F 		.word	1067577668
 6759 2f10 5E26A23F 		.word	1067591262
ARM GAS  /var/folders/80/65lm4rm97rv_n74c85vt01040000gn/T//ccuR6fPR.s 			page 145


 6760 2f14 8A5BA23F 		.word	1067604874
 6761 2f18 C790A23F 		.word	1067618503
 6762 2f1c 14C6A23F 		.word	1067632148
 6763 2f20 73FBA23F 		.word	1067645811
 6764 2f24 E330A33F 		.word	1067659491
 6765 2f28 6466A33F 		.word	1067673188
 6766 2f2c F69BA33F 		.word	1067686902
 6767 2f30 9AD1A33F 		.word	1067700634
 6768 2f34 4E07A43F 		.word	1067714382
 6769 2f38 143DA43F 		.word	1067728148
 6770 2f3c EB72A43F 		.word	1067741931
 6771 2f40 D3A8A43F 		.word	1067755731
 6772 2f44 CCDEA43F 		.word	1067769548
 6773 2f48 D714A53F 		.word	1067783383
 6774 2f4c F34AA53F 		.word	1067797235
 6775 2f50 2181A53F 		.word	1067811105
 6776 2f54 5FB7A53F 		.word	1067824991
 6777 2f58 AFEDA53F 		.word	1067838895
 6778 2f5c 1124A63F 		.word	1067852817
 6779 2f60 845AA63F 		.word	1067866756
 6780 2f64 0891A63F 		.word	1067880712
 6781 2f68 9EC7A63F 		.word	1067894686
 6782 2f6c 45FEA63F 		.word	1067908677
 6783 2f70 FE34A73F 		.word	1067922686
 6784 2f74 C96BA73F 		.word	1067936713
 6785 2f78 A4A2A73F 		.word	1067950756
 6786 2f7c 92D9A73F 		.word	1067964818
 6787 2f80 9110A83F 		.word	1067978897
 6788 2f84 A247A83F 		.word	1067992994
 6789 2f88 C47EA83F 		.word	1068007108
 6790 2f8c F8B5A83F 		.word	1068021240
 6791 2f90 3EEDA83F 		.word	1068035390
 6792 2f94 9524A93F 		.word	1068049557
 6793 2f98 FE5BA93F 		.word	1068063742
 6794 2f9c 7993A93F 		.word	1068077945
 6795 2fa0 06CBA93F 		.word	1068092166
 6796 2fa4 A402AA3F 		.word	1068106404
 6797 2fa8 543AAA3F 		.word	1068120660
 6798 2fac 1672AA3F 		.word	1068134934
 6799 2fb0 EAA9AA3F 		.word	1068149226
 6800 2fb4 D0E1AA3F 		.word	1068163536
 6801 2fb8 C819AB3F 		.word	1068177864
 6802 2fbc D151AB3F 		.word	1068192209
 6803 2fc0 ED89AB3F 		.word	1068206573
 6804 2fc4 1BC2AB3F 		.word	1068220955
 6805 2fc8 5AFAAB3F 		.word	1068235354
 6806 2fcc AC32AC3F 		.word	1068249772
 6807 2fd0 0F6BAC3F 		.word	1068264207
 6808 2fd4 85A3AC3F 		.word	1068278661
 6809 2fd8 0DDCAC3F 		.word	1068293133
 6810 2fdc A714AD3F 		.word	1068307623
 6811 2fe0 534DAD3F 		.word	1068322131
 6812 2fe4 1186AD3F 		.word	1068336657
 6813 2fe8 E1BEAD3F 		.word	1068351201
 6814 2fec C4F7AD3F 		.word	1068365764
 6815 2ff0 B930AE3F 		.word	1068380345
 6816 2ff4 C069AE3F 		.word	1068394944
ARM GAS  /var/folders/80/65lm4rm97rv_n74c85vt01040000gn/T//ccuR6fPR.s 			page 146


 6817 2ff8 D9A2AE3F 		.word	1068409561
 6818 2ffc 04DCAE3F 		.word	1068424196
 6819 3000 4215AF3F 		.word	1068438850
 6820 3004 924EAF3F 		.word	1068453522
 6821 3008 F587AF3F 		.word	1068468213
 6822 300c 6AC1AF3F 		.word	1068482922
 6823 3010 F1FAAF3F 		.word	1068497649
 6824 3014 8B34B03F 		.word	1068512395
 6825 3018 376EB03F 		.word	1068527159
 6826 301c F6A7B03F 		.word	1068541942
 6827 3020 C7E1B03F 		.word	1068556743
 6828 3024 AB1BB13F 		.word	1068571563
 6829 3028 A155B13F 		.word	1068586401
 6830 302c AA8FB13F 		.word	1068601258
 6831 3030 C5C9B13F 		.word	1068616133
 6832 3034 F403B23F 		.word	1068631028
 6833 3038 343EB23F 		.word	1068645940
 6834 303c 8878B23F 		.word	1068660872
 6835 3040 EEB2B23F 		.word	1068675822
 6836 3044 66EDB23F 		.word	1068690790
 6837 3048 F227B33F 		.word	1068705778
 6838 304c 9062B33F 		.word	1068720784
 6839 3050 419DB33F 		.word	1068735809
 6840 3054 05D8B33F 		.word	1068750853
 6841 3058 DB12B43F 		.word	1068765915
 6842 305c C54DB43F 		.word	1068780997
 6843 3060 C188B43F 		.word	1068796097
 6844 3064 D0C3B43F 		.word	1068811216
 6845 3068 F2FEB43F 		.word	1068826354
 6846 306c 283AB53F 		.word	1068841512
 6847 3070 7075B53F 		.word	1068856688
 6848 3074 CBB0B53F 		.word	1068871883
 6849 3078 39ECB53F 		.word	1068887097
 6850 307c BA27B63F 		.word	1068902330
 6851 3080 4E63B63F 		.word	1068917582
 6852 3084 F59EB63F 		.word	1068932853
 6853 3088 AFDAB63F 		.word	1068948143
 6854 308c 7D16B73F 		.word	1068963453
 6855 3090 5E52B73F 		.word	1068978782
 6856 3094 518EB73F 		.word	1068994129
 6857 3098 58CAB73F 		.word	1069009496
 6858 309c 7306B83F 		.word	1069024883
 6859 30a0 A042B83F 		.word	1069040288
 6860 30a4 E17EB83F 		.word	1069055713
 6861 30a8 35BBB83F 		.word	1069071157
 6862 30ac 9CF7B83F 		.word	1069086620
 6863 30b0 1734B93F 		.word	1069102103
 6864 30b4 A570B93F 		.word	1069117605
 6865 30b8 47ADB93F 		.word	1069133127
 6866 30bc FCE9B93F 		.word	1069148668
 6867 30c0 C426BA3F 		.word	1069164228
 6868 30c4 A063BA3F 		.word	1069179808
 6869 30c8 8FA0BA3F 		.word	1069195407
 6870 30cc 92DDBA3F 		.word	1069211026
 6871 30d0 A81ABB3F 		.word	1069226664
 6872 30d4 D257BB3F 		.word	1069242322
 6873 30d8 1095BB3F 		.word	1069258000
ARM GAS  /var/folders/80/65lm4rm97rv_n74c85vt01040000gn/T//ccuR6fPR.s 			page 147


 6874 30dc 61D2BB3F 		.word	1069273697
 6875 30e0 C60FBC3F 		.word	1069289414
 6876 30e4 3F4DBC3F 		.word	1069305151
 6877 30e8 CB8ABC3F 		.word	1069320907
 6878 30ec 6BC8BC3F 		.word	1069336683
 6879 30f0 1E06BD3F 		.word	1069352478
 6880 30f4 E643BD3F 		.word	1069368294
 6881 30f8 C181BD3F 		.word	1069384129
 6882 30fc B0BFBD3F 		.word	1069399984
 6883 3100 B3FDBD3F 		.word	1069415859
 6884 3104 C93BBE3F 		.word	1069431753
 6885 3108 F479BE3F 		.word	1069447668
 6886 310c 32B8BE3F 		.word	1069463602
 6887 3110 85F6BE3F 		.word	1069479557
 6888 3114 EB34BF3F 		.word	1069495531
 6889 3118 6673BF3F 		.word	1069511526
 6890 311c F4B1BF3F 		.word	1069527540
 6891 3120 97F0BF3F 		.word	1069543575
 6892 3124 4D2FC03F 		.word	1069559629
 6893 3128 186EC03F 		.word	1069575704
 6894 312c F6ACC03F 		.word	1069591798
 6895 3130 E9EBC03F 		.word	1069607913
 6896 3134 F02AC13F 		.word	1069624048
 6897 3138 0B6AC13F 		.word	1069640203
 6898 313c 3BA9C13F 		.word	1069656379
 6899 3140 7FE8C13F 		.word	1069672575
 6900 3144 D627C23F 		.word	1069688790
 6901 3148 4367C23F 		.word	1069705027
 6902 314c C3A6C23F 		.word	1069721283
 6903 3150 58E6C23F 		.word	1069737560
 6904 3154 0126C33F 		.word	1069753857
 6905 3158 BF65C33F 		.word	1069770175
 6906 315c 91A5C33F 		.word	1069786513
 6907 3160 78E5C33F 		.word	1069802872
 6908 3164 7225C43F 		.word	1069819250
 6909 3168 8265C43F 		.word	1069835650
 6910 316c A6A5C43F 		.word	1069852070
 6911 3170 DEE5C43F 		.word	1069868510
 6912 3174 2C26C53F 		.word	1069884972
 6913 3178 8D66C53F 		.word	1069901453
 6914 317c 04A7C53F 		.word	1069917956
 6915 3180 8EE7C53F 		.word	1069934478
 6916 3184 2E28C63F 		.word	1069951022
 6917 3188 E268C63F 		.word	1069967586
 6918 318c ACA9C63F 		.word	1069984172
 6919 3190 89EAC63F 		.word	1070000777
 6920 3194 7C2BC73F 		.word	1070017404
 6921 3198 836CC73F 		.word	1070034051
 6922 319c A0ADC73F 		.word	1070050720
 6923 31a0 D1EEC73F 		.word	1070067409
 6924 31a4 1730C83F 		.word	1070084119
 6925 31a8 7271C83F 		.word	1070100850
 6926 31ac E1B2C83F 		.word	1070117601
 6927 31b0 66F4C83F 		.word	1070134374
 6928 31b4 0036C93F 		.word	1070151168
 6929 31b8 AF77C93F 		.word	1070167983
 6930 31bc 72B9C93F 		.word	1070184818
ARM GAS  /var/folders/80/65lm4rm97rv_n74c85vt01040000gn/T//ccuR6fPR.s 			page 148


 6931 31c0 4BFBC93F 		.word	1070201675
 6932 31c4 393DCA3F 		.word	1070218553
 6933 31c8 3C7FCA3F 		.word	1070235452
 6934 31cc 55C1CA3F 		.word	1070252373
 6935 31d0 8203CB3F 		.word	1070269314
 6936 31d4 C545CB3F 		.word	1070286277
 6937 31d8 1C88CB3F 		.word	1070303260
 6938 31dc 8ACACB3F 		.word	1070320266
 6939 31e0 0C0DCC3F 		.word	1070337292
 6940 31e4 A44FCC3F 		.word	1070354340
 6941 31e8 5192CC3F 		.word	1070371409
 6942 31ec 13D5CC3F 		.word	1070388499
 6943 31f0 EB17CD3F 		.word	1070405611
 6944 31f4 D85ACD3F 		.word	1070422744
 6945 31f8 DA9DCD3F 		.word	1070439898
 6946 31fc F2E0CD3F 		.word	1070457074
 6947 3200 2024CE3F 		.word	1070474272
 6948 3204 6367CE3F 		.word	1070491491
 6949 3208 BCAACE3F 		.word	1070508732
 6950 320c 2AEECE3F 		.word	1070525994
 6951 3210 AE31CF3F 		.word	1070543278
 6952 3214 4775CF3F 		.word	1070560583
 6953 3218 F6B8CF3F 		.word	1070577910
 6954 321c BBFCCF3F 		.word	1070595259
 6955 3220 9540D03F 		.word	1070612629
 6956 3224 8584D03F 		.word	1070630021
 6957 3228 8BC8D03F 		.word	1070647435
 6958 322c A70CD13F 		.word	1070664871
 6959 3230 D950D13F 		.word	1070682329
 6960 3234 2095D13F 		.word	1070699808
 6961 3238 7DD9D13F 		.word	1070717309
 6962 323c F01DD23F 		.word	1070734832
 6963 3240 7A62D23F 		.word	1070752378
 6964 3244 19A7D23F 		.word	1070769945
 6965 3248 CEEBD23F 		.word	1070787534
 6966 324c 9930D33F 		.word	1070805145
 6967 3250 7A75D33F 		.word	1070822778
 6968 3254 71BAD33F 		.word	1070840433
 6969 3258 7EFFD33F 		.word	1070858110
 6970 325c A144D43F 		.word	1070875809
 6971 3260 DB89D43F 		.word	1070893531
 6972 3264 2BCFD43F 		.word	1070911275
 6973 3268 9014D53F 		.word	1070929040
 6974 326c 0D5AD53F 		.word	1070946829
 6975 3270 9F9FD53F 		.word	1070964639
 6976 3274 48E5D53F 		.word	1070982472
 6977 3278 072BD63F 		.word	1071000327
 6978 327c DC70D63F 		.word	1071018204
 6979 3280 C7B6D63F 		.word	1071036103
 6980 3284 CAFCD63F 		.word	1071054026
 6981 3288 E242D73F 		.word	1071071970
 6982 328c 1189D73F 		.word	1071089937
 6983 3290 56CFD73F 		.word	1071107926
 6984 3294 B215D83F 		.word	1071125938
 6985 3298 255CD83F 		.word	1071143973
 6986 329c AEA2D83F 		.word	1071162030
 6987 32a0 4DE9D83F 		.word	1071180109
ARM GAS  /var/folders/80/65lm4rm97rv_n74c85vt01040000gn/T//ccuR6fPR.s 			page 149


 6988 32a4 0430D93F 		.word	1071198212
 6989 32a8 D176D93F 		.word	1071216337
 6990 32ac B4BDD93F 		.word	1071234484
 6991 32b0 AE04DA3F 		.word	1071252654
 6992 32b4 C04BDA3F 		.word	1071270848
 6993 32b8 E792DA3F 		.word	1071289063
 6994 32bc 26DADA3F 		.word	1071307302
 6995 32c0 7B21DB3F 		.word	1071325563
 6996 32c4 E868DB3F 		.word	1071343848
 6997 32c8 6BB0DB3F 		.word	1071362155
 6998 32cc 05F8DB3F 		.word	1071380485
 6999 32d0 B63FDC3F 		.word	1071398838
 7000 32d4 7E87DC3F 		.word	1071417214
 7001 32d8 5DCFDC3F 		.word	1071435613
 7002 32dc 5317DD3F 		.word	1071454035
 7003 32e0 605FDD3F 		.word	1071472480
 7004 32e4 84A7DD3F 		.word	1071490948
 7005 32e8 BFEFDD3F 		.word	1071509439
 7006 32ec 1138DE3F 		.word	1071527953
 7007 32f0 7B80DE3F 		.word	1071546491
 7008 32f4 FBC8DE3F 		.word	1071565051
 7009 32f8 9311DF3F 		.word	1071583635
 7010 32fc 425ADF3F 		.word	1071602242
 7011 3300 09A3DF3F 		.word	1071620873
 7012 3304 E7EBDF3F 		.word	1071639527
 7013 3308 DC34E03F 		.word	1071658204
 7014 330c E87DE03F 		.word	1071676904
 7015 3310 0CC7E03F 		.word	1071695628
 7016 3314 4710E13F 		.word	1071714375
 7017 3318 9A59E13F 		.word	1071733146
 7018 331c 04A3E13F 		.word	1071751940
 7019 3320 86ECE13F 		.word	1071770758
 7020 3324 1F36E23F 		.word	1071789599
 7021 3328 D07FE23F 		.word	1071808464
 7022 332c 99C9E23F 		.word	1071827353
 7023 3330 7913E33F 		.word	1071846265
 7024 3334 715DE33F 		.word	1071865201
 7025 3338 80A7E33F 		.word	1071884160
 7026 333c A7F1E33F 		.word	1071903143
 7027 3340 E63BE43F 		.word	1071922150
 7028 3344 3D86E43F 		.word	1071941181
 7029 3348 ACD0E43F 		.word	1071960236
 7030 334c 321BE53F 		.word	1071979314
 7031 3350 D065E53F 		.word	1071998416
 7032 3354 87B0E53F 		.word	1072017543
 7033 3358 55FBE53F 		.word	1072036693
 7034 335c 3B46E63F 		.word	1072055867
 7035 3360 3991E63F 		.word	1072075065
 7036 3364 4FDCE63F 		.word	1072094287
 7037 3368 7D27E73F 		.word	1072113533
 7038 336c C372E73F 		.word	1072132803
 7039 3370 21BEE73F 		.word	1072152097
 7040 3374 9809E83F 		.word	1072171416
 7041 3378 2755E83F 		.word	1072190759
 7042 337c CDA0E83F 		.word	1072210125
 7043 3380 8CECE83F 		.word	1072229516
 7044 3384 6438E93F 		.word	1072248932
ARM GAS  /var/folders/80/65lm4rm97rv_n74c85vt01040000gn/T//ccuR6fPR.s 			page 150


 7045 3388 5384E93F 		.word	1072268371
 7046 338c 5BD0E93F 		.word	1072287835
 7047 3390 7C1CEA3F 		.word	1072307324
 7048 3394 B468EA3F 		.word	1072326836
 7049 3398 06B5EA3F 		.word	1072346374
 7050 339c 6F01EB3F 		.word	1072365935
 7051 33a0 F14DEB3F 		.word	1072385521
 7052 33a4 8C9AEB3F 		.word	1072405132
 7053 33a8 3FE7EB3F 		.word	1072424767
 7054 33ac 0A34EC3F 		.word	1072444426
 7055 33b0 EF80EC3F 		.word	1072464111
 7056 33b4 ECCDEC3F 		.word	1072483820
 7057 33b8 011BED3F 		.word	1072503553
 7058 33bc 2F68ED3F 		.word	1072523311
 7059 33c0 76B5ED3F 		.word	1072543094
 7060 33c4 D602EE3F 		.word	1072562902
 7061 33c8 4E50EE3F 		.word	1072582734
 7062 33cc E09DEE3F 		.word	1072602592
 7063 33d0 8AEBEE3F 		.word	1072622474
 7064 33d4 4D39EF3F 		.word	1072642381
 7065 33d8 2987EF3F 		.word	1072662313
 7066 33dc 1ED5EF3F 		.word	1072682270
 7067 33e0 2C23F03F 		.word	1072702252
 7068 33e4 5271F03F 		.word	1072722258
 7069 33e8 92BFF03F 		.word	1072742290
 7070 33ec EB0DF13F 		.word	1072762347
 7071 33f0 5D5CF13F 		.word	1072782429
 7072 33f4 E9AAF13F 		.word	1072802537
 7073 33f8 8DF9F13F 		.word	1072822669
 7074 33fc 4A48F23F 		.word	1072842826
 7075 3400 2197F23F 		.word	1072863009
 7076 3404 11E6F23F 		.word	1072883217
 7077 3408 1A35F33F 		.word	1072903450
 7078 340c 3D84F33F 		.word	1072923709
 7079 3410 79D3F33F 		.word	1072943993
 7080 3414 CE22F43F 		.word	1072964302
 7081 3418 3D72F43F 		.word	1072984637
 7082 341c C5C1F43F 		.word	1073004997
 7083 3420 6711F53F 		.word	1073025383
 7084 3424 2261F53F 		.word	1073045794
 7085 3428 F7B0F53F 		.word	1073066231
 7086 342c E500F63F 		.word	1073086693
 7087 3430 ED50F63F 		.word	1073107181
 7088 3434 0FA1F63F 		.word	1073127695
 7089 3438 4AF1F63F 		.word	1073148234
 7090 343c 9F41F73F 		.word	1073168799
 7091 3440 0D92F73F 		.word	1073189389
 7092 3444 96E2F73F 		.word	1073210006
 7093 3448 3833F83F 		.word	1073230648
 7094 344c F483F83F 		.word	1073251316
 7095 3450 CAD4F83F 		.word	1073272010
 7096 3454 BA25F93F 		.word	1073292730
 7097 3458 C376F93F 		.word	1073313475
 7098 345c E7C7F93F 		.word	1073334247
 7099 3460 2519FA3F 		.word	1073355045
 7100 3464 7C6AFA3F 		.word	1073375868
 7101 3468 EEBBFA3F 		.word	1073396718
ARM GAS  /var/folders/80/65lm4rm97rv_n74c85vt01040000gn/T//ccuR6fPR.s 			page 151


 7102 346c 7A0DFB3F 		.word	1073417594
 7103 3470 205FFB3F 		.word	1073438496
 7104 3474 E0B0FB3F 		.word	1073459424
 7105 3478 BA02FC3F 		.word	1073480378
 7106 347c AF54FC3F 		.word	1073501359
 7107 3480 BDA6FC3F 		.word	1073522365
 7108 3484 E6F8FC3F 		.word	1073543398
 7109 3488 2A4BFD3F 		.word	1073564458
 7110 348c 879DFD3F 		.word	1073585543
 7111 3490 FFEFFD3F 		.word	1073606655
 7112 3494 9242FE3F 		.word	1073627794
 7113 3498 3F95FE3F 		.word	1073648959
 7114 349c 06E8FE3F 		.word	1073670150
 7115 34a0 E83AFF3F 		.word	1073691368
 7116 34a4 E58DFF3F 		.word	1073712613
 7117 34a8 FCE0FF3F 		.word	1073733884
 7118 34ac 171A0040 		.word	1073748503
 7119 34b0 BD430040 		.word	1073759165
 7120 34b4 716D0040 		.word	1073769841
 7121 34b8 31970040 		.word	1073780529
 7122 34bc 00C10040 		.word	1073791232
 7123 34c0 DBEA0040 		.word	1073801947
 7124 34c4 C4140140 		.word	1073812676
 7125 34c8 BB3E0140 		.word	1073823419
 7126 34cc BF680140 		.word	1073834175
 7127 34d0 D0920140 		.word	1073844944
 7128 34d4 EFBC0140 		.word	1073855727
 7129 34d8 1BE70140 		.word	1073866523
 7130 34dc 55110240 		.word	1073877333
 7131 34e0 9C3B0240 		.word	1073888156
 7132 34e4 F1650240 		.word	1073898993
 7133 34e8 54900240 		.word	1073909844
 7134 34ec C4BA0240 		.word	1073920708
 7135 34f0 42E50240 		.word	1073931586
 7136 34f4 CD0F0340 		.word	1073942477
 7137 34f8 663A0340 		.word	1073953382
 7138 34fc 0C650340 		.word	1073964300
 7139 3500 C08F0340 		.word	1073975232
 7140 3504 82BA0340 		.word	1073986178
 7141 3508 52E50340 		.word	1073997138
 7142 350c 2F100440 		.word	1074008111
 7143 3510 1A3B0440 		.word	1074019098
 7144 3514 13660440 		.word	1074030099
 7145 3518 19910440 		.word	1074041113
 7146 351c 2EBC0440 		.word	1074052142
 7147 3520 50E70440 		.word	1074063184
 7148 3524 80120540 		.word	1074074240
 7149 3528 BE3D0540 		.word	1074085310
 7150 352c 09690540 		.word	1074096393
 7151 3530 63940540 		.word	1074107491
 7152 3534 CABF0540 		.word	1074118602
 7153 3538 3FEB0540 		.word	1074129727
 7154 353c C2160640 		.word	1074140866
 7155 3540 54420640 		.word	1074152020
 7156 3544 F36D0640 		.word	1074163187
 7157 3548 A0990640 		.word	1074174368
 7158 354c 5BC50640 		.word	1074185563
ARM GAS  /var/folders/80/65lm4rm97rv_n74c85vt01040000gn/T//ccuR6fPR.s 			page 152


 7159 3550 24F10640 		.word	1074196772
 7160 3554 FB1C0740 		.word	1074207995
 7161 3558 E0480740 		.word	1074219232
 7162 355c D3740740 		.word	1074230483
 7163 3560 D4A00740 		.word	1074241748
 7164 3564 E4CC0740 		.word	1074253028
 7165 3568 01F90740 		.word	1074264321
 7166 356c 2D250840 		.word	1074275629
 7167 3570 67510840 		.word	1074286951
 7168 3574 AF7D0840 		.word	1074298287
 7169 3578 05AA0840 		.word	1074309637
 7170 357c 69D60840 		.word	1074321001
 7171 3580 DC020940 		.word	1074332380
 7172 3584 5C2F0940 		.word	1074343772
 7173 3588 EB5B0940 		.word	1074355179
 7174 358c 89880940 		.word	1074366601
 7175 3590 34B50940 		.word	1074378036
 7176 3594 EEE10940 		.word	1074389486
 7177 3598 B60E0A40 		.word	1074400950
 7178 359c 8D3B0A40 		.word	1074412429
 7179 35a0 72680A40 		.word	1074423922
 7180 35a4 65950A40 		.word	1074435429
 7181 35a8 67C20A40 		.word	1074446951
 7182 35ac 77EF0A40 		.word	1074458487
 7183 35b0 951C0B40 		.word	1074470037
 7184 35b4 C2490B40 		.word	1074481602
 7185 35b8 FE760B40 		.word	1074493182
 7186 35bc 48A40B40 		.word	1074504776
 7187 35c0 A0D10B40 		.word	1074516384
 7188 35c4 07FF0B40 		.word	1074528007
 7189 35c8 7D2C0C40 		.word	1074539645
 7190 35cc 015A0C40 		.word	1074551297
 7191 35d0 94870C40 		.word	1074562964
 7192 35d4 35B50C40 		.word	1074574645
 7193 35d8 E5E20C40 		.word	1074586341
 7194 35dc A3100D40 		.word	1074598051
 7195 35e0 713E0D40 		.word	1074609777
 7196 35e4 4C6C0D40 		.word	1074621516
 7197 35e8 379A0D40 		.word	1074633271
 7198 35ec 30C80D40 		.word	1074645040
 7199 35f0 38F60D40 		.word	1074656824
 7200 35f4 4F240E40 		.word	1074668623
 7201 35f8 74520E40 		.word	1074680436
 7202 35fc A9800E40 		.word	1074692265
 7203 3600 ECAE0E40 		.word	1074704108
 7204 3604 3EDD0E40 		.word	1074715966
 7205 3608 9E0B0F40 		.word	1074727838
 7206 360c 0E3A0F40 		.word	1074739726
 7207 3610 8C680F40 		.word	1074751628
 7208 3614 1A970F40 		.word	1074763546
 7209 3618 B6C50F40 		.word	1074775478
 7210 361c 61F40F40 		.word	1074787425
 7211 3620 1B231040 		.word	1074799387
 7212 3624 E4511040 		.word	1074811364
 7213 3628 BD801040 		.word	1074823357
 7214 362c A4AF1040 		.word	1074835364
 7215 3630 9ADE1040 		.word	1074847386
ARM GAS  /var/folders/80/65lm4rm97rv_n74c85vt01040000gn/T//ccuR6fPR.s 			page 153


 7216 3634 9F0D1140 		.word	1074859423
 7217 3638 B33C1140 		.word	1074871475
 7218 363c D66B1140 		.word	1074883542
 7219 3640 099B1140 		.word	1074895625
 7220 3644 4ACA1140 		.word	1074907722
 7221 3648 9BF91140 		.word	1074919835
 7222 364c FB281240 		.word	1074931963
 7223 3650 6A581240 		.word	1074944106
 7224 3654 E8871240 		.word	1074956264
 7225 3658 76B71240 		.word	1074968438
 7226 365c 12E71240 		.word	1074980626
 7227 3660 BE161340 		.word	1074992830
 7228 3664 79461340 		.word	1075005049
 7229 3668 44761340 		.word	1075017284
 7230 366c 1DA61340 		.word	1075029533
 7231 3670 06D61340 		.word	1075041798
 7232 3674 FF051440 		.word	1075054079
 7233 3678 07361440 		.word	1075066375
 7234 367c 1E661440 		.word	1075078686
 7235 3680 44961440 		.word	1075091012
 7236 3684 7AC61440 		.word	1075103354
 7237 3688 C0F61440 		.word	1075115712
 7238 368c 15271540 		.word	1075128085
 7239 3690 79571540 		.word	1075140473
 7240 3694 ED871540 		.word	1075152877
 7241 3698 71B81540 		.word	1075165297
 7242 369c 04E91540 		.word	1075177732
 7243 36a0 A6191640 		.word	1075190182
 7244 36a4 584A1640 		.word	1075202648
 7245 36a8 1A7B1640 		.word	1075215130
 7246 36ac EBAB1640 		.word	1075227627
 7247 36b0 CCDC1640 		.word	1075240140
 7248 36b4 BD0D1740 		.word	1075252669
 7249 36b8 BD3E1740 		.word	1075265213
 7250 36bc CD6F1740 		.word	1075277773
 7251 36c0 EDA01740 		.word	1075290349
 7252 36c4 1CD21740 		.word	1075302940
 7253 36c8 5B031840 		.word	1075315547
 7254 36cc AA341840 		.word	1075328170
 7255 36d0 09661840 		.word	1075340809
 7256 36d4 78971840 		.word	1075353464
 7257 36d8 F6C81840 		.word	1075366134
 7258 36dc 84FA1840 		.word	1075378820
 7259 36e0 222C1940 		.word	1075391522
 7260 36e4 D05D1940 		.word	1075404240
 7261 36e8 8E8F1940 		.word	1075416974
 7262 36ec 5CC11940 		.word	1075429724
 7263 36f0 3AF31940 		.word	1075442490
 7264 36f4 28251A40 		.word	1075455272
 7265 36f8 26571A40 		.word	1075468070
 7266 36fc 33891A40 		.word	1075480883
 7267 3700 51BB1A40 		.word	1075493713
 7268 3704 7FED1A40 		.word	1075506559
 7269 3708 BD1F1B40 		.word	1075519421
 7270 370c 0B521B40 		.word	1075532299
 7271 3710 69841B40 		.word	1075545193
 7272 3714 D8B61B40 		.word	1075558104
ARM GAS  /var/folders/80/65lm4rm97rv_n74c85vt01040000gn/T//ccuR6fPR.s 			page 154


 7273 3718 56E91B40 		.word	1075571030
 7274 371c E51B1C40 		.word	1075583973
 7275 3720 844E1C40 		.word	1075596932
 7276 3724 33811C40 		.word	1075609907
 7277 3728 F2B31C40 		.word	1075622898
 7278 372c C2E61C40 		.word	1075635906
 7279 3730 A1191D40 		.word	1075648929
 7280 3734 914C1D40 		.word	1075661969
 7281 3738 927F1D40 		.word	1075675026
 7282 373c A3B21D40 		.word	1075688099
 7283 3740 C4E51D40 		.word	1075701188
 7284 3744 F5181E40 		.word	1075714293
 7285 3748 374C1E40 		.word	1075727415
 7286 374c 897F1E40 		.word	1075740553
 7287 3750 ECB21E40 		.word	1075753708
 7288 3754 5FE61E40 		.word	1075766879
 7289 3758 E3191F40 		.word	1075780067
 7290 375c 774D1F40 		.word	1075793271
 7291 3760 1C811F40 		.word	1075806492
 7292 3764 D1B41F40 		.word	1075819729
 7293 3768 97E81F40 		.word	1075832983
 7294 376c 6E1C2040 		.word	1075846254
 7295 3770 55502040 		.word	1075859541
 7296 3774 4C842040 		.word	1075872844
 7297 3778 55B82040 		.word	1075886165
 7298 377c 6DEC2040 		.word	1075899501
 7299 3780 97202140 		.word	1075912855
 7300 3784 D1542140 		.word	1075926225
 7301 3788 1D892140 		.word	1075939613
 7302 378c 78BD2140 		.word	1075953016
 7303 3790 E5F12140 		.word	1075966437
 7304 3794 62262240 		.word	1075979874
 7305 3798 F15A2240 		.word	1075993329
 7306 379c 908F2240 		.word	1076006800
 7307 37a0 40C42240 		.word	1076020288
 7308 37a4 00F92240 		.word	1076033792
 7309 37a8 D22D2340 		.word	1076047314
 7310 37ac B5622340 		.word	1076060853
 7311 37b0 A8972340 		.word	1076074408
 7312 37b4 ADCC2340 		.word	1076087981
 7313 37b8 C2012440 		.word	1076101570
 7314 37bc E9362440 		.word	1076115177
 7315 37c0 206C2440 		.word	1076128800
 7316 37c4 69A12440 		.word	1076142441
 7317 37c8 C2D62440 		.word	1076156098
 7318 37cc 2D0C2540 		.word	1076169773
 7319 37d0 A9412540 		.word	1076183465
 7320 37d4 36772540 		.word	1076197174
 7321 37d8 D4AC2540 		.word	1076210900
 7322 37dc 83E22540 		.word	1076224643
 7323 37e0 44182640 		.word	1076238404
 7324 37e4 154E2640 		.word	1076252181
 7325 37e8 F8832640 		.word	1076265976
 7326 37ec EDB92640 		.word	1076279789
 7327 37f0 F2EF2640 		.word	1076293618
 7328 37f4 09262740 		.word	1076307465
 7329 37f8 315C2740 		.word	1076321329
ARM GAS  /var/folders/80/65lm4rm97rv_n74c85vt01040000gn/T//ccuR6fPR.s 			page 155


 7330 37fc 6A922740 		.word	1076335210
 7331 3800 B5C82740 		.word	1076349109
 7332 3804 11FF2740 		.word	1076363025
 7333 3808 7F352840 		.word	1076376959
 7334 380c FE6B2840 		.word	1076390910
 7335 3810 8FA22840 		.word	1076404879
 7336 3814 31D92840 		.word	1076418865
 7337 3818 E40F2940 		.word	1076432868
 7338 381c A9462940 		.word	1076446889
 7339 3820 807D2940 		.word	1076460928
 7340 3824 68B42940 		.word	1076474984
 7341 3828 62EB2940 		.word	1076489058
 7342 382c 6D222A40 		.word	1076503149
 7343 3830 8A592A40 		.word	1076517258
 7344 3834 B9902A40 		.word	1076531385
 7345 3838 F9C72A40 		.word	1076545529
 7346 383c 4BFF2A40 		.word	1076559691
 7347 3840 AF362B40 		.word	1076573871
 7348 3844 246E2B40 		.word	1076588068
 7349 3848 ABA52B40 		.word	1076602283
 7350 384c 44DD2B40 		.word	1076616516
 7351 3850 EF142C40 		.word	1076630767
 7352 3854 AC4C2C40 		.word	1076645036
 7353 3858 7A842C40 		.word	1076659322
 7354 385c 5BBC2C40 		.word	1076673627
 7355 3860 4DF42C40 		.word	1076687949
 7356 3864 512C2D40 		.word	1076702289
 7357 3868 67642D40 		.word	1076716647
 7358 386c 8F9C2D40 		.word	1076731023
 7359 3870 C9D42D40 		.word	1076745417
 7360 3874 160D2E40 		.word	1076759830
 7361 3878 74452E40 		.word	1076774260
 7362 387c E47D2E40 		.word	1076788708
 7363 3880 66B62E40 		.word	1076803174
 7364 3884 FBEE2E40 		.word	1076817659
 7365 3888 A1272F40 		.word	1076832161
 7366 388c 5A602F40 		.word	1076846682
 7367 3890 25992F40 		.word	1076861221
 7368 3894 02D22F40 		.word	1076875778
 7369 3898 F10A3040 		.word	1076890353
 7370 389c F2433040 		.word	1076904946
 7371 38a0 067D3040 		.word	1076919558
 7372 38a4 2CB63040 		.word	1076934188
 7373 38a8 64EF3040 		.word	1076948836
 7374 38ac AF283140 		.word	1076963503
 7375 38b0 0C623140 		.word	1076978188
 7376 38b4 7B9B3140 		.word	1076992891
 7377 38b8 FDD43140 		.word	1077007613
 7378 38bc 910E3240 		.word	1077022353
 7379 38c0 38483240 		.word	1077037112
 7380 38c4 F1813240 		.word	1077051889
 7381 38c8 BDBB3240 		.word	1077066685
 7382 38cc 9BF53240 		.word	1077081499
 7383 38d0 8B2F3340 		.word	1077096331
 7384 38d4 8E693340 		.word	1077111182
 7385 38d8 A4A33340 		.word	1077126052
 7386 38dc CDDD3340 		.word	1077140941
ARM GAS  /var/folders/80/65lm4rm97rv_n74c85vt01040000gn/T//ccuR6fPR.s 			page 156


 7387 38e0 08183440 		.word	1077155848
 7388 38e4 55523440 		.word	1077170773
 7389 38e8 B68C3440 		.word	1077185718
 7390 38ec 29C73440 		.word	1077200681
 7391 38f0 AE013540 		.word	1077215662
 7392 38f4 473C3540 		.word	1077230663
 7393 38f8 F2763540 		.word	1077245682
 7394 38fc B0B13540 		.word	1077260720
 7395 3900 81EC3540 		.word	1077275777
 7396 3904 65273640 		.word	1077290853
 7397 3908 5C623640 		.word	1077305948
 7398 390c 659D3640 		.word	1077321061
 7399 3910 81D83640 		.word	1077336193
 7400 3914 B1133740 		.word	1077351345
 7401 3918 F34E3740 		.word	1077366515
 7402 391c 488A3740 		.word	1077381704
 7403 3920 B1C53740 		.word	1077396913
 7404 3924 2C013840 		.word	1077412140
 7405 3928 BA3C3840 		.word	1077427386
 7406 392c 5C783840 		.word	1077442652
 7407 3930 10B43840 		.word	1077457936
 7408 3934 D8EF3840 		.word	1077473240
 7409 3938 B32B3940 		.word	1077488563
 7410 393c A1673940 		.word	1077503905
 7411 3940 A2A33940 		.word	1077519266
 7412 3944 B6DF3940 		.word	1077534646
 7413 3948 DE1B3A40 		.word	1077550046
 7414 394c 19583A40 		.word	1077565465
 7415 3950 67943A40 		.word	1077580903
 7416 3954 C8D03A40 		.word	1077596360
 7417 3958 3D0D3B40 		.word	1077611837
 7418 395c C6493B40 		.word	1077627334
 7419 3960 61863B40 		.word	1077642849
 7420 3964 10C33B40 		.word	1077658384
 7421 3968 D3FF3B40 		.word	1077673939
 7422 396c A93C3C40 		.word	1077689513
 7423 3970 92793C40 		.word	1077705106
 7424 3974 8FB63C40 		.word	1077720719
 7425 3978 9FF33C40 		.word	1077736351
 7426 397c C4303D40 		.word	1077752004
 7427 3980 FB6D3D40 		.word	1077767675
 7428 3984 46AB3D40 		.word	1077783366
 7429 3988 A5E83D40 		.word	1077799077
 7430 398c 18263E40 		.word	1077814808
 7431 3990 9E633E40 		.word	1077830558
 7432 3994 38A13E40 		.word	1077846328
 7433 3998 E5DE3E40 		.word	1077862117
 7434 399c A71C3F40 		.word	1077877927
 7435 39a0 7C5A3F40 		.word	1077893756
 7436 39a4 65983F40 		.word	1077909605
 7437 39a8 62D63F40 		.word	1077925474
 7438 39ac 73144040 		.word	1077941363
 7439 39b0 97524040 		.word	1077957271
 7440 39b4 D0904040 		.word	1077973200
 7441 39b8 1CCF4040 		.word	1077989148
 7442 39bc 7C0D4140 		.word	1078005116
 7443 39c0 F14B4140 		.word	1078021105
ARM GAS  /var/folders/80/65lm4rm97rv_n74c85vt01040000gn/T//ccuR6fPR.s 			page 157


 7444 39c4 798A4140 		.word	1078037113
 7445 39c8 15C94140 		.word	1078053141
 7446 39cc C6074240 		.word	1078069190
 7447 39d0 8A464240 		.word	1078085258
 7448 39d4 63854240 		.word	1078101347
 7449 39d8 50C44240 		.word	1078117456
 7450 39dc 50034340 		.word	1078133584
 7451 39e0 66424340 		.word	1078149734
 7452 39e4 8F814340 		.word	1078165903
 7453 39e8 CCC04340 		.word	1078182092
 7454 39ec 1E004440 		.word	1078198302
 7455 39f0 843F4440 		.word	1078214532
 7456 39f4 FE7E4440 		.word	1078230782
 7457 39f8 8DBE4440 		.word	1078247053
 7458 39fc 30FE4440 		.word	1078263344
 7459 3a00 E83D4540 		.word	1078279656
 7460 3a04 B47D4540 		.word	1078295988
 7461 3a08 94BD4540 		.word	1078312340
 7462 3a0c 89FD4540 		.word	1078328713
 7463 3a10 923D4640 		.word	1078345106
 7464 3a14 B07D4640 		.word	1078361520
 7465 3a18 E2BD4640 		.word	1078377954
 7466 3a1c 29FE4640 		.word	1078394409
 7467 3a20 843E4740 		.word	1078410884
 7468 3a24 F47E4740 		.word	1078427380
 7469 3a28 79BF4740 		.word	1078443897
 7470 3a2c 12004840 		.word	1078460434
 7471 3a30 C0404840 		.word	1078476992
 7472 3a34 83814840 		.word	1078493571
 7473 3a38 5BC24840 		.word	1078510171
 7474 3a3c 47034940 		.word	1078526791
 7475 3a40 48444940 		.word	1078543432
 7476 3a44 5E854940 		.word	1078560094
 7477 3a48 89C64940 		.word	1078576777
 7478 3a4c C8074A40 		.word	1078593480
 7479 3a50 1D494A40 		.word	1078610205
 7480 3a54 868A4A40 		.word	1078626950
 7481 3a58 05CC4A40 		.word	1078643717
 7482 3a5c 980D4B40 		.word	1078660504
 7483 3a60 404F4B40 		.word	1078677312
 7484 3a64 FE904B40 		.word	1078694142
 7485 3a68 D0D24B40 		.word	1078710992
 7486 3a6c B8144C40 		.word	1078727864
 7487 3a70 B4564C40 		.word	1078744756
 7488 3a74 C6984C40 		.word	1078761670
 7489 3a78 EDDA4C40 		.word	1078778605
 7490 3a7c 291D4D40 		.word	1078795561
 7491 3a80 7B5F4D40 		.word	1078812539
 7492 3a84 E1A14D40 		.word	1078829537
 7493 3a88 5DE44D40 		.word	1078846557
 7494 3a8c EF264E40 		.word	1078863599
 7495 3a90 95694E40 		.word	1078880661
 7496 3a94 51AC4E40 		.word	1078897745
 7497 3a98 22EF4E40 		.word	1078914850
 7498 3a9c 09324F40 		.word	1078931977
 7499 3aa0 05754F40 		.word	1078949125
 7500 3aa4 16B84F40 		.word	1078966294
ARM GAS  /var/folders/80/65lm4rm97rv_n74c85vt01040000gn/T//ccuR6fPR.s 			page 158


 7501 3aa8 3DFB4F40 		.word	1078983485
 7502 3aac 7A3E5040 		.word	1079000698
 7503 3ab0 CC815040 		.word	1079017932
 7504 3ab4 34C55040 		.word	1079035188
 7505 3ab8 B1085140 		.word	1079052465
 7506 3abc 444C5140 		.word	1079069764
 7507 3ac0 EC8F5140 		.word	1079087084
 7508 3ac4 AAD35140 		.word	1079104426
 7509 3ac8 7E175240 		.word	1079121790
 7510 3acc 685B5240 		.word	1079139176
 7511 3ad0 679F5240 		.word	1079156583
 7512 3ad4 7CE35240 		.word	1079174012
 7513 3ad8 A7275340 		.word	1079191463
 7514 3adc E86B5340 		.word	1079208936
 7515 3ae0 3EB05340 		.word	1079226430
 7516 3ae4 ABF45340 		.word	1079243947
 7517 3ae8 2D395440 		.word	1079261485
 7518 3aec C67D5440 		.word	1079279046
 7519 3af0 74C25440 		.word	1079296628
 7520 3af4 39075540 		.word	1079314233
 7521 3af8 134C5540 		.word	1079331859
 7522 3afc 03915540 		.word	1079349507
 7523 3b00 0AD65540 		.word	1079367178
 7524 3b04 261B5640 		.word	1079384870
 7525 3b08 59605640 		.word	1079402585
 7526 3b0c A2A55640 		.word	1079420322
 7527 3b10 01EB5640 		.word	1079438081
 7528 3b14 77305740 		.word	1079455863
 7529 3b18 02765740 		.word	1079473666
 7530 3b1c A4BB5740 		.word	1079491492
 7531 3b20 5C015840 		.word	1079509340
 7532 3b24 2B475840 		.word	1079527211
 7533 3b28 108D5840 		.word	1079545104
 7534 3b2c 0BD35840 		.word	1079563019
 7535 3b30 1D195940 		.word	1079580957
 7536 3b34 455F5940 		.word	1079598917
 7537 3b38 83A55940 		.word	1079616899
 7538 3b3c D8EB5940 		.word	1079634904
 7539 3b40 44325A40 		.word	1079652932
 7540 3b44 C6785A40 		.word	1079670982
 7541 3b48 5FBF5A40 		.word	1079689055
 7542 3b4c 0E065B40 		.word	1079707150
 7543 3b50 D44C5B40 		.word	1079725268
 7544 3b54 B1935B40 		.word	1079743409
 7545 3b58 A4DA5B40 		.word	1079761572
 7546 3b5c AF215C40 		.word	1079779759
 7547 3b60 CF685C40 		.word	1079797967
 7548 3b64 07B05C40 		.word	1079816199
 7549 3b68 56F75C40 		.word	1079834454
 7550 3b6c BB3E5D40 		.word	1079852731
 7551 3b70 37865D40 		.word	1079871031
 7552 3b74 CACD5D40 		.word	1079889354
 7553 3b78 74155E40 		.word	1079907700
 7554 3b7c 355D5E40 		.word	1079926069
 7555 3b80 0DA55E40 		.word	1079944461
 7556 3b84 FCEC5E40 		.word	1079962876
 7557 3b88 02355F40 		.word	1079981314
ARM GAS  /var/folders/80/65lm4rm97rv_n74c85vt01040000gn/T//ccuR6fPR.s 			page 159


 7558 3b8c 1F7D5F40 		.word	1079999775
 7559 3b90 53C55F40 		.word	1080018259
 7560 3b94 9F0D6040 		.word	1080036767
 7561 3b98 01566040 		.word	1080055297
 7562 3b9c 7B9E6040 		.word	1080073851
 7563 3ba0 0CE76040 		.word	1080092428
 7564 3ba4 B42F6140 		.word	1080111028
 7565 3ba8 73786140 		.word	1080129651
 7566 3bac 4AC16140 		.word	1080148298
 7567 3bb0 380A6240 		.word	1080166968
 7568 3bb4 3D536240 		.word	1080185661
 7569 3bb8 5A9C6240 		.word	1080204378
 7570 3bbc 8EE56240 		.word	1080223118
 7571 3bc0 DA2E6340 		.word	1080241882
 7572 3bc4 3D786340 		.word	1080260669
 7573 3bc8 B7C16340 		.word	1080279479
 7574 3bcc 4A0B6440 		.word	1080298314
 7575 3bd0 F3546440 		.word	1080317171
 7576 3bd4 B59E6440 		.word	1080336053
 7577 3bd8 8EE86440 		.word	1080354958
 7578 3bdc 7E326540 		.word	1080373886
 7579 3be0 867C6540 		.word	1080392838
 7580 3be4 A6C66540 		.word	1080411814
 7581 3be8 DE106640 		.word	1080430814
 7582 3bec 2E5B6640 		.word	1080449838
 7583 3bf0 95A56640 		.word	1080468885
 7584 3bf4 14F06640 		.word	1080487956
 7585 3bf8 AB3A6740 		.word	1080507051
 7586 3bfc 5A856740 		.word	1080526170
 7587 3c00 21D06740 		.word	1080545313
 7588 3c04 001B6840 		.word	1080564480
 7589 3c08 F7656840 		.word	1080583671
 7590 3c0c 05B16840 		.word	1080602885
 7591 3c10 2CFC6840 		.word	1080622124
 7592 3c14 6B476940 		.word	1080641387
 7593 3c18 C2926940 		.word	1080660674
 7594 3c1c 31DE6940 		.word	1080679985
 7595 3c20 B8296A40 		.word	1080699320
 7596 3c24 58756A40 		.word	1080718680
 7597 3c28 10C16A40 		.word	1080738064
 7598 3c2c E00C6B40 		.word	1080757472
 7599 3c30 C8586B40 		.word	1080776904
 7600 3c34 C8A46B40 		.word	1080796360
 7601 3c38 E1F06B40 		.word	1080815841
 7602 3c3c 133D6C40 		.word	1080835347
 7603 3c40 5C896C40 		.word	1080854876
 7604 3c44 BED56C40 		.word	1080874430
 7605 3c48 39226D40 		.word	1080894009
 7606 3c4c CC6E6D40 		.word	1080913612
 7607 3c50 78BB6D40 		.word	1080933240
 7608 3c54 3C086E40 		.word	1080952892
 7609 3c58 19556E40 		.word	1080972569
 7610 3c5c 0EA26E40 		.word	1080992270
 7611 3c60 1CEF6E40 		.word	1081011996
 7612 3c64 433C6F40 		.word	1081031747
 7613 3c68 82896F40 		.word	1081051522
 7614 3c6c DBD66F40 		.word	1081071323
ARM GAS  /var/folders/80/65lm4rm97rv_n74c85vt01040000gn/T//ccuR6fPR.s 			page 160


 7615 3c70 4C247040 		.word	1081091148
 7616 3c74 D5717040 		.word	1081110997
 7617 3c78 78BF7040 		.word	1081130872
 7618 3c7c 330D7140 		.word	1081150771
 7619 3c80 085B7140 		.word	1081170696
 7620 3c84 F5A87140 		.word	1081190645
 7621 3c88 FBF67140 		.word	1081210619
 7622 3c8c 1B457240 		.word	1081230619
 7623 3c90 53937240 		.word	1081250643
 7624 3c94 A4E17240 		.word	1081270692
 7625 3c98 0F307340 		.word	1081290767
 7626 3c9c 927E7340 		.word	1081310866
 7627 3ca0 2FCD7340 		.word	1081330991
 7628 3ca4 E51B7440 		.word	1081351141
 7629 3ca8 B46A7440 		.word	1081371316
 7630 3cac 9CB97440 		.word	1081391516
 7631 3cb0 9E087540 		.word	1081411742
 7632 3cb4 B9577540 		.word	1081431993
 7633 3cb8 EDA67540 		.word	1081452269
 7634 3cbc 3BF67540 		.word	1081472571
 7635 3cc0 A2457640 		.word	1081492898
 7636 3cc4 22957640 		.word	1081513250
 7637 3cc8 BCE47640 		.word	1081533628
 7638 3ccc 6F347740 		.word	1081554031
 7639 3cd0 3C847740 		.word	1081574460
 7640 3cd4 23D47740 		.word	1081594915
 7641 3cd8 23247840 		.word	1081615395
 7642 3cdc 3D747840 		.word	1081635901
 7643 3ce0 70C47840 		.word	1081656432
 7644 3ce4 BD147940 		.word	1081676989
 7645 3ce8 24657940 		.word	1081697572
 7646 3cec A5B57940 		.word	1081718181
 7647 3cf0 3F067A40 		.word	1081738815
 7648 3cf4 F3567A40 		.word	1081759475
 7649 3cf8 C1A77A40 		.word	1081780161
 7650 3cfc A9F87A40 		.word	1081800873
 7651 3d00 AB497B40 		.word	1081821611
 7652 3d04 C79A7B40 		.word	1081842375
 7653 3d08 FCEB7B40 		.word	1081863164
 7654 3d0c 4C3D7C40 		.word	1081883980
 7655 3d10 B68E7C40 		.word	1081904822
 7656 3d14 3AE07C40 		.word	1081925690
 7657 3d18 D8317D40 		.word	1081946584
 7658 3d1c 90837D40 		.word	1081967504
 7659 3d20 62D57D40 		.word	1081988450
 7660 3d24 4F277E40 		.word	1082009423
 7661 3d28 56797E40 		.word	1082030422
 7662 3d2c 77CB7E40 		.word	1082051447
 7663 3d30 B21D7F40 		.word	1082072498
 7664 3d34 08707F40 		.word	1082093576
 7665 3d38 78C27F40 		.word	1082114680
 7666 3d3c 810A8040 		.word	1082133121
 7667 3d40 D4338040 		.word	1082143700
 7668 3d44 335D8040 		.word	1082154291
 7669 3d48 A0868040 		.word	1082164896
 7670 3d4c 1BB08040 		.word	1082175515
 7671 3d50 A2D98040 		.word	1082186146
ARM GAS  /var/folders/80/65lm4rm97rv_n74c85vt01040000gn/T//ccuR6fPR.s 			page 161


 7672 3d54 37038140 		.word	1082196791
 7673 3d58 D92C8140 		.word	1082207449
 7674 3d5c 88568140 		.word	1082218120
 7675 3d60 45808140 		.word	1082228805
 7676 3d64 0FAA8140 		.word	1082239503
 7677 3d68 E7D38140 		.word	1082250215
 7678 3d6c CCFD8140 		.word	1082260940
 7679 3d70 BE278240 		.word	1082271678
 7680 3d74 BE518240 		.word	1082282430
 7681 3d78 CB7B8240 		.word	1082293195
 7682 3d7c E6A58240 		.word	1082303974
 7683 3d80 0ED08240 		.word	1082314766
 7684 3d84 44FA8240 		.word	1082325572
 7685 3d88 87248340 		.word	1082336391
 7686 3d8c D84E8340 		.word	1082347224
 7687 3d90 37798340 		.word	1082358071
 7688 3d94 A3A38340 		.word	1082368931
 7689 3d98 1CCE8340 		.word	1082379804
 7690 3d9c A3F88340 		.word	1082390691
 7691 3da0 38238440 		.word	1082401592
 7692 3da4 DA4D8440 		.word	1082412506
 7693 3da8 8A788440 		.word	1082423434
 7694 3dac 48A38440 		.word	1082434376
 7695 3db0 14CE8440 		.word	1082445332
 7696 3db4 EDF88440 		.word	1082456301
 7697 3db8 D3238540 		.word	1082467283
 7698 3dbc C84E8540 		.word	1082478280
 7699 3dc0 CA798540 		.word	1082489290
 7700 3dc4 DBA48540 		.word	1082500315
 7701 3dc8 F8CF8540 		.word	1082511352
 7702 3dcc 24FB8540 		.word	1082522404
 7703 3dd0 5E268640 		.word	1082533470
 7704 3dd4 A5518640 		.word	1082544549
 7705 3dd8 FA7C8640 		.word	1082555642
 7706 3ddc 5EA88640 		.word	1082566750
 7707 3de0 CFD38640 		.word	1082577871
 7708 3de4 4EFF8640 		.word	1082589006
 7709 3de8 DA2A8740 		.word	1082600154
 7710 3dec 75568740 		.word	1082611317
 7711 3df0 1E828740 		.word	1082622494
 7712 3df4 D5AD8740 		.word	1082633685
 7713 3df8 9AD98740 		.word	1082644890
 7714 3dfc 6D058840 		.word	1082656109
 7715 3e00 4D318840 		.word	1082667341
 7716 3e04 3C5D8840 		.word	1082678588
 7717 3e08 39898840 		.word	1082689849
 7718 3e0c 44B58840 		.word	1082701124
 7719 3e10 5EE18840 		.word	1082712414
 7720 3e14 850D8940 		.word	1082723717
 7721 3e18 BA398940 		.word	1082735034
 7722 3e1c FE658940 		.word	1082746366
 7723 3e20 50928940 		.word	1082757712
 7724 3e24 B0BE8940 		.word	1082769072
 7725 3e28 1EEB8940 		.word	1082780446
 7726 3e2c 9A178A40 		.word	1082791834
 7727 3e30 25448A40 		.word	1082803237
 7728 3e34 BE708A40 		.word	1082814654
ARM GAS  /var/folders/80/65lm4rm97rv_n74c85vt01040000gn/T//ccuR6fPR.s 			page 162


 7729 3e38 659D8A40 		.word	1082826085
 7730 3e3c 1BCA8A40 		.word	1082837531
 7731 3e40 DFF68A40 		.word	1082848991
 7732 3e44 B1238B40 		.word	1082860465
 7733 3e48 91508B40 		.word	1082871953
 7734 3e4c 807D8B40 		.word	1082883456
 7735 3e50 7EAA8B40 		.word	1082894974
 7736 3e54 89D78B40 		.word	1082906505
 7737 3e58 A4048C40 		.word	1082918052
 7738 3e5c CC318C40 		.word	1082929612
 7739 3e60 035F8C40 		.word	1082941187
 7740 3e64 498C8C40 		.word	1082952777
 7741 3e68 9DB98C40 		.word	1082964381
 7742 3e6c FFE68C40 		.word	1082975999
 7743 3e70 71148D40 		.word	1082987633
 7744 3e74 F0418D40 		.word	1082999280
 7745 3e78 7E6F8D40 		.word	1083010942
 7746 3e7c 1B9D8D40 		.word	1083022619
 7747 3e80 C7CA8D40 		.word	1083034311
 7748 3e84 81F88D40 		.word	1083046017
 7749 3e88 4A268E40 		.word	1083057738
 7750 3e8c 21548E40 		.word	1083069473
 7751 3e90 07828E40 		.word	1083081223
 7752 3e94 FCAF8E40 		.word	1083092988
 7753 3e98 FFDD8E40 		.word	1083104767
 7754 3e9c 120C8F40 		.word	1083116562
 7755 3ea0 333A8F40 		.word	1083128371
 7756 3ea4 62688F40 		.word	1083140194
 7757 3ea8 A1968F40 		.word	1083152033
 7758 3eac EEC48F40 		.word	1083163886
 7759 3eb0 4BF38F40 		.word	1083175755
 7760 3eb4 B6219040 		.word	1083187638
 7761 3eb8 30509040 		.word	1083199536
 7762 3ebc B87E9040 		.word	1083211448
 7763 3ec0 50AD9040 		.word	1083223376
 7764 3ec4 F7DB9040 		.word	1083235319
 7765 3ec8 AC0A9140 		.word	1083247276
 7766 3ecc 71399140 		.word	1083259249
 7767 3ed0 45689140 		.word	1083271237
 7768 3ed4 27979140 		.word	1083283239
 7769 3ed8 19C69140 		.word	1083295257
 7770 3edc 19F59140 		.word	1083307289
 7771 3ee0 29249240 		.word	1083319337
 7772 3ee4 48539240 		.word	1083331400
 7773 3ee8 75829240 		.word	1083343477
 7774 3eec B2B19240 		.word	1083355570
 7775 3ef0 FEE09240 		.word	1083367678
 7776 3ef4 5A109340 		.word	1083379802
 7777 3ef8 C43F9340 		.word	1083391940
 7778 3efc 3E6F9340 		.word	1083404094
 7779 3f00 C69E9340 		.word	1083416262
 7780 3f04 5ECE9340 		.word	1083428446
 7781 3f08 06FE9340 		.word	1083440646
 7782 3f0c BC2D9440 		.word	1083452860
 7783 3f10 825D9440 		.word	1083465090
 7784 3f14 578D9440 		.word	1083477335
 7785 3f18 3CBD9440 		.word	1083489596
ARM GAS  /var/folders/80/65lm4rm97rv_n74c85vt01040000gn/T//ccuR6fPR.s 			page 163


 7786 3f1c 2FED9440 		.word	1083501871
 7787 3f20 321D9540 		.word	1083514162
 7788 3f24 454D9540 		.word	1083526469
 7789 3f28 677D9540 		.word	1083538791
 7790 3f2c 98AD9540 		.word	1083551128
 7791 3f30 D9DD9540 		.word	1083563481
 7792 3f34 290E9640 		.word	1083575849
 7793 3f38 893E9640 		.word	1083588233
 7794 3f3c F86E9640 		.word	1083600632
 7795 3f40 779F9640 		.word	1083613047
 7796 3f44 05D09640 		.word	1083625477
 7797 3f48 A3009740 		.word	1083637923
 7798 3f4c 50319740 		.word	1083650384
 7799 3f50 0D629740 		.word	1083662861
 7800 3f54 DA929740 		.word	1083675354
 7801 3f58 B6C39740 		.word	1083687862
 7802 3f5c A2F49740 		.word	1083700386
 7803 3f60 9D259840 		.word	1083712925
 7804 3f64 A8569840 		.word	1083725480
 7805 3f68 C3879840 		.word	1083738051
 7806 3f6c EEB89840 		.word	1083750638
 7807 3f70 28EA9840 		.word	1083763240
 7808 3f74 731B9940 		.word	1083775859
 7809 3f78 CD4C9940 		.word	1083788493
 7810 3f7c 367E9940 		.word	1083801142
 7811 3f80 B0AF9940 		.word	1083813808
 7812 3f84 39E19940 		.word	1083826489
 7813 3f88 D3129A40 		.word	1083839187
 7814 3f8c 7C449A40 		.word	1083851900
 7815 3f90 35769A40 		.word	1083864629
 7816 3f94 FEA79A40 		.word	1083877374
 7817 3f98 D7D99A40 		.word	1083890135
 7818 3f9c C00B9B40 		.word	1083902912
 7819 3fa0 B93D9B40 		.word	1083915705
 7820 3fa4 C26F9B40 		.word	1083928514
 7821 3fa8 DBA19B40 		.word	1083941339
 7822 3fac 04D49B40 		.word	1083954180
 7823 3fb0 3D069C40 		.word	1083967037
 7824 3fb4 86389C40 		.word	1083979910
 7825 3fb8 DF6A9C40 		.word	1083992799
 7826 3fbc 499D9C40 		.word	1084005705
 7827 3fc0 C2CF9C40 		.word	1084018626
 7828 3fc4 4C029D40 		.word	1084031564
 7829 3fc8 E6349D40 		.word	1084044518
 7830 3fcc 90679D40 		.word	1084057488
 7831 3fd0 4A9A9D40 		.word	1084070474
 7832 3fd4 15CD9D40 		.word	1084083477
 7833 3fd8 F0FF9D40 		.word	1084096496
 7834 3fdc DB329E40 		.word	1084109531
 7835 3fe0 D7659E40 		.word	1084122583
 7836 3fe4 E2989E40 		.word	1084135650
 7837 3fe8 FFCB9E40 		.word	1084148735
 7838 3fec 2BFF9E40 		.word	1084161835
 7839 3ff0 68329F40 		.word	1084174952
 7840 3ff4 B5659F40 		.word	1084188085
 7841 3ff8 13999F40 		.word	1084201235
 7842 3ffc 81CC9F40 		.word	1084214401
ARM GAS  /var/folders/80/65lm4rm97rv_n74c85vt01040000gn/T//ccuR6fPR.s 			page 164


 7843 4000 0000A040 		.word	1084227584
 7844              		.section	.rodata.envelopetime,"a"
 7845              		.align	2
 7846              		.set	.LANCHOR3,. + 0
 7849              	envelopetime:
 7850 0000 5555553E 		.word	1045779797
 7851 0004 6A3A083E 		.word	1040726634
 7852 0008 FBA1C63D 		.word	1036427771
 7853 000c 4E599B3D 		.word	1033591118
 7854 0010 7ED27D3D 		.word	1031656062
 7855 0014 C29C553D 		.word	1029020866
 7856 0018 70B0373D 		.word	1027059824
 7857 001c A38F203D 		.word	1025544099
 7858 0020 E5270E3D 		.word	1024337893
 7859 0024 1155FE3C 		.word	1023300881
 7860 0028 EC73E53C 		.word	1021670380
 7861 002c 407BD03C 		.word	1020296000
 7862 0030 2492BE3C 		.word	1019122212
 7863 0034 271AAF3C 		.word	1018108455
 7864 0038 DE9CA13C 		.word	1017224414
 7865 003c FCBF953C 		.word	1016446972
 7866 0040 773D8B3C 		.word	1015758199
 7867 0044 22DE813C 		.word	1015143970
 7868 0048 E0EB723C 		.word	1014164448
 7869 004c 91C2633C 		.word	1013170833
 7870 0050 3106563C 		.word	1012270641
 7871 0054 C986493C 		.word	1011451593
 7872 0058 6D1C3E3C 		.word	1010703469
 7873 005c 9FA5333C 		.word	1010017695
 7874 0060 0F062A3C 		.word	1009387023
 7875 0064 A825213C 		.word	1008805288
 7876 0068 C7EF183C 		.word	1008267207
 7877 006c A852113C 		.word	1007768232
 7878 0070 E73E0A3C 		.word	1007304423
 7879 0074 20A7033C 		.word	1006872352
 7880 0078 3BFFFA3B 		.word	1006305083
 7881 007c 2A7CEF3B 		.word	1005550634
 7882 0080 EBB2E43B 		.word	1004843755
 7883 0084 6F93DA3B 		.word	1004180335
 7884 0088 700FD13B 		.word	1003556720
 7885 008c 381AC83B 		.word	1002969656
 7886 0090 64A8BF3B 		.word	1002416228
 7887 0094 C1AFB73B 		.word	1001893825
 7888 0098 2027B03B 		.word	1001400096
 7889 009c 3906A93B 		.word	1000932921
 7890 00a0 8C45A23B 		.word	1000490380
 7891 00a4 4FDE9B3B 		.word	1000070735
 7892 00a8 55CA953B 		.word	999672405
 7893 00ac FF03903B 		.word	999293951
 7894 00b0 28868A3B 		.word	998934056
 7895 00b4 1F4C853B 		.word	998591519
 7896 00b8 9651803B 		.word	998265238
 7897 00bc 3225773B 		.word	997664050
 7898 00c0 09176E3B 		.word	997070601
 7899 00c4 FE71653B 		.word	996504062
 7900 00c8 E02F5D3B 		.word	995962848
 7901 00cc F94A553B 		.word	995445497
ARM GAS  /var/folders/80/65lm4rm97rv_n74c85vt01040000gn/T//ccuR6fPR.s 			page 165


 7902 00d0 FDBD4D3B 		.word	994950653
 7903 00d4 0284463B 		.word	994477058
 7904 00d8 79983F3B 		.word	994023545
 7905 00dc 26F7383B 		.word	993589030
 7906 00e0 169C323B 		.word	993172502
 7907 00e4 9B832C3B 		.word	992773019
 7908 00e8 47AA263B 		.word	992389703
 7909 00ec E30C213B 		.word	992021731
 7910 00f0 6FA81B3B 		.word	991668335
 7911 00f4 1D7A163B 		.word	991328797
 7912 00f8 487F113B 		.word	991002440
 7913 00fc 78B50C3B 		.word	990688632
 7914 0100 5B1A083B 		.word	990386779
 7915 0104 C0AB033B 		.word	990096320
 7916 0108 33CFFE3A 		.word	989777715
 7917 010c F097F63A 		.word	989239280
 7918 0110 0EAEEE3A 		.word	988720654
 7919 0114 1B0EE73A 		.word	988220955
 7920 0118 D7B4DF3A 		.word	987739351
 7921 011c 2D9FD83A 		.word	987275053
 7922 0120 35CAD13A 		.word	986827317
 7923 0124 2C33CB3A 		.word	986395436
 7924 0128 77D7C43A 		.word	985978743
 7925 012c 9CB4BE3A 		.word	985576604
 7926 0130 43C8B83A 		.word	985188419
 7927 0134 3110B33A 		.word	984813617
 7928 0138 488AAD3A 		.word	984451656
 7929 013c 8634A83A 		.word	984102022
 7930 0140 000DA33A 		.word	983764224
 7931 0144 E5119E3A 		.word	983437797
 7932 0148 7841993A 		.word	983122296
 7933 014c 139A943A 		.word	982817299
 7934 0150 231A903A 		.word	982522403
 7935 0154 28C08B3A 		.word	982237224
 7936 0158 B38A873A 		.word	981961395
 7937 015c 6578833A 		.word	981694565
 7938 0160 E00F7F3A 		.word	981405664
 7939 0164 2A70773A 		.word	980906026
 7940 0168 440F703A 		.word	980422468
 7941 016c E5EA683A 		.word	979954405
 7942 0170 DE00623A 		.word	979501278
 7943 0174 174F5B3A 		.word	979062551
 7944 0178 91D3543A 		.word	978637713
 7945 017c 5E8C4E3A 		.word	978226270
 7946 0180 A877483A 		.word	977827752
 7947 0184 AC93423A 		.word	977441708
 7948 0188 B8DE3C3A 		.word	977067704
 7949 018c 2D57373A 		.word	976705325
 7950 0190 7CFB313A 		.word	976354172
 7951 0194 25CA2C3A 		.word	976013861
 7952 0198 B9C1273A 		.word	975684025
 7953 019c D5E0223A 		.word	975364309
 7954 01a0 26261E3A 		.word	975054374
 7955 01a4 6590193A 		.word	974753893
 7956 01a8 581E153A 		.word	974462552
 7957 01ac D1CE103A 		.word	974180049
 7958 01b0 ABA00C3A 		.word	973906091
ARM GAS  /var/folders/80/65lm4rm97rv_n74c85vt01040000gn/T//ccuR6fPR.s 			page 166


 7959 01b4 D092083A 		.word	973640400
 7960 01b8 32A4043A 		.word	973382706
 7961 01bc CCD3003A 		.word	973132748
 7962 01c0 4941FA39 		.word	972702025
 7963 01c4 9613F339 		.word	972231574
 7964 01c8 AC1CEC39 		.word	971775148
 7965 01cc CC5AE539 		.word	971332300
 7966 01d0 46CCDE39 		.word	970902598
 7967 01d4 796FD839 		.word	970485625
 7968 01d8 D242D239 		.word	970080978
 7969 01dc CF44CC39 		.word	969688271
 7970 01e0 F873C639 		.word	969307128
 7971 01e4 E4CEC039 		.word	968937188
 7972 01e8 3654BB39 		.word	968578102
 7973 01ec 9E02B639 		.word	968229534
 7974 01f0 D5D8B039 		.word	967891157
 7975 01f4 A1D5AB39 		.word	967562657
 7976 01f8 D2F7A639 		.word	967243730
 7977 01fc 433EA239 		.word	966934083
 7978 0200 D8A79D39 		.word	966633432
 7979 0204 7E339939 		.word	966341502
 7980 0208 2DE09439 		.word	966058029
 7981 020c E3AC9039 		.word	965782755
 7982 0210 A9988C39 		.word	965515433
 7983 0214 8FA28839 		.word	965255823
 7984 0218 ACC98439 		.word	965003692
 7985 021c 200D8139 		.word	964758816
 7986 0220 23D87A39 		.word	964352035
 7987 0224 5DCB7339 		.word	963890013
 7988 0228 55F26C39 		.word	963441237
 7989 022c 824B6639 		.word	963005314
 7990 0230 66D55F39 		.word	962581862
 7991 0234 8E8E5939 		.word	962170510
 7992 0238 96755339 		.word	961770902
 7993 023c 23894D39 		.word	961382691
 7994 0240 E4C74739 		.word	961005540
 7995 0244 94304239 		.word	960639124
 7996 0248 F8C13C39 		.word	960283128
 7997 024c DF7A3739 		.word	959937247
 7998 0250 205A3239 		.word	959601184
 7999 0254 9D5E2D39 		.word	959274653
 8000 0258 40872839 		.word	958957376
 8001 025c FBD22339 		.word	958649083
 8002 0260 C9401F39 		.word	958349513
 8003 0264 ACCF1A39 		.word	958058412
 8004 0268 B07E1639 		.word	957775536
 8005 026c E54C1239 		.word	957500645
 8006 0270 66390E39 		.word	957233510
 8007 0274 52430A39 		.word	956973906
 8008 0278 D0690639 		.word	956721616
 8009 027c 0DAC0239 		.word	956476429
 8010 0280 7B12FE38 		.word	956174971
 8011 0284 3601F738 		.word	955711798
 8012 0288 C922F038 		.word	955261641
 8013 028c C175E938 		.word	954824129
 8014 0290 B2F8E238 		.word	954398898
 8015 0294 3EAADC38 		.word	953985598
ARM GAS  /var/folders/80/65lm4rm97rv_n74c85vt01040000gn/T//ccuR6fPR.s 			page 167


 8016 0298 1089D638 		.word	953583888
 8017 029c DC93D038 		.word	953193436
 8018 02a0 63C9CA38 		.word	952813923
 8019 02a4 6B28C538 		.word	952445035
 8020 02a8 C8AFBF38 		.word	952086472
 8021 02ac 535EBA38 		.word	951737939
 8022 02b0 EF32B538 		.word	951399151
 8023 02b4 882CB038 		.word	951069832
 8024 02b8 114AAB38 		.word	950749713
 8025 02bc 868AA638 		.word	950438534
 8026 02c0 E9ECA138 		.word	950136041
 8027 02c4 44709D38 		.word	949841988
 8028 02c8 AA139938 		.word	949556138
 8029 02cc 31D69438 		.word	949278257
 8030 02d0 FAB69038 		.word	949008122
 8031 02d4 2AB58C38 		.word	948745514
 8032 02d8 ECCF8838 		.word	948490220
 8033 02dc 72068538 		.word	948242034
 8034 02e0 F5578138 		.word	948000757
 8035 02e4 63877B38 		.word	947619683
 8036 02e8 D6917438 		.word	947163606
 8037 02ec D5CD6D38 		.word	946720213
 8038 02f0 FB396738 		.word	946289147
 8039 02f4 EED46038 		.word	945870062
 8040 02f8 5E9D5A38 		.word	945462622
 8041 02fc 05925438 		.word	945066501
 8042 0300 A4B14E38 		.word	944681380
 8043 0304 08FB4838 		.word	944306952
 8044 0308 066D4338 		.word	943942918
 8045 030c 7A063E38 		.word	943588986
 8046 0310 4BC63838 		.word	943244875
 8047 0314 65AB3338 		.word	942910309
 8048 0318 BDB42E38 		.word	942585021
 8049 031c 51E12938 		.word	942268753
 8050 0320 24302538 		.word	941961252
 8051 0324 42A02038 		.word	941662274
 8052 0328 BD301C38 		.word	941371581
 8053 032c ADE01738 		.word	941088941
 8054 0330 33AF1338 		.word	940814131
 8055 0334 749B0F38 		.word	940546932
 8056 0338 9CA40B38 		.word	940287132
 8057 033c DCC90738 		.word	940034524
 8058 0340 6D0A0438 		.word	939788909
 8059 0344 8C650038 		.word	939550092
 8060 0348 F8B4F937 		.word	939111672
 8061 034c 09D1F237 		.word	938660105
 8062 0350 E71DEC37 		.word	938221031
 8063 0354 359AE537 		.word	937794101
 8064 0358 A344DF37 		.word	937378979
 8065 035c E91BD937 		.word	936975337
 8066 0360 C61ED337 		.word	936582854
 8067 0364 064CCD37 		.word	936201222
 8068 0368 7CA2C737 		.word	935830140
 8069 036c 0221C237 		.word	935469314
 8070 0370 7BC6BC37 		.word	935118459
 8071 0374 D391B737 		.word	934777299
 8072 0378 FE81B237 		.word	934445566
ARM GAS  /var/folders/80/65lm4rm97rv_n74c85vt01040000gn/T//ccuR6fPR.s 			page 168


 8073 037c F595AD37 		.word	934122997
 8074 0380 BACCA837 		.word	933809338
 8075 0384 5825A437 		.word	933504344
 8076 0388 DC9E9F37 		.word	933207772
 8077 038c 5E389B37 		.word	932919390
 8078 0390 FCF09637 		.word	932638972
 8079 0394 D8C79237 		.word	932366296
 8080 0398 1BBC8E37 		.word	932101147
 8081 039c F7CC8A37 		.word	931843319
 8082 03a0 9FF98637 		.word	931592607
 8083 03a4 4F418337 		.word	931348815
 8084 03a8 8E467F37 		.word	931088014
 8085 03ac 9B3D7837 		.word	930626971
 8086 03b0 5A667137 		.word	930178650
 8087 03b4 6CBF6A37 		.word	929742700
 8088 03b8 79476437 		.word	929318777
 8089 03bc 36FD5D37 		.word	928906550
 8090 03c0 5FDF5737 		.word	928505695
 8091 03c4 B9EC5137 		.word	928115897
 8092 03c8 13244C37 		.word	927736851
 8093 03cc 44844637 		.word	927368260
 8094 03d0 2A0C4137 		.word	927009834
 8095 03d4 AEBA3B37 		.word	926661294
 8096 03d8 BC8E3637 		.word	926322364
 8097 03dc 4D873137 		.word	925992781
 8098 03e0 5DA32C37 		.word	925672285
 8099 03e4 F3E12737 		.word	925360627
 8100 03e8 18422337 		.word	925057560
 8101 03ec E1C21E37 		.word	924762849
 8102 03f0 67631A37 		.word	924476263
 8103 03f4 C9221637 		.word	924197577
 8104 03f8 2D001237 		.word	923926573
 8105 03fc BFFA0D37 		.word	923663039
 8106              		.section	.rodata.sinelut,"a"
 8107              		.align	2
 8110              	sinelut:
 8111 0000 00000000 		.word	0
 8112 0004 C60F493B 		.word	994643910
 8113 0008 880FC93B 		.word	1003032456
 8114 000c 58CB163C 		.word	1008126808
 8115 0010 900E493C 		.word	1011420816
 8116 0014 4B517B3C 		.word	1014714699
 8117 0018 B6C9963C 		.word	1016514998
 8118 001c 69EAAF3C 		.word	1018161769
 8119 0020 B00AC93C 		.word	1019808432
 8120 0024 7A2AE23C 		.word	1021454970
 8121 0028 BA49FB3C 		.word	1023101370
 8122 002c 2F340A3D 		.word	1024078895
 8123 0030 2CC3163D 		.word	1024901932
 8124 0034 CB51233D 		.word	1025724875
 8125 0038 07E02F3D 		.word	1026547719
 8126 003c D56D3C3D 		.word	1027370453
 8127 0040 30FB483D 		.word	1028193072
 8128 0044 0E88553D 		.word	1029015566
 8129 0048 6914623D 		.word	1029837929
 8130 004c 38A06E3D 		.word	1030660152
 8131 0050 742B7B3D 		.word	1031482228
ARM GAS  /var/folders/80/65lm4rm97rv_n74c85vt01040000gn/T//ccuR6fPR.s 			page 169


 8132 0054 0ADB833D 		.word	1032051466
 8133 0058 0A208A3D 		.word	1032462346
 8134 005c B464903D 		.word	1032873140
 8135 0060 05A9963D 		.word	1033283845
 8136 0064 F9EC9C3D 		.word	1033694457
 8137 0068 8C30A33D 		.word	1034104972
 8138 006c BA73A93D 		.word	1034515386
 8139 0070 80B6AF3D 		.word	1034925696
 8140 0074 DAF8B53D 		.word	1035335898
 8141 0078 C33ABC3D 		.word	1035745987
 8142 007c 397CC23D 		.word	1036155961
 8143 0080 36BDC83D 		.word	1036565814
 8144 0084 B7FDCE3D 		.word	1036975543
 8145 0088 B93DD53D 		.word	1037385145
 8146 008c 377DDB3D 		.word	1037794615
 8147 0090 2EBCE13D 		.word	1038203950
 8148 0094 9AFAE73D 		.word	1038613146
 8149 0098 7638EE3D 		.word	1039022198
 8150 009c C075F43D 		.word	1039431104
 8151 00a0 73B2FA3D 		.word	1039839859
 8152 00a4 4577003E 		.word	1040217925
 8153 00a8 0295033E 		.word	1040422146
 8154 00ac 6EB2063E 		.word	1040626286
 8155 00b0 86CF093E 		.word	1040830342
 8156 00b4 4AEC0C3E 		.word	1041034314
 8157 00b8 B708103E 		.word	1041238199
 8158 00bc CA24133E 		.word	1041441994
 8159 00c0 8340163E 		.word	1041645699
 8160 00c4 E05B193E 		.word	1041849312
 8161 00c8 DE761C3E 		.word	1042052830
 8162 00cc 7B911F3E 		.word	1042256251
 8163 00d0 B6AB223E 		.word	1042459574
 8164 00d4 8CC5253E 		.word	1042662796
 8165 00d8 FCDE283E 		.word	1042865916
 8166 00dc 04F82B3E 		.word	1043068932
 8167 00e0 A2102F3E 		.word	1043271842
 8168 00e4 D428323E 		.word	1043474644
 8169 00e8 9840353E 		.word	1043677336
 8170 00ec EC57383E 		.word	1043879916
 8171 00f0 CF6E3B3E 		.word	1044082383
 8172 00f4 3E853E3E 		.word	1044284734
 8173 00f8 379B413E 		.word	1044486967
 8174 00fc B9B0443E 		.word	1044689081
 8175 0100 C2C5473E 		.word	1044891074
 8176 0104 4FDA4A3E 		.word	1045092943
 8177 0108 60EE4D3E 		.word	1045294688
 8178 010c F101513E 		.word	1045496305
 8179 0110 0115543E 		.word	1045697793
 8180 0114 8F27573E 		.word	1045899151
 8181 0118 97395A3E 		.word	1046100375
 8182 011c 1A4B5D3E 		.word	1046301466
 8183 0120 135C603E 		.word	1046502419
 8184 0124 836C633E 		.word	1046703235
 8185 0128 667C663E 		.word	1046903910
 8186 012c BA8B693E 		.word	1047104442
 8187 0130 7F9A6C3E 		.word	1047304831
 8188 0134 B2A86F3E 		.word	1047505074
ARM GAS  /var/folders/80/65lm4rm97rv_n74c85vt01040000gn/T//ccuR6fPR.s 			page 170


 8189 0138 51B6723E 		.word	1047705169
 8190 013c 5AC3753E 		.word	1047905114
 8191 0140 CCCF783E 		.word	1048104908
 8192 0144 A4DB7B3E 		.word	1048304548
 8193 0148 E1E67E3E 		.word	1048504033
 8194 014c C0F8803E 		.word	1048639680
 8195 0150 C07D823E 		.word	1048739264
 8196 0154 7002843E 		.word	1048838768
 8197 0158 CE86853E 		.word	1048938190
 8198 015c DA0A873E 		.word	1049037530
 8199 0160 938E883E 		.word	1049136787
 8200 0164 F7118A3E 		.word	1049235959
 8201 0168 07958B3E 		.word	1049335047
 8202 016c C0178D3E 		.word	1049434048
 8203 0170 229A8E3E 		.word	1049532962
 8204 0174 2C1C903E 		.word	1049631788
 8205 0178 DD9D913E 		.word	1049730525
 8206 017c 351F933E 		.word	1049829173
 8207 0180 31A0943E 		.word	1049927729
 8208 0184 D220963E 		.word	1050026194
 8209 0188 17A1973E 		.word	1050124567
 8210 018c FE20993E 		.word	1050222846
 8211 0190 86A09A3E 		.word	1050321030
 8212 0194 AF1F9C3E 		.word	1050419119
 8213 0198 789E9D3E 		.word	1050517112
 8214 019c DF1C9F3E 		.word	1050615007
 8215 01a0 E59AA03E 		.word	1050712805
 8216 01a4 8718A23E 		.word	1050810503
 8217 01a8 C595A33E 		.word	1050908101
 8218 01ac 9F12A53E 		.word	1051005599
 8219 01b0 128FA63E 		.word	1051102994
 8220 01b4 1F0BA83E 		.word	1051200287
 8221 01b8 C486A93E 		.word	1051297476
 8222 01bc 0102AB3E 		.word	1051394561
 8223 01c0 D47CAC3E 		.word	1051491540
 8224 01c4 3CF7AD3E 		.word	1051588412
 8225 01c8 3A71AF3E 		.word	1051685178
 8226 01cc CBEAB03E 		.word	1051781835
 8227 01d0 EF63B23E 		.word	1051878383
 8228 01d4 A5DCB33E 		.word	1051974821
 8229 01d8 EC54B53E 		.word	1052071148
 8230 01dc C3CCB63E 		.word	1052167363
 8231 01e0 2A44B83E 		.word	1052263466
 8232 01e4 1EBBB93E 		.word	1052359454
 8233 01e8 A031BB3E 		.word	1052455328
 8234 01ec AFA7BC3E 		.word	1052551087
 8235 01f0 4A1DBE3E 		.word	1052646730
 8236 01f4 6F92BF3E 		.word	1052742255
 8237 01f8 1E07C13E 		.word	1052837662
 8238 01fc 557BC23E 		.word	1052932949
 8239 0200 15EFC33E 		.word	1053028117
 8240 0204 5C62C53E 		.word	1053123164
 8241 0208 29D5C63E 		.word	1053218089
 8242 020c 7C47C83E 		.word	1053312892
 8243 0210 53B9C93E 		.word	1053407571
 8244 0214 AE2ACB3E 		.word	1053502126
 8245 0218 8B9BCC3E 		.word	1053596555
ARM GAS  /var/folders/80/65lm4rm97rv_n74c85vt01040000gn/T//ccuR6fPR.s 			page 171


 8246 021c EA0BCE3E 		.word	1053690858
 8247 0220 CA7BCF3E 		.word	1053785034
 8248 0224 2AEBD03E 		.word	1053879082
 8249 0228 095AD23E 		.word	1053973001
 8250 022c 67C8D33E 		.word	1054066791
 8251 0230 4136D53E 		.word	1054160449
 8252 0234 99A3D63E 		.word	1054253977
 8253 0238 6B10D83E 		.word	1054347371
 8254 023c B97CD93E 		.word	1054440633
 8255 0240 80E8DA3E 		.word	1054533760
 8256 0244 C153DC3E 		.word	1054626753
 8257 0248 79BEDD3E 		.word	1054719609
 8258 024c A928DF3E 		.word	1054812329
 8259 0250 4F92E03E 		.word	1054904911
 8260 0254 6AFBE13E 		.word	1054997354
 8261 0258 FA63E33E 		.word	1055089658
 8262 025c FECBE43E 		.word	1055181822
 8263 0260 7533E63E 		.word	1055273845
 8264 0264 5D9AE73E 		.word	1055365725
 8265 0268 B700E93E 		.word	1055457463
 8266 026c 8166EA3E 		.word	1055549057
 8267 0270 BBCBEB3E 		.word	1055640507
 8268 0274 6330ED3E 		.word	1055731811
 8269 0278 7994EE3E 		.word	1055822969
 8270 027c FBF7EF3E 		.word	1055913979
 8271 0280 EA5AF13E 		.word	1056004842
 8272 0284 43BDF23E 		.word	1056095555
 8273 0288 071FF43E 		.word	1056186119
 8274 028c 3580F53E 		.word	1056276533
 8275 0290 CBE0F63E 		.word	1056366795
 8276 0294 C840F83E 		.word	1056456904
 8277 0298 2DA0F93E 		.word	1056546861
 8278 029c F7FEFA3E 		.word	1056636663
 8279 02a0 275DFC3E 		.word	1056726311
 8280 02a4 BBBAFD3E 		.word	1056815803
 8281 02a8 B217FF3E 		.word	1056905138
 8282 02ac 063A003F 		.word	1056979462
 8283 02b0 E4E7003F 		.word	1057023972
 8284 02b4 7395013F 		.word	1057068403
 8285 02b8 B142023F 		.word	1057112753
 8286 02bc 9FEF023F 		.word	1057157023
 8287 02c0 3D9C033F 		.word	1057201213
 8288 02c4 8948043F 		.word	1057245321
 8289 02c8 84F4043F 		.word	1057289348
 8290 02cc 2CA0053F 		.word	1057333292
 8291 02d0 824B063F 		.word	1057377154
 8292 02d4 86F6063F 		.word	1057420934
 8293 02d8 36A1073F 		.word	1057464630
 8294 02dc 924B083F 		.word	1057508242
 8295 02e0 9BF5083F 		.word	1057551771
 8296 02e4 4E9F093F 		.word	1057595214
 8297 02e8 AD480A3F 		.word	1057638573
 8298 02ec B7F10A3F 		.word	1057681847
 8299 02f0 6B9A0B3F 		.word	1057725035
 8300 02f4 C9420C3F 		.word	1057768137
 8301 02f8 D0EA0C3F 		.word	1057811152
 8302 02fc 81920D3F 		.word	1057854081
ARM GAS  /var/folders/80/65lm4rm97rv_n74c85vt01040000gn/T//ccuR6fPR.s 			page 172


 8303 0300 DA390E3F 		.word	1057896922
 8304 0304 DBE00E3F 		.word	1057939675
 8305 0308 84870F3F 		.word	1057982340
 8306 030c D52D103F 		.word	1058024917
 8307 0310 CDD3103F 		.word	1058067405
 8308 0314 6B79113F 		.word	1058109803
 8309 0318 B01E123F 		.word	1058152112
 8310 031c 9AC3123F 		.word	1058194330
 8311 0320 2A68133F 		.word	1058236458
 8312 0324 5F0C143F 		.word	1058278495
 8313 0328 39B0143F 		.word	1058320441
 8314 032c B753153F 		.word	1058362295
 8315 0330 D9F6153F 		.word	1058404057
 8316 0334 9F99163F 		.word	1058445727
 8317 0338 073C173F 		.word	1058487303
 8318 033c 12DE173F 		.word	1058528786
 8319 0340 C07F183F 		.word	1058570176
 8320 0344 0F21193F 		.word	1058611471
 8321 0348 00C2193F 		.word	1058652672
 8322 034c 93621A3F 		.word	1058693779
 8323 0350 C6021B3F 		.word	1058734790
 8324 0354 99A21B3F 		.word	1058775705
 8325 0358 0C421C3F 		.word	1058816524
 8326 035c 1FE11C3F 		.word	1058857247
 8327 0360 D17F1D3F 		.word	1058897873
 8328 0364 221E1E3F 		.word	1058938402
 8329 0368 12BC1E3F 		.word	1058978834
 8330 036c 9F591F3F 		.word	1059019167
 8331 0370 CBF61F3F 		.word	1059059403
 8332 0374 9393203F 		.word	1059099539
 8333 0378 F92F213F 		.word	1059139577
 8334 037c FBCB213F 		.word	1059179515
 8335 0380 9967223F 		.word	1059219353
 8336 0384 D302233F 		.word	1059259091
 8337 0388 A99D233F 		.word	1059298729
 8338 038c 1A38243F 		.word	1059338266
 8339 0390 25D2243F 		.word	1059377701
 8340 0394 CB6B253F 		.word	1059417035
 8341 0398 0A05263F 		.word	1059456266
 8342 039c E39D263F 		.word	1059495395
 8343 03a0 5636273F 		.word	1059534422
 8344 03a4 61CE273F 		.word	1059573345
 8345 03a8 0566283F 		.word	1059612165
 8346 03ac 41FD283F 		.word	1059650881
 8347 03b0 1594293F 		.word	1059689493
 8348 03b4 802A2A3F 		.word	1059728000
 8349 03b8 82C02A3F 		.word	1059766402
 8350 03bc 1B562B3F 		.word	1059804699
 8351 03c0 4AEB2B3F 		.word	1059842890
 8352 03c4 0F802C3F 		.word	1059880975
 8353 03c8 69142D3F 		.word	1059918953
 8354 03cc 59A82D3F 		.word	1059956825
 8355 03d0 DE3B2E3F 		.word	1059994590
 8356 03d4 F7CE2E3F 		.word	1060032247
 8357 03d8 A5612F3F 		.word	1060069797
 8358 03dc E6F32F3F 		.word	1060107238
 8359 03e0 BB85303F 		.word	1060144571
ARM GAS  /var/folders/80/65lm4rm97rv_n74c85vt01040000gn/T//ccuR6fPR.s 			page 173


 8360 03e4 2217313F 		.word	1060181794
 8361 03e8 1DA8313F 		.word	1060218909
 8362 03ec AA38323F 		.word	1060255914
 8363 03f0 C9C8323F 		.word	1060292809
 8364 03f4 7A58333F 		.word	1060329594
 8365 03f8 BCE7333F 		.word	1060366268
 8366 03fc 8F76343F 		.word	1060402831
 8367 0400 F304353F 		.word	1060439283
 8368 0404 E792353F 		.word	1060475623
 8369 0408 6C20363F 		.word	1060511852
 8370 040c 7FAD363F 		.word	1060547967
 8371 0410 233A373F 		.word	1060583971
 8372 0414 55C6373F 		.word	1060619861
 8373 0418 1652383F 		.word	1060655638
 8374 041c 65DD383F 		.word	1060691301
 8375 0420 4268393F 		.word	1060726850
 8376 0424 ACF2393F 		.word	1060762284
 8377 0428 A47C3A3F 		.word	1060797604
 8378 042c 29063B3F 		.word	1060832809
 8379 0430 3B8F3B3F 		.word	1060867899
 8380 0434 D9173C3F 		.word	1060902873
 8381 0438 03A03C3F 		.word	1060937731
 8382 043c B8273D3F 		.word	1060972472
 8383 0440 F9AE3D3F 		.word	1061007097
 8384 0444 C5353E3F 		.word	1061041605
 8385 0448 1BBC3E3F 		.word	1061075995
 8386 044c FC413F3F 		.word	1061110268
 8387 0450 67C73F3F 		.word	1061144423
 8388 0454 5C4C403F 		.word	1061178460
 8389 0458 DAD0403F 		.word	1061212378
 8390 045c E154413F 		.word	1061246177
 8391 0460 70D8413F 		.word	1061279856
 8392 0464 895B423F 		.word	1061313417
 8393 0468 29DE423F 		.word	1061346857
 8394 046c 5160433F 		.word	1061380177
 8395 0470 00E2433F 		.word	1061413376
 8396 0474 3763443F 		.word	1061446455
 8397 0478 F5E3443F 		.word	1061479413
 8398 047c 3964453F 		.word	1061512249
 8399 0480 03E4453F 		.word	1061544963
 8400 0484 5463463F 		.word	1061577556
 8401 0488 2AE2463F 		.word	1061610026
 8402 048c 8560473F 		.word	1061642373
 8403 0490 65DE473F 		.word	1061674597
 8404 0494 CA5B483F 		.word	1061706698
 8405 0498 B3D8483F 		.word	1061738675
 8406 049c 2155493F 		.word	1061770529
 8407 04a0 12D1493F 		.word	1061802258
 8408 04a4 874C4A3F 		.word	1061833863
 8409 04a8 7FC74A3F 		.word	1061865343
 8410 04ac FA414B3F 		.word	1061896698
 8411 04b0 F8BB4B3F 		.word	1061927928
 8412 04b4 78354C3F 		.word	1061959032
 8413 04b8 79AE4C3F 		.word	1061990009
 8414 04bc FD264D3F 		.word	1062020861
 8415 04c0 029F4D3F 		.word	1062051586
 8416 04c4 89164E3F 		.word	1062082185
ARM GAS  /var/folders/80/65lm4rm97rv_n74c85vt01040000gn/T//ccuR6fPR.s 			page 174


 8417 04c8 908D4E3F 		.word	1062112656
 8418 04cc 17044F3F 		.word	1062142999
 8419 04d0 1F7A4F3F 		.word	1062173215
 8420 04d4 A8EF4F3F 		.word	1062203304
 8421 04d8 AF64503F 		.word	1062233263
 8422 04dc 37D9503F 		.word	1062263095
 8423 04e0 3D4D513F 		.word	1062292797
 8424 04e4 C2C0513F 		.word	1062322370
 8425 04e8 C633523F 		.word	1062351814
 8426 04ec 49A6523F 		.word	1062381129
 8427 04f0 4918533F 		.word	1062410313
 8428 04f4 C789533F 		.word	1062439367
 8429 04f8 C3FA533F 		.word	1062468291
 8430 04fc 3B6B543F 		.word	1062497083
 8431 0500 31DB543F 		.word	1062525745
 8432 0504 A44A553F 		.word	1062554276
 8433 0508 93B9553F 		.word	1062582675
 8434 050c FE27563F 		.word	1062610942
 8435 0510 E595563F 		.word	1062639077
 8436 0514 4803573F 		.word	1062667080
 8437 0518 2670573F 		.word	1062694950
 8438 051c 7FDC573F 		.word	1062722687
 8439 0520 5348583F 		.word	1062750291
 8440 0524 A1B3583F 		.word	1062777761
 8441 0528 6A1E593F 		.word	1062805098
 8442 052c AD88593F 		.word	1062832301
 8443 0530 6AF2593F 		.word	1062859370
 8444 0534 A05B5A3F 		.word	1062886304
 8445 0538 50C45A3F 		.word	1062913104
 8446 053c 792C5B3F 		.word	1062939769
 8447 0540 1A945B3F 		.word	1062966298
 8448 0544 34FB5B3F 		.word	1062992692
 8449 0548 C7615C3F 		.word	1063018951
 8450 054c D1C75C3F 		.word	1063045073
 8451 0550 532D5D3F 		.word	1063071059
 8452 0554 4D925D3F 		.word	1063096909
 8453 0558 BEF65D3F 		.word	1063122622
 8454 055c A65A5E3F 		.word	1063148198
 8455 0560 05BE5E3F 		.word	1063173637
 8456 0564 DB205F3F 		.word	1063198939
 8457 0568 27835F3F 		.word	1063224103
 8458 056c E9E45F3F 		.word	1063249129
 8459 0570 2146603F 		.word	1063274017
 8460 0574 CFA6603F 		.word	1063298767
 8461 0578 F206613F 		.word	1063323378
 8462 057c 8A66613F 		.word	1063347850
 8463 0580 98C5613F 		.word	1063372184
 8464 0584 1A24623F 		.word	1063396378
 8465 0588 1082623F 		.word	1063420432
 8466 058c 7BDF623F 		.word	1063444347
 8467 0590 5A3C633F 		.word	1063468122
 8468 0594 AC98633F 		.word	1063491756
 8469 0598 73F4633F 		.word	1063515251
 8470 059c AC4F643F 		.word	1063538604
 8471 05a0 59AA643F 		.word	1063561817
 8472 05a4 7904653F 		.word	1063584889
 8473 05a8 0B5E653F 		.word	1063607819
ARM GAS  /var/folders/80/65lm4rm97rv_n74c85vt01040000gn/T//ccuR6fPR.s 			page 175


 8474 05ac 10B7653F 		.word	1063630608
 8475 05b0 880F663F 		.word	1063653256
 8476 05b4 7167663F 		.word	1063675761
 8477 05b8 CCBE663F 		.word	1063698124
 8478 05bc 9915673F 		.word	1063720345
 8479 05c0 D86B673F 		.word	1063742424
 8480 05c4 87C1673F 		.word	1063764359
 8481 05c8 A816683F 		.word	1063786152
 8482 05cc 396B683F 		.word	1063807801
 8483 05d0 3CBF683F 		.word	1063829308
 8484 05d4 AE12693F 		.word	1063850670
 8485 05d8 9165693F 		.word	1063871889
 8486 05dc E4B7693F 		.word	1063892964
 8487 05e0 A7096A3F 		.word	1063913895
 8488 05e4 D95A6A3F 		.word	1063934681
 8489 05e8 7BAB6A3F 		.word	1063955323
 8490 05ec 8CFB6A3F 		.word	1063975820
 8491 05f0 0C4B6B3F 		.word	1063996172
 8492 05f4 FB996B3F 		.word	1064016379
 8493 05f8 58E86B3F 		.word	1064036440
 8494 05fc 24366C3F 		.word	1064056356
 8495 0600 5E836C3F 		.word	1064076126
 8496 0604 07D06C3F 		.word	1064095751
 8497 0608 1D1C6D3F 		.word	1064115229
 8498 060c A1676D3F 		.word	1064134561
 8499 0610 93B26D3F 		.word	1064153747
 8500 0614 F2FC6D3F 		.word	1064172786
 8501 0618 BE466E3F 		.word	1064191678
 8502 061c F88F6E3F 		.word	1064210424
 8503 0620 9ED86E3F 		.word	1064229022
 8504 0624 B0206F3F 		.word	1064247472
 8505 0628 30686F3F 		.word	1064265776
 8506 062c 1BAF6F3F 		.word	1064283931
 8507 0630 73F56F3F 		.word	1064301939
 8508 0634 373B703F 		.word	1064319799
 8509 0638 6680703F 		.word	1064337510
 8510 063c 01C5703F 		.word	1064355073
 8511 0640 0809713F 		.word	1064372488
 8512 0644 7A4C713F 		.word	1064389754
 8513 0648 578F713F 		.word	1064406871
 8514 064c 9FD1713F 		.word	1064423839
 8515 0650 5213723F 		.word	1064440658
 8516 0654 7054723F 		.word	1064457328
 8517 0658 F894723F 		.word	1064473848
 8518 065c EBD4723F 		.word	1064490219
 8519 0660 4714733F 		.word	1064506439
 8520 0664 0E53733F 		.word	1064522510
 8521 0668 3F91733F 		.word	1064538431
 8522 066c D9CE733F 		.word	1064554201
 8523 0670 DD0B743F 		.word	1064569821
 8524 0674 4B48743F 		.word	1064585291
 8525 0678 2284743F 		.word	1064600610
 8526 067c 62BF743F 		.word	1064615778
 8527 0680 0BFA743F 		.word	1064630795
 8528 0684 1D34753F 		.word	1064645661
 8529 0688 976D753F 		.word	1064660375
 8530 068c 7BA6753F 		.word	1064674939
ARM GAS  /var/folders/80/65lm4rm97rv_n74c85vt01040000gn/T//ccuR6fPR.s 			page 176


 8531 0690 C6DE753F 		.word	1064689350
 8532 0694 7A16763F 		.word	1064703610
 8533 0698 974D763F 		.word	1064717719
 8534 069c 1B84763F 		.word	1064731675
 8535 06a0 07BA763F 		.word	1064745479
 8536 06a4 5BEF763F 		.word	1064759131
 8537 06a8 1724773F 		.word	1064772631
 8538 06ac 3A58773F 		.word	1064785978
 8539 06b0 C58B773F 		.word	1064799173
 8540 06b4 B7BE773F 		.word	1064812215
 8541 06b8 10F1773F 		.word	1064825104
 8542 06bc D122783F 		.word	1064837841
 8543 06c0 F853783F 		.word	1064850424
 8544 06c4 8684783F 		.word	1064862854
 8545 06c8 7BB4783F 		.word	1064875131
 8546 06cc D6E3783F 		.word	1064887254
 8547 06d0 9812793F 		.word	1064899224
 8548 06d4 C040793F 		.word	1064911040
 8549 06d8 4E6E793F 		.word	1064922702
 8550 06dc 439B793F 		.word	1064934211
 8551 06e0 9DC7793F 		.word	1064945565
 8552 06e4 5EF3793F 		.word	1064956766
 8553 06e8 841E7A3F 		.word	1064967812
 8554 06ec 10497A3F 		.word	1064978704
 8555 06f0 02737A3F 		.word	1064989442
 8556 06f4 599C7A3F 		.word	1065000025
 8557 06f8 16C57A3F 		.word	1065010454
 8558 06fc 37ED7A3F 		.word	1065020727
 8559 0700 BE147B3F 		.word	1065030846
 8560 0704 AB3B7B3F 		.word	1065040811
 8561 0708 FC617B3F 		.word	1065050620
 8562 070c B2877B3F 		.word	1065060274
 8563 0710 CDAC7B3F 		.word	1065069773
 8564 0714 4DD17B3F 		.word	1065079117
 8565 0718 31F57B3F 		.word	1065088305
 8566 071c 7A187C3F 		.word	1065097338
 8567 0720 283B7C3F 		.word	1065106216
 8568 0724 3A5D7C3F 		.word	1065114938
 8569 0728 B07E7C3F 		.word	1065123504
 8570 072c 8A9F7C3F 		.word	1065131914
 8571 0730 C9BF7C3F 		.word	1065140169
 8572 0734 6CDF7C3F 		.word	1065148268
 8573 0738 73FE7C3F 		.word	1065156211
 8574 073c DD1C7D3F 		.word	1065163997
 8575 0740 AC3A7D3F 		.word	1065171628
 8576 0744 DE577D3F 		.word	1065179102
 8577 0748 74747D3F 		.word	1065186420
 8578 074c 6E907D3F 		.word	1065193582
 8579 0750 CCAB7D3F 		.word	1065200588
 8580 0754 8CC67D3F 		.word	1065207436
 8581 0758 B1E07D3F 		.word	1065214129
 8582 075c 38FA7D3F 		.word	1065220664
 8583 0760 24137E3F 		.word	1065227044
 8584 0764 722B7E3F 		.word	1065233266
 8585 0768 23437E3F 		.word	1065239331
 8586 076c 385A7E3F 		.word	1065245240
 8587 0770 B0707E3F 		.word	1065250992
ARM GAS  /var/folders/80/65lm4rm97rv_n74c85vt01040000gn/T//ccuR6fPR.s 			page 177


 8588 0774 8B867E3F 		.word	1065256587
 8589 0778 C99B7E3F 		.word	1065262025
 8590 077c 69B07E3F 		.word	1065267305
 8591 0780 6DC47E3F 		.word	1065272429
 8592 0784 D4D77E3F 		.word	1065277396
 8593 0788 9DEA7E3F 		.word	1065282205
 8594 078c C9FC7E3F 		.word	1065286857
 8595 0790 580E7F3F 		.word	1065291352
 8596 0794 491F7F3F 		.word	1065295689
 8597 0798 9D2F7F3F 		.word	1065299869
 8598 079c 543F7F3F 		.word	1065303892
 8599 07a0 6D4E7F3F 		.word	1065307757
 8600 07a4 E95C7F3F 		.word	1065311465
 8601 07a8 C76A7F3F 		.word	1065315015
 8602 07ac 08787F3F 		.word	1065318408
 8603 07b0 AB847F3F 		.word	1065321643
 8604 07b4 B1907F3F 		.word	1065324721
 8605 07b8 189C7F3F 		.word	1065327640
 8606 07bc E3A67F3F 		.word	1065330403
 8607 07c0 0FB17F3F 		.word	1065333007
 8608 07c4 9EBA7F3F 		.word	1065335454
 8609 07c8 8FC37F3F 		.word	1065337743
 8610 07cc E2CB7F3F 		.word	1065339874
 8611 07d0 97D37F3F 		.word	1065341847
 8612 07d4 AFDA7F3F 		.word	1065343663
 8613 07d8 29E17F3F 		.word	1065345321
 8614 07dc 05E77F3F 		.word	1065346821
 8615 07e0 43EC7F3F 		.word	1065348163
 8616 07e4 E3F07F3F 		.word	1065349347
 8617 07e8 E6F47F3F 		.word	1065350374
 8618 07ec 4AF87F3F 		.word	1065351242
 8619 07f0 11FB7F3F 		.word	1065351953
 8620 07f4 39FD7F3F 		.word	1065352505
 8621 07f8 C4FE7F3F 		.word	1065352900
 8622 07fc B1FF7F3F 		.word	1065353137
 8623 0800 0000803F 		.word	1065353216
 8624 0804 B1FF7F3F 		.word	1065353137
 8625 0808 C4FE7F3F 		.word	1065352900
 8626 080c 39FD7F3F 		.word	1065352505
 8627 0810 11FB7F3F 		.word	1065351953
 8628 0814 4AF87F3F 		.word	1065351242
 8629 0818 E6F47F3F 		.word	1065350374
 8630 081c E3F07F3F 		.word	1065349347
 8631 0820 43EC7F3F 		.word	1065348163
 8632 0824 05E77F3F 		.word	1065346821
 8633 0828 29E17F3F 		.word	1065345321
 8634 082c AFDA7F3F 		.word	1065343663
 8635 0830 97D37F3F 		.word	1065341847
 8636 0834 E2CB7F3F 		.word	1065339874
 8637 0838 8FC37F3F 		.word	1065337743
 8638 083c 9EBA7F3F 		.word	1065335454
 8639 0840 0FB17F3F 		.word	1065333007
 8640 0844 E3A67F3F 		.word	1065330403
 8641 0848 189C7F3F 		.word	1065327640
 8642 084c B1907F3F 		.word	1065324721
 8643 0850 AB847F3F 		.word	1065321643
 8644 0854 08787F3F 		.word	1065318408
ARM GAS  /var/folders/80/65lm4rm97rv_n74c85vt01040000gn/T//ccuR6fPR.s 			page 178


 8645 0858 C76A7F3F 		.word	1065315015
 8646 085c E95C7F3F 		.word	1065311465
 8647 0860 6D4E7F3F 		.word	1065307757
 8648 0864 543F7F3F 		.word	1065303892
 8649 0868 9D2F7F3F 		.word	1065299869
 8650 086c 491F7F3F 		.word	1065295689
 8651 0870 580E7F3F 		.word	1065291352
 8652 0874 C9FC7E3F 		.word	1065286857
 8653 0878 9DEA7E3F 		.word	1065282205
 8654 087c D4D77E3F 		.word	1065277396
 8655 0880 6DC47E3F 		.word	1065272429
 8656 0884 69B07E3F 		.word	1065267305
 8657 0888 C99B7E3F 		.word	1065262025
 8658 088c 8B867E3F 		.word	1065256587
 8659 0890 B0707E3F 		.word	1065250992
 8660 0894 385A7E3F 		.word	1065245240
 8661 0898 23437E3F 		.word	1065239331
 8662 089c 722B7E3F 		.word	1065233266
 8663 08a0 24137E3F 		.word	1065227044
 8664 08a4 38FA7D3F 		.word	1065220664
 8665 08a8 B1E07D3F 		.word	1065214129
 8666 08ac 8CC67D3F 		.word	1065207436
 8667 08b0 CCAB7D3F 		.word	1065200588
 8668 08b4 6E907D3F 		.word	1065193582
 8669 08b8 74747D3F 		.word	1065186420
 8670 08bc DE577D3F 		.word	1065179102
 8671 08c0 AC3A7D3F 		.word	1065171628
 8672 08c4 DD1C7D3F 		.word	1065163997
 8673 08c8 73FE7C3F 		.word	1065156211
 8674 08cc 6CDF7C3F 		.word	1065148268
 8675 08d0 C9BF7C3F 		.word	1065140169
 8676 08d4 8A9F7C3F 		.word	1065131914
 8677 08d8 B07E7C3F 		.word	1065123504
 8678 08dc 3A5D7C3F 		.word	1065114938
 8679 08e0 283B7C3F 		.word	1065106216
 8680 08e4 7A187C3F 		.word	1065097338
 8681 08e8 31F57B3F 		.word	1065088305
 8682 08ec 4DD17B3F 		.word	1065079117
 8683 08f0 CDAC7B3F 		.word	1065069773
 8684 08f4 B2877B3F 		.word	1065060274
 8685 08f8 FC617B3F 		.word	1065050620
 8686 08fc AB3B7B3F 		.word	1065040811
 8687 0900 BE147B3F 		.word	1065030846
 8688 0904 37ED7A3F 		.word	1065020727
 8689 0908 16C57A3F 		.word	1065010454
 8690 090c 599C7A3F 		.word	1065000025
 8691 0910 02737A3F 		.word	1064989442
 8692 0914 10497A3F 		.word	1064978704
 8693 0918 841E7A3F 		.word	1064967812
 8694 091c 5EF3793F 		.word	1064956766
 8695 0920 9DC7793F 		.word	1064945565
 8696 0924 439B793F 		.word	1064934211
 8697 0928 4E6E793F 		.word	1064922702
 8698 092c C040793F 		.word	1064911040
 8699 0930 9812793F 		.word	1064899224
 8700 0934 D6E3783F 		.word	1064887254
 8701 0938 7BB4783F 		.word	1064875131
ARM GAS  /var/folders/80/65lm4rm97rv_n74c85vt01040000gn/T//ccuR6fPR.s 			page 179


 8702 093c 8684783F 		.word	1064862854
 8703 0940 F853783F 		.word	1064850424
 8704 0944 D122783F 		.word	1064837841
 8705 0948 10F1773F 		.word	1064825104
 8706 094c B7BE773F 		.word	1064812215
 8707 0950 C58B773F 		.word	1064799173
 8708 0954 3A58773F 		.word	1064785978
 8709 0958 1724773F 		.word	1064772631
 8710 095c 5BEF763F 		.word	1064759131
 8711 0960 07BA763F 		.word	1064745479
 8712 0964 1B84763F 		.word	1064731675
 8713 0968 974D763F 		.word	1064717719
 8714 096c 7A16763F 		.word	1064703610
 8715 0970 C6DE753F 		.word	1064689350
 8716 0974 7BA6753F 		.word	1064674939
 8717 0978 976D753F 		.word	1064660375
 8718 097c 1D34753F 		.word	1064645661
 8719 0980 0BFA743F 		.word	1064630795
 8720 0984 62BF743F 		.word	1064615778
 8721 0988 2284743F 		.word	1064600610
 8722 098c 4B48743F 		.word	1064585291
 8723 0990 DD0B743F 		.word	1064569821
 8724 0994 D9CE733F 		.word	1064554201
 8725 0998 3F91733F 		.word	1064538431
 8726 099c 0E53733F 		.word	1064522510
 8727 09a0 4714733F 		.word	1064506439
 8728 09a4 EBD4723F 		.word	1064490219
 8729 09a8 F894723F 		.word	1064473848
 8730 09ac 7054723F 		.word	1064457328
 8731 09b0 5213723F 		.word	1064440658
 8732 09b4 9FD1713F 		.word	1064423839
 8733 09b8 578F713F 		.word	1064406871
 8734 09bc 7A4C713F 		.word	1064389754
 8735 09c0 0809713F 		.word	1064372488
 8736 09c4 01C5703F 		.word	1064355073
 8737 09c8 6680703F 		.word	1064337510
 8738 09cc 373B703F 		.word	1064319799
 8739 09d0 73F56F3F 		.word	1064301939
 8740 09d4 1BAF6F3F 		.word	1064283931
 8741 09d8 30686F3F 		.word	1064265776
 8742 09dc B0206F3F 		.word	1064247472
 8743 09e0 9ED86E3F 		.word	1064229022
 8744 09e4 F88F6E3F 		.word	1064210424
 8745 09e8 BE466E3F 		.word	1064191678
 8746 09ec F2FC6D3F 		.word	1064172786
 8747 09f0 93B26D3F 		.word	1064153747
 8748 09f4 A1676D3F 		.word	1064134561
 8749 09f8 1D1C6D3F 		.word	1064115229
 8750 09fc 07D06C3F 		.word	1064095751
 8751 0a00 5E836C3F 		.word	1064076126
 8752 0a04 24366C3F 		.word	1064056356
 8753 0a08 58E86B3F 		.word	1064036440
 8754 0a0c FB996B3F 		.word	1064016379
 8755 0a10 0C4B6B3F 		.word	1063996172
 8756 0a14 8CFB6A3F 		.word	1063975820
 8757 0a18 7BAB6A3F 		.word	1063955323
 8758 0a1c D95A6A3F 		.word	1063934681
ARM GAS  /var/folders/80/65lm4rm97rv_n74c85vt01040000gn/T//ccuR6fPR.s 			page 180


 8759 0a20 A7096A3F 		.word	1063913895
 8760 0a24 E4B7693F 		.word	1063892964
 8761 0a28 9165693F 		.word	1063871889
 8762 0a2c AE12693F 		.word	1063850670
 8763 0a30 3CBF683F 		.word	1063829308
 8764 0a34 396B683F 		.word	1063807801
 8765 0a38 A816683F 		.word	1063786152
 8766 0a3c 87C1673F 		.word	1063764359
 8767 0a40 D86B673F 		.word	1063742424
 8768 0a44 9915673F 		.word	1063720345
 8769 0a48 CCBE663F 		.word	1063698124
 8770 0a4c 7167663F 		.word	1063675761
 8771 0a50 880F663F 		.word	1063653256
 8772 0a54 10B7653F 		.word	1063630608
 8773 0a58 0B5E653F 		.word	1063607819
 8774 0a5c 7904653F 		.word	1063584889
 8775 0a60 59AA643F 		.word	1063561817
 8776 0a64 AC4F643F 		.word	1063538604
 8777 0a68 73F4633F 		.word	1063515251
 8778 0a6c AC98633F 		.word	1063491756
 8779 0a70 5A3C633F 		.word	1063468122
 8780 0a74 7BDF623F 		.word	1063444347
 8781 0a78 1082623F 		.word	1063420432
 8782 0a7c 1A24623F 		.word	1063396378
 8783 0a80 98C5613F 		.word	1063372184
 8784 0a84 8A66613F 		.word	1063347850
 8785 0a88 F206613F 		.word	1063323378
 8786 0a8c CFA6603F 		.word	1063298767
 8787 0a90 2146603F 		.word	1063274017
 8788 0a94 E9E45F3F 		.word	1063249129
 8789 0a98 27835F3F 		.word	1063224103
 8790 0a9c DB205F3F 		.word	1063198939
 8791 0aa0 05BE5E3F 		.word	1063173637
 8792 0aa4 A65A5E3F 		.word	1063148198
 8793 0aa8 BEF65D3F 		.word	1063122622
 8794 0aac 4D925D3F 		.word	1063096909
 8795 0ab0 532D5D3F 		.word	1063071059
 8796 0ab4 D1C75C3F 		.word	1063045073
 8797 0ab8 C7615C3F 		.word	1063018951
 8798 0abc 34FB5B3F 		.word	1062992692
 8799 0ac0 1A945B3F 		.word	1062966298
 8800 0ac4 792C5B3F 		.word	1062939769
 8801 0ac8 50C45A3F 		.word	1062913104
 8802 0acc A05B5A3F 		.word	1062886304
 8803 0ad0 6AF2593F 		.word	1062859370
 8804 0ad4 AD88593F 		.word	1062832301
 8805 0ad8 6A1E593F 		.word	1062805098
 8806 0adc A1B3583F 		.word	1062777761
 8807 0ae0 5348583F 		.word	1062750291
 8808 0ae4 7FDC573F 		.word	1062722687
 8809 0ae8 2670573F 		.word	1062694950
 8810 0aec 4803573F 		.word	1062667080
 8811 0af0 E595563F 		.word	1062639077
 8812 0af4 FE27563F 		.word	1062610942
 8813 0af8 93B9553F 		.word	1062582675
 8814 0afc A44A553F 		.word	1062554276
 8815 0b00 31DB543F 		.word	1062525745
ARM GAS  /var/folders/80/65lm4rm97rv_n74c85vt01040000gn/T//ccuR6fPR.s 			page 181


 8816 0b04 3B6B543F 		.word	1062497083
 8817 0b08 C3FA533F 		.word	1062468291
 8818 0b0c C789533F 		.word	1062439367
 8819 0b10 4918533F 		.word	1062410313
 8820 0b14 49A6523F 		.word	1062381129
 8821 0b18 C633523F 		.word	1062351814
 8822 0b1c C2C0513F 		.word	1062322370
 8823 0b20 3D4D513F 		.word	1062292797
 8824 0b24 37D9503F 		.word	1062263095
 8825 0b28 AF64503F 		.word	1062233263
 8826 0b2c A8EF4F3F 		.word	1062203304
 8827 0b30 1F7A4F3F 		.word	1062173215
 8828 0b34 17044F3F 		.word	1062142999
 8829 0b38 908D4E3F 		.word	1062112656
 8830 0b3c 89164E3F 		.word	1062082185
 8831 0b40 029F4D3F 		.word	1062051586
 8832 0b44 FD264D3F 		.word	1062020861
 8833 0b48 79AE4C3F 		.word	1061990009
 8834 0b4c 78354C3F 		.word	1061959032
 8835 0b50 F8BB4B3F 		.word	1061927928
 8836 0b54 FA414B3F 		.word	1061896698
 8837 0b58 7FC74A3F 		.word	1061865343
 8838 0b5c 874C4A3F 		.word	1061833863
 8839 0b60 12D1493F 		.word	1061802258
 8840 0b64 2155493F 		.word	1061770529
 8841 0b68 B3D8483F 		.word	1061738675
 8842 0b6c CA5B483F 		.word	1061706698
 8843 0b70 65DE473F 		.word	1061674597
 8844 0b74 8560473F 		.word	1061642373
 8845 0b78 2AE2463F 		.word	1061610026
 8846 0b7c 5463463F 		.word	1061577556
 8847 0b80 03E4453F 		.word	1061544963
 8848 0b84 3964453F 		.word	1061512249
 8849 0b88 F5E3443F 		.word	1061479413
 8850 0b8c 3763443F 		.word	1061446455
 8851 0b90 00E2433F 		.word	1061413376
 8852 0b94 5160433F 		.word	1061380177
 8853 0b98 29DE423F 		.word	1061346857
 8854 0b9c 895B423F 		.word	1061313417
 8855 0ba0 70D8413F 		.word	1061279856
 8856 0ba4 E154413F 		.word	1061246177
 8857 0ba8 DAD0403F 		.word	1061212378
 8858 0bac 5C4C403F 		.word	1061178460
 8859 0bb0 67C73F3F 		.word	1061144423
 8860 0bb4 FC413F3F 		.word	1061110268
 8861 0bb8 1BBC3E3F 		.word	1061075995
 8862 0bbc C5353E3F 		.word	1061041605
 8863 0bc0 F9AE3D3F 		.word	1061007097
 8864 0bc4 B8273D3F 		.word	1060972472
 8865 0bc8 03A03C3F 		.word	1060937731
 8866 0bcc D9173C3F 		.word	1060902873
 8867 0bd0 3B8F3B3F 		.word	1060867899
 8868 0bd4 29063B3F 		.word	1060832809
 8869 0bd8 A47C3A3F 		.word	1060797604
 8870 0bdc ACF2393F 		.word	1060762284
 8871 0be0 4268393F 		.word	1060726850
 8872 0be4 65DD383F 		.word	1060691301
ARM GAS  /var/folders/80/65lm4rm97rv_n74c85vt01040000gn/T//ccuR6fPR.s 			page 182


 8873 0be8 1652383F 		.word	1060655638
 8874 0bec 55C6373F 		.word	1060619861
 8875 0bf0 233A373F 		.word	1060583971
 8876 0bf4 7FAD363F 		.word	1060547967
 8877 0bf8 6C20363F 		.word	1060511852
 8878 0bfc E792353F 		.word	1060475623
 8879 0c00 F304353F 		.word	1060439283
 8880 0c04 8F76343F 		.word	1060402831
 8881 0c08 BCE7333F 		.word	1060366268
 8882 0c0c 7A58333F 		.word	1060329594
 8883 0c10 C9C8323F 		.word	1060292809
 8884 0c14 AA38323F 		.word	1060255914
 8885 0c18 1DA8313F 		.word	1060218909
 8886 0c1c 2217313F 		.word	1060181794
 8887 0c20 BB85303F 		.word	1060144571
 8888 0c24 E6F32F3F 		.word	1060107238
 8889 0c28 A5612F3F 		.word	1060069797
 8890 0c2c F7CE2E3F 		.word	1060032247
 8891 0c30 DE3B2E3F 		.word	1059994590
 8892 0c34 59A82D3F 		.word	1059956825
 8893 0c38 69142D3F 		.word	1059918953
 8894 0c3c 0F802C3F 		.word	1059880975
 8895 0c40 4AEB2B3F 		.word	1059842890
 8896 0c44 1B562B3F 		.word	1059804699
 8897 0c48 82C02A3F 		.word	1059766402
 8898 0c4c 802A2A3F 		.word	1059728000
 8899 0c50 1594293F 		.word	1059689493
 8900 0c54 41FD283F 		.word	1059650881
 8901 0c58 0566283F 		.word	1059612165
 8902 0c5c 61CE273F 		.word	1059573345
 8903 0c60 5636273F 		.word	1059534422
 8904 0c64 E39D263F 		.word	1059495395
 8905 0c68 0A05263F 		.word	1059456266
 8906 0c6c CB6B253F 		.word	1059417035
 8907 0c70 25D2243F 		.word	1059377701
 8908 0c74 1A38243F 		.word	1059338266
 8909 0c78 A99D233F 		.word	1059298729
 8910 0c7c D302233F 		.word	1059259091
 8911 0c80 9967223F 		.word	1059219353
 8912 0c84 FBCB213F 		.word	1059179515
 8913 0c88 F92F213F 		.word	1059139577
 8914 0c8c 9393203F 		.word	1059099539
 8915 0c90 CBF61F3F 		.word	1059059403
 8916 0c94 9F591F3F 		.word	1059019167
 8917 0c98 12BC1E3F 		.word	1058978834
 8918 0c9c 221E1E3F 		.word	1058938402
 8919 0ca0 D17F1D3F 		.word	1058897873
 8920 0ca4 1FE11C3F 		.word	1058857247
 8921 0ca8 0C421C3F 		.word	1058816524
 8922 0cac 99A21B3F 		.word	1058775705
 8923 0cb0 C6021B3F 		.word	1058734790
 8924 0cb4 93621A3F 		.word	1058693779
 8925 0cb8 00C2193F 		.word	1058652672
 8926 0cbc 0F21193F 		.word	1058611471
 8927 0cc0 C07F183F 		.word	1058570176
 8928 0cc4 12DE173F 		.word	1058528786
 8929 0cc8 073C173F 		.word	1058487303
ARM GAS  /var/folders/80/65lm4rm97rv_n74c85vt01040000gn/T//ccuR6fPR.s 			page 183


 8930 0ccc 9F99163F 		.word	1058445727
 8931 0cd0 D9F6153F 		.word	1058404057
 8932 0cd4 B753153F 		.word	1058362295
 8933 0cd8 39B0143F 		.word	1058320441
 8934 0cdc 5F0C143F 		.word	1058278495
 8935 0ce0 2A68133F 		.word	1058236458
 8936 0ce4 9AC3123F 		.word	1058194330
 8937 0ce8 B01E123F 		.word	1058152112
 8938 0cec 6B79113F 		.word	1058109803
 8939 0cf0 CDD3103F 		.word	1058067405
 8940 0cf4 D52D103F 		.word	1058024917
 8941 0cf8 84870F3F 		.word	1057982340
 8942 0cfc DBE00E3F 		.word	1057939675
 8943 0d00 DA390E3F 		.word	1057896922
 8944 0d04 81920D3F 		.word	1057854081
 8945 0d08 D0EA0C3F 		.word	1057811152
 8946 0d0c C9420C3F 		.word	1057768137
 8947 0d10 6B9A0B3F 		.word	1057725035
 8948 0d14 B7F10A3F 		.word	1057681847
 8949 0d18 AD480A3F 		.word	1057638573
 8950 0d1c 4E9F093F 		.word	1057595214
 8951 0d20 9BF5083F 		.word	1057551771
 8952 0d24 924B083F 		.word	1057508242
 8953 0d28 36A1073F 		.word	1057464630
 8954 0d2c 86F6063F 		.word	1057420934
 8955 0d30 824B063F 		.word	1057377154
 8956 0d34 2CA0053F 		.word	1057333292
 8957 0d38 84F4043F 		.word	1057289348
 8958 0d3c 8948043F 		.word	1057245321
 8959 0d40 3D9C033F 		.word	1057201213
 8960 0d44 9FEF023F 		.word	1057157023
 8961 0d48 B142023F 		.word	1057112753
 8962 0d4c 7395013F 		.word	1057068403
 8963 0d50 E4E7003F 		.word	1057023972
 8964 0d54 063A003F 		.word	1056979462
 8965 0d58 B217FF3E 		.word	1056905138
 8966 0d5c BBBAFD3E 		.word	1056815803
 8967 0d60 275DFC3E 		.word	1056726311
 8968 0d64 F7FEFA3E 		.word	1056636663
 8969 0d68 2DA0F93E 		.word	1056546861
 8970 0d6c C840F83E 		.word	1056456904
 8971 0d70 CBE0F63E 		.word	1056366795
 8972 0d74 3580F53E 		.word	1056276533
 8973 0d78 071FF43E 		.word	1056186119
 8974 0d7c 43BDF23E 		.word	1056095555
 8975 0d80 EA5AF13E 		.word	1056004842
 8976 0d84 FBF7EF3E 		.word	1055913979
 8977 0d88 7994EE3E 		.word	1055822969
 8978 0d8c 6330ED3E 		.word	1055731811
 8979 0d90 BBCBEB3E 		.word	1055640507
 8980 0d94 8166EA3E 		.word	1055549057
 8981 0d98 B700E93E 		.word	1055457463
 8982 0d9c 5D9AE73E 		.word	1055365725
 8983 0da0 7533E63E 		.word	1055273845
 8984 0da4 FECBE43E 		.word	1055181822
 8985 0da8 FA63E33E 		.word	1055089658
 8986 0dac 6AFBE13E 		.word	1054997354
ARM GAS  /var/folders/80/65lm4rm97rv_n74c85vt01040000gn/T//ccuR6fPR.s 			page 184


 8987 0db0 4F92E03E 		.word	1054904911
 8988 0db4 A928DF3E 		.word	1054812329
 8989 0db8 79BEDD3E 		.word	1054719609
 8990 0dbc C153DC3E 		.word	1054626753
 8991 0dc0 80E8DA3E 		.word	1054533760
 8992 0dc4 B97CD93E 		.word	1054440633
 8993 0dc8 6B10D83E 		.word	1054347371
 8994 0dcc 99A3D63E 		.word	1054253977
 8995 0dd0 4136D53E 		.word	1054160449
 8996 0dd4 67C8D33E 		.word	1054066791
 8997 0dd8 095AD23E 		.word	1053973001
 8998 0ddc 2AEBD03E 		.word	1053879082
 8999 0de0 CA7BCF3E 		.word	1053785034
 9000 0de4 EA0BCE3E 		.word	1053690858
 9001 0de8 8B9BCC3E 		.word	1053596555
 9002 0dec AE2ACB3E 		.word	1053502126
 9003 0df0 53B9C93E 		.word	1053407571
 9004 0df4 7C47C83E 		.word	1053312892
 9005 0df8 29D5C63E 		.word	1053218089
 9006 0dfc 5C62C53E 		.word	1053123164
 9007 0e00 15EFC33E 		.word	1053028117
 9008 0e04 557BC23E 		.word	1052932949
 9009 0e08 1E07C13E 		.word	1052837662
 9010 0e0c 6F92BF3E 		.word	1052742255
 9011 0e10 4A1DBE3E 		.word	1052646730
 9012 0e14 AFA7BC3E 		.word	1052551087
 9013 0e18 A031BB3E 		.word	1052455328
 9014 0e1c 1EBBB93E 		.word	1052359454
 9015 0e20 2A44B83E 		.word	1052263466
 9016 0e24 C3CCB63E 		.word	1052167363
 9017 0e28 EC54B53E 		.word	1052071148
 9018 0e2c A5DCB33E 		.word	1051974821
 9019 0e30 EF63B23E 		.word	1051878383
 9020 0e34 CBEAB03E 		.word	1051781835
 9021 0e38 3A71AF3E 		.word	1051685178
 9022 0e3c 3CF7AD3E 		.word	1051588412
 9023 0e40 D47CAC3E 		.word	1051491540
 9024 0e44 0102AB3E 		.word	1051394561
 9025 0e48 C486A93E 		.word	1051297476
 9026 0e4c 1F0BA83E 		.word	1051200287
 9027 0e50 128FA63E 		.word	1051102994
 9028 0e54 9F12A53E 		.word	1051005599
 9029 0e58 C595A33E 		.word	1050908101
 9030 0e5c 8718A23E 		.word	1050810503
 9031 0e60 E59AA03E 		.word	1050712805
 9032 0e64 DF1C9F3E 		.word	1050615007
 9033 0e68 789E9D3E 		.word	1050517112
 9034 0e6c AF1F9C3E 		.word	1050419119
 9035 0e70 86A09A3E 		.word	1050321030
 9036 0e74 FE20993E 		.word	1050222846
 9037 0e78 17A1973E 		.word	1050124567
 9038 0e7c D220963E 		.word	1050026194
 9039 0e80 31A0943E 		.word	1049927729
 9040 0e84 351F933E 		.word	1049829173
 9041 0e88 DD9D913E 		.word	1049730525
 9042 0e8c 2C1C903E 		.word	1049631788
 9043 0e90 229A8E3E 		.word	1049532962
ARM GAS  /var/folders/80/65lm4rm97rv_n74c85vt01040000gn/T//ccuR6fPR.s 			page 185


 9044 0e94 C0178D3E 		.word	1049434048
 9045 0e98 07958B3E 		.word	1049335047
 9046 0e9c F7118A3E 		.word	1049235959
 9047 0ea0 938E883E 		.word	1049136787
 9048 0ea4 DA0A873E 		.word	1049037530
 9049 0ea8 CE86853E 		.word	1048938190
 9050 0eac 7002843E 		.word	1048838768
 9051 0eb0 C07D823E 		.word	1048739264
 9052 0eb4 C0F8803E 		.word	1048639680
 9053 0eb8 E1E67E3E 		.word	1048504033
 9054 0ebc A4DB7B3E 		.word	1048304548
 9055 0ec0 CCCF783E 		.word	1048104908
 9056 0ec4 5AC3753E 		.word	1047905114
 9057 0ec8 51B6723E 		.word	1047705169
 9058 0ecc B2A86F3E 		.word	1047505074
 9059 0ed0 7F9A6C3E 		.word	1047304831
 9060 0ed4 BA8B693E 		.word	1047104442
 9061 0ed8 667C663E 		.word	1046903910
 9062 0edc 836C633E 		.word	1046703235
 9063 0ee0 135C603E 		.word	1046502419
 9064 0ee4 1A4B5D3E 		.word	1046301466
 9065 0ee8 97395A3E 		.word	1046100375
 9066 0eec 8F27573E 		.word	1045899151
 9067 0ef0 0115543E 		.word	1045697793
 9068 0ef4 F101513E 		.word	1045496305
 9069 0ef8 60EE4D3E 		.word	1045294688
 9070 0efc 4FDA4A3E 		.word	1045092943
 9071 0f00 C2C5473E 		.word	1044891074
 9072 0f04 B9B0443E 		.word	1044689081
 9073 0f08 379B413E 		.word	1044486967
 9074 0f0c 3E853E3E 		.word	1044284734
 9075 0f10 CF6E3B3E 		.word	1044082383
 9076 0f14 EC57383E 		.word	1043879916
 9077 0f18 9840353E 		.word	1043677336
 9078 0f1c D428323E 		.word	1043474644
 9079 0f20 A2102F3E 		.word	1043271842
 9080 0f24 04F82B3E 		.word	1043068932
 9081 0f28 FCDE283E 		.word	1042865916
 9082 0f2c 8CC5253E 		.word	1042662796
 9083 0f30 B6AB223E 		.word	1042459574
 9084 0f34 7B911F3E 		.word	1042256251
 9085 0f38 DE761C3E 		.word	1042052830
 9086 0f3c E05B193E 		.word	1041849312
 9087 0f40 8340163E 		.word	1041645699
 9088 0f44 CA24133E 		.word	1041441994
 9089 0f48 B708103E 		.word	1041238199
 9090 0f4c 4AEC0C3E 		.word	1041034314
 9091 0f50 86CF093E 		.word	1040830342
 9092 0f54 6EB2063E 		.word	1040626286
 9093 0f58 0295033E 		.word	1040422146
 9094 0f5c 4577003E 		.word	1040217925
 9095 0f60 73B2FA3D 		.word	1039839859
 9096 0f64 C075F43D 		.word	1039431104
 9097 0f68 7638EE3D 		.word	1039022198
 9098 0f6c 9AFAE73D 		.word	1038613146
 9099 0f70 2EBCE13D 		.word	1038203950
 9100 0f74 377DDB3D 		.word	1037794615
ARM GAS  /var/folders/80/65lm4rm97rv_n74c85vt01040000gn/T//ccuR6fPR.s 			page 186


 9101 0f78 B93DD53D 		.word	1037385145
 9102 0f7c B7FDCE3D 		.word	1036975543
 9103 0f80 36BDC83D 		.word	1036565814
 9104 0f84 397CC23D 		.word	1036155961
 9105 0f88 C33ABC3D 		.word	1035745987
 9106 0f8c DAF8B53D 		.word	1035335898
 9107 0f90 80B6AF3D 		.word	1034925696
 9108 0f94 BA73A93D 		.word	1034515386
 9109 0f98 8C30A33D 		.word	1034104972
 9110 0f9c F9EC9C3D 		.word	1033694457
 9111 0fa0 05A9963D 		.word	1033283845
 9112 0fa4 B464903D 		.word	1032873140
 9113 0fa8 0A208A3D 		.word	1032462346
 9114 0fac 0ADB833D 		.word	1032051466
 9115 0fb0 742B7B3D 		.word	1031482228
 9116 0fb4 38A06E3D 		.word	1030660152
 9117 0fb8 6914623D 		.word	1029837929
 9118 0fbc 0E88553D 		.word	1029015566
 9119 0fc0 30FB483D 		.word	1028193072
 9120 0fc4 D56D3C3D 		.word	1027370453
 9121 0fc8 07E02F3D 		.word	1026547719
 9122 0fcc CB51233D 		.word	1025724875
 9123 0fd0 2CC3163D 		.word	1024901932
 9124 0fd4 2F340A3D 		.word	1024078895
 9125 0fd8 BA49FB3C 		.word	1023101370
 9126 0fdc 7A2AE23C 		.word	1021454970
 9127 0fe0 B00AC93C 		.word	1019808432
 9128 0fe4 69EAAF3C 		.word	1018161769
 9129 0fe8 B6C9963C 		.word	1016514998
 9130 0fec 4B517B3C 		.word	1014714699
 9131 0ff0 900E493C 		.word	1011420816
 9132 0ff4 58CB163C 		.word	1008126808
 9133 0ff8 880FC93B 		.word	1003032456
 9134 0ffc C60F493B 		.word	994643910
 9135 1000 32310D25 		.word	621621554
 9136 1004 C60F49BB 		.word	-1152839738
 9137 1008 880FC9BB 		.word	-1144451192
 9138 100c 58CB16BC 		.word	-1139356840
 9139 1010 900E49BC 		.word	-1136062832
 9140 1014 4B517BBC 		.word	-1132768949
 9141 1018 B6C996BC 		.word	-1130968650
 9142 101c 69EAAFBC 		.word	-1129321879
 9143 1020 B00AC9BC 		.word	-1127675216
 9144 1024 7A2AE2BC 		.word	-1126028678
 9145 1028 BA49FBBC 		.word	-1124382278
 9146 102c 2F340ABD 		.word	-1123404753
 9147 1030 2CC316BD 		.word	-1122581716
 9148 1034 CB5123BD 		.word	-1121758773
 9149 1038 07E02FBD 		.word	-1120935929
 9150 103c D56D3CBD 		.word	-1120113195
 9151 1040 30FB48BD 		.word	-1119290576
 9152 1044 0E8855BD 		.word	-1118468082
 9153 1048 691462BD 		.word	-1117645719
 9154 104c 38A06EBD 		.word	-1116823496
 9155 1050 742B7BBD 		.word	-1116001420
 9156 1054 0ADB83BD 		.word	-1115432182
 9157 1058 0A208ABD 		.word	-1115021302
ARM GAS  /var/folders/80/65lm4rm97rv_n74c85vt01040000gn/T//ccuR6fPR.s 			page 187


 9158 105c B46490BD 		.word	-1114610508
 9159 1060 05A996BD 		.word	-1114199803
 9160 1064 F9EC9CBD 		.word	-1113789191
 9161 1068 8C30A3BD 		.word	-1113378676
 9162 106c BA73A9BD 		.word	-1112968262
 9163 1070 80B6AFBD 		.word	-1112557952
 9164 1074 DAF8B5BD 		.word	-1112147750
 9165 1078 C33ABCBD 		.word	-1111737661
 9166 107c 397CC2BD 		.word	-1111327687
 9167 1080 36BDC8BD 		.word	-1110917834
 9168 1084 B7FDCEBD 		.word	-1110508105
 9169 1088 B93DD5BD 		.word	-1110098503
 9170 108c 377DDBBD 		.word	-1109689033
 9171 1090 2EBCE1BD 		.word	-1109279698
 9172 1094 9AFAE7BD 		.word	-1108870502
 9173 1098 7638EEBD 		.word	-1108461450
 9174 109c C075F4BD 		.word	-1108052544
 9175 10a0 73B2FABD 		.word	-1107643789
 9176 10a4 457700BE 		.word	-1107265723
 9177 10a8 029503BE 		.word	-1107061502
 9178 10ac 6EB206BE 		.word	-1106857362
 9179 10b0 86CF09BE 		.word	-1106653306
 9180 10b4 4AEC0CBE 		.word	-1106449334
 9181 10b8 B70810BE 		.word	-1106245449
 9182 10bc CA2413BE 		.word	-1106041654
 9183 10c0 834016BE 		.word	-1105837949
 9184 10c4 E05B19BE 		.word	-1105634336
 9185 10c8 DE761CBE 		.word	-1105430818
 9186 10cc 7B911FBE 		.word	-1105227397
 9187 10d0 B6AB22BE 		.word	-1105024074
 9188 10d4 8CC525BE 		.word	-1104820852
 9189 10d8 FCDE28BE 		.word	-1104617732
 9190 10dc 04F82BBE 		.word	-1104414716
 9191 10e0 A2102FBE 		.word	-1104211806
 9192 10e4 D42832BE 		.word	-1104009004
 9193 10e8 984035BE 		.word	-1103806312
 9194 10ec EC5738BE 		.word	-1103603732
 9195 10f0 CF6E3BBE 		.word	-1103401265
 9196 10f4 3E853EBE 		.word	-1103198914
 9197 10f8 379B41BE 		.word	-1102996681
 9198 10fc B9B044BE 		.word	-1102794567
 9199 1100 C2C547BE 		.word	-1102592574
 9200 1104 4FDA4ABE 		.word	-1102390705
 9201 1108 60EE4DBE 		.word	-1102188960
 9202 110c F10151BE 		.word	-1101987343
 9203 1110 011554BE 		.word	-1101785855
 9204 1114 8F2757BE 		.word	-1101584497
 9205 1118 97395ABE 		.word	-1101383273
 9206 111c 1A4B5DBE 		.word	-1101182182
 9207 1120 135C60BE 		.word	-1100981229
 9208 1124 836C63BE 		.word	-1100780413
 9209 1128 667C66BE 		.word	-1100579738
 9210 112c BA8B69BE 		.word	-1100379206
 9211 1130 7F9A6CBE 		.word	-1100178817
 9212 1134 B2A86FBE 		.word	-1099978574
 9213 1138 51B672BE 		.word	-1099778479
 9214 113c 5AC375BE 		.word	-1099578534
ARM GAS  /var/folders/80/65lm4rm97rv_n74c85vt01040000gn/T//ccuR6fPR.s 			page 188


 9215 1140 CCCF78BE 		.word	-1099378740
 9216 1144 A4DB7BBE 		.word	-1099179100
 9217 1148 E1E67EBE 		.word	-1098979615
 9218 114c C0F880BE 		.word	-1098843968
 9219 1150 C07D82BE 		.word	-1098744384
 9220 1154 700284BE 		.word	-1098644880
 9221 1158 CE8685BE 		.word	-1098545458
 9222 115c DA0A87BE 		.word	-1098446118
 9223 1160 938E88BE 		.word	-1098346861
 9224 1164 F7118ABE 		.word	-1098247689
 9225 1168 07958BBE 		.word	-1098148601
 9226 116c C0178DBE 		.word	-1098049600
 9227 1170 229A8EBE 		.word	-1097950686
 9228 1174 2C1C90BE 		.word	-1097851860
 9229 1178 DD9D91BE 		.word	-1097753123
 9230 117c 351F93BE 		.word	-1097654475
 9231 1180 31A094BE 		.word	-1097555919
 9232 1184 D22096BE 		.word	-1097457454
 9233 1188 17A197BE 		.word	-1097359081
 9234 118c FE2099BE 		.word	-1097260802
 9235 1190 86A09ABE 		.word	-1097162618
 9236 1194 AF1F9CBE 		.word	-1097064529
 9237 1198 789E9DBE 		.word	-1096966536
 9238 119c DF1C9FBE 		.word	-1096868641
 9239 11a0 E59AA0BE 		.word	-1096770843
 9240 11a4 8718A2BE 		.word	-1096673145
 9241 11a8 C595A3BE 		.word	-1096575547
 9242 11ac 9F12A5BE 		.word	-1096478049
 9243 11b0 128FA6BE 		.word	-1096380654
 9244 11b4 1F0BA8BE 		.word	-1096283361
 9245 11b8 C486A9BE 		.word	-1096186172
 9246 11bc 0102ABBE 		.word	-1096089087
 9247 11c0 D47CACBE 		.word	-1095992108
 9248 11c4 3CF7ADBE 		.word	-1095895236
 9249 11c8 3A71AFBE 		.word	-1095798470
 9250 11cc CBEAB0BE 		.word	-1095701813
 9251 11d0 EF63B2BE 		.word	-1095605265
 9252 11d4 A5DCB3BE 		.word	-1095508827
 9253 11d8 EC54B5BE 		.word	-1095412500
 9254 11dc C3CCB6BE 		.word	-1095316285
 9255 11e0 2A44B8BE 		.word	-1095220182
 9256 11e4 1EBBB9BE 		.word	-1095124194
 9257 11e8 A031BBBE 		.word	-1095028320
 9258 11ec AFA7BCBE 		.word	-1094932561
 9259 11f0 4A1DBEBE 		.word	-1094836918
 9260 11f4 6F92BFBE 		.word	-1094741393
 9261 11f8 1E07C1BE 		.word	-1094645986
 9262 11fc 557BC2BE 		.word	-1094550699
 9263 1200 15EFC3BE 		.word	-1094455531
 9264 1204 5C62C5BE 		.word	-1094360484
 9265 1208 29D5C6BE 		.word	-1094265559
 9266 120c 7C47C8BE 		.word	-1094170756
 9267 1210 53B9C9BE 		.word	-1094076077
 9268 1214 AE2ACBBE 		.word	-1093981522
 9269 1218 8B9BCCBE 		.word	-1093887093
 9270 121c EA0BCEBE 		.word	-1093792790
 9271 1220 CA7BCFBE 		.word	-1093698614
ARM GAS  /var/folders/80/65lm4rm97rv_n74c85vt01040000gn/T//ccuR6fPR.s 			page 189


 9272 1224 2AEBD0BE 		.word	-1093604566
 9273 1228 095AD2BE 		.word	-1093510647
 9274 122c 67C8D3BE 		.word	-1093416857
 9275 1230 4136D5BE 		.word	-1093323199
 9276 1234 99A3D6BE 		.word	-1093229671
 9277 1238 6B10D8BE 		.word	-1093136277
 9278 123c B97CD9BE 		.word	-1093043015
 9279 1240 80E8DABE 		.word	-1092949888
 9280 1244 C153DCBE 		.word	-1092856895
 9281 1248 79BEDDBE 		.word	-1092764039
 9282 124c A928DFBE 		.word	-1092671319
 9283 1250 4F92E0BE 		.word	-1092578737
 9284 1254 6AFBE1BE 		.word	-1092486294
 9285 1258 FA63E3BE 		.word	-1092393990
 9286 125c FECBE4BE 		.word	-1092301826
 9287 1260 7533E6BE 		.word	-1092209803
 9288 1264 5D9AE7BE 		.word	-1092117923
 9289 1268 B700E9BE 		.word	-1092026185
 9290 126c 8166EABE 		.word	-1091934591
 9291 1270 BBCBEBBE 		.word	-1091843141
 9292 1274 6330EDBE 		.word	-1091751837
 9293 1278 7994EEBE 		.word	-1091660679
 9294 127c FBF7EFBE 		.word	-1091569669
 9295 1280 EA5AF1BE 		.word	-1091478806
 9296 1284 43BDF2BE 		.word	-1091388093
 9297 1288 071FF4BE 		.word	-1091297529
 9298 128c 3580F5BE 		.word	-1091207115
 9299 1290 CBE0F6BE 		.word	-1091116853
 9300 1294 C840F8BE 		.word	-1091026744
 9301 1298 2DA0F9BE 		.word	-1090936787
 9302 129c F7FEFABE 		.word	-1090846985
 9303 12a0 275DFCBE 		.word	-1090757337
 9304 12a4 BBBAFDBE 		.word	-1090667845
 9305 12a8 B217FFBE 		.word	-1090578510
 9306 12ac 063A00BF 		.word	-1090504186
 9307 12b0 E4E700BF 		.word	-1090459676
 9308 12b4 739501BF 		.word	-1090415245
 9309 12b8 B14202BF 		.word	-1090370895
 9310 12bc 9FEF02BF 		.word	-1090326625
 9311 12c0 3D9C03BF 		.word	-1090282435
 9312 12c4 894804BF 		.word	-1090238327
 9313 12c8 84F404BF 		.word	-1090194300
 9314 12cc 2CA005BF 		.word	-1090150356
 9315 12d0 824B06BF 		.word	-1090106494
 9316 12d4 86F606BF 		.word	-1090062714
 9317 12d8 36A107BF 		.word	-1090019018
 9318 12dc 924B08BF 		.word	-1089975406
 9319 12e0 9BF508BF 		.word	-1089931877
 9320 12e4 4E9F09BF 		.word	-1089888434
 9321 12e8 AD480ABF 		.word	-1089845075
 9322 12ec B7F10ABF 		.word	-1089801801
 9323 12f0 6B9A0BBF 		.word	-1089758613
 9324 12f4 C9420CBF 		.word	-1089715511
 9325 12f8 D0EA0CBF 		.word	-1089672496
 9326 12fc 81920DBF 		.word	-1089629567
 9327 1300 DA390EBF 		.word	-1089586726
 9328 1304 DBE00EBF 		.word	-1089543973
ARM GAS  /var/folders/80/65lm4rm97rv_n74c85vt01040000gn/T//ccuR6fPR.s 			page 190


 9329 1308 84870FBF 		.word	-1089501308
 9330 130c D52D10BF 		.word	-1089458731
 9331 1310 CDD310BF 		.word	-1089416243
 9332 1314 6B7911BF 		.word	-1089373845
 9333 1318 B01E12BF 		.word	-1089331536
 9334 131c 9AC312BF 		.word	-1089289318
 9335 1320 2A6813BF 		.word	-1089247190
 9336 1324 5F0C14BF 		.word	-1089205153
 9337 1328 39B014BF 		.word	-1089163207
 9338 132c B75315BF 		.word	-1089121353
 9339 1330 D9F615BF 		.word	-1089079591
 9340 1334 9F9916BF 		.word	-1089037921
 9341 1338 073C17BF 		.word	-1088996345
 9342 133c 12DE17BF 		.word	-1088954862
 9343 1340 C07F18BF 		.word	-1088913472
 9344 1344 0F2119BF 		.word	-1088872177
 9345 1348 00C219BF 		.word	-1088830976
 9346 134c 93621ABF 		.word	-1088789869
 9347 1350 C6021BBF 		.word	-1088748858
 9348 1354 99A21BBF 		.word	-1088707943
 9349 1358 0C421CBF 		.word	-1088667124
 9350 135c 1FE11CBF 		.word	-1088626401
 9351 1360 D17F1DBF 		.word	-1088585775
 9352 1364 221E1EBF 		.word	-1088545246
 9353 1368 12BC1EBF 		.word	-1088504814
 9354 136c 9F591FBF 		.word	-1088464481
 9355 1370 CBF61FBF 		.word	-1088424245
 9356 1374 939320BF 		.word	-1088384109
 9357 1378 F92F21BF 		.word	-1088344071
 9358 137c FBCB21BF 		.word	-1088304133
 9359 1380 996722BF 		.word	-1088264295
 9360 1384 D30223BF 		.word	-1088224557
 9361 1388 A99D23BF 		.word	-1088184919
 9362 138c 1A3824BF 		.word	-1088145382
 9363 1390 25D224BF 		.word	-1088105947
 9364 1394 CB6B25BF 		.word	-1088066613
 9365 1398 0A0526BF 		.word	-1088027382
 9366 139c E39D26BF 		.word	-1087988253
 9367 13a0 563627BF 		.word	-1087949226
 9368 13a4 61CE27BF 		.word	-1087910303
 9369 13a8 056628BF 		.word	-1087871483
 9370 13ac 41FD28BF 		.word	-1087832767
 9371 13b0 159429BF 		.word	-1087794155
 9372 13b4 802A2ABF 		.word	-1087755648
 9373 13b8 82C02ABF 		.word	-1087717246
 9374 13bc 1B562BBF 		.word	-1087678949
 9375 13c0 4AEB2BBF 		.word	-1087640758
 9376 13c4 0F802CBF 		.word	-1087602673
 9377 13c8 69142DBF 		.word	-1087564695
 9378 13cc 59A82DBF 		.word	-1087526823
 9379 13d0 DE3B2EBF 		.word	-1087489058
 9380 13d4 F7CE2EBF 		.word	-1087451401
 9381 13d8 A5612FBF 		.word	-1087413851
 9382 13dc E6F32FBF 		.word	-1087376410
 9383 13e0 BB8530BF 		.word	-1087339077
 9384 13e4 221731BF 		.word	-1087301854
 9385 13e8 1DA831BF 		.word	-1087264739
ARM GAS  /var/folders/80/65lm4rm97rv_n74c85vt01040000gn/T//ccuR6fPR.s 			page 191


 9386 13ec AA3832BF 		.word	-1087227734
 9387 13f0 C9C832BF 		.word	-1087190839
 9388 13f4 7A5833BF 		.word	-1087154054
 9389 13f8 BCE733BF 		.word	-1087117380
 9390 13fc 8F7634BF 		.word	-1087080817
 9391 1400 F30435BF 		.word	-1087044365
 9392 1404 E79235BF 		.word	-1087008025
 9393 1408 6C2036BF 		.word	-1086971796
 9394 140c 7FAD36BF 		.word	-1086935681
 9395 1410 233A37BF 		.word	-1086899677
 9396 1414 55C637BF 		.word	-1086863787
 9397 1418 165238BF 		.word	-1086828010
 9398 141c 65DD38BF 		.word	-1086792347
 9399 1420 426839BF 		.word	-1086756798
 9400 1424 ACF239BF 		.word	-1086721364
 9401 1428 A47C3ABF 		.word	-1086686044
 9402 142c 29063BBF 		.word	-1086650839
 9403 1430 3B8F3BBF 		.word	-1086615749
 9404 1434 D9173CBF 		.word	-1086580775
 9405 1438 03A03CBF 		.word	-1086545917
 9406 143c B8273DBF 		.word	-1086511176
 9407 1440 F9AE3DBF 		.word	-1086476551
 9408 1444 C5353EBF 		.word	-1086442043
 9409 1448 1BBC3EBF 		.word	-1086407653
 9410 144c FC413FBF 		.word	-1086373380
 9411 1450 67C73FBF 		.word	-1086339225
 9412 1454 5C4C40BF 		.word	-1086305188
 9413 1458 DAD040BF 		.word	-1086271270
 9414 145c E15441BF 		.word	-1086237471
 9415 1460 70D841BF 		.word	-1086203792
 9416 1464 895B42BF 		.word	-1086170231
 9417 1468 29DE42BF 		.word	-1086136791
 9418 146c 516043BF 		.word	-1086103471
 9419 1470 00E243BF 		.word	-1086070272
 9420 1474 376344BF 		.word	-1086037193
 9421 1478 F5E344BF 		.word	-1086004235
 9422 147c 396445BF 		.word	-1085971399
 9423 1480 03E445BF 		.word	-1085938685
 9424 1484 546346BF 		.word	-1085906092
 9425 1488 2AE246BF 		.word	-1085873622
 9426 148c 856047BF 		.word	-1085841275
 9427 1490 65DE47BF 		.word	-1085809051
 9428 1494 CA5B48BF 		.word	-1085776950
 9429 1498 B3D848BF 		.word	-1085744973
 9430 149c 215549BF 		.word	-1085713119
 9431 14a0 12D149BF 		.word	-1085681390
 9432 14a4 874C4ABF 		.word	-1085649785
 9433 14a8 7FC74ABF 		.word	-1085618305
 9434 14ac FA414BBF 		.word	-1085586950
 9435 14b0 F8BB4BBF 		.word	-1085555720
 9436 14b4 78354CBF 		.word	-1085524616
 9437 14b8 79AE4CBF 		.word	-1085493639
 9438 14bc FD264DBF 		.word	-1085462787
 9439 14c0 029F4DBF 		.word	-1085432062
 9440 14c4 89164EBF 		.word	-1085401463
 9441 14c8 908D4EBF 		.word	-1085370992
 9442 14cc 17044FBF 		.word	-1085340649
ARM GAS  /var/folders/80/65lm4rm97rv_n74c85vt01040000gn/T//ccuR6fPR.s 			page 192


 9443 14d0 1F7A4FBF 		.word	-1085310433
 9444 14d4 A8EF4FBF 		.word	-1085280344
 9445 14d8 AF6450BF 		.word	-1085250385
 9446 14dc 37D950BF 		.word	-1085220553
 9447 14e0 3D4D51BF 		.word	-1085190851
 9448 14e4 C2C051BF 		.word	-1085161278
 9449 14e8 C63352BF 		.word	-1085131834
 9450 14ec 49A652BF 		.word	-1085102519
 9451 14f0 491853BF 		.word	-1085073335
 9452 14f4 C78953BF 		.word	-1085044281
 9453 14f8 C3FA53BF 		.word	-1085015357
 9454 14fc 3B6B54BF 		.word	-1084986565
 9455 1500 31DB54BF 		.word	-1084957903
 9456 1504 A44A55BF 		.word	-1084929372
 9457 1508 93B955BF 		.word	-1084900973
 9458 150c FE2756BF 		.word	-1084872706
 9459 1510 E59556BF 		.word	-1084844571
 9460 1514 480357BF 		.word	-1084816568
 9461 1518 267057BF 		.word	-1084788698
 9462 151c 7FDC57BF 		.word	-1084760961
 9463 1520 534858BF 		.word	-1084733357
 9464 1524 A1B358BF 		.word	-1084705887
 9465 1528 6A1E59BF 		.word	-1084678550
 9466 152c AD8859BF 		.word	-1084651347
 9467 1530 6AF259BF 		.word	-1084624278
 9468 1534 A05B5ABF 		.word	-1084597344
 9469 1538 50C45ABF 		.word	-1084570544
 9470 153c 792C5BBF 		.word	-1084543879
 9471 1540 1A945BBF 		.word	-1084517350
 9472 1544 34FB5BBF 		.word	-1084490956
 9473 1548 C7615CBF 		.word	-1084464697
 9474 154c D1C75CBF 		.word	-1084438575
 9475 1550 532D5DBF 		.word	-1084412589
 9476 1554 4D925DBF 		.word	-1084386739
 9477 1558 BEF65DBF 		.word	-1084361026
 9478 155c A65A5EBF 		.word	-1084335450
 9479 1560 05BE5EBF 		.word	-1084310011
 9480 1564 DB205FBF 		.word	-1084284709
 9481 1568 27835FBF 		.word	-1084259545
 9482 156c E9E45FBF 		.word	-1084234519
 9483 1570 214660BF 		.word	-1084209631
 9484 1574 CFA660BF 		.word	-1084184881
 9485 1578 F20661BF 		.word	-1084160270
 9486 157c 8A6661BF 		.word	-1084135798
 9487 1580 98C561BF 		.word	-1084111464
 9488 1584 1A2462BF 		.word	-1084087270
 9489 1588 108262BF 		.word	-1084063216
 9490 158c 7BDF62BF 		.word	-1084039301
 9491 1590 5A3C63BF 		.word	-1084015526
 9492 1594 AC9863BF 		.word	-1083991892
 9493 1598 73F463BF 		.word	-1083968397
 9494 159c AC4F64BF 		.word	-1083945044
 9495 15a0 59AA64BF 		.word	-1083921831
 9496 15a4 790465BF 		.word	-1083898759
 9497 15a8 0B5E65BF 		.word	-1083875829
 9498 15ac 10B765BF 		.word	-1083853040
 9499 15b0 880F66BF 		.word	-1083830392
ARM GAS  /var/folders/80/65lm4rm97rv_n74c85vt01040000gn/T//ccuR6fPR.s 			page 193


 9500 15b4 716766BF 		.word	-1083807887
 9501 15b8 CCBE66BF 		.word	-1083785524
 9502 15bc 991567BF 		.word	-1083763303
 9503 15c0 D86B67BF 		.word	-1083741224
 9504 15c4 87C167BF 		.word	-1083719289
 9505 15c8 A81668BF 		.word	-1083697496
 9506 15cc 396B68BF 		.word	-1083675847
 9507 15d0 3CBF68BF 		.word	-1083654340
 9508 15d4 AE1269BF 		.word	-1083632978
 9509 15d8 916569BF 		.word	-1083611759
 9510 15dc E4B769BF 		.word	-1083590684
 9511 15e0 A7096ABF 		.word	-1083569753
 9512 15e4 D95A6ABF 		.word	-1083548967
 9513 15e8 7BAB6ABF 		.word	-1083528325
 9514 15ec 8CFB6ABF 		.word	-1083507828
 9515 15f0 0C4B6BBF 		.word	-1083487476
 9516 15f4 FB996BBF 		.word	-1083467269
 9517 15f8 58E86BBF 		.word	-1083447208
 9518 15fc 24366CBF 		.word	-1083427292
 9519 1600 5E836CBF 		.word	-1083407522
 9520 1604 07D06CBF 		.word	-1083387897
 9521 1608 1D1C6DBF 		.word	-1083368419
 9522 160c A1676DBF 		.word	-1083349087
 9523 1610 93B26DBF 		.word	-1083329901
 9524 1614 F2FC6DBF 		.word	-1083310862
 9525 1618 BE466EBF 		.word	-1083291970
 9526 161c F88F6EBF 		.word	-1083273224
 9527 1620 9ED86EBF 		.word	-1083254626
 9528 1624 B0206FBF 		.word	-1083236176
 9529 1628 30686FBF 		.word	-1083217872
 9530 162c 1BAF6FBF 		.word	-1083199717
 9531 1630 73F56FBF 		.word	-1083181709
 9532 1634 373B70BF 		.word	-1083163849
 9533 1638 668070BF 		.word	-1083146138
 9534 163c 01C570BF 		.word	-1083128575
 9535 1640 080971BF 		.word	-1083111160
 9536 1644 7A4C71BF 		.word	-1083093894
 9537 1648 578F71BF 		.word	-1083076777
 9538 164c 9FD171BF 		.word	-1083059809
 9539 1650 521372BF 		.word	-1083042990
 9540 1654 705472BF 		.word	-1083026320
 9541 1658 F89472BF 		.word	-1083009800
 9542 165c EBD472BF 		.word	-1082993429
 9543 1660 471473BF 		.word	-1082977209
 9544 1664 0E5373BF 		.word	-1082961138
 9545 1668 3F9173BF 		.word	-1082945217
 9546 166c D9CE73BF 		.word	-1082929447
 9547 1670 DD0B74BF 		.word	-1082913827
 9548 1674 4B4874BF 		.word	-1082898357
 9549 1678 228474BF 		.word	-1082883038
 9550 167c 62BF74BF 		.word	-1082867870
 9551 1680 0BFA74BF 		.word	-1082852853
 9552 1684 1D3475BF 		.word	-1082837987
 9553 1688 976D75BF 		.word	-1082823273
 9554 168c 7BA675BF 		.word	-1082808709
 9555 1690 C6DE75BF 		.word	-1082794298
 9556 1694 7A1676BF 		.word	-1082780038
ARM GAS  /var/folders/80/65lm4rm97rv_n74c85vt01040000gn/T//ccuR6fPR.s 			page 194


 9557 1698 974D76BF 		.word	-1082765929
 9558 169c 1B8476BF 		.word	-1082751973
 9559 16a0 07BA76BF 		.word	-1082738169
 9560 16a4 5BEF76BF 		.word	-1082724517
 9561 16a8 172477BF 		.word	-1082711017
 9562 16ac 3A5877BF 		.word	-1082697670
 9563 16b0 C58B77BF 		.word	-1082684475
 9564 16b4 B7BE77BF 		.word	-1082671433
 9565 16b8 10F177BF 		.word	-1082658544
 9566 16bc D12278BF 		.word	-1082645807
 9567 16c0 F85378BF 		.word	-1082633224
 9568 16c4 868478BF 		.word	-1082620794
 9569 16c8 7BB478BF 		.word	-1082608517
 9570 16cc D6E378BF 		.word	-1082596394
 9571 16d0 981279BF 		.word	-1082584424
 9572 16d4 C04079BF 		.word	-1082572608
 9573 16d8 4E6E79BF 		.word	-1082560946
 9574 16dc 439B79BF 		.word	-1082549437
 9575 16e0 9DC779BF 		.word	-1082538083
 9576 16e4 5EF379BF 		.word	-1082526882
 9577 16e8 841E7ABF 		.word	-1082515836
 9578 16ec 10497ABF 		.word	-1082504944
 9579 16f0 02737ABF 		.word	-1082494206
 9580 16f4 599C7ABF 		.word	-1082483623
 9581 16f8 16C57ABF 		.word	-1082473194
 9582 16fc 37ED7ABF 		.word	-1082462921
 9583 1700 BE147BBF 		.word	-1082452802
 9584 1704 AB3B7BBF 		.word	-1082442837
 9585 1708 FC617BBF 		.word	-1082433028
 9586 170c B2877BBF 		.word	-1082423374
 9587 1710 CDAC7BBF 		.word	-1082413875
 9588 1714 4DD17BBF 		.word	-1082404531
 9589 1718 31F57BBF 		.word	-1082395343
 9590 171c 7A187CBF 		.word	-1082386310
 9591 1720 283B7CBF 		.word	-1082377432
 9592 1724 3A5D7CBF 		.word	-1082368710
 9593 1728 B07E7CBF 		.word	-1082360144
 9594 172c 8A9F7CBF 		.word	-1082351734
 9595 1730 C9BF7CBF 		.word	-1082343479
 9596 1734 6CDF7CBF 		.word	-1082335380
 9597 1738 73FE7CBF 		.word	-1082327437
 9598 173c DD1C7DBF 		.word	-1082319651
 9599 1740 AC3A7DBF 		.word	-1082312020
 9600 1744 DE577DBF 		.word	-1082304546
 9601 1748 74747DBF 		.word	-1082297228
 9602 174c 6E907DBF 		.word	-1082290066
 9603 1750 CCAB7DBF 		.word	-1082283060
 9604 1754 8CC67DBF 		.word	-1082276212
 9605 1758 B1E07DBF 		.word	-1082269519
 9606 175c 38FA7DBF 		.word	-1082262984
 9607 1760 24137EBF 		.word	-1082256604
 9608 1764 722B7EBF 		.word	-1082250382
 9609 1768 23437EBF 		.word	-1082244317
 9610 176c 385A7EBF 		.word	-1082238408
 9611 1770 B0707EBF 		.word	-1082232656
 9612 1774 8B867EBF 		.word	-1082227061
 9613 1778 C99B7EBF 		.word	-1082221623
ARM GAS  /var/folders/80/65lm4rm97rv_n74c85vt01040000gn/T//ccuR6fPR.s 			page 195


 9614 177c 69B07EBF 		.word	-1082216343
 9615 1780 6DC47EBF 		.word	-1082211219
 9616 1784 D4D77EBF 		.word	-1082206252
 9617 1788 9DEA7EBF 		.word	-1082201443
 9618 178c C9FC7EBF 		.word	-1082196791
 9619 1790 580E7FBF 		.word	-1082192296
 9620 1794 491F7FBF 		.word	-1082187959
 9621 1798 9D2F7FBF 		.word	-1082183779
 9622 179c 543F7FBF 		.word	-1082179756
 9623 17a0 6D4E7FBF 		.word	-1082175891
 9624 17a4 E95C7FBF 		.word	-1082172183
 9625 17a8 C76A7FBF 		.word	-1082168633
 9626 17ac 08787FBF 		.word	-1082165240
 9627 17b0 AB847FBF 		.word	-1082162005
 9628 17b4 B1907FBF 		.word	-1082158927
 9629 17b8 189C7FBF 		.word	-1082156008
 9630 17bc E3A67FBF 		.word	-1082153245
 9631 17c0 0FB17FBF 		.word	-1082150641
 9632 17c4 9EBA7FBF 		.word	-1082148194
 9633 17c8 8FC37FBF 		.word	-1082145905
 9634 17cc E2CB7FBF 		.word	-1082143774
 9635 17d0 97D37FBF 		.word	-1082141801
 9636 17d4 AFDA7FBF 		.word	-1082139985
 9637 17d8 29E17FBF 		.word	-1082138327
 9638 17dc 05E77FBF 		.word	-1082136827
 9639 17e0 43EC7FBF 		.word	-1082135485
 9640 17e4 E3F07FBF 		.word	-1082134301
 9641 17e8 E6F47FBF 		.word	-1082133274
 9642 17ec 4AF87FBF 		.word	-1082132406
 9643 17f0 11FB7FBF 		.word	-1082131695
 9644 17f4 39FD7FBF 		.word	-1082131143
 9645 17f8 C4FE7FBF 		.word	-1082130748
 9646 17fc B1FF7FBF 		.word	-1082130511
 9647 1800 000080BF 		.word	-1082130432
 9648 1804 B1FF7FBF 		.word	-1082130511
 9649 1808 C4FE7FBF 		.word	-1082130748
 9650 180c 39FD7FBF 		.word	-1082131143
 9651 1810 11FB7FBF 		.word	-1082131695
 9652 1814 4AF87FBF 		.word	-1082132406
 9653 1818 E6F47FBF 		.word	-1082133274
 9654 181c E3F07FBF 		.word	-1082134301
 9655 1820 43EC7FBF 		.word	-1082135485
 9656 1824 05E77FBF 		.word	-1082136827
 9657 1828 29E17FBF 		.word	-1082138327
 9658 182c AFDA7FBF 		.word	-1082139985
 9659 1830 97D37FBF 		.word	-1082141801
 9660 1834 E2CB7FBF 		.word	-1082143774
 9661 1838 8FC37FBF 		.word	-1082145905
 9662 183c 9EBA7FBF 		.word	-1082148194
 9663 1840 0FB17FBF 		.word	-1082150641
 9664 1844 E3A67FBF 		.word	-1082153245
 9665 1848 189C7FBF 		.word	-1082156008
 9666 184c B1907FBF 		.word	-1082158927
 9667 1850 AB847FBF 		.word	-1082162005
 9668 1854 08787FBF 		.word	-1082165240
 9669 1858 C76A7FBF 		.word	-1082168633
 9670 185c E95C7FBF 		.word	-1082172183
ARM GAS  /var/folders/80/65lm4rm97rv_n74c85vt01040000gn/T//ccuR6fPR.s 			page 196


 9671 1860 6D4E7FBF 		.word	-1082175891
 9672 1864 543F7FBF 		.word	-1082179756
 9673 1868 9D2F7FBF 		.word	-1082183779
 9674 186c 491F7FBF 		.word	-1082187959
 9675 1870 580E7FBF 		.word	-1082192296
 9676 1874 C9FC7EBF 		.word	-1082196791
 9677 1878 9DEA7EBF 		.word	-1082201443
 9678 187c D4D77EBF 		.word	-1082206252
 9679 1880 6DC47EBF 		.word	-1082211219
 9680 1884 69B07EBF 		.word	-1082216343
 9681 1888 C99B7EBF 		.word	-1082221623
 9682 188c 8B867EBF 		.word	-1082227061
 9683 1890 B0707EBF 		.word	-1082232656
 9684 1894 385A7EBF 		.word	-1082238408
 9685 1898 23437EBF 		.word	-1082244317
 9686 189c 722B7EBF 		.word	-1082250382
 9687 18a0 24137EBF 		.word	-1082256604
 9688 18a4 38FA7DBF 		.word	-1082262984
 9689 18a8 B1E07DBF 		.word	-1082269519
 9690 18ac 8CC67DBF 		.word	-1082276212
 9691 18b0 CCAB7DBF 		.word	-1082283060
 9692 18b4 6E907DBF 		.word	-1082290066
 9693 18b8 74747DBF 		.word	-1082297228
 9694 18bc DE577DBF 		.word	-1082304546
 9695 18c0 AC3A7DBF 		.word	-1082312020
 9696 18c4 DD1C7DBF 		.word	-1082319651
 9697 18c8 73FE7CBF 		.word	-1082327437
 9698 18cc 6CDF7CBF 		.word	-1082335380
 9699 18d0 C9BF7CBF 		.word	-1082343479
 9700 18d4 8A9F7CBF 		.word	-1082351734
 9701 18d8 B07E7CBF 		.word	-1082360144
 9702 18dc 3A5D7CBF 		.word	-1082368710
 9703 18e0 283B7CBF 		.word	-1082377432
 9704 18e4 7A187CBF 		.word	-1082386310
 9705 18e8 31F57BBF 		.word	-1082395343
 9706 18ec 4DD17BBF 		.word	-1082404531
 9707 18f0 CDAC7BBF 		.word	-1082413875
 9708 18f4 B2877BBF 		.word	-1082423374
 9709 18f8 FC617BBF 		.word	-1082433028
 9710 18fc AB3B7BBF 		.word	-1082442837
 9711 1900 BE147BBF 		.word	-1082452802
 9712 1904 37ED7ABF 		.word	-1082462921
 9713 1908 16C57ABF 		.word	-1082473194
 9714 190c 599C7ABF 		.word	-1082483623
 9715 1910 02737ABF 		.word	-1082494206
 9716 1914 10497ABF 		.word	-1082504944
 9717 1918 841E7ABF 		.word	-1082515836
 9718 191c 5EF379BF 		.word	-1082526882
 9719 1920 9DC779BF 		.word	-1082538083
 9720 1924 439B79BF 		.word	-1082549437
 9721 1928 4E6E79BF 		.word	-1082560946
 9722 192c C04079BF 		.word	-1082572608
 9723 1930 981279BF 		.word	-1082584424
 9724 1934 D6E378BF 		.word	-1082596394
 9725 1938 7BB478BF 		.word	-1082608517
 9726 193c 868478BF 		.word	-1082620794
 9727 1940 F85378BF 		.word	-1082633224
ARM GAS  /var/folders/80/65lm4rm97rv_n74c85vt01040000gn/T//ccuR6fPR.s 			page 197


 9728 1944 D12278BF 		.word	-1082645807
 9729 1948 10F177BF 		.word	-1082658544
 9730 194c B7BE77BF 		.word	-1082671433
 9731 1950 C58B77BF 		.word	-1082684475
 9732 1954 3A5877BF 		.word	-1082697670
 9733 1958 172477BF 		.word	-1082711017
 9734 195c 5BEF76BF 		.word	-1082724517
 9735 1960 07BA76BF 		.word	-1082738169
 9736 1964 1B8476BF 		.word	-1082751973
 9737 1968 974D76BF 		.word	-1082765929
 9738 196c 7A1676BF 		.word	-1082780038
 9739 1970 C6DE75BF 		.word	-1082794298
 9740 1974 7BA675BF 		.word	-1082808709
 9741 1978 976D75BF 		.word	-1082823273
 9742 197c 1D3475BF 		.word	-1082837987
 9743 1980 0BFA74BF 		.word	-1082852853
 9744 1984 62BF74BF 		.word	-1082867870
 9745 1988 228474BF 		.word	-1082883038
 9746 198c 4B4874BF 		.word	-1082898357
 9747 1990 DD0B74BF 		.word	-1082913827
 9748 1994 D9CE73BF 		.word	-1082929447
 9749 1998 3F9173BF 		.word	-1082945217
 9750 199c 0E5373BF 		.word	-1082961138
 9751 19a0 471473BF 		.word	-1082977209
 9752 19a4 EBD472BF 		.word	-1082993429
 9753 19a8 F89472BF 		.word	-1083009800
 9754 19ac 705472BF 		.word	-1083026320
 9755 19b0 521372BF 		.word	-1083042990
 9756 19b4 9FD171BF 		.word	-1083059809
 9757 19b8 578F71BF 		.word	-1083076777
 9758 19bc 7A4C71BF 		.word	-1083093894
 9759 19c0 080971BF 		.word	-1083111160
 9760 19c4 01C570BF 		.word	-1083128575
 9761 19c8 668070BF 		.word	-1083146138
 9762 19cc 373B70BF 		.word	-1083163849
 9763 19d0 73F56FBF 		.word	-1083181709
 9764 19d4 1BAF6FBF 		.word	-1083199717
 9765 19d8 30686FBF 		.word	-1083217872
 9766 19dc B0206FBF 		.word	-1083236176
 9767 19e0 9ED86EBF 		.word	-1083254626
 9768 19e4 F88F6EBF 		.word	-1083273224
 9769 19e8 BE466EBF 		.word	-1083291970
 9770 19ec F2FC6DBF 		.word	-1083310862
 9771 19f0 93B26DBF 		.word	-1083329901
 9772 19f4 A1676DBF 		.word	-1083349087
 9773 19f8 1D1C6DBF 		.word	-1083368419
 9774 19fc 07D06CBF 		.word	-1083387897
 9775 1a00 5E836CBF 		.word	-1083407522
 9776 1a04 24366CBF 		.word	-1083427292
 9777 1a08 58E86BBF 		.word	-1083447208
 9778 1a0c FB996BBF 		.word	-1083467269
 9779 1a10 0C4B6BBF 		.word	-1083487476
 9780 1a14 8CFB6ABF 		.word	-1083507828
 9781 1a18 7BAB6ABF 		.word	-1083528325
 9782 1a1c D95A6ABF 		.word	-1083548967
 9783 1a20 A7096ABF 		.word	-1083569753
 9784 1a24 E4B769BF 		.word	-1083590684
ARM GAS  /var/folders/80/65lm4rm97rv_n74c85vt01040000gn/T//ccuR6fPR.s 			page 198


 9785 1a28 916569BF 		.word	-1083611759
 9786 1a2c AE1269BF 		.word	-1083632978
 9787 1a30 3CBF68BF 		.word	-1083654340
 9788 1a34 396B68BF 		.word	-1083675847
 9789 1a38 A81668BF 		.word	-1083697496
 9790 1a3c 87C167BF 		.word	-1083719289
 9791 1a40 D86B67BF 		.word	-1083741224
 9792 1a44 991567BF 		.word	-1083763303
 9793 1a48 CCBE66BF 		.word	-1083785524
 9794 1a4c 716766BF 		.word	-1083807887
 9795 1a50 880F66BF 		.word	-1083830392
 9796 1a54 10B765BF 		.word	-1083853040
 9797 1a58 0B5E65BF 		.word	-1083875829
 9798 1a5c 790465BF 		.word	-1083898759
 9799 1a60 59AA64BF 		.word	-1083921831
 9800 1a64 AC4F64BF 		.word	-1083945044
 9801 1a68 73F463BF 		.word	-1083968397
 9802 1a6c AC9863BF 		.word	-1083991892
 9803 1a70 5A3C63BF 		.word	-1084015526
 9804 1a74 7BDF62BF 		.word	-1084039301
 9805 1a78 108262BF 		.word	-1084063216
 9806 1a7c 1A2462BF 		.word	-1084087270
 9807 1a80 98C561BF 		.word	-1084111464
 9808 1a84 8A6661BF 		.word	-1084135798
 9809 1a88 F20661BF 		.word	-1084160270
 9810 1a8c CFA660BF 		.word	-1084184881
 9811 1a90 214660BF 		.word	-1084209631
 9812 1a94 E9E45FBF 		.word	-1084234519
 9813 1a98 27835FBF 		.word	-1084259545
 9814 1a9c DB205FBF 		.word	-1084284709
 9815 1aa0 05BE5EBF 		.word	-1084310011
 9816 1aa4 A65A5EBF 		.word	-1084335450
 9817 1aa8 BEF65DBF 		.word	-1084361026
 9818 1aac 4D925DBF 		.word	-1084386739
 9819 1ab0 532D5DBF 		.word	-1084412589
 9820 1ab4 D1C75CBF 		.word	-1084438575
 9821 1ab8 C7615CBF 		.word	-1084464697
 9822 1abc 34FB5BBF 		.word	-1084490956
 9823 1ac0 1A945BBF 		.word	-1084517350
 9824 1ac4 792C5BBF 		.word	-1084543879
 9825 1ac8 50C45ABF 		.word	-1084570544
 9826 1acc A05B5ABF 		.word	-1084597344
 9827 1ad0 6AF259BF 		.word	-1084624278
 9828 1ad4 AD8859BF 		.word	-1084651347
 9829 1ad8 6A1E59BF 		.word	-1084678550
 9830 1adc A1B358BF 		.word	-1084705887
 9831 1ae0 534858BF 		.word	-1084733357
 9832 1ae4 7FDC57BF 		.word	-1084760961
 9833 1ae8 267057BF 		.word	-1084788698
 9834 1aec 480357BF 		.word	-1084816568
 9835 1af0 E59556BF 		.word	-1084844571
 9836 1af4 FE2756BF 		.word	-1084872706
 9837 1af8 93B955BF 		.word	-1084900973
 9838 1afc A44A55BF 		.word	-1084929372
 9839 1b00 31DB54BF 		.word	-1084957903
 9840 1b04 3B6B54BF 		.word	-1084986565
 9841 1b08 C3FA53BF 		.word	-1085015357
ARM GAS  /var/folders/80/65lm4rm97rv_n74c85vt01040000gn/T//ccuR6fPR.s 			page 199


 9842 1b0c C78953BF 		.word	-1085044281
 9843 1b10 491853BF 		.word	-1085073335
 9844 1b14 49A652BF 		.word	-1085102519
 9845 1b18 C63352BF 		.word	-1085131834
 9846 1b1c C2C051BF 		.word	-1085161278
 9847 1b20 3D4D51BF 		.word	-1085190851
 9848 1b24 37D950BF 		.word	-1085220553
 9849 1b28 AF6450BF 		.word	-1085250385
 9850 1b2c A8EF4FBF 		.word	-1085280344
 9851 1b30 1F7A4FBF 		.word	-1085310433
 9852 1b34 17044FBF 		.word	-1085340649
 9853 1b38 908D4EBF 		.word	-1085370992
 9854 1b3c 89164EBF 		.word	-1085401463
 9855 1b40 029F4DBF 		.word	-1085432062
 9856 1b44 FD264DBF 		.word	-1085462787
 9857 1b48 79AE4CBF 		.word	-1085493639
 9858 1b4c 78354CBF 		.word	-1085524616
 9859 1b50 F8BB4BBF 		.word	-1085555720
 9860 1b54 FA414BBF 		.word	-1085586950
 9861 1b58 7FC74ABF 		.word	-1085618305
 9862 1b5c 874C4ABF 		.word	-1085649785
 9863 1b60 12D149BF 		.word	-1085681390
 9864 1b64 215549BF 		.word	-1085713119
 9865 1b68 B3D848BF 		.word	-1085744973
 9866 1b6c CA5B48BF 		.word	-1085776950
 9867 1b70 65DE47BF 		.word	-1085809051
 9868 1b74 856047BF 		.word	-1085841275
 9869 1b78 2AE246BF 		.word	-1085873622
 9870 1b7c 546346BF 		.word	-1085906092
 9871 1b80 03E445BF 		.word	-1085938685
 9872 1b84 396445BF 		.word	-1085971399
 9873 1b88 F5E344BF 		.word	-1086004235
 9874 1b8c 376344BF 		.word	-1086037193
 9875 1b90 00E243BF 		.word	-1086070272
 9876 1b94 516043BF 		.word	-1086103471
 9877 1b98 29DE42BF 		.word	-1086136791
 9878 1b9c 895B42BF 		.word	-1086170231
 9879 1ba0 70D841BF 		.word	-1086203792
 9880 1ba4 E15441BF 		.word	-1086237471
 9881 1ba8 DAD040BF 		.word	-1086271270
 9882 1bac 5C4C40BF 		.word	-1086305188
 9883 1bb0 67C73FBF 		.word	-1086339225
 9884 1bb4 FC413FBF 		.word	-1086373380
 9885 1bb8 1BBC3EBF 		.word	-1086407653
 9886 1bbc C5353EBF 		.word	-1086442043
 9887 1bc0 F9AE3DBF 		.word	-1086476551
 9888 1bc4 B8273DBF 		.word	-1086511176
 9889 1bc8 03A03CBF 		.word	-1086545917
 9890 1bcc D9173CBF 		.word	-1086580775
 9891 1bd0 3B8F3BBF 		.word	-1086615749
 9892 1bd4 29063BBF 		.word	-1086650839
 9893 1bd8 A47C3ABF 		.word	-1086686044
 9894 1bdc ACF239BF 		.word	-1086721364
 9895 1be0 426839BF 		.word	-1086756798
 9896 1be4 65DD38BF 		.word	-1086792347
 9897 1be8 165238BF 		.word	-1086828010
 9898 1bec 55C637BF 		.word	-1086863787
ARM GAS  /var/folders/80/65lm4rm97rv_n74c85vt01040000gn/T//ccuR6fPR.s 			page 200


 9899 1bf0 233A37BF 		.word	-1086899677
 9900 1bf4 7FAD36BF 		.word	-1086935681
 9901 1bf8 6C2036BF 		.word	-1086971796
 9902 1bfc E79235BF 		.word	-1087008025
 9903 1c00 F30435BF 		.word	-1087044365
 9904 1c04 8F7634BF 		.word	-1087080817
 9905 1c08 BCE733BF 		.word	-1087117380
 9906 1c0c 7A5833BF 		.word	-1087154054
 9907 1c10 C9C832BF 		.word	-1087190839
 9908 1c14 AA3832BF 		.word	-1087227734
 9909 1c18 1DA831BF 		.word	-1087264739
 9910 1c1c 221731BF 		.word	-1087301854
 9911 1c20 BB8530BF 		.word	-1087339077
 9912 1c24 E6F32FBF 		.word	-1087376410
 9913 1c28 A5612FBF 		.word	-1087413851
 9914 1c2c F7CE2EBF 		.word	-1087451401
 9915 1c30 DE3B2EBF 		.word	-1087489058
 9916 1c34 59A82DBF 		.word	-1087526823
 9917 1c38 69142DBF 		.word	-1087564695
 9918 1c3c 0F802CBF 		.word	-1087602673
 9919 1c40 4AEB2BBF 		.word	-1087640758
 9920 1c44 1B562BBF 		.word	-1087678949
 9921 1c48 82C02ABF 		.word	-1087717246
 9922 1c4c 802A2ABF 		.word	-1087755648
 9923 1c50 159429BF 		.word	-1087794155
 9924 1c54 41FD28BF 		.word	-1087832767
 9925 1c58 056628BF 		.word	-1087871483
 9926 1c5c 61CE27BF 		.word	-1087910303
 9927 1c60 563627BF 		.word	-1087949226
 9928 1c64 E39D26BF 		.word	-1087988253
 9929 1c68 0A0526BF 		.word	-1088027382
 9930 1c6c CB6B25BF 		.word	-1088066613
 9931 1c70 25D224BF 		.word	-1088105947
 9932 1c74 1A3824BF 		.word	-1088145382
 9933 1c78 A99D23BF 		.word	-1088184919
 9934 1c7c D30223BF 		.word	-1088224557
 9935 1c80 996722BF 		.word	-1088264295
 9936 1c84 FBCB21BF 		.word	-1088304133
 9937 1c88 F92F21BF 		.word	-1088344071
 9938 1c8c 939320BF 		.word	-1088384109
 9939 1c90 CBF61FBF 		.word	-1088424245
 9940 1c94 9F591FBF 		.word	-1088464481
 9941 1c98 12BC1EBF 		.word	-1088504814
 9942 1c9c 221E1EBF 		.word	-1088545246
 9943 1ca0 D17F1DBF 		.word	-1088585775
 9944 1ca4 1FE11CBF 		.word	-1088626401
 9945 1ca8 0C421CBF 		.word	-1088667124
 9946 1cac 99A21BBF 		.word	-1088707943
 9947 1cb0 C6021BBF 		.word	-1088748858
 9948 1cb4 93621ABF 		.word	-1088789869
 9949 1cb8 00C219BF 		.word	-1088830976
 9950 1cbc 0F2119BF 		.word	-1088872177
 9951 1cc0 C07F18BF 		.word	-1088913472
 9952 1cc4 12DE17BF 		.word	-1088954862
 9953 1cc8 073C17BF 		.word	-1088996345
 9954 1ccc 9F9916BF 		.word	-1089037921
 9955 1cd0 D9F615BF 		.word	-1089079591
ARM GAS  /var/folders/80/65lm4rm97rv_n74c85vt01040000gn/T//ccuR6fPR.s 			page 201


 9956 1cd4 B75315BF 		.word	-1089121353
 9957 1cd8 39B014BF 		.word	-1089163207
 9958 1cdc 5F0C14BF 		.word	-1089205153
 9959 1ce0 2A6813BF 		.word	-1089247190
 9960 1ce4 9AC312BF 		.word	-1089289318
 9961 1ce8 B01E12BF 		.word	-1089331536
 9962 1cec 6B7911BF 		.word	-1089373845
 9963 1cf0 CDD310BF 		.word	-1089416243
 9964 1cf4 D52D10BF 		.word	-1089458731
 9965 1cf8 84870FBF 		.word	-1089501308
 9966 1cfc DBE00EBF 		.word	-1089543973
 9967 1d00 DA390EBF 		.word	-1089586726
 9968 1d04 81920DBF 		.word	-1089629567
 9969 1d08 D0EA0CBF 		.word	-1089672496
 9970 1d0c C9420CBF 		.word	-1089715511
 9971 1d10 6B9A0BBF 		.word	-1089758613
 9972 1d14 B7F10ABF 		.word	-1089801801
 9973 1d18 AD480ABF 		.word	-1089845075
 9974 1d1c 4E9F09BF 		.word	-1089888434
 9975 1d20 9BF508BF 		.word	-1089931877
 9976 1d24 924B08BF 		.word	-1089975406
 9977 1d28 36A107BF 		.word	-1090019018
 9978 1d2c 86F606BF 		.word	-1090062714
 9979 1d30 824B06BF 		.word	-1090106494
 9980 1d34 2CA005BF 		.word	-1090150356
 9981 1d38 84F404BF 		.word	-1090194300
 9982 1d3c 894804BF 		.word	-1090238327
 9983 1d40 3D9C03BF 		.word	-1090282435
 9984 1d44 9FEF02BF 		.word	-1090326625
 9985 1d48 B14202BF 		.word	-1090370895
 9986 1d4c 739501BF 		.word	-1090415245
 9987 1d50 E4E700BF 		.word	-1090459676
 9988 1d54 063A00BF 		.word	-1090504186
 9989 1d58 B217FFBE 		.word	-1090578510
 9990 1d5c BBBAFDBE 		.word	-1090667845
 9991 1d60 275DFCBE 		.word	-1090757337
 9992 1d64 F7FEFABE 		.word	-1090846985
 9993 1d68 2DA0F9BE 		.word	-1090936787
 9994 1d6c C840F8BE 		.word	-1091026744
 9995 1d70 CBE0F6BE 		.word	-1091116853
 9996 1d74 3580F5BE 		.word	-1091207115
 9997 1d78 071FF4BE 		.word	-1091297529
 9998 1d7c 43BDF2BE 		.word	-1091388093
 9999 1d80 EA5AF1BE 		.word	-1091478806
 10000 1d84 FBF7EFBE 		.word	-1091569669
 10001 1d88 7994EEBE 		.word	-1091660679
 10002 1d8c 6330EDBE 		.word	-1091751837
 10003 1d90 BBCBEBBE 		.word	-1091843141
 10004 1d94 8166EABE 		.word	-1091934591
 10005 1d98 B700E9BE 		.word	-1092026185
 10006 1d9c 5D9AE7BE 		.word	-1092117923
 10007 1da0 7533E6BE 		.word	-1092209803
 10008 1da4 FECBE4BE 		.word	-1092301826
 10009 1da8 FA63E3BE 		.word	-1092393990
 10010 1dac 6AFBE1BE 		.word	-1092486294
 10011 1db0 4F92E0BE 		.word	-1092578737
 10012 1db4 A928DFBE 		.word	-1092671319
ARM GAS  /var/folders/80/65lm4rm97rv_n74c85vt01040000gn/T//ccuR6fPR.s 			page 202


 10013 1db8 79BEDDBE 		.word	-1092764039
 10014 1dbc C153DCBE 		.word	-1092856895
 10015 1dc0 80E8DABE 		.word	-1092949888
 10016 1dc4 B97CD9BE 		.word	-1093043015
 10017 1dc8 6B10D8BE 		.word	-1093136277
 10018 1dcc 99A3D6BE 		.word	-1093229671
 10019 1dd0 4136D5BE 		.word	-1093323199
 10020 1dd4 67C8D3BE 		.word	-1093416857
 10021 1dd8 095AD2BE 		.word	-1093510647
 10022 1ddc 2AEBD0BE 		.word	-1093604566
 10023 1de0 CA7BCFBE 		.word	-1093698614
 10024 1de4 EA0BCEBE 		.word	-1093792790
 10025 1de8 8B9BCCBE 		.word	-1093887093
 10026 1dec AE2ACBBE 		.word	-1093981522
 10027 1df0 53B9C9BE 		.word	-1094076077
 10028 1df4 7C47C8BE 		.word	-1094170756
 10029 1df8 29D5C6BE 		.word	-1094265559
 10030 1dfc 5C62C5BE 		.word	-1094360484
 10031 1e00 15EFC3BE 		.word	-1094455531
 10032 1e04 557BC2BE 		.word	-1094550699
 10033 1e08 1E07C1BE 		.word	-1094645986
 10034 1e0c 6F92BFBE 		.word	-1094741393
 10035 1e10 4A1DBEBE 		.word	-1094836918
 10036 1e14 AFA7BCBE 		.word	-1094932561
 10037 1e18 A031BBBE 		.word	-1095028320
 10038 1e1c 1EBBB9BE 		.word	-1095124194
 10039 1e20 2A44B8BE 		.word	-1095220182
 10040 1e24 C3CCB6BE 		.word	-1095316285
 10041 1e28 EC54B5BE 		.word	-1095412500
 10042 1e2c A5DCB3BE 		.word	-1095508827
 10043 1e30 EF63B2BE 		.word	-1095605265
 10044 1e34 CBEAB0BE 		.word	-1095701813
 10045 1e38 3A71AFBE 		.word	-1095798470
 10046 1e3c 3CF7ADBE 		.word	-1095895236
 10047 1e40 D47CACBE 		.word	-1095992108
 10048 1e44 0102ABBE 		.word	-1096089087
 10049 1e48 C486A9BE 		.word	-1096186172
 10050 1e4c 1F0BA8BE 		.word	-1096283361
 10051 1e50 128FA6BE 		.word	-1096380654
 10052 1e54 9F12A5BE 		.word	-1096478049
 10053 1e58 C595A3BE 		.word	-1096575547
 10054 1e5c 8718A2BE 		.word	-1096673145
 10055 1e60 E59AA0BE 		.word	-1096770843
 10056 1e64 DF1C9FBE 		.word	-1096868641
 10057 1e68 789E9DBE 		.word	-1096966536
 10058 1e6c AF1F9CBE 		.word	-1097064529
 10059 1e70 86A09ABE 		.word	-1097162618
 10060 1e74 FE2099BE 		.word	-1097260802
 10061 1e78 17A197BE 		.word	-1097359081
 10062 1e7c D22096BE 		.word	-1097457454
 10063 1e80 31A094BE 		.word	-1097555919
 10064 1e84 351F93BE 		.word	-1097654475
 10065 1e88 DD9D91BE 		.word	-1097753123
 10066 1e8c 2C1C90BE 		.word	-1097851860
 10067 1e90 229A8EBE 		.word	-1097950686
 10068 1e94 C0178DBE 		.word	-1098049600
 10069 1e98 07958BBE 		.word	-1098148601
ARM GAS  /var/folders/80/65lm4rm97rv_n74c85vt01040000gn/T//ccuR6fPR.s 			page 203


 10070 1e9c F7118ABE 		.word	-1098247689
 10071 1ea0 938E88BE 		.word	-1098346861
 10072 1ea4 DA0A87BE 		.word	-1098446118
 10073 1ea8 CE8685BE 		.word	-1098545458
 10074 1eac 700284BE 		.word	-1098644880
 10075 1eb0 C07D82BE 		.word	-1098744384
 10076 1eb4 C0F880BE 		.word	-1098843968
 10077 1eb8 E1E67EBE 		.word	-1098979615
 10078 1ebc A4DB7BBE 		.word	-1099179100
 10079 1ec0 CCCF78BE 		.word	-1099378740
 10080 1ec4 5AC375BE 		.word	-1099578534
 10081 1ec8 51B672BE 		.word	-1099778479
 10082 1ecc B2A86FBE 		.word	-1099978574
 10083 1ed0 7F9A6CBE 		.word	-1100178817
 10084 1ed4 BA8B69BE 		.word	-1100379206
 10085 1ed8 667C66BE 		.word	-1100579738
 10086 1edc 836C63BE 		.word	-1100780413
 10087 1ee0 135C60BE 		.word	-1100981229
 10088 1ee4 1A4B5DBE 		.word	-1101182182
 10089 1ee8 97395ABE 		.word	-1101383273
 10090 1eec 8F2757BE 		.word	-1101584497
 10091 1ef0 011554BE 		.word	-1101785855
 10092 1ef4 F10151BE 		.word	-1101987343
 10093 1ef8 60EE4DBE 		.word	-1102188960
 10094 1efc 4FDA4ABE 		.word	-1102390705
 10095 1f00 C2C547BE 		.word	-1102592574
 10096 1f04 B9B044BE 		.word	-1102794567
 10097 1f08 379B41BE 		.word	-1102996681
 10098 1f0c 3E853EBE 		.word	-1103198914
 10099 1f10 CF6E3BBE 		.word	-1103401265
 10100 1f14 EC5738BE 		.word	-1103603732
 10101 1f18 984035BE 		.word	-1103806312
 10102 1f1c D42832BE 		.word	-1104009004
 10103 1f20 A2102FBE 		.word	-1104211806
 10104 1f24 04F82BBE 		.word	-1104414716
 10105 1f28 FCDE28BE 		.word	-1104617732
 10106 1f2c 8CC525BE 		.word	-1104820852
 10107 1f30 B6AB22BE 		.word	-1105024074
 10108 1f34 7B911FBE 		.word	-1105227397
 10109 1f38 DE761CBE 		.word	-1105430818
 10110 1f3c E05B19BE 		.word	-1105634336
 10111 1f40 834016BE 		.word	-1105837949
 10112 1f44 CA2413BE 		.word	-1106041654
 10113 1f48 B70810BE 		.word	-1106245449
 10114 1f4c 4AEC0CBE 		.word	-1106449334
 10115 1f50 86CF09BE 		.word	-1106653306
 10116 1f54 6EB206BE 		.word	-1106857362
 10117 1f58 029503BE 		.word	-1107061502
 10118 1f5c 457700BE 		.word	-1107265723
 10119 1f60 73B2FABD 		.word	-1107643789
 10120 1f64 C075F4BD 		.word	-1108052544
 10121 1f68 7638EEBD 		.word	-1108461450
 10122 1f6c 9AFAE7BD 		.word	-1108870502
 10123 1f70 2EBCE1BD 		.word	-1109279698
 10124 1f74 377DDBBD 		.word	-1109689033
 10125 1f78 B93DD5BD 		.word	-1110098503
 10126 1f7c B7FDCEBD 		.word	-1110508105
ARM GAS  /var/folders/80/65lm4rm97rv_n74c85vt01040000gn/T//ccuR6fPR.s 			page 204


 10127 1f80 36BDC8BD 		.word	-1110917834
 10128 1f84 397CC2BD 		.word	-1111327687
 10129 1f88 C33ABCBD 		.word	-1111737661
 10130 1f8c DAF8B5BD 		.word	-1112147750
 10131 1f90 80B6AFBD 		.word	-1112557952
 10132 1f94 BA73A9BD 		.word	-1112968262
 10133 1f98 8C30A3BD 		.word	-1113378676
 10134 1f9c F9EC9CBD 		.word	-1113789191
 10135 1fa0 05A996BD 		.word	-1114199803
 10136 1fa4 B46490BD 		.word	-1114610508
 10137 1fa8 0A208ABD 		.word	-1115021302
 10138 1fac 0ADB83BD 		.word	-1115432182
 10139 1fb0 742B7BBD 		.word	-1116001420
 10140 1fb4 38A06EBD 		.word	-1116823496
 10141 1fb8 691462BD 		.word	-1117645719
 10142 1fbc 0E8855BD 		.word	-1118468082
 10143 1fc0 30FB48BD 		.word	-1119290576
 10144 1fc4 D56D3CBD 		.word	-1120113195
 10145 1fc8 07E02FBD 		.word	-1120935929
 10146 1fcc CB5123BD 		.word	-1121758773
 10147 1fd0 2CC316BD 		.word	-1122581716
 10148 1fd4 2F340ABD 		.word	-1123404753
 10149 1fd8 BA49FBBC 		.word	-1124382278
 10150 1fdc 7A2AE2BC 		.word	-1126028678
 10151 1fe0 B00AC9BC 		.word	-1127675216
 10152 1fe4 69EAAFBC 		.word	-1129321879
 10153 1fe8 B6C996BC 		.word	-1130968650
 10154 1fec 4B517BBC 		.word	-1132768949
 10155 1ff0 900E49BC 		.word	-1136062832
 10156 1ff4 58CB16BC 		.word	-1139356840
 10157 1ff8 880FC9BB 		.word	-1144451192
 10158 1ffc C60F49BB 		.word	-1152839738
 10159              		.text
 10160              	.Letext0:
 10161              		.file 2 "/usr/local/Caskroom/gcc-arm-embedded/10-2020-q4-major/gcc-arm-none-eabi-10-2020-q4-major/
 10162              		.file 3 "/usr/local/Caskroom/gcc-arm-embedded/10-2020-q4-major/gcc-arm-none-eabi-10-2020-q4-major/
 10163              		.file 4 "Inc/midimessage.h"
 10164              		.file 5 "Inc/midisetting.h"
 10165              		.file 6 "Inc/note_stack.h"
 10166              		.file 7 "Inc/analog.h"
 10167              		.file 8 "Inc/digital.h"
 10168              		.file 9 "/usr/local/Caskroom/gcc-arm-embedded/10-2020-q4-major/gcc-arm-none-eabi-10-2020-q4-major/
 10169              		.file 10 "Inc/poly.h"
 10170              		.file 11 "Inc/resources.h"
 10171              		.file 12 "Inc/dac.h"
 10172              		.file 13 "/usr/local/Caskroom/gcc-arm-embedded/10-2020-q4-major/gcc-arm-none-eabi-10-2020-q4-major
ARM GAS  /var/folders/80/65lm4rm97rv_n74c85vt01040000gn/T//ccuR6fPR.s 			page 205


DEFINED SYMBOLS
                            *ABS*:0000000000000000 analog.c
/var/folders/80/65lm4rm97rv_n74c85vt01040000gn/T//ccuR6fPR.s:18     .text.customrand:0000000000000000 $t
/var/folders/80/65lm4rm97rv_n74c85vt01040000gn/T//ccuR6fPR.s:26     .text.customrand:0000000000000000 customrand
/var/folders/80/65lm4rm97rv_n74c85vt01040000gn/T//ccuR6fPR.s:50     .text.customrand:0000000000000010 $d
/var/folders/80/65lm4rm97rv_n74c85vt01040000gn/T//ccuR6fPR.s:57     .text.Analog_DigitalValue:0000000000000000 $t
/var/folders/80/65lm4rm97rv_n74c85vt01040000gn/T//ccuR6fPR.s:64     .text.Analog_DigitalValue:0000000000000000 Analog_DigitalValue
/var/folders/80/65lm4rm97rv_n74c85vt01040000gn/T//ccuR6fPR.s:118    .text.Analog_DigitalValue:000000000000002c $d
/var/folders/80/65lm4rm97rv_n74c85vt01040000gn/T//ccuR6fPR.s:123    .text.Analog_DigitalValuePedal:0000000000000000 $t
/var/folders/80/65lm4rm97rv_n74c85vt01040000gn/T//ccuR6fPR.s:130    .text.Analog_DigitalValuePedal:0000000000000000 Analog_DigitalValuePedal
/var/folders/80/65lm4rm97rv_n74c85vt01040000gn/T//ccuR6fPR.s:214    .text.Analog_DigitalValuePedal:0000000000000048 $d
/var/folders/80/65lm4rm97rv_n74c85vt01040000gn/T//ccuR6fPR.s:219    .text.Analog_DigitalVoice:0000000000000000 $t
/var/folders/80/65lm4rm97rv_n74c85vt01040000gn/T//ccuR6fPR.s:226    .text.Analog_DigitalVoice:0000000000000000 Analog_DigitalVoice
/var/folders/80/65lm4rm97rv_n74c85vt01040000gn/T//ccuR6fPR.s:266    .text.Analog_DigitalVoice:0000000000000020 $d
/var/folders/80/65lm4rm97rv_n74c85vt01040000gn/T//ccuR6fPR.s:271    .text.Analog_NoteToDac:0000000000000000 $t
/var/folders/80/65lm4rm97rv_n74c85vt01040000gn/T//ccuR6fPR.s:278    .text.Analog_NoteToDac:0000000000000000 Analog_NoteToDac
/var/folders/80/65lm4rm97rv_n74c85vt01040000gn/T//ccuR6fPR.s:330    .text.Analog_NoteToDac:000000000000003c $d
/var/folders/80/65lm4rm97rv_n74c85vt01040000gn/T//ccuR6fPR.s:335    .text.Analog_ChangeNote:0000000000000000 $t
/var/folders/80/65lm4rm97rv_n74c85vt01040000gn/T//ccuR6fPR.s:342    .text.Analog_ChangeNote:0000000000000000 Analog_ChangeNote
/var/folders/80/65lm4rm97rv_n74c85vt01040000gn/T//ccuR6fPR.s:393    .text.Analog_Reset:0000000000000000 $t
/var/folders/80/65lm4rm97rv_n74c85vt01040000gn/T//ccuR6fPR.s:400    .text.Analog_Reset:0000000000000000 Analog_Reset
/var/folders/80/65lm4rm97rv_n74c85vt01040000gn/T//ccuR6fPR.s:555    .text.Analog_Reset:00000000000000a8 $d
/var/folders/80/65lm4rm97rv_n74c85vt01040000gn/T//ccuR6fPR.s:561    .text.Analog_Init:0000000000000000 $t
/var/folders/80/65lm4rm97rv_n74c85vt01040000gn/T//ccuR6fPR.s:568    .text.Analog_Init:0000000000000000 Analog_Init
/var/folders/80/65lm4rm97rv_n74c85vt01040000gn/T//ccuR6fPR.s:620    .text.Analog_Init:0000000000000028 $d
/var/folders/80/65lm4rm97rv_n74c85vt01040000gn/T//ccuR6fPR.s:625    .text.Analog_Configure:0000000000000000 $t
/var/folders/80/65lm4rm97rv_n74c85vt01040000gn/T//ccuR6fPR.s:632    .text.Analog_Configure:0000000000000000 Analog_Configure
/var/folders/80/65lm4rm97rv_n74c85vt01040000gn/T//ccuR6fPR.s:674    .text.Analog_CycleValue:0000000000000000 $t
/var/folders/80/65lm4rm97rv_n74c85vt01040000gn/T//ccuR6fPR.s:681    .text.Analog_CycleValue:0000000000000000 Analog_CycleValue
/var/folders/80/65lm4rm97rv_n74c85vt01040000gn/T//ccuR6fPR.s:729    .text.Analog_CycleValue:000000000000003c $d
/var/folders/80/65lm4rm97rv_n74c85vt01040000gn/T//ccuR6fPR.s:734    .text.Analog_Random:0000000000000000 $t
/var/folders/80/65lm4rm97rv_n74c85vt01040000gn/T//ccuR6fPR.s:741    .text.Analog_Random:0000000000000000 Analog_Random
/var/folders/80/65lm4rm97rv_n74c85vt01040000gn/T//ccuR6fPR.s:822    .text.Analog_Random:0000000000000068 $d
/var/folders/80/65lm4rm97rv_n74c85vt01040000gn/T//ccuR6fPR.s:828    .text.Analog_Envelope:0000000000000000 $t
/var/folders/80/65lm4rm97rv_n74c85vt01040000gn/T//ccuR6fPR.s:835    .text.Analog_Envelope:0000000000000000 Analog_Envelope
/var/folders/80/65lm4rm97rv_n74c85vt01040000gn/T//ccuR6fPR.s:898    .text.Analog_Envelope:000000000000004c $d
/var/folders/80/65lm4rm97rv_n74c85vt01040000gn/T//ccuR6fPR.s:907    .text.Analog_Envelope:000000000000005e $t
/var/folders/80/65lm4rm97rv_n74c85vt01040000gn/T//ccuR6fPR.s:1315   .text.Analog_Envelope:0000000000000344 $d
/var/folders/80/65lm4rm97rv_n74c85vt01040000gn/T//ccuR6fPR.s:3746   .rodata.envelopeexpo:0000000000000000 envelopeexpo
/var/folders/80/65lm4rm97rv_n74c85vt01040000gn/T//ccuR6fPR.s:1322   .text.Analog_Envelope:0000000000000354 $t
/var/folders/80/65lm4rm97rv_n74c85vt01040000gn/T//ccuR6fPR.s:1357   .text.Analog_CalculateFrequency:0000000000000000 $t
/var/folders/80/65lm4rm97rv_n74c85vt01040000gn/T//ccuR6fPR.s:1364   .text.Analog_CalculateFrequency:0000000000000000 Analog_CalculateFrequency
/var/folders/80/65lm4rm97rv_n74c85vt01040000gn/T//ccuR6fPR.s:1422   .text.Analog_CalculateFrequency:0000000000000054 $d
/var/folders/80/65lm4rm97rv_n74c85vt01040000gn/T//ccuR6fPR.s:1430   .text.Analog_Oscillator:0000000000000000 $t
/var/folders/80/65lm4rm97rv_n74c85vt01040000gn/T//ccuR6fPR.s:1437   .text.Analog_Oscillator:0000000000000000 Analog_Oscillator
/var/folders/80/65lm4rm97rv_n74c85vt01040000gn/T//ccuR6fPR.s:1549   .text.Analog_Oscillator:0000000000000074 $d
/var/folders/80/65lm4rm97rv_n74c85vt01040000gn/T//ccuR6fPR.s:1697   .text.Analog_Oscillator:0000000000000144 $d
/var/folders/80/65lm4rm97rv_n74c85vt01040000gn/T//ccuR6fPR.s:8110   .rodata.sinelut:0000000000000000 sinelut
/var/folders/80/65lm4rm97rv_n74c85vt01040000gn/T//ccuR6fPR.s:1704   .text.Analog_TimerUpdate:0000000000000000 $t
/var/folders/80/65lm4rm97rv_n74c85vt01040000gn/T//ccuR6fPR.s:1711   .text.Analog_TimerUpdate:0000000000000000 Analog_TimerUpdate
/var/folders/80/65lm4rm97rv_n74c85vt01040000gn/T//ccuR6fPR.s:1859   .text.Analog_TimerUpdate:00000000000000a4 $d
/var/folders/80/65lm4rm97rv_n74c85vt01040000gn/T//ccuR6fPR.s:1864   .text.Analog_CC:0000000000000000 $t
/var/folders/80/65lm4rm97rv_n74c85vt01040000gn/T//ccuR6fPR.s:1871   .text.Analog_CC:0000000000000000 Analog_CC
/var/folders/80/65lm4rm97rv_n74c85vt01040000gn/T//ccuR6fPR.s:1990   .text.Analog_CC:0000000000000078 $d
/var/folders/80/65lm4rm97rv_n74c85vt01040000gn/T//ccuR6fPR.s:1996   .text.Analog_NoteOn:0000000000000000 $t
/var/folders/80/65lm4rm97rv_n74c85vt01040000gn/T//ccuR6fPR.s:2003   .text.Analog_NoteOn:0000000000000000 Analog_NoteOn
/var/folders/80/65lm4rm97rv_n74c85vt01040000gn/T//ccuR6fPR.s:2028   .text.Analog_NoteOn:0000000000000012 $d
ARM GAS  /var/folders/80/65lm4rm97rv_n74c85vt01040000gn/T//ccuR6fPR.s 			page 206


/var/folders/80/65lm4rm97rv_n74c85vt01040000gn/T//ccuR6fPR.s:2069   .text.Analog_NoteOn:0000000000000064 $t
/var/folders/80/65lm4rm97rv_n74c85vt01040000gn/T//ccuR6fPR.s:2614   .text.Analog_NoteOn:00000000000002d4 $d
/var/folders/80/65lm4rm97rv_n74c85vt01040000gn/T//ccuR6fPR.s:2622   .text.Analog_NoteOff:0000000000000000 $t
/var/folders/80/65lm4rm97rv_n74c85vt01040000gn/T//ccuR6fPR.s:2629   .text.Analog_NoteOff:0000000000000000 Analog_NoteOff
/var/folders/80/65lm4rm97rv_n74c85vt01040000gn/T//ccuR6fPR.s:2654   .text.Analog_NoteOff:0000000000000014 $d
/var/folders/80/65lm4rm97rv_n74c85vt01040000gn/T//ccuR6fPR.s:2692   .text.Analog_NoteOff:0000000000000060 $t
/var/folders/80/65lm4rm97rv_n74c85vt01040000gn/T//ccuR6fPR.s:3129   .text.Analog_NoteOff:0000000000000238 $d
/var/folders/80/65lm4rm97rv_n74c85vt01040000gn/T//ccuR6fPR.s:3136   .text.Analog_PolyInput:0000000000000000 $t
/var/folders/80/65lm4rm97rv_n74c85vt01040000gn/T//ccuR6fPR.s:3143   .text.Analog_PolyInput:0000000000000000 Analog_PolyInput
/var/folders/80/65lm4rm97rv_n74c85vt01040000gn/T//ccuR6fPR.s:3262   .text.Analog_Clock:0000000000000000 $t
/var/folders/80/65lm4rm97rv_n74c85vt01040000gn/T//ccuR6fPR.s:3269   .text.Analog_Clock:0000000000000000 Analog_Clock
/var/folders/80/65lm4rm97rv_n74c85vt01040000gn/T//ccuR6fPR.s:3378   .text.Analog_Aftertouch:0000000000000000 $t
/var/folders/80/65lm4rm97rv_n74c85vt01040000gn/T//ccuR6fPR.s:3385   .text.Analog_Aftertouch:0000000000000000 Analog_Aftertouch
/var/folders/80/65lm4rm97rv_n74c85vt01040000gn/T//ccuR6fPR.s:3479   .text.Analog_Aftertouch:0000000000000070 $d
/var/folders/80/65lm4rm97rv_n74c85vt01040000gn/T//ccuR6fPR.s:3484   .text.Analog_Pitchbend:0000000000000000 $t
/var/folders/80/65lm4rm97rv_n74c85vt01040000gn/T//ccuR6fPR.s:3491   .text.Analog_Pitchbend:0000000000000000 Analog_Pitchbend
/var/folders/80/65lm4rm97rv_n74c85vt01040000gn/T//ccuR6fPR.s:3591   .text.Analog_Pedal:0000000000000000 $t
/var/folders/80/65lm4rm97rv_n74c85vt01040000gn/T//ccuR6fPR.s:3598   .text.Analog_Pedal:0000000000000000 Analog_Pedal
/var/folders/80/65lm4rm97rv_n74c85vt01040000gn/T//ccuR6fPR.s:3730   .bss.state:0000000000000000 state
/var/folders/80/65lm4rm97rv_n74c85vt01040000gn/T//ccuR6fPR.s:3737   .data.randomthreshold:0000000000000000 randomthreshold
/var/folders/80/65lm4rm97rv_n74c85vt01040000gn/T//ccuR6fPR.s:3723   .bss.analog:0000000000000000 analog
/var/folders/80/65lm4rm97rv_n74c85vt01040000gn/T//ccuR6fPR.s:7849   .rodata.envelopetime:0000000000000000 envelopetime
/var/folders/80/65lm4rm97rv_n74c85vt01040000gn/T//ccuR6fPR.s:3719   .bss.analog:0000000000000000 $d
/var/folders/80/65lm4rm97rv_n74c85vt01040000gn/T//ccuR6fPR.s:3726   .bss.state:0000000000000000 $d
/var/folders/80/65lm4rm97rv_n74c85vt01040000gn/T//ccuR6fPR.s:3733   .data.randomthreshold:0000000000000000 $d
/var/folders/80/65lm4rm97rv_n74c85vt01040000gn/T//ccuR6fPR.s:3743   .rodata.envelopeexpo:0000000000000000 $d
/var/folders/80/65lm4rm97rv_n74c85vt01040000gn/T//ccuR6fPR.s:7845   .rodata.envelopetime:0000000000000000 $d
/var/folders/80/65lm4rm97rv_n74c85vt01040000gn/T//ccuR6fPR.s:8107   .rodata.sinelut:0000000000000000 $d
/var/folders/80/65lm4rm97rv_n74c85vt01040000gn/T//ccuR6fPR.s:1562   .text.Analog_Oscillator:0000000000000081 $d
/var/folders/80/65lm4rm97rv_n74c85vt01040000gn/T//ccuR6fPR.s:1562   .text.Analog_Oscillator:0000000000000082 $t

UNDEFINED SYMBOLS
DAC_InsertValue
Digital_Voice
digital
Poly_Init
NoteStack_Clear
DAC_Sendvalue
DAC_GetValue
exp2f
NoteStack_NoteOn
NoteStack_RecentNote
NoteStack_RecentVelocity
Poly_NoteOn
poly
NoteStack_NoteOff
Poly_NoteOff
