ARM GAS  /var/folders/80/65lm4rm97rv_n74c85vt01040000gn/T//ccnbidPO.s 			page 1


   1              		.cpu cortex-m4
   2              		.eabi_attribute 27, 1
   3              		.eabi_attribute 28, 1
   4              		.eabi_attribute 20, 1
   5              		.eabi_attribute 21, 1
   6              		.eabi_attribute 23, 3
   7              		.eabi_attribute 24, 1
   8              		.eabi_attribute 25, 1
   9              		.eabi_attribute 26, 1
  10              		.eabi_attribute 30, 1
  11              		.eabi_attribute 34, 1
  12              		.eabi_attribute 18, 4
  13              		.file	"configuration.c"
  14              		.text
  15              	.Ltext0:
  16              		.cfi_sections	.debug_frame
  17              		.section	.text.Config_DisableOutput,"ax",%progbits
  18              		.align	1
  19              		.global	Config_DisableOutput
  20              		.arch armv7e-m
  21              		.syntax unified
  22              		.thumb
  23              		.thumb_func
  24              		.fpu fpv4-sp-d16
  26              	Config_DisableOutput:
  27              	.LFB126:
  28              		.file 1 "Src/configuration.c"
   1:Src/configuration.c **** #include "configuration.h"
   2:Src/configuration.c **** #include "digital.h"
   3:Src/configuration.c **** #include "analog.h"
   4:Src/configuration.c **** #include "dac.h"
   5:Src/configuration.c **** #include "led.h"
   6:Src/configuration.c **** #include "stm32f3xx_hal.h"
   7:Src/configuration.c **** #include <string.h>
   8:Src/configuration.c **** 
   9:Src/configuration.c **** Config_t config[16];
  10:Src/configuration.c **** uint8_t configindex;
  11:Src/configuration.c **** 
  12:Src/configuration.c **** void Config_DisableOutput() {
  29              		.loc 1 12 29 view -0
  30              		.cfi_startproc
  31              		@ args = 0, pretend = 0, frame = 0
  32              		@ frame_needed = 0, uses_anonymous_args = 0
  33 0000 F8B5     		push	{r3, r4, r5, r6, r7, lr}
  34              	.LCFI0:
  35              		.cfi_def_cfa_offset 24
  36              		.cfi_offset 3, -24
  37              		.cfi_offset 4, -20
  38              		.cfi_offset 5, -16
  39              		.cfi_offset 6, -12
  40              		.cfi_offset 7, -8
  41              		.cfi_offset 14, -4
  13:Src/configuration.c ****   for (size_t i = 0; i < 4; i++)
  42              		.loc 1 13 3 view .LVU1
  43              	.LBB23:
  44              		.loc 1 13 8 view .LVU2
  45              	.LVL0:
ARM GAS  /var/folders/80/65lm4rm97rv_n74c85vt01040000gn/T//ccnbidPO.s 			page 2


  46              		.loc 1 13 15 is_stmt 0 view .LVU3
  47 0002 0024     		movs	r4, #0
  48              		.loc 1 13 3 view .LVU4
  49 0004 1EE0     		b	.L2
  50              	.LVL1:
  51              	.L3:
  14:Src/configuration.c ****   {
  15:Src/configuration.c ****     Digital_Configure(&digital[i],DIGITAL_OFF,&config[configindex].digitalsetting[i]);
  52              		.loc 1 15 5 is_stmt 1 discriminator 3 view .LVU5
  53              		.loc 1 15 82 is_stmt 0 discriminator 3 view .LVU6
  54 0006 114F     		ldr	r7, .L5
  55 0008 3A78     		ldrb	r2, [r7]	@ zero_extendqisi2
  56              		.loc 1 15 5 discriminator 3 view .LVU7
  57 000a 114E     		ldr	r6, .L5+4
  58 000c 04EB4405 		add	r5, r4, r4, lsl #1
  59 0010 05EB4212 		add	r2, r5, r2, lsl #5
  60 0014 1032     		adds	r2, r2, #16
  61 0016 3244     		add	r2, r2, r6
  62 0018 04EB8503 		add	r3, r4, r5, lsl #2
  63 001c 0432     		adds	r2, r2, #4
  64 001e 0021     		movs	r1, #0
  65 0020 0C48     		ldr	r0, .L5+8
  66 0022 1844     		add	r0, r0, r3
  67 0024 FFF7FEFF 		bl	Digital_Configure
  68              	.LVL2:
  16:Src/configuration.c ****     Analog_Configure(&analog[i],ANALOG_OFF,&config[configindex].analogsetting[i]);
  69              		.loc 1 16 5 is_stmt 1 discriminator 3 view .LVU8
  70              		.loc 1 16 78 is_stmt 0 discriminator 3 view .LVU9
  71 0028 3A78     		ldrb	r2, [r7]	@ zero_extendqisi2
  72              		.loc 1 16 5 discriminator 3 view .LVU10
  73 002a 05EB4215 		add	r5, r5, r2, lsl #5
  74 002e 3544     		add	r5, r5, r6
  75 0030 04EB0412 		add	r2, r4, r4, lsl #4
  76 0034 D300     		lsls	r3, r2, #3
  77 0036 2A1D     		adds	r2, r5, #4
  78 0038 0021     		movs	r1, #0
  79 003a 0748     		ldr	r0, .L5+12
  80 003c 1844     		add	r0, r0, r3
  81 003e FFF7FEFF 		bl	Analog_Configure
  82              	.LVL3:
  13:Src/configuration.c ****   for (size_t i = 0; i < 4; i++)
  83              		.loc 1 13 29 is_stmt 1 discriminator 3 view .LVU11
  13:Src/configuration.c ****   for (size_t i = 0; i < 4; i++)
  84              		.loc 1 13 30 is_stmt 0 discriminator 3 view .LVU12
  85 0042 0134     		adds	r4, r4, #1
  86              	.LVL4:
  87              	.L2:
  13:Src/configuration.c ****   for (size_t i = 0; i < 4; i++)
  88              		.loc 1 13 22 is_stmt 1 discriminator 1 view .LVU13
  13:Src/configuration.c ****   for (size_t i = 0; i < 4; i++)
  89              		.loc 1 13 3 is_stmt 0 discriminator 1 view .LVU14
  90 0044 032C     		cmp	r4, #3
  91 0046 DED9     		bls	.L3
  92              	.LBE23:
  17:Src/configuration.c ****   }
  18:Src/configuration.c **** }
  93              		.loc 1 18 1 view .LVU15
ARM GAS  /var/folders/80/65lm4rm97rv_n74c85vt01040000gn/T//ccnbidPO.s 			page 3


  94 0048 F8BD     		pop	{r3, r4, r5, r6, r7, pc}
  95              	.LVL5:
  96              	.L6:
  97              		.loc 1 18 1 view .LVU16
  98 004a 00BF     		.align	2
  99              	.L5:
 100 004c 00000000 		.word	.LANCHOR0
 101 0050 00000000 		.word	.LANCHOR1
 102 0054 00000000 		.word	digital
 103 0058 00000000 		.word	analog
 104              		.cfi_endproc
 105              	.LFE126:
 107              		.section	.text.Config_EraseBitPage,"ax",%progbits
 108              		.align	1
 109              		.global	Config_EraseBitPage
 110              		.syntax unified
 111              		.thumb
 112              		.thumb_func
 113              		.fpu fpv4-sp-d16
 115              	Config_EraseBitPage:
 116              	.LFB127:
  19:Src/configuration.c **** 
  20:Src/configuration.c **** void Config_EraseBitPage() {
 117              		.loc 1 20 28 is_stmt 1 view -0
 118              		.cfi_startproc
 119              		@ args = 0, pretend = 0, frame = 16
 120              		@ frame_needed = 0, uses_anonymous_args = 0
 121 0000 00B5     		push	{lr}
 122              	.LCFI1:
 123              		.cfi_def_cfa_offset 4
 124              		.cfi_offset 14, -4
 125 0002 85B0     		sub	sp, sp, #20
 126              	.LCFI2:
 127              		.cfi_def_cfa_offset 24
  21:Src/configuration.c ****   HAL_FLASH_Unlock();
 128              		.loc 1 21 3 view .LVU18
 129 0004 FFF7FEFF 		bl	HAL_FLASH_Unlock
 130              	.LVL6:
  22:Src/configuration.c **** 
  23:Src/configuration.c ****   FLASH_EraseInitTypeDef ferase;
 131              		.loc 1 23 3 view .LVU19
  24:Src/configuration.c ****   ferase.TypeErase = FLASH_TYPEERASE_PAGES;
 132              		.loc 1 24 3 view .LVU20
 133              		.loc 1 24 20 is_stmt 0 view .LVU21
 134 0008 0023     		movs	r3, #0
 135 000a 0193     		str	r3, [sp, #4]
  25:Src/configuration.c ****   ferase.PageAddress = kBIT_ADDRESS;
 136              		.loc 1 25 3 is_stmt 1 view .LVU22
 137              		.loc 1 25 22 is_stmt 0 view .LVU23
 138 000c 064A     		ldr	r2, .L9
 139 000e 0292     		str	r2, [sp, #8]
  26:Src/configuration.c ****   ferase.NbPages = 1;
 140              		.loc 1 26 3 is_stmt 1 view .LVU24
 141              		.loc 1 26 18 is_stmt 0 view .LVU25
 142 0010 0122     		movs	r2, #1
 143 0012 0392     		str	r2, [sp, #12]
  27:Src/configuration.c **** 
ARM GAS  /var/folders/80/65lm4rm97rv_n74c85vt01040000gn/T//ccnbidPO.s 			page 4


  28:Src/configuration.c ****   uint32_t pageerror = 0;
 144              		.loc 1 28 3 is_stmt 1 view .LVU26
 145              		.loc 1 28 12 is_stmt 0 view .LVU27
 146 0014 0093     		str	r3, [sp]
  29:Src/configuration.c **** 
  30:Src/configuration.c ****   HAL_FLASHEx_Erase(&ferase,&pageerror);
 147              		.loc 1 30 3 is_stmt 1 view .LVU28
 148 0016 6946     		mov	r1, sp
 149 0018 01A8     		add	r0, sp, #4
 150 001a FFF7FEFF 		bl	HAL_FLASHEx_Erase
 151              	.LVL7:
  31:Src/configuration.c **** 
  32:Src/configuration.c ****   HAL_FLASH_Lock();
 152              		.loc 1 32 3 view .LVU29
 153 001e FFF7FEFF 		bl	HAL_FLASH_Lock
 154              	.LVL8:
  33:Src/configuration.c **** }
 155              		.loc 1 33 1 is_stmt 0 view .LVU30
 156 0022 05B0     		add	sp, sp, #20
 157              	.LCFI3:
 158              		.cfi_def_cfa_offset 4
 159              		@ sp needed
 160 0024 5DF804FB 		ldr	pc, [sp], #4
 161              	.L10:
 162              		.align	2
 163              	.L9:
 164 0028 00280008 		.word	134227968
 165              		.cfi_endproc
 166              	.LFE127:
 168              		.section	.text.Config_EraseUserPage,"ax",%progbits
 169              		.align	1
 170              		.global	Config_EraseUserPage
 171              		.syntax unified
 172              		.thumb
 173              		.thumb_func
 174              		.fpu fpv4-sp-d16
 176              	Config_EraseUserPage:
 177              	.LFB128:
  34:Src/configuration.c **** 
  35:Src/configuration.c **** void Config_EraseUserPage() {
 178              		.loc 1 35 29 is_stmt 1 view -0
 179              		.cfi_startproc
 180              		@ args = 0, pretend = 0, frame = 16
 181              		@ frame_needed = 0, uses_anonymous_args = 0
 182 0000 00B5     		push	{lr}
 183              	.LCFI4:
 184              		.cfi_def_cfa_offset 4
 185              		.cfi_offset 14, -4
 186 0002 85B0     		sub	sp, sp, #20
 187              	.LCFI5:
 188              		.cfi_def_cfa_offset 24
  36:Src/configuration.c ****   HAL_FLASH_Unlock();
 189              		.loc 1 36 3 view .LVU32
 190 0004 FFF7FEFF 		bl	HAL_FLASH_Unlock
 191              	.LVL9:
  37:Src/configuration.c **** 
  38:Src/configuration.c ****   FLASH_EraseInitTypeDef ferase;
ARM GAS  /var/folders/80/65lm4rm97rv_n74c85vt01040000gn/T//ccnbidPO.s 			page 5


 192              		.loc 1 38 3 view .LVU33
  39:Src/configuration.c ****   ferase.TypeErase = FLASH_TYPEERASE_PAGES;
 193              		.loc 1 39 3 view .LVU34
 194              		.loc 1 39 20 is_stmt 0 view .LVU35
 195 0008 0023     		movs	r3, #0
 196 000a 0193     		str	r3, [sp, #4]
  40:Src/configuration.c ****   ferase.PageAddress = kUSER_ADDRESS;
 197              		.loc 1 40 3 is_stmt 1 view .LVU36
 198              		.loc 1 40 22 is_stmt 0 view .LVU37
 199 000c 064A     		ldr	r2, .L13
 200 000e 0292     		str	r2, [sp, #8]
  41:Src/configuration.c ****   ferase.NbPages = 2;
 201              		.loc 1 41 3 is_stmt 1 view .LVU38
 202              		.loc 1 41 18 is_stmt 0 view .LVU39
 203 0010 0222     		movs	r2, #2
 204 0012 0392     		str	r2, [sp, #12]
  42:Src/configuration.c **** 
  43:Src/configuration.c ****   uint32_t pageerror = 0;
 205              		.loc 1 43 3 is_stmt 1 view .LVU40
 206              		.loc 1 43 12 is_stmt 0 view .LVU41
 207 0014 0093     		str	r3, [sp]
  44:Src/configuration.c **** 
  45:Src/configuration.c ****   HAL_FLASHEx_Erase(&ferase,&pageerror);
 208              		.loc 1 45 3 is_stmt 1 view .LVU42
 209 0016 6946     		mov	r1, sp
 210 0018 01A8     		add	r0, sp, #4
 211 001a FFF7FEFF 		bl	HAL_FLASHEx_Erase
 212              	.LVL10:
  46:Src/configuration.c **** 
  47:Src/configuration.c ****   HAL_FLASH_Lock();
 213              		.loc 1 47 3 view .LVU43
 214 001e FFF7FEFF 		bl	HAL_FLASH_Lock
 215              	.LVL11:
  48:Src/configuration.c **** }
 216              		.loc 1 48 1 is_stmt 0 view .LVU44
 217 0022 05B0     		add	sp, sp, #20
 218              	.LCFI6:
 219              		.cfi_def_cfa_offset 4
 220              		@ sp needed
 221 0024 5DF804FB 		ldr	pc, [sp], #4
 222              	.L14:
 223              		.align	2
 224              	.L13:
 225 0028 00300008 		.word	134230016
 226              		.cfi_endproc
 227              	.LFE128:
 229              		.section	.text.Config_EraseUpdatePage,"ax",%progbits
 230              		.align	1
 231              		.global	Config_EraseUpdatePage
 232              		.syntax unified
 233              		.thumb
 234              		.thumb_func
 235              		.fpu fpv4-sp-d16
 237              	Config_EraseUpdatePage:
 238              	.LFB129:
  49:Src/configuration.c **** 
  50:Src/configuration.c **** void Config_EraseUpdatePage() {
ARM GAS  /var/folders/80/65lm4rm97rv_n74c85vt01040000gn/T//ccnbidPO.s 			page 6


 239              		.loc 1 50 31 is_stmt 1 view -0
 240              		.cfi_startproc
 241              		@ args = 0, pretend = 0, frame = 16
 242              		@ frame_needed = 0, uses_anonymous_args = 0
 243 0000 00B5     		push	{lr}
 244              	.LCFI7:
 245              		.cfi_def_cfa_offset 4
 246              		.cfi_offset 14, -4
 247 0002 85B0     		sub	sp, sp, #20
 248              	.LCFI8:
 249              		.cfi_def_cfa_offset 24
  51:Src/configuration.c ****   HAL_FLASH_Unlock();
 250              		.loc 1 51 3 view .LVU46
 251 0004 FFF7FEFF 		bl	HAL_FLASH_Unlock
 252              	.LVL12:
  52:Src/configuration.c **** 
  53:Src/configuration.c ****   FLASH_EraseInitTypeDef ferase;
 253              		.loc 1 53 3 view .LVU47
  54:Src/configuration.c ****   ferase.TypeErase = FLASH_TYPEERASE_PAGES;
 254              		.loc 1 54 3 view .LVU48
 255              		.loc 1 54 20 is_stmt 0 view .LVU49
 256 0008 0023     		movs	r3, #0
 257 000a 0193     		str	r3, [sp, #4]
  55:Src/configuration.c ****   ferase.PageAddress = kUPDATE_ADDRESS;
 258              		.loc 1 55 3 is_stmt 1 view .LVU50
 259              		.loc 1 55 22 is_stmt 0 view .LVU51
 260 000c 064A     		ldr	r2, .L17
 261 000e 0292     		str	r2, [sp, #8]
  56:Src/configuration.c ****   ferase.NbPages = 60;
 262              		.loc 1 56 3 is_stmt 1 view .LVU52
 263              		.loc 1 56 18 is_stmt 0 view .LVU53
 264 0010 3C22     		movs	r2, #60
 265 0012 0392     		str	r2, [sp, #12]
  57:Src/configuration.c **** 
  58:Src/configuration.c ****   uint32_t pageerror = 0;
 266              		.loc 1 58 3 is_stmt 1 view .LVU54
 267              		.loc 1 58 12 is_stmt 0 view .LVU55
 268 0014 0093     		str	r3, [sp]
  59:Src/configuration.c **** 
  60:Src/configuration.c ****   HAL_FLASHEx_Erase(&ferase,&pageerror);
 269              		.loc 1 60 3 is_stmt 1 view .LVU56
 270 0016 6946     		mov	r1, sp
 271 0018 01A8     		add	r0, sp, #4
 272 001a FFF7FEFF 		bl	HAL_FLASHEx_Erase
 273              	.LVL13:
  61:Src/configuration.c **** 
  62:Src/configuration.c ****   HAL_FLASH_Lock();
 274              		.loc 1 62 3 view .LVU57
 275 001e FFF7FEFF 		bl	HAL_FLASH_Lock
 276              	.LVL14:
  63:Src/configuration.c **** }
 277              		.loc 1 63 1 is_stmt 0 view .LVU58
 278 0022 05B0     		add	sp, sp, #20
 279              	.LCFI9:
 280              		.cfi_def_cfa_offset 4
 281              		@ sp needed
 282 0024 5DF804FB 		ldr	pc, [sp], #4
ARM GAS  /var/folders/80/65lm4rm97rv_n74c85vt01040000gn/T//ccnbidPO.s 			page 7


 283              	.L18:
 284              		.align	2
 285              	.L17:
 286 0028 00200208 		.word	134356992
 287              		.cfi_endproc
 288              	.LFE129:
 290              		.section	.text.Config_FlashWord,"ax",%progbits
 291              		.align	1
 292              		.global	Config_FlashWord
 293              		.syntax unified
 294              		.thumb
 295              		.thumb_func
 296              		.fpu fpv4-sp-d16
 298              	Config_FlashWord:
 299              	.LVL15:
 300              	.LFB130:
  64:Src/configuration.c **** 
  65:Src/configuration.c **** void Config_FlashWord(uint32_t *Address, uint32_t Data) {
 301              		.loc 1 65 57 is_stmt 1 view -0
 302              		.cfi_startproc
 303              		@ args = 0, pretend = 0, frame = 0
 304              		@ frame_needed = 0, uses_anonymous_args = 0
 305              		.loc 1 65 57 is_stmt 0 view .LVU60
 306 0000 10B5     		push	{r4, lr}
 307              	.LCFI10:
 308              		.cfi_def_cfa_offset 8
 309              		.cfi_offset 4, -8
 310              		.cfi_offset 14, -4
 311 0002 0446     		mov	r4, r0
 312 0004 0A46     		mov	r2, r1
  66:Src/configuration.c ****   HAL_FLASH_Program(FLASH_TYPEPROGRAM_WORD, *Address, Data);
 313              		.loc 1 66 3 is_stmt 1 view .LVU61
 314 0006 0023     		movs	r3, #0
 315 0008 0168     		ldr	r1, [r0]
 316              	.LVL16:
 317              		.loc 1 66 3 is_stmt 0 view .LVU62
 318 000a 0220     		movs	r0, #2
 319              	.LVL17:
 320              		.loc 1 66 3 view .LVU63
 321 000c FFF7FEFF 		bl	HAL_FLASH_Program
 322              	.LVL18:
  67:Src/configuration.c ****   *Address += 4;
 323              		.loc 1 67 3 is_stmt 1 view .LVU64
 324              		.loc 1 67 12 is_stmt 0 view .LVU65
 325 0010 2368     		ldr	r3, [r4]
 326 0012 0433     		adds	r3, r3, #4
 327 0014 2360     		str	r3, [r4]
  68:Src/configuration.c **** }
 328              		.loc 1 68 1 view .LVU66
 329 0016 10BD     		pop	{r4, pc}
 330              		.loc 1 68 1 view .LVU67
 331              		.cfi_endproc
 332              	.LFE130:
 334              		.section	.text.Config_FlashFloat,"ax",%progbits
 335              		.align	1
 336              		.global	Config_FlashFloat
 337              		.syntax unified
ARM GAS  /var/folders/80/65lm4rm97rv_n74c85vt01040000gn/T//ccnbidPO.s 			page 8


 338              		.thumb
 339              		.thumb_func
 340              		.fpu fpv4-sp-d16
 342              	Config_FlashFloat:
 343              	.LVL19:
 344              	.LFB131:
  69:Src/configuration.c **** 
  70:Src/configuration.c **** void Config_FlashFloat(uint32_t *Address, float Data) {
 345              		.loc 1 70 55 is_stmt 1 view -0
 346              		.cfi_startproc
 347              		@ args = 0, pretend = 0, frame = 8
 348              		@ frame_needed = 0, uses_anonymous_args = 0
 349              		.loc 1 70 55 is_stmt 0 view .LVU69
 350 0000 10B5     		push	{r4, lr}
 351              	.LCFI11:
 352              		.cfi_def_cfa_offset 8
 353              		.cfi_offset 4, -8
 354              		.cfi_offset 14, -4
 355 0002 82B0     		sub	sp, sp, #8
 356              	.LCFI12:
 357              		.cfi_def_cfa_offset 16
 358 0004 0446     		mov	r4, r0
 359 0006 8DED010A 		vstr.32	s0, [sp, #4]
  71:Src/configuration.c ****   uint32_t translate;
 360              		.loc 1 71 3 is_stmt 1 view .LVU70
  72:Src/configuration.c ****   memcpy(&translate,&Data,4);
 361              		.loc 1 72 3 view .LVU71
 362              	.LVL20:
  73:Src/configuration.c ****   HAL_FLASH_Program(FLASH_TYPEPROGRAM_WORD, *Address, translate);
 363              		.loc 1 73 3 view .LVU72
 364 000a 019A     		ldr	r2, [sp, #4]
 365 000c 0023     		movs	r3, #0
 366 000e 0168     		ldr	r1, [r0]
 367 0010 0220     		movs	r0, #2
 368              	.LVL21:
 369              		.loc 1 73 3 is_stmt 0 view .LVU73
 370 0012 FFF7FEFF 		bl	HAL_FLASH_Program
 371              	.LVL22:
  74:Src/configuration.c ****   *Address += 4;
 372              		.loc 1 74 3 is_stmt 1 view .LVU74
 373              		.loc 1 74 12 is_stmt 0 view .LVU75
 374 0016 2368     		ldr	r3, [r4]
 375 0018 0433     		adds	r3, r3, #4
 376 001a 2360     		str	r3, [r4]
  75:Src/configuration.c **** }
 377              		.loc 1 75 1 view .LVU76
 378 001c 02B0     		add	sp, sp, #8
 379              	.LCFI13:
 380              		.cfi_def_cfa_offset 8
 381              		@ sp needed
 382 001e 10BD     		pop	{r4, pc}
 383              		.loc 1 75 1 view .LVU77
 384              		.cfi_endproc
 385              	.LFE131:
 387              		.section	.text.Config_Configure,"ax",%progbits
 388              		.align	1
 389              		.global	Config_Configure
ARM GAS  /var/folders/80/65lm4rm97rv_n74c85vt01040000gn/T//ccnbidPO.s 			page 9


 390              		.syntax unified
 391              		.thumb
 392              		.thumb_func
 393              		.fpu fpv4-sp-d16
 395              	Config_Configure:
 396              	.LFB132:
  76:Src/configuration.c **** 
  77:Src/configuration.c **** void Config_Configure() {
 397              		.loc 1 77 25 is_stmt 1 view -0
 398              		.cfi_startproc
 399              		@ args = 0, pretend = 0, frame = 0
 400              		@ frame_needed = 0, uses_anonymous_args = 0
 401 0000 F8B5     		push	{r3, r4, r5, r6, r7, lr}
 402              	.LCFI14:
 403              		.cfi_def_cfa_offset 24
 404              		.cfi_offset 3, -24
 405              		.cfi_offset 4, -20
 406              		.cfi_offset 5, -16
 407              		.cfi_offset 6, -12
 408              		.cfi_offset 7, -8
 409              		.cfi_offset 14, -4
  78:Src/configuration.c ****   LED_ChangeMode(LED_Preset);
 410              		.loc 1 78 3 view .LVU79
 411 0002 0120     		movs	r0, #1
 412 0004 FFF7FEFF 		bl	LED_ChangeMode
 413              	.LVL23:
  79:Src/configuration.c ****   for (uint8_t i = 0; i < 4; i++) {
 414              		.loc 1 79 3 view .LVU80
 415              	.LBB24:
 416              		.loc 1 79 8 view .LVU81
 417              		.loc 1 79 16 is_stmt 0 view .LVU82
 418 0008 0024     		movs	r4, #0
 419              		.loc 1 79 3 view .LVU83
 420 000a 24E0     		b	.L24
 421              	.LVL24:
 422              	.L25:
  80:Src/configuration.c ****     Digital_Configure(&digital[i],config[configindex].digitalmode[i],&config[configindex].digitalse
 423              		.loc 1 80 5 is_stmt 1 discriminator 3 view .LVU84
 424 000c 134F     		ldr	r7, .L27
 425 000e 3B78     		ldrb	r3, [r7]	@ zero_extendqisi2
 426              		.loc 1 80 66 is_stmt 0 discriminator 3 view .LVU85
 427 0010 134D     		ldr	r5, .L27+4
 428 0012 05EB4311 		add	r1, r5, r3, lsl #5
 429 0016 2144     		add	r1, r1, r4
 430              		.loc 1 80 5 discriminator 3 view .LVU86
 431 0018 04EB4406 		add	r6, r4, r4, lsl #1
 432 001c 06EB4312 		add	r2, r6, r3, lsl #5
 433 0020 1032     		adds	r2, r2, #16
 434 0022 2A44     		add	r2, r2, r5
 435 0024 04EB8603 		add	r3, r4, r6, lsl #2
 436 0028 0432     		adds	r2, r2, #4
 437 002a 097C     		ldrb	r1, [r1, #16]	@ zero_extendqisi2
 438 002c 0D48     		ldr	r0, .L27+8
 439 002e 1844     		add	r0, r0, r3
 440 0030 FFF7FEFF 		bl	Digital_Configure
 441              	.LVL25:
  81:Src/configuration.c ****     Analog_Configure(&analog[i],config[configindex].analogmode[i],&config[configindex].analogsettin
ARM GAS  /var/folders/80/65lm4rm97rv_n74c85vt01040000gn/T//ccnbidPO.s 			page 10


 442              		.loc 1 81 5 is_stmt 1 discriminator 3 view .LVU87
 443 0034 3A78     		ldrb	r2, [r7]	@ zero_extendqisi2
 444              		.loc 1 81 63 is_stmt 0 discriminator 3 view .LVU88
 445 0036 05EB4210 		add	r0, r5, r2, lsl #5
 446              		.loc 1 81 5 discriminator 3 view .LVU89
 447 003a 06EB4212 		add	r2, r6, r2, lsl #5
 448 003e 2A44     		add	r2, r2, r5
 449 0040 04EB0411 		add	r1, r4, r4, lsl #4
 450 0044 CB00     		lsls	r3, r1, #3
 451 0046 0432     		adds	r2, r2, #4
 452 0048 015D     		ldrb	r1, [r0, r4]	@ zero_extendqisi2
 453 004a 0748     		ldr	r0, .L27+12
 454 004c 1844     		add	r0, r0, r3
 455 004e FFF7FEFF 		bl	Analog_Configure
 456              	.LVL26:
  79:Src/configuration.c ****   for (uint8_t i = 0; i < 4; i++) {
 457              		.loc 1 79 30 is_stmt 1 discriminator 3 view .LVU90
  79:Src/configuration.c ****   for (uint8_t i = 0; i < 4; i++) {
 458              		.loc 1 79 31 is_stmt 0 discriminator 3 view .LVU91
 459 0052 0134     		adds	r4, r4, #1
 460              	.LVL27:
  79:Src/configuration.c ****   for (uint8_t i = 0; i < 4; i++) {
 461              		.loc 1 79 31 discriminator 3 view .LVU92
 462 0054 E4B2     		uxtb	r4, r4
 463              	.LVL28:
 464              	.L24:
  79:Src/configuration.c ****   for (uint8_t i = 0; i < 4; i++) {
 465              		.loc 1 79 23 is_stmt 1 discriminator 1 view .LVU93
  79:Src/configuration.c ****   for (uint8_t i = 0; i < 4; i++) {
 466              		.loc 1 79 3 is_stmt 0 discriminator 1 view .LVU94
 467 0056 032C     		cmp	r4, #3
 468 0058 D8D9     		bls	.L25
 469              	.LBE24:
  82:Src/configuration.c ****   }
  83:Src/configuration.c **** }
 470              		.loc 1 83 1 view .LVU95
 471 005a F8BD     		pop	{r3, r4, r5, r6, r7, pc}
 472              	.LVL29:
 473              	.L28:
 474              		.loc 1 83 1 view .LVU96
 475              		.align	2
 476              	.L27:
 477 005c 00000000 		.word	.LANCHOR0
 478 0060 00000000 		.word	.LANCHOR1
 479 0064 00000000 		.word	digital
 480 0068 00000000 		.word	analog
 481              		.cfi_endproc
 482              	.LFE132:
 484              		.section	.text.Config_Empty,"ax",%progbits
 485              		.align	1
 486              		.global	Config_Empty
 487              		.syntax unified
 488              		.thumb
 489              		.thumb_func
 490              		.fpu fpv4-sp-d16
 492              	Config_Empty:
 493              	.LFB133:
ARM GAS  /var/folders/80/65lm4rm97rv_n74c85vt01040000gn/T//ccnbidPO.s 			page 11


  84:Src/configuration.c **** 
  85:Src/configuration.c **** void Config_Empty() {
 494              		.loc 1 85 21 is_stmt 1 view -0
 495              		.cfi_startproc
 496              		@ args = 0, pretend = 0, frame = 8
 497              		@ frame_needed = 0, uses_anonymous_args = 0
 498 0000 10B5     		push	{r4, lr}
 499              	.LCFI15:
 500              		.cfi_def_cfa_offset 8
 501              		.cfi_offset 4, -8
 502              		.cfi_offset 14, -4
 503 0002 82B0     		sub	sp, sp, #8
 504              	.LCFI16:
 505              		.cfi_def_cfa_offset 16
  86:Src/configuration.c ****   MidiSetting randomsetting;
 506              		.loc 1 86 3 view .LVU98
  87:Src/configuration.c ****   randomsetting.byte2 = 255;
 507              		.loc 1 87 3 view .LVU99
 508              		.loc 1 87 23 is_stmt 0 view .LVU100
 509 0004 FF23     		movs	r3, #255
 510 0006 8DF80530 		strb	r3, [sp, #5]
  88:Src/configuration.c ****   randomsetting.byte3 = 255;
 511              		.loc 1 88 3 is_stmt 1 view .LVU101
 512              		.loc 1 88 23 is_stmt 0 view .LVU102
 513 000a 8DF80630 		strb	r3, [sp, #6]
  89:Src/configuration.c ****   randomsetting.midichannel = 255;
 514              		.loc 1 89 3 is_stmt 1 view .LVU103
 515              		.loc 1 89 29 is_stmt 0 view .LVU104
 516 000e 8DF80430 		strb	r3, [sp, #4]
  90:Src/configuration.c **** 
  91:Src/configuration.c ****   for (uint8_t i = 0; i < 4; i++) {
 517              		.loc 1 91 3 is_stmt 1 view .LVU105
 518              	.LBB25:
 519              		.loc 1 91 8 view .LVU106
 520              	.LVL30:
 521              		.loc 1 91 16 is_stmt 0 view .LVU107
 522 0012 0024     		movs	r4, #0
 523              		.loc 1 91 3 view .LVU108
 524 0014 14E0     		b	.L30
 525              	.LVL31:
 526              	.L31:
  92:Src/configuration.c ****     Digital_Configure(&digital[i],DIGITAL_OFF,&randomsetting);
 527              		.loc 1 92 5 is_stmt 1 discriminator 3 view .LVU109
 528 0016 04EB4403 		add	r3, r4, r4, lsl #1
 529 001a 04EB8303 		add	r3, r4, r3, lsl #2
 530 001e 01AA     		add	r2, sp, #4
 531 0020 0021     		movs	r1, #0
 532 0022 0948     		ldr	r0, .L33
 533 0024 1844     		add	r0, r0, r3
 534 0026 FFF7FEFF 		bl	Digital_Configure
 535              	.LVL32:
  93:Src/configuration.c ****     Analog_Configure(&analog[i],ANALOG_OFF,&randomsetting);
 536              		.loc 1 93 5 discriminator 3 view .LVU110
 537 002a 04EB0412 		add	r2, r4, r4, lsl #4
 538 002e D300     		lsls	r3, r2, #3
 539 0030 01AA     		add	r2, sp, #4
 540 0032 0021     		movs	r1, #0
ARM GAS  /var/folders/80/65lm4rm97rv_n74c85vt01040000gn/T//ccnbidPO.s 			page 12


 541 0034 0548     		ldr	r0, .L33+4
 542 0036 1844     		add	r0, r0, r3
 543 0038 FFF7FEFF 		bl	Analog_Configure
 544              	.LVL33:
  91:Src/configuration.c ****     Digital_Configure(&digital[i],DIGITAL_OFF,&randomsetting);
 545              		.loc 1 91 30 discriminator 3 view .LVU111
  91:Src/configuration.c ****     Digital_Configure(&digital[i],DIGITAL_OFF,&randomsetting);
 546              		.loc 1 91 31 is_stmt 0 discriminator 3 view .LVU112
 547 003c 0134     		adds	r4, r4, #1
 548              	.LVL34:
  91:Src/configuration.c ****     Digital_Configure(&digital[i],DIGITAL_OFF,&randomsetting);
 549              		.loc 1 91 31 discriminator 3 view .LVU113
 550 003e E4B2     		uxtb	r4, r4
 551              	.LVL35:
 552              	.L30:
  91:Src/configuration.c ****     Digital_Configure(&digital[i],DIGITAL_OFF,&randomsetting);
 553              		.loc 1 91 23 is_stmt 1 discriminator 1 view .LVU114
  91:Src/configuration.c ****     Digital_Configure(&digital[i],DIGITAL_OFF,&randomsetting);
 554              		.loc 1 91 3 is_stmt 0 discriminator 1 view .LVU115
 555 0040 032C     		cmp	r4, #3
 556 0042 E8D9     		bls	.L31
 557              	.LBE25:
  94:Src/configuration.c ****   }
  95:Src/configuration.c **** }
 558              		.loc 1 95 1 view .LVU116
 559 0044 02B0     		add	sp, sp, #8
 560              	.LCFI17:
 561              		.cfi_def_cfa_offset 8
 562              		@ sp needed
 563 0046 10BD     		pop	{r4, pc}
 564              	.LVL36:
 565              	.L34:
 566              		.loc 1 95 1 view .LVU117
 567              		.align	2
 568              	.L33:
 569 0048 00000000 		.word	digital
 570 004c 00000000 		.word	analog
 571              		.cfi_endproc
 572              	.LFE133:
 574              		.section	.text.Config_ProgramChange,"ax",%progbits
 575              		.align	1
 576              		.global	Config_ProgramChange
 577              		.syntax unified
 578              		.thumb
 579              		.thumb_func
 580              		.fpu fpv4-sp-d16
 582              	Config_ProgramChange:
 583              	.LVL37:
 584              	.LFB134:
  96:Src/configuration.c **** 
  97:Src/configuration.c **** void Config_ProgramChange(uint8_t index) {
 585              		.loc 1 97 42 is_stmt 1 view -0
 586              		.cfi_startproc
 587              		@ args = 0, pretend = 0, frame = 0
 588              		@ frame_needed = 0, uses_anonymous_args = 0
  98:Src/configuration.c ****   if(index < 16) {
 589              		.loc 1 98 3 view .LVU119
ARM GAS  /var/folders/80/65lm4rm97rv_n74c85vt01040000gn/T//ccnbidPO.s 			page 13


 590              		.loc 1 98 5 is_stmt 0 view .LVU120
 591 0000 0F28     		cmp	r0, #15
 592 0002 00D9     		bls	.L41
 593 0004 7047     		bx	lr
 594              	.L41:
  97:Src/configuration.c ****   if(index < 16) {
 595              		.loc 1 97 42 view .LVU121
 596 0006 08B5     		push	{r3, lr}
 597              	.LCFI18:
 598              		.cfi_def_cfa_offset 8
 599              		.cfi_offset 3, -8
 600              		.cfi_offset 14, -4
  99:Src/configuration.c ****     configindex = index;
 601              		.loc 1 99 5 is_stmt 1 view .LVU122
 602              		.loc 1 99 17 is_stmt 0 view .LVU123
 603 0008 024B     		ldr	r3, .L42
 604 000a 1870     		strb	r0, [r3]
 100:Src/configuration.c ****     Config_Configure();
 605              		.loc 1 100 5 is_stmt 1 view .LVU124
 606 000c FFF7FEFF 		bl	Config_Configure
 607              	.LVL38:
 101:Src/configuration.c ****   }
 102:Src/configuration.c **** }
 608              		.loc 1 102 1 is_stmt 0 view .LVU125
 609 0010 08BD     		pop	{r3, pc}
 610              	.L43:
 611 0012 00BF     		.align	2
 612              	.L42:
 613 0014 00000000 		.word	.LANCHOR0
 614              		.cfi_endproc
 615              	.LFE134:
 617              		.section	.text.Config_ReadWord,"ax",%progbits
 618              		.align	1
 619              		.global	Config_ReadWord
 620              		.syntax unified
 621              		.thumb
 622              		.thumb_func
 623              		.fpu fpv4-sp-d16
 625              	Config_ReadWord:
 626              	.LVL39:
 627              	.LFB135:
 103:Src/configuration.c **** 
 104:Src/configuration.c **** inline uint32_t Config_ReadWord(uint32_t *flashaddress) {
 628              		.loc 1 104 57 is_stmt 1 view -0
 629              		.cfi_startproc
 630              		@ args = 0, pretend = 0, frame = 0
 631              		@ frame_needed = 0, uses_anonymous_args = 0
 632              		@ link register save eliminated.
 633              		.loc 1 104 57 is_stmt 0 view .LVU127
 634 0000 0346     		mov	r3, r0
 105:Src/configuration.c ****   uint32_t data = *(__IO uint32_t*)(*flashaddress);
 635              		.loc 1 105 3 is_stmt 1 view .LVU128
 636              		.loc 1 105 12 is_stmt 0 view .LVU129
 637 0002 0268     		ldr	r2, [r0]
 638 0004 52F8040B 		ldr	r0, [r2], #4
 639              	.LVL40:
 106:Src/configuration.c ****   *flashaddress += 4;
ARM GAS  /var/folders/80/65lm4rm97rv_n74c85vt01040000gn/T//ccnbidPO.s 			page 14


 640              		.loc 1 106 3 is_stmt 1 view .LVU130
 641              		.loc 1 106 17 is_stmt 0 view .LVU131
 642 0008 1A60     		str	r2, [r3]
 107:Src/configuration.c ****   return data;
 643              		.loc 1 107 3 is_stmt 1 view .LVU132
 108:Src/configuration.c **** }
 644              		.loc 1 108 1 is_stmt 0 view .LVU133
 645 000a 7047     		bx	lr
 646              		.cfi_endproc
 647              	.LFE135:
 649              		.section	.text.Config_ReadCalibrate,"ax",%progbits
 650              		.align	1
 651              		.global	Config_ReadCalibrate
 652              		.syntax unified
 653              		.thumb
 654              		.thumb_func
 655              		.fpu fpv4-sp-d16
 657              	Config_ReadCalibrate:
 658              	.LFB136:
 109:Src/configuration.c **** 
 110:Src/configuration.c **** bool Config_ReadCalibrate() {
 659              		.loc 1 110 29 is_stmt 1 view -0
 660              		.cfi_startproc
 661              		@ args = 0, pretend = 0, frame = 0
 662              		@ frame_needed = 0, uses_anonymous_args = 0
 663              		@ link register save eliminated.
 111:Src/configuration.c ****   uint32_t flashaddress = kUSER_ADDRESS;
 664              		.loc 1 111 3 view .LVU135
 665              	.LVL41:
 112:Src/configuration.c ****   if(flashaddress == *(__IO uint32_t*)flashaddress) {
 666              		.loc 1 112 3 view .LVU136
 667              		.loc 1 112 22 is_stmt 0 view .LVU137
 668 0000 174B     		ldr	r3, .L52
 669 0002 1A68     		ldr	r2, [r3]
 670              		.loc 1 112 5 view .LVU138
 671 0004 9A42     		cmp	r2, r3
 672 0006 16D0     		beq	.L51
 673              	.LBB26:
 113:Src/configuration.c ****     flashaddress = kCALIB_ADDRESS;
 114:Src/configuration.c ****     for (uint8_t i = 0; i < 4; i++)
 115:Src/configuration.c ****     {
 116:Src/configuration.c ****       dac.voltlow[i] = *(__IO float*)flashaddress;
 117:Src/configuration.c ****       flashaddress += 4;
 118:Src/configuration.c ****       dac.volthigh[i] = *(__IO float*)flashaddress;
 119:Src/configuration.c ****       flashaddress += 4;
 120:Src/configuration.c ****     }
 121:Src/configuration.c ****     return true;
 122:Src/configuration.c ****   } else {
 123:Src/configuration.c ****     for (uint8_t i = 0; i < 4; i++) {
 674              		.loc 1 123 18 view .LVU139
 675 0008 0023     		movs	r3, #0
 676 000a 25E0     		b	.L47
 677              	.LVL42:
 678              	.L48:
 679              		.loc 1 123 18 view .LVU140
 680              	.LBE26:
 681              	.LBB27:
ARM GAS  /var/folders/80/65lm4rm97rv_n74c85vt01040000gn/T//ccnbidPO.s 			page 15


 116:Src/configuration.c ****       flashaddress += 4;
 682              		.loc 1 116 7 is_stmt 1 discriminator 3 view .LVU141
 116:Src/configuration.c ****       flashaddress += 4;
 683              		.loc 1 116 24 is_stmt 0 discriminator 3 view .LVU142
 684 000c D1F800C0 		ldr	ip, [r1]	@ float
 116:Src/configuration.c ****       flashaddress += 4;
 685              		.loc 1 116 22 discriminator 3 view .LVU143
 686 0010 144A     		ldr	r2, .L52+4
 687 0012 981D     		adds	r0, r3, #6
 688 0014 02EB8000 		add	r0, r2, r0, lsl #2
 689 0018 C0F804C0 		str	ip, [r0, #4]	@ float
 117:Src/configuration.c ****       dac.volthigh[i] = *(__IO float*)flashaddress;
 690              		.loc 1 117 7 is_stmt 1 discriminator 3 view .LVU144
 691              	.LVL43:
 118:Src/configuration.c ****       flashaddress += 4;
 692              		.loc 1 118 7 discriminator 3 view .LVU145
 118:Src/configuration.c ****       flashaddress += 4;
 693              		.loc 1 118 25 is_stmt 0 discriminator 3 view .LVU146
 694 001c 4868     		ldr	r0, [r1, #4]	@ float
 118:Src/configuration.c ****       flashaddress += 4;
 695              		.loc 1 118 23 discriminator 3 view .LVU147
 696 001e 03F10A0C 		add	ip, r3, #10
 697 0022 02EB8C02 		add	r2, r2, ip, lsl #2
 698 0026 5060     		str	r0, [r2, #4]	@ float
 119:Src/configuration.c ****     }
 699              		.loc 1 119 7 is_stmt 1 discriminator 3 view .LVU148
 119:Src/configuration.c ****     }
 700              		.loc 1 119 20 is_stmt 0 discriminator 3 view .LVU149
 701 0028 0831     		adds	r1, r1, #8
 702              	.LVL44:
 114:Src/configuration.c ****     {
 703              		.loc 1 114 32 is_stmt 1 discriminator 3 view .LVU150
 114:Src/configuration.c ****     {
 704              		.loc 1 114 33 is_stmt 0 discriminator 3 view .LVU151
 705 002a 0133     		adds	r3, r3, #1
 706              	.LVL45:
 114:Src/configuration.c ****     {
 707              		.loc 1 114 33 discriminator 3 view .LVU152
 708 002c DBB2     		uxtb	r3, r3
 709              	.LVL46:
 710              	.L46:
 114:Src/configuration.c ****     {
 711              		.loc 1 114 25 is_stmt 1 discriminator 1 view .LVU153
 114:Src/configuration.c ****     {
 712              		.loc 1 114 5 is_stmt 0 discriminator 1 view .LVU154
 713 002e 032B     		cmp	r3, #3
 714 0030 ECD9     		bls	.L48
 715              	.LBE27:
 121:Src/configuration.c ****   } else {
 716              		.loc 1 121 12 view .LVU155
 717 0032 0120     		movs	r0, #1
 718 0034 7047     		bx	lr
 719              	.LVL47:
 720              	.L51:
 721              	.LBB28:
 114:Src/configuration.c ****     {
 722              		.loc 1 114 18 view .LVU156
ARM GAS  /var/folders/80/65lm4rm97rv_n74c85vt01040000gn/T//ccnbidPO.s 			page 16


 723 0036 0023     		movs	r3, #0
 724              	.LBE28:
 113:Src/configuration.c ****     for (uint8_t i = 0; i < 4; i++)
 725              		.loc 1 113 18 view .LVU157
 726 0038 0B49     		ldr	r1, .L52+8
 727 003a F8E7     		b	.L46
 728              	.LVL48:
 729              	.L50:
 730              	.LBB29:
 124:Src/configuration.c ****       dac.voltlow[i] = 8.19; // Calculated Constants from OPAMP resistors etc.
 731              		.loc 1 124 7 is_stmt 1 discriminator 3 view .LVU158
 732              		.loc 1 124 22 is_stmt 0 discriminator 3 view .LVU159
 733 003c 094A     		ldr	r2, .L52+4
 734 003e 991D     		adds	r1, r3, #6
 735 0040 02EB8101 		add	r1, r2, r1, lsl #2
 736 0044 0948     		ldr	r0, .L52+12
 737 0046 4860     		str	r0, [r1, #4]	@ float
 125:Src/configuration.c ****       dac.volthigh[i] = -5.69;
 738              		.loc 1 125 7 is_stmt 1 discriminator 3 view .LVU160
 739              		.loc 1 125 23 is_stmt 0 discriminator 3 view .LVU161
 740 0048 03F10A01 		add	r1, r3, #10
 741 004c 02EB8102 		add	r2, r2, r1, lsl #2
 742 0050 0749     		ldr	r1, .L52+16
 743 0052 5160     		str	r1, [r2, #4]	@ float
 123:Src/configuration.c ****       dac.voltlow[i] = 8.19; // Calculated Constants from OPAMP resistors etc.
 744              		.loc 1 123 32 is_stmt 1 discriminator 3 view .LVU162
 123:Src/configuration.c ****       dac.voltlow[i] = 8.19; // Calculated Constants from OPAMP resistors etc.
 745              		.loc 1 123 33 is_stmt 0 discriminator 3 view .LVU163
 746 0054 0133     		adds	r3, r3, #1
 747              	.LVL49:
 123:Src/configuration.c ****       dac.voltlow[i] = 8.19; // Calculated Constants from OPAMP resistors etc.
 748              		.loc 1 123 33 discriminator 3 view .LVU164
 749 0056 DBB2     		uxtb	r3, r3
 750              	.LVL50:
 751              	.L47:
 123:Src/configuration.c ****       dac.voltlow[i] = 8.19; // Calculated Constants from OPAMP resistors etc.
 752              		.loc 1 123 25 is_stmt 1 discriminator 1 view .LVU165
 123:Src/configuration.c ****       dac.voltlow[i] = 8.19; // Calculated Constants from OPAMP resistors etc.
 753              		.loc 1 123 5 is_stmt 0 discriminator 1 view .LVU166
 754 0058 032B     		cmp	r3, #3
 755 005a EFD9     		bls	.L50
 756              	.LBE29:
 126:Src/configuration.c ****     }
 127:Src/configuration.c ****     return false;
 757              		.loc 1 127 12 view .LVU167
 758 005c 0020     		movs	r0, #0
 128:Src/configuration.c ****   }
 129:Src/configuration.c **** }
 759              		.loc 1 129 1 view .LVU168
 760 005e 7047     		bx	lr
 761              	.L53:
 762              		.align	2
 763              	.L52:
 764 0060 00300008 		.word	134230016
 765 0064 00000000 		.word	dac
 766 0068 04300008 		.word	134230020
 767 006c 3D0A0341 		.word	1090718269
ARM GAS  /var/folders/80/65lm4rm97rv_n74c85vt01040000gn/T//ccnbidPO.s 			page 17


 768 0070 7B14B6C0 		.word	-1061809029
 769              		.cfi_endproc
 770              	.LFE136:
 772              		.section	.text.Config_ReadConfig,"ax",%progbits
 773              		.align	1
 774              		.global	Config_ReadConfig
 775              		.syntax unified
 776              		.thumb
 777              		.thumb_func
 778              		.fpu fpv4-sp-d16
 780              	Config_ReadConfig:
 781              	.LFB137:
 130:Src/configuration.c **** 
 131:Src/configuration.c **** bool Config_ReadConfig() {
 782              		.loc 1 131 26 is_stmt 1 view -0
 783              		.cfi_startproc
 784              		@ args = 0, pretend = 0, frame = 0
 785              		@ frame_needed = 0, uses_anonymous_args = 0
 786 0000 70B5     		push	{r4, r5, r6, lr}
 787              	.LCFI19:
 788              		.cfi_def_cfa_offset 16
 789              		.cfi_offset 4, -16
 790              		.cfi_offset 5, -12
 791              		.cfi_offset 6, -8
 792              		.cfi_offset 14, -4
 132:Src/configuration.c ****   uint32_t flashaddress = kUSER_ADDRESS;
 793              		.loc 1 132 3 view .LVU170
 794              	.LVL51:
 133:Src/configuration.c ****   if(flashaddress == *(__IO uint32_t*)flashaddress) {
 795              		.loc 1 133 3 view .LVU171
 796              		.loc 1 133 22 is_stmt 0 view .LVU172
 797 0002 294B     		ldr	r3, .L69
 798 0004 1A68     		ldr	r2, [r3]
 799              		.loc 1 133 5 view .LVU173
 800 0006 9A42     		cmp	r2, r3
 801 0008 27D0     		beq	.L62
 802              	.LBB30:
 134:Src/configuration.c ****     flashaddress = kCONFIG_ADDRESS;
 135:Src/configuration.c ****     for (size_t i = 0; i < 16; i++)
 136:Src/configuration.c ****     {
 137:Src/configuration.c ****       for (uint8_t j = 0; j < 4; j++)
 138:Src/configuration.c ****       {
 139:Src/configuration.c ****         uint32_t data = Config_ReadWord(&flashaddress);
 140:Src/configuration.c ****         config[i].analogmode[j] = data >> 24 & 0xFF;
 141:Src/configuration.c ****         config[i].analogsetting[j].midichannel = data >> 16 & 0xFF;
 142:Src/configuration.c ****         config[i].analogsetting[j].byte2 = data >> 8 & 0xFF;
 143:Src/configuration.c ****         config[i].analogsetting[j].byte3 = data >> 0 & 0xFF;
 144:Src/configuration.c ****         
 145:Src/configuration.c ****         data = Config_ReadWord(&flashaddress);
 146:Src/configuration.c ****         config[i].digitalmode[j] = data >> 24 & 0xFF;
 147:Src/configuration.c ****         config[i].digitalsetting[j].midichannel = data >> 16 & 0xFF;
 148:Src/configuration.c ****         config[i].digitalsetting[j].byte2 = data >> 8 & 0xFF;
 149:Src/configuration.c ****         config[i].digitalsetting[j].byte3 = data >> 0 & 0xFF;
 150:Src/configuration.c **** 
 151:Src/configuration.c ****       }
 152:Src/configuration.c ****     }  
 153:Src/configuration.c ****     return true;
ARM GAS  /var/folders/80/65lm4rm97rv_n74c85vt01040000gn/T//ccnbidPO.s 			page 18


 154:Src/configuration.c **** 
 155:Src/configuration.c ****   } else {
 156:Src/configuration.c **** 
 157:Src/configuration.c ****     for (size_t i = 0; i < 16; i++) {
 803              		.loc 1 157 17 view .LVU174
 804 000a 4FF0000C 		mov	ip, #0
 805 000e 43E0     		b	.L56
 806              	.LVL52:
 807              	.L67:
 808              		.loc 1 157 17 view .LVU175
 809              	.LBE30:
 810              	.LBB33:
 135:Src/configuration.c ****     {
 811              		.loc 1 135 32 is_stmt 1 discriminator 2 view .LVU176
 135:Src/configuration.c ****     {
 812              		.loc 1 135 33 is_stmt 0 discriminator 2 view .LVU177
 813 0010 0EF1010E 		add	lr, lr, #1
 814              	.LVL53:
 815              	.L55:
 135:Src/configuration.c ****     {
 816              		.loc 1 135 24 is_stmt 1 discriminator 1 view .LVU178
 135:Src/configuration.c ****     {
 817              		.loc 1 135 5 is_stmt 0 discriminator 1 view .LVU179
 818 0014 BEF10F0F 		cmp	lr, #15
 819 0018 23D8     		bhi	.L66
 820              	.LBB34:
 137:Src/configuration.c ****       {
 821              		.loc 1 137 20 view .LVU180
 822 001a 0022     		movs	r2, #0
 823              	.L58:
 824              	.LVL54:
 137:Src/configuration.c ****       {
 825              		.loc 1 137 27 is_stmt 1 discriminator 1 view .LVU181
 137:Src/configuration.c ****       {
 826              		.loc 1 137 7 is_stmt 0 discriminator 1 view .LVU182
 827 001c 032A     		cmp	r2, #3
 828 001e F7D8     		bhi	.L67
 829              	.LBB35:
 139:Src/configuration.c ****         config[i].analogmode[j] = data >> 24 & 0xFF;
 830              		.loc 1 139 9 is_stmt 1 view .LVU183
 831              	.LVL55:
 832              	.LBB36:
 833              	.LBI36:
 104:Src/configuration.c ****   uint32_t data = *(__IO uint32_t*)(*flashaddress);
 834              		.loc 1 104 17 view .LVU184
 835              	.LBB37:
 105:Src/configuration.c ****   *flashaddress += 4;
 836              		.loc 1 105 3 view .LVU185
 105:Src/configuration.c ****   *flashaddress += 4;
 837              		.loc 1 105 12 is_stmt 0 view .LVU186
 838 0020 3168     		ldr	r1, [r6]
 839              	.LVL56:
 106:Src/configuration.c ****   return data;
 840              		.loc 1 106 3 is_stmt 1 view .LVU187
 107:Src/configuration.c **** }
 841              		.loc 1 107 3 view .LVU188
 107:Src/configuration.c **** }
ARM GAS  /var/folders/80/65lm4rm97rv_n74c85vt01040000gn/T//ccnbidPO.s 			page 19


 842              		.loc 1 107 3 is_stmt 0 view .LVU189
 843              	.LBE37:
 844              	.LBE36:
 140:Src/configuration.c ****         config[i].analogsetting[j].midichannel = data >> 16 & 0xFF;
 845              		.loc 1 140 9 is_stmt 1 view .LVU190
 140:Src/configuration.c ****         config[i].analogsetting[j].midichannel = data >> 16 & 0xFF;
 846              		.loc 1 140 40 is_stmt 0 view .LVU191
 847 0022 0D0E     		lsrs	r5, r1, #24
 140:Src/configuration.c ****         config[i].analogsetting[j].midichannel = data >> 16 & 0xFF;
 848              		.loc 1 140 33 view .LVU192
 849 0024 214B     		ldr	r3, .L69+4
 850 0026 03EB4E10 		add	r0, r3, lr, lsl #5
 851 002a 8418     		adds	r4, r0, r2
 852 002c 8554     		strb	r5, [r0, r2]
 141:Src/configuration.c ****         config[i].analogsetting[j].byte2 = data >> 8 & 0xFF;
 853              		.loc 1 141 9 is_stmt 1 view .LVU193
 141:Src/configuration.c ****         config[i].analogsetting[j].byte2 = data >> 8 & 0xFF;
 854              		.loc 1 141 55 is_stmt 0 view .LVU194
 855 002e 0D0C     		lsrs	r5, r1, #16
 141:Src/configuration.c ****         config[i].analogsetting[j].byte2 = data >> 8 & 0xFF;
 856              		.loc 1 141 48 view .LVU195
 857 0030 02EB4200 		add	r0, r2, r2, lsl #1
 858 0034 00EB4E10 		add	r0, r0, lr, lsl #5
 859 0038 0344     		add	r3, r3, r0
 860 003a 1D71     		strb	r5, [r3, #4]
 142:Src/configuration.c ****         config[i].analogsetting[j].byte3 = data >> 0 & 0xFF;
 861              		.loc 1 142 9 is_stmt 1 view .LVU196
 142:Src/configuration.c ****         config[i].analogsetting[j].byte3 = data >> 0 & 0xFF;
 862              		.loc 1 142 49 is_stmt 0 view .LVU197
 863 003c 080A     		lsrs	r0, r1, #8
 142:Src/configuration.c ****         config[i].analogsetting[j].byte3 = data >> 0 & 0xFF;
 864              		.loc 1 142 42 view .LVU198
 865 003e 5871     		strb	r0, [r3, #5]
 143:Src/configuration.c ****         
 866              		.loc 1 143 9 is_stmt 1 view .LVU199
 143:Src/configuration.c ****         
 867              		.loc 1 143 42 is_stmt 0 view .LVU200
 868 0040 9971     		strb	r1, [r3, #6]
 145:Src/configuration.c ****         config[i].digitalmode[j] = data >> 24 & 0xFF;
 869              		.loc 1 145 9 is_stmt 1 view .LVU201
 870              	.LVL57:
 871              	.LBB38:
 872              	.LBI38:
 104:Src/configuration.c ****   uint32_t data = *(__IO uint32_t*)(*flashaddress);
 873              		.loc 1 104 17 view .LVU202
 874              	.LBB39:
 105:Src/configuration.c ****   *flashaddress += 4;
 875              		.loc 1 105 3 view .LVU203
 105:Src/configuration.c ****   *flashaddress += 4;
 876              		.loc 1 105 12 is_stmt 0 view .LVU204
 877 0042 7168     		ldr	r1, [r6, #4]
 878              	.LVL58:
 106:Src/configuration.c ****   return data;
 879              		.loc 1 106 3 is_stmt 1 view .LVU205
 106:Src/configuration.c ****   return data;
 880              		.loc 1 106 17 is_stmt 0 view .LVU206
 881 0044 0836     		adds	r6, r6, #8
ARM GAS  /var/folders/80/65lm4rm97rv_n74c85vt01040000gn/T//ccnbidPO.s 			page 20


 882              	.LVL59:
 107:Src/configuration.c **** }
 883              		.loc 1 107 3 is_stmt 1 view .LVU207
 107:Src/configuration.c **** }
 884              		.loc 1 107 3 is_stmt 0 view .LVU208
 885              	.LBE39:
 886              	.LBE38:
 146:Src/configuration.c ****         config[i].digitalsetting[j].midichannel = data >> 16 & 0xFF;
 887              		.loc 1 146 9 is_stmt 1 view .LVU209
 146:Src/configuration.c ****         config[i].digitalsetting[j].midichannel = data >> 16 & 0xFF;
 888              		.loc 1 146 41 is_stmt 0 view .LVU210
 889 0046 080E     		lsrs	r0, r1, #24
 146:Src/configuration.c ****         config[i].digitalsetting[j].midichannel = data >> 16 & 0xFF;
 890              		.loc 1 146 34 view .LVU211
 891 0048 2074     		strb	r0, [r4, #16]
 147:Src/configuration.c ****         config[i].digitalsetting[j].byte2 = data >> 8 & 0xFF;
 892              		.loc 1 147 9 is_stmt 1 view .LVU212
 147:Src/configuration.c ****         config[i].digitalsetting[j].byte2 = data >> 8 & 0xFF;
 893              		.loc 1 147 56 is_stmt 0 view .LVU213
 894 004a 080C     		lsrs	r0, r1, #16
 147:Src/configuration.c ****         config[i].digitalsetting[j].byte2 = data >> 8 & 0xFF;
 895              		.loc 1 147 49 view .LVU214
 896 004c 1875     		strb	r0, [r3, #20]
 148:Src/configuration.c ****         config[i].digitalsetting[j].byte3 = data >> 0 & 0xFF;
 897              		.loc 1 148 9 is_stmt 1 view .LVU215
 148:Src/configuration.c ****         config[i].digitalsetting[j].byte3 = data >> 0 & 0xFF;
 898              		.loc 1 148 50 is_stmt 0 view .LVU216
 899 004e 080A     		lsrs	r0, r1, #8
 148:Src/configuration.c ****         config[i].digitalsetting[j].byte3 = data >> 0 & 0xFF;
 900              		.loc 1 148 43 view .LVU217
 901 0050 5875     		strb	r0, [r3, #21]
 149:Src/configuration.c **** 
 902              		.loc 1 149 9 is_stmt 1 view .LVU218
 149:Src/configuration.c **** 
 903              		.loc 1 149 43 is_stmt 0 view .LVU219
 904 0052 9975     		strb	r1, [r3, #22]
 905              	.LBE35:
 137:Src/configuration.c ****       {
 906              		.loc 1 137 34 is_stmt 1 view .LVU220
 137:Src/configuration.c ****       {
 907              		.loc 1 137 35 is_stmt 0 view .LVU221
 908 0054 0132     		adds	r2, r2, #1
 909              	.LVL60:
 137:Src/configuration.c ****       {
 910              		.loc 1 137 35 view .LVU222
 911 0056 D2B2     		uxtb	r2, r2
 912              	.LVL61:
 137:Src/configuration.c ****       {
 913              		.loc 1 137 35 view .LVU223
 914 0058 E0E7     		b	.L58
 915              	.LVL62:
 916              	.L62:
 137:Src/configuration.c ****       {
 917              		.loc 1 137 35 view .LVU224
 918              	.LBE34:
 919              	.LBE33:
 134:Src/configuration.c ****     for (size_t i = 0; i < 16; i++)
ARM GAS  /var/folders/80/65lm4rm97rv_n74c85vt01040000gn/T//ccnbidPO.s 			page 21


 920              		.loc 1 134 18 view .LVU225
 921 005a 154E     		ldr	r6, .L69+8
 922              	.LBB40:
 135:Src/configuration.c ****     {
 923              		.loc 1 135 17 view .LVU226
 924 005c 4FF0000E 		mov	lr, #0
 925 0060 D8E7     		b	.L55
 926              	.LVL63:
 927              	.L66:
 135:Src/configuration.c ****     {
 928              		.loc 1 135 17 view .LVU227
 929              	.LBE40:
 153:Src/configuration.c **** 
 930              		.loc 1 153 12 view .LVU228
 931 0062 0120     		movs	r0, #1
 932 0064 1EE0     		b	.L59
 933              	.LVL64:
 934              	.L60:
 935              	.LBB41:
 936              	.LBB31:
 158:Src/configuration.c ****       for (size_t j = 0; j < 4; j++) {
 159:Src/configuration.c ****         config[i].analogmode[j] = ANALOG_OFF;
 937              		.loc 1 159 9 is_stmt 1 discriminator 3 view .LVU229
 938              		.loc 1 159 33 is_stmt 0 discriminator 3 view .LVU230
 939 0066 114B     		ldr	r3, .L69+4
 940 0068 03EB4C10 		add	r0, r3, ip, lsl #5
 941 006c 00EB010E 		add	lr, r0, r1
 942 0070 0022     		movs	r2, #0
 943 0072 4254     		strb	r2, [r0, r1]
 160:Src/configuration.c ****         config[i].analogsetting[j].midichannel = 0;
 944              		.loc 1 160 9 is_stmt 1 discriminator 3 view .LVU231
 945              		.loc 1 160 48 is_stmt 0 discriminator 3 view .LVU232
 946 0074 01EB4100 		add	r0, r1, r1, lsl #1
 947 0078 00EB4C10 		add	r0, r0, ip, lsl #5
 948 007c 0344     		add	r3, r3, r0
 949 007e 1A71     		strb	r2, [r3, #4]
 161:Src/configuration.c ****         config[i].analogsetting[j].byte2 = 0;
 950              		.loc 1 161 9 is_stmt 1 discriminator 3 view .LVU233
 951              		.loc 1 161 42 is_stmt 0 discriminator 3 view .LVU234
 952 0080 5A71     		strb	r2, [r3, #5]
 162:Src/configuration.c ****         config[i].analogsetting[j].byte3 = 0;
 953              		.loc 1 162 9 is_stmt 1 discriminator 3 view .LVU235
 954              		.loc 1 162 42 is_stmt 0 discriminator 3 view .LVU236
 955 0082 9A71     		strb	r2, [r3, #6]
 163:Src/configuration.c **** 
 164:Src/configuration.c ****         config[i].digitalmode[j] = DIGITAL_OFF;
 956              		.loc 1 164 9 is_stmt 1 discriminator 3 view .LVU237
 957              		.loc 1 164 34 is_stmt 0 discriminator 3 view .LVU238
 958 0084 8EF81020 		strb	r2, [lr, #16]
 165:Src/configuration.c ****         config[i].digitalsetting[j].midichannel = 0;
 959              		.loc 1 165 9 is_stmt 1 discriminator 3 view .LVU239
 960              		.loc 1 165 49 is_stmt 0 discriminator 3 view .LVU240
 961 0088 1A75     		strb	r2, [r3, #20]
 166:Src/configuration.c ****         config[i].digitalsetting[j].byte2 = 0;
 962              		.loc 1 166 9 is_stmt 1 discriminator 3 view .LVU241
 963              		.loc 1 166 43 is_stmt 0 discriminator 3 view .LVU242
 964 008a 5A75     		strb	r2, [r3, #21]
ARM GAS  /var/folders/80/65lm4rm97rv_n74c85vt01040000gn/T//ccnbidPO.s 			page 22


 167:Src/configuration.c ****         config[i].digitalsetting[j].byte3 = 0;
 965              		.loc 1 167 9 is_stmt 1 discriminator 3 view .LVU243
 966              		.loc 1 167 43 is_stmt 0 discriminator 3 view .LVU244
 967 008c 9A75     		strb	r2, [r3, #22]
 158:Src/configuration.c ****         config[i].analogmode[j] = ANALOG_OFF;
 968              		.loc 1 158 33 is_stmt 1 discriminator 3 view .LVU245
 158:Src/configuration.c ****         config[i].analogmode[j] = ANALOG_OFF;
 969              		.loc 1 158 34 is_stmt 0 discriminator 3 view .LVU246
 970 008e 0131     		adds	r1, r1, #1
 971              	.LVL65:
 972              	.L61:
 158:Src/configuration.c ****         config[i].analogmode[j] = ANALOG_OFF;
 973              		.loc 1 158 26 is_stmt 1 discriminator 1 view .LVU247
 158:Src/configuration.c ****         config[i].analogmode[j] = ANALOG_OFF;
 974              		.loc 1 158 7 is_stmt 0 discriminator 1 view .LVU248
 975 0090 0329     		cmp	r1, #3
 976 0092 E8D9     		bls	.L60
 977              	.LBE31:
 157:Src/configuration.c ****       for (size_t j = 0; j < 4; j++) {
 978              		.loc 1 157 32 is_stmt 1 discriminator 2 view .LVU249
 157:Src/configuration.c ****       for (size_t j = 0; j < 4; j++) {
 979              		.loc 1 157 33 is_stmt 0 discriminator 2 view .LVU250
 980 0094 0CF1010C 		add	ip, ip, #1
 981              	.LVL66:
 982              	.L56:
 157:Src/configuration.c ****       for (size_t j = 0; j < 4; j++) {
 983              		.loc 1 157 24 is_stmt 1 discriminator 1 view .LVU251
 157:Src/configuration.c ****       for (size_t j = 0; j < 4; j++) {
 984              		.loc 1 157 5 is_stmt 0 discriminator 1 view .LVU252
 985 0098 BCF10F0F 		cmp	ip, #15
 986 009c 01D8     		bhi	.L68
 987              	.LBB32:
 158:Src/configuration.c ****         config[i].analogmode[j] = ANALOG_OFF;
 988              		.loc 1 158 19 view .LVU253
 989 009e 0021     		movs	r1, #0
 990 00a0 F6E7     		b	.L61
 991              	.L68:
 992              	.LBE32:
 993              	.LBE41:
 168:Src/configuration.c ****       }
 169:Src/configuration.c ****     }
 170:Src/configuration.c ****     return false;
 994              		.loc 1 170 12 view .LVU254
 995 00a2 0020     		movs	r0, #0
 996              	.LVL67:
 997              	.L59:
 171:Src/configuration.c ****   }
 172:Src/configuration.c **** }
 998              		.loc 1 172 1 view .LVU255
 999 00a4 70BD     		pop	{r4, r5, r6, pc}
 1000              	.L70:
 1001 00a6 00BF     		.align	2
 1002              	.L69:
 1003 00a8 00300008 		.word	134230016
 1004 00ac 00000000 		.word	.LANCHOR1
 1005 00b0 24300008 		.word	134230052
 1006              		.cfi_endproc
ARM GAS  /var/folders/80/65lm4rm97rv_n74c85vt01040000gn/T//ccnbidPO.s 			page 23


 1007              	.LFE137:
 1009              		.section	.text.Config_WriteUserData,"ax",%progbits
 1010              		.align	1
 1011              		.global	Config_WriteUserData
 1012              		.syntax unified
 1013              		.thumb
 1014              		.thumb_func
 1015              		.fpu fpv4-sp-d16
 1017              	Config_WriteUserData:
 1018              	.LFB138:
 173:Src/configuration.c **** 
 174:Src/configuration.c **** void Config_WriteUserData() { // Maybe make this write User stuffs ?
 1019              		.loc 1 174 29 is_stmt 1 view -0
 1020              		.cfi_startproc
 1021              		@ args = 0, pretend = 0, frame = 8
 1022              		@ frame_needed = 0, uses_anonymous_args = 0
 1023 0000 F0B5     		push	{r4, r5, r6, r7, lr}
 1024              	.LCFI20:
 1025              		.cfi_def_cfa_offset 20
 1026              		.cfi_offset 4, -20
 1027              		.cfi_offset 5, -16
 1028              		.cfi_offset 6, -12
 1029              		.cfi_offset 7, -8
 1030              		.cfi_offset 14, -4
 1031 0002 83B0     		sub	sp, sp, #12
 1032              	.LCFI21:
 1033              		.cfi_def_cfa_offset 32
 175:Src/configuration.c ****   Config_EraseUserPage();
 1034              		.loc 1 175 3 view .LVU257
 1035 0004 FFF7FEFF 		bl	Config_EraseUserPage
 1036              	.LVL68:
 176:Src/configuration.c **** 
 177:Src/configuration.c ****   HAL_FLASH_Unlock();
 1037              		.loc 1 177 3 view .LVU258
 1038 0008 FFF7FEFF 		bl	HAL_FLASH_Unlock
 1039              	.LVL69:
 178:Src/configuration.c ****   uint32_t flashaddress = kUSER_ADDRESS;
 1040              		.loc 1 178 3 view .LVU259
 1041              		.loc 1 178 12 is_stmt 0 view .LVU260
 1042 000c 2649     		ldr	r1, .L82
 1043 000e 0191     		str	r1, [sp, #4]
 179:Src/configuration.c ****   Config_FlashWord(&flashaddress, flashaddress);
 1044              		.loc 1 179 3 is_stmt 1 view .LVU261
 1045 0010 01A8     		add	r0, sp, #4
 1046 0012 FFF7FEFF 		bl	Config_FlashWord
 1047              	.LVL70:
 180:Src/configuration.c ****   for (size_t i = 0; i < 4; i++)
 1048              		.loc 1 180 3 view .LVU262
 1049              	.LBB42:
 1050              		.loc 1 180 8 view .LVU263
 1051              		.loc 1 180 15 is_stmt 0 view .LVU264
 1052 0016 0024     		movs	r4, #0
 1053              		.loc 1 180 3 view .LVU265
 1054 0018 12E0     		b	.L72
 1055              	.LVL71:
 1056              	.L73:
 181:Src/configuration.c ****   {
ARM GAS  /var/folders/80/65lm4rm97rv_n74c85vt01040000gn/T//ccnbidPO.s 			page 24


 182:Src/configuration.c ****     Config_FlashFloat(&flashaddress, dac.voltlow[i]);
 1057              		.loc 1 182 5 is_stmt 1 discriminator 3 view .LVU266
 1058 001a 244D     		ldr	r5, .L82+4
 1059 001c A31D     		adds	r3, r4, #6
 1060 001e 05EB8303 		add	r3, r5, r3, lsl #2
 1061 0022 93ED010A 		vldr.32	s0, [r3, #4]
 1062 0026 01A8     		add	r0, sp, #4
 1063 0028 FFF7FEFF 		bl	Config_FlashFloat
 1064              	.LVL72:
 183:Src/configuration.c ****     Config_FlashFloat(&flashaddress, dac.volthigh[i]);
 1065              		.loc 1 183 5 discriminator 3 view .LVU267
 1066 002c 04F10A03 		add	r3, r4, #10
 1067 0030 05EB8305 		add	r5, r5, r3, lsl #2
 1068 0034 95ED010A 		vldr.32	s0, [r5, #4]
 1069 0038 01A8     		add	r0, sp, #4
 1070 003a FFF7FEFF 		bl	Config_FlashFloat
 1071              	.LVL73:
 180:Src/configuration.c ****   for (size_t i = 0; i < 4; i++)
 1072              		.loc 1 180 29 discriminator 3 view .LVU268
 180:Src/configuration.c ****   for (size_t i = 0; i < 4; i++)
 1073              		.loc 1 180 30 is_stmt 0 discriminator 3 view .LVU269
 1074 003e 0134     		adds	r4, r4, #1
 1075              	.LVL74:
 1076              	.L72:
 180:Src/configuration.c ****   for (size_t i = 0; i < 4; i++)
 1077              		.loc 1 180 22 is_stmt 1 discriminator 1 view .LVU270
 180:Src/configuration.c ****   for (size_t i = 0; i < 4; i++)
 1078              		.loc 1 180 3 is_stmt 0 discriminator 1 view .LVU271
 1079 0040 032C     		cmp	r4, #3
 1080 0042 EAD9     		bls	.L73
 1081              	.LBE42:
 184:Src/configuration.c ****   }
 185:Src/configuration.c ****   if(flashaddress == kCONFIG_ADDRESS) { // check if deze grapjes kloppen
 1082              		.loc 1 185 3 is_stmt 1 view .LVU272
 1083              		.loc 1 185 5 is_stmt 0 view .LVU273
 1084 0044 019A     		ldr	r2, [sp, #4]
 1085 0046 1A4B     		ldr	r3, .L82+8
 1086 0048 9A42     		cmp	r2, r3
 1087 004a 01D0     		beq	.L80
 1088              	.L74:
 1089              	.LBB43:
 1090              	.LBB44:
 186:Src/configuration.c ****     flashaddress = kCONFIG_ADDRESS; 
 187:Src/configuration.c ****   }
 188:Src/configuration.c ****   for (size_t i = 0; i < 16; i++)
 189:Src/configuration.c ****     {
 190:Src/configuration.c ****       for (uint8_t j = 0; j < 4; j++)
 1091              		.loc 1 190 20 discriminator 1 view .LVU274
 1092 004c 0026     		movs	r6, #0
 1093 004e 23E0     		b	.L76
 1094              	.L80:
 1095              	.LBE44:
 1096              	.LBE43:
 186:Src/configuration.c ****     flashaddress = kCONFIG_ADDRESS; 
 1097              		.loc 1 186 5 is_stmt 1 view .LVU275
 186:Src/configuration.c ****     flashaddress = kCONFIG_ADDRESS; 
 1098              		.loc 1 186 18 is_stmt 0 view .LVU276
ARM GAS  /var/folders/80/65lm4rm97rv_n74c85vt01040000gn/T//ccnbidPO.s 			page 25


 1099 0050 0193     		str	r3, [sp, #4]
 1100 0052 FBE7     		b	.L74
 1101              	.LVL75:
 1102              	.L75:
 1103              	.LBB48:
 1104              	.LBB46:
 1105              	.LBB45:
 191:Src/configuration.c ****       {
 192:Src/configuration.c ****         uint8_t a = config[i].analogmode[j];
 1106              		.loc 1 192 9 is_stmt 1 discriminator 3 view .LVU277
 1107              		.loc 1 192 17 is_stmt 0 discriminator 3 view .LVU278
 1108 0054 174D     		ldr	r5, .L82+12
 1109 0056 05EB4613 		add	r3, r5, r6, lsl #5
 1110 005a 1F19     		adds	r7, r3, r4
 1111 005c 185D     		ldrb	r0, [r3, r4]	@ zero_extendqisi2
 1112              	.LVL76:
 193:Src/configuration.c ****         uint8_t b = config[i].analogsetting[j].midichannel;
 1113              		.loc 1 193 9 is_stmt 1 discriminator 3 view .LVU279
 1114              		.loc 1 193 17 is_stmt 0 discriminator 3 view .LVU280
 1115 005e 04EB4402 		add	r2, r4, r4, lsl #1
 1116 0062 02EB4612 		add	r2, r2, r6, lsl #5
 1117 0066 1544     		add	r5, r5, r2
 1118 0068 2B79     		ldrb	r3, [r5, #4]	@ zero_extendqisi2
 1119              	.LVL77:
 194:Src/configuration.c ****         uint8_t c = config[i].analogsetting[j].byte2;
 1120              		.loc 1 194 9 is_stmt 1 discriminator 3 view .LVU281
 195:Src/configuration.c ****         uint8_t d = config[i].analogsetting[j].byte3;
 1121              		.loc 1 195 9 discriminator 3 view .LVU282
 1122              		.loc 1 195 17 is_stmt 0 discriminator 3 view .LVU283
 1123 006a A979     		ldrb	r1, [r5, #6]	@ zero_extendqisi2
 1124              	.LVL78:
 196:Src/configuration.c ****         uint32_t writeword = (a << 24 & 0xFF000000) | (b << 16 & 0x00FF0000) | (c << 24 & 0x0000FF0
 1125              		.loc 1 196 9 is_stmt 1 discriminator 3 view .LVU284
 1126              		.loc 1 196 64 is_stmt 0 discriminator 3 view .LVU285
 1127 006c 1B04     		lsls	r3, r3, #16
 1128              	.LVL79:
 1129              		.loc 1 196 78 discriminator 3 view .LVU286
 1130 006e 43EA0063 		orr	r3, r3, r0, lsl #24
 1131              	.LVL80:
 197:Src/configuration.c ****         Config_FlashWord(&flashaddress, writeword);
 1132              		.loc 1 197 9 is_stmt 1 discriminator 3 view .LVU287
 1133 0072 1943     		orrs	r1, r1, r3
 1134              	.LVL81:
 1135              		.loc 1 197 9 is_stmt 0 discriminator 3 view .LVU288
 1136 0074 01A8     		add	r0, sp, #4
 1137              	.LVL82:
 1138              		.loc 1 197 9 discriminator 3 view .LVU289
 1139 0076 FFF7FEFF 		bl	Config_FlashWord
 1140              	.LVL83:
 198:Src/configuration.c ****         
 199:Src/configuration.c ****         a = config[i].digitalmode[j];
 1141              		.loc 1 199 9 is_stmt 1 discriminator 3 view .LVU290
 1142              		.loc 1 199 11 is_stmt 0 discriminator 3 view .LVU291
 1143 007a 3A7C     		ldrb	r2, [r7, #16]	@ zero_extendqisi2
 1144              	.LVL84:
 200:Src/configuration.c ****         b = config[i].digitalsetting[j].midichannel;
 1145              		.loc 1 200 9 is_stmt 1 discriminator 3 view .LVU292
ARM GAS  /var/folders/80/65lm4rm97rv_n74c85vt01040000gn/T//ccnbidPO.s 			page 26


 1146              		.loc 1 200 11 is_stmt 0 discriminator 3 view .LVU293
 1147 007c 2B7D     		ldrb	r3, [r5, #20]	@ zero_extendqisi2
 1148              	.LVL85:
 201:Src/configuration.c ****         c = config[i].digitalsetting[j].byte2;
 1149              		.loc 1 201 9 is_stmt 1 discriminator 3 view .LVU294
 202:Src/configuration.c ****         d = config[i].digitalsetting[j].byte3;
 1150              		.loc 1 202 9 discriminator 3 view .LVU295
 1151              		.loc 1 202 11 is_stmt 0 discriminator 3 view .LVU296
 1152 007e A97D     		ldrb	r1, [r5, #22]	@ zero_extendqisi2
 1153              	.LVL86:
 203:Src/configuration.c ****         writeword = (a << 24 & 0xFF000000) | (b << 16 & 0x00FF0000) | (c << 24 & 0x0000FF00) | (d <
 1154              		.loc 1 203 9 is_stmt 1 discriminator 3 view .LVU297
 1155              		.loc 1 203 55 is_stmt 0 discriminator 3 view .LVU298
 1156 0080 1B04     		lsls	r3, r3, #16
 1157              	.LVL87:
 1158              		.loc 1 203 69 discriminator 3 view .LVU299
 1159 0082 43EA0263 		orr	r3, r3, r2, lsl #24
 1160              	.LVL88:
 204:Src/configuration.c ****         Config_FlashWord(&flashaddress, writeword);
 1161              		.loc 1 204 9 is_stmt 1 discriminator 3 view .LVU300
 1162 0086 1943     		orrs	r1, r1, r3
 1163              	.LVL89:
 1164              		.loc 1 204 9 is_stmt 0 discriminator 3 view .LVU301
 1165 0088 01A8     		add	r0, sp, #4
 1166 008a FFF7FEFF 		bl	Config_FlashWord
 1167              	.LVL90:
 1168              		.loc 1 204 9 discriminator 3 view .LVU302
 1169              	.LBE45:
 190:Src/configuration.c ****       {
 1170              		.loc 1 190 34 is_stmt 1 discriminator 3 view .LVU303
 190:Src/configuration.c ****       {
 1171              		.loc 1 190 35 is_stmt 0 discriminator 3 view .LVU304
 1172 008e 0134     		adds	r4, r4, #1
 1173              	.LVL91:
 190:Src/configuration.c ****       {
 1174              		.loc 1 190 35 discriminator 3 view .LVU305
 1175 0090 E4B2     		uxtb	r4, r4
 1176              	.LVL92:
 1177              	.L77:
 190:Src/configuration.c ****       {
 1178              		.loc 1 190 27 is_stmt 1 discriminator 1 view .LVU306
 190:Src/configuration.c ****       {
 1179              		.loc 1 190 7 is_stmt 0 discriminator 1 view .LVU307
 1180 0092 032C     		cmp	r4, #3
 1181 0094 DED9     		bls	.L75
 1182              	.LBE46:
 188:Src/configuration.c ****     {
 1183              		.loc 1 188 30 is_stmt 1 discriminator 2 view .LVU308
 188:Src/configuration.c ****     {
 1184              		.loc 1 188 31 is_stmt 0 discriminator 2 view .LVU309
 1185 0096 0136     		adds	r6, r6, #1
 1186              	.LVL93:
 1187              	.L76:
 188:Src/configuration.c ****     {
 1188              		.loc 1 188 22 is_stmt 1 discriminator 1 view .LVU310
 188:Src/configuration.c ****     {
 1189              		.loc 1 188 3 is_stmt 0 discriminator 1 view .LVU311
ARM GAS  /var/folders/80/65lm4rm97rv_n74c85vt01040000gn/T//ccnbidPO.s 			page 27


 1190 0098 0F2E     		cmp	r6, #15
 1191 009a 01D8     		bhi	.L81
 1192              	.LBB47:
 190:Src/configuration.c ****       {
 1193              		.loc 1 190 20 view .LVU312
 1194 009c 0024     		movs	r4, #0
 1195 009e F8E7     		b	.L77
 1196              	.L81:
 1197              	.LBE47:
 1198              	.LBE48:
 205:Src/configuration.c **** 
 206:Src/configuration.c ****       }
 207:Src/configuration.c ****     } 
 208:Src/configuration.c ****   HAL_FLASH_Lock();
 1199              		.loc 1 208 3 is_stmt 1 view .LVU313
 1200 00a0 FFF7FEFF 		bl	HAL_FLASH_Lock
 1201              	.LVL94:
 209:Src/configuration.c **** }
 1202              		.loc 1 209 1 is_stmt 0 view .LVU314
 1203 00a4 03B0     		add	sp, sp, #12
 1204              	.LCFI22:
 1205              		.cfi_def_cfa_offset 20
 1206              		@ sp needed
 1207 00a6 F0BD     		pop	{r4, r5, r6, r7, pc}
 1208              	.LVL95:
 1209              	.L83:
 1210              		.loc 1 209 1 view .LVU315
 1211              		.align	2
 1212              	.L82:
 1213 00a8 00300008 		.word	134230016
 1214 00ac 00000000 		.word	dac
 1215 00b0 24300008 		.word	134230052
 1216 00b4 00000000 		.word	.LANCHOR1
 1217              		.cfi_endproc
 1218              	.LFE138:
 1220              		.section	.text.Config_FlashInitWriteApp,"ax",%progbits
 1221              		.align	1
 1222              		.global	Config_FlashInitWriteApp
 1223              		.syntax unified
 1224              		.thumb
 1225              		.thumb_func
 1226              		.fpu fpv4-sp-d16
 1228              	Config_FlashInitWriteApp:
 1229              	.LFB139:
 210:Src/configuration.c **** 
 211:Src/configuration.c **** uint32_t appflashaddress;
 212:Src/configuration.c **** void Config_FlashInitWriteApp() {
 1230              		.loc 1 212 33 is_stmt 1 view -0
 1231              		.cfi_startproc
 1232              		@ args = 0, pretend = 0, frame = 0
 1233              		@ frame_needed = 0, uses_anonymous_args = 0
 1234 0000 08B5     		push	{r3, lr}
 1235              	.LCFI23:
 1236              		.cfi_def_cfa_offset 8
 1237              		.cfi_offset 3, -8
 1238              		.cfi_offset 14, -4
 213:Src/configuration.c ****   Config_DisableOutput();
ARM GAS  /var/folders/80/65lm4rm97rv_n74c85vt01040000gn/T//ccnbidPO.s 			page 28


 1239              		.loc 1 213 3 view .LVU317
 1240 0002 FFF7FEFF 		bl	Config_DisableOutput
 1241              	.LVL96:
 214:Src/configuration.c ****   LED_ChangeMode(LED_Uploading);
 1242              		.loc 1 214 3 view .LVU318
 1243 0006 0420     		movs	r0, #4
 1244 0008 FFF7FEFF 		bl	LED_ChangeMode
 1245              	.LVL97:
 215:Src/configuration.c ****   Config_EraseUpdatePage();
 1246              		.loc 1 215 3 view .LVU319
 1247 000c FFF7FEFF 		bl	Config_EraseUpdatePage
 1248              	.LVL98:
 216:Src/configuration.c ****   HAL_FLASH_Unlock();
 1249              		.loc 1 216 3 view .LVU320
 1250 0010 FFF7FEFF 		bl	HAL_FLASH_Unlock
 1251              	.LVL99:
 217:Src/configuration.c ****   appflashaddress = kUPDATE_ADDRESS;
 1252              		.loc 1 217 3 view .LVU321
 1253              		.loc 1 217 19 is_stmt 0 view .LVU322
 1254 0014 014B     		ldr	r3, .L86
 1255 0016 024A     		ldr	r2, .L86+4
 1256 0018 1A60     		str	r2, [r3]
 218:Src/configuration.c **** }
 1257              		.loc 1 218 1 view .LVU323
 1258 001a 08BD     		pop	{r3, pc}
 1259              	.L87:
 1260              		.align	2
 1261              	.L86:
 1262 001c 00000000 		.word	.LANCHOR2
 1263 0020 00200208 		.word	134356992
 1264              		.cfi_endproc
 1265              	.LFE139:
 1267              		.section	.text.Config_FlashWriteAppWord,"ax",%progbits
 1268              		.align	1
 1269              		.global	Config_FlashWriteAppWord
 1270              		.syntax unified
 1271              		.thumb
 1272              		.thumb_func
 1273              		.fpu fpv4-sp-d16
 1275              	Config_FlashWriteAppWord:
 1276              	.LVL100:
 1277              	.LFB140:
 219:Src/configuration.c **** 
 220:Src/configuration.c **** void Config_FlashWriteAppWord(uint32_t data) {
 1278              		.loc 1 220 46 is_stmt 1 view -0
 1279              		.cfi_startproc
 1280              		@ args = 0, pretend = 0, frame = 0
 1281              		@ frame_needed = 0, uses_anonymous_args = 0
 1282              		.loc 1 220 46 is_stmt 0 view .LVU325
 1283 0000 08B5     		push	{r3, lr}
 1284              	.LCFI24:
 1285              		.cfi_def_cfa_offset 8
 1286              		.cfi_offset 3, -8
 1287              		.cfi_offset 14, -4
 1288 0002 0146     		mov	r1, r0
 221:Src/configuration.c ****   Config_FlashWord(&appflashaddress, data);
 1289              		.loc 1 221 3 is_stmt 1 view .LVU326
ARM GAS  /var/folders/80/65lm4rm97rv_n74c85vt01040000gn/T//ccnbidPO.s 			page 29


 1290 0004 0148     		ldr	r0, .L90
 1291              	.LVL101:
 1292              		.loc 1 221 3 is_stmt 0 view .LVU327
 1293 0006 FFF7FEFF 		bl	Config_FlashWord
 1294              	.LVL102:
 222:Src/configuration.c **** }
 1295              		.loc 1 222 1 view .LVU328
 1296 000a 08BD     		pop	{r3, pc}
 1297              	.L91:
 1298              		.align	2
 1299              	.L90:
 1300 000c 00000000 		.word	.LANCHOR2
 1301              		.cfi_endproc
 1302              	.LFE140:
 1304              		.section	.text.Config_FlashEndWriteApp,"ax",%progbits
 1305              		.align	1
 1306              		.global	Config_FlashEndWriteApp
 1307              		.syntax unified
 1308              		.thumb
 1309              		.thumb_func
 1310              		.fpu fpv4-sp-d16
 1312              	Config_FlashEndWriteApp:
 1313              	.LFB141:
 223:Src/configuration.c **** 
 224:Src/configuration.c **** void Config_FlashEndWriteApp() {
 1314              		.loc 1 224 32 is_stmt 1 view -0
 1315              		.cfi_startproc
 1316              		@ args = 0, pretend = 0, frame = 0
 1317              		@ frame_needed = 0, uses_anonymous_args = 0
 1318 0000 08B5     		push	{r3, lr}
 1319              	.LCFI25:
 1320              		.cfi_def_cfa_offset 8
 1321              		.cfi_offset 3, -8
 1322              		.cfi_offset 14, -4
 225:Src/configuration.c ****   HAL_FLASH_Lock();
 1323              		.loc 1 225 3 view .LVU330
 1324 0002 FFF7FEFF 		bl	HAL_FLASH_Lock
 1325              	.LVL103:
 226:Src/configuration.c **** }
 1326              		.loc 1 226 1 is_stmt 0 view .LVU331
 1327 0006 08BD     		pop	{r3, pc}
 1328              		.cfi_endproc
 1329              	.LFE141:
 1331              		.section	.text.Config_FlashVerifyWord,"ax",%progbits
 1332              		.align	1
 1333              		.global	Config_FlashVerifyWord
 1334              		.syntax unified
 1335              		.thumb
 1336              		.thumb_func
 1337              		.fpu fpv4-sp-d16
 1339              	Config_FlashVerifyWord:
 1340              	.LVL104:
 1341              	.LFB142:
 227:Src/configuration.c **** 
 228:Src/configuration.c **** uint32_t Config_FlashVerifyWord(uint32_t *flashaddress) {
 1342              		.loc 1 228 57 is_stmt 1 view -0
 1343              		.cfi_startproc
ARM GAS  /var/folders/80/65lm4rm97rv_n74c85vt01040000gn/T//ccnbidPO.s 			page 30


 1344              		@ args = 0, pretend = 0, frame = 0
 1345              		@ frame_needed = 0, uses_anonymous_args = 0
 1346              		@ link register save eliminated.
 1347              		.loc 1 228 57 is_stmt 0 view .LVU333
 1348 0000 0346     		mov	r3, r0
 229:Src/configuration.c ****   return Config_ReadWord(flashaddress);
 1349              		.loc 1 229 3 is_stmt 1 view .LVU334
 1350              	.LVL105:
 1351              	.LBB49:
 1352              	.LBI49:
 104:Src/configuration.c ****   uint32_t data = *(__IO uint32_t*)(*flashaddress);
 1353              		.loc 1 104 17 view .LVU335
 1354              	.LBB50:
 105:Src/configuration.c ****   *flashaddress += 4;
 1355              		.loc 1 105 3 view .LVU336
 105:Src/configuration.c ****   *flashaddress += 4;
 1356              		.loc 1 105 12 is_stmt 0 view .LVU337
 1357 0002 0268     		ldr	r2, [r0]
 1358 0004 52F8040B 		ldr	r0, [r2], #4
 1359              	.LVL106:
 106:Src/configuration.c ****   return data;
 1360              		.loc 1 106 3 is_stmt 1 view .LVU338
 106:Src/configuration.c ****   return data;
 1361              		.loc 1 106 17 is_stmt 0 view .LVU339
 1362 0008 1A60     		str	r2, [r3]
 107:Src/configuration.c **** }
 1363              		.loc 1 107 3 is_stmt 1 view .LVU340
 1364              	.LVL107:
 107:Src/configuration.c **** }
 1365              		.loc 1 107 3 is_stmt 0 view .LVU341
 1366              	.LBE50:
 1367              	.LBE49:
 230:Src/configuration.c **** }
 1368              		.loc 1 230 1 view .LVU342
 1369 000a 7047     		bx	lr
 1370              		.cfi_endproc
 1371              	.LFE142:
 1373              		.section	.text.Config_FlashResetAppBit,"ax",%progbits
 1374              		.align	1
 1375              		.global	Config_FlashResetAppBit
 1376              		.syntax unified
 1377              		.thumb
 1378              		.thumb_func
 1379              		.fpu fpv4-sp-d16
 1381              	Config_FlashResetAppBit:
 1382              	.LFB143:
 231:Src/configuration.c **** 
 232:Src/configuration.c **** void Config_FlashResetAppBit() {
 1383              		.loc 1 232 32 is_stmt 1 view -0
 1384              		.cfi_startproc
 1385              		@ args = 0, pretend = 0, frame = 0
 1386              		@ frame_needed = 0, uses_anonymous_args = 0
 1387 0000 08B5     		push	{r3, lr}
 1388              	.LCFI26:
 1389              		.cfi_def_cfa_offset 8
 1390              		.cfi_offset 3, -8
 1391              		.cfi_offset 14, -4
ARM GAS  /var/folders/80/65lm4rm97rv_n74c85vt01040000gn/T//ccnbidPO.s 			page 31


 233:Src/configuration.c ****   uint32_t appbit = kBIT_ADDRESS;
 1392              		.loc 1 233 3 view .LVU344
 1393              	.LVL108:
 234:Src/configuration.c ****   if(Config_ReadWord(&appbit) != 0xFFFFFFFF) {
 1394              		.loc 1 234 3 view .LVU345
 1395              	.LBB51:
 1396              	.LBI51:
 104:Src/configuration.c ****   uint32_t data = *(__IO uint32_t*)(*flashaddress);
 1397              		.loc 1 104 17 view .LVU346
 1398              	.LBB52:
 105:Src/configuration.c ****   *flashaddress += 4;
 1399              		.loc 1 105 3 view .LVU347
 105:Src/configuration.c ****   *flashaddress += 4;
 1400              		.loc 1 105 12 is_stmt 0 view .LVU348
 1401 0002 094B     		ldr	r3, .L101
 1402 0004 D3F80038 		ldr	r3, [r3, #2048]
 1403              	.LVL109:
 106:Src/configuration.c ****   return data;
 1404              		.loc 1 106 3 is_stmt 1 view .LVU349
 107:Src/configuration.c **** }
 1405              		.loc 1 107 3 view .LVU350
 107:Src/configuration.c **** }
 1406              		.loc 1 107 3 is_stmt 0 view .LVU351
 1407              	.LBE52:
 1408              	.LBE51:
 1409              		.loc 1 234 5 view .LVU352
 1410 0008 B3F1FF3F 		cmp	r3, #-1
 1411 000c 05D1     		bne	.L99
 1412              	.L96:
 235:Src/configuration.c ****     Config_EraseBitPage();
 236:Src/configuration.c ****   }
 237:Src/configuration.c ****   appbit = kUPDATE_ADDRESS;
 1413              		.loc 1 237 3 is_stmt 1 view .LVU353
 1414              	.LVL110:
 238:Src/configuration.c ****   if(Config_ReadWord(&appbit) != 0xFFFFFFFF) {
 1415              		.loc 1 238 3 view .LVU354
 1416              	.LBB53:
 1417              	.LBI53:
 104:Src/configuration.c ****   uint32_t data = *(__IO uint32_t*)(*flashaddress);
 1418              		.loc 1 104 17 view .LVU355
 1419              	.LBB54:
 105:Src/configuration.c ****   *flashaddress += 4;
 1420              		.loc 1 105 3 view .LVU356
 105:Src/configuration.c ****   *flashaddress += 4;
 1421              		.loc 1 105 12 is_stmt 0 view .LVU357
 1422 000e 074B     		ldr	r3, .L101+4
 1423 0010 1B68     		ldr	r3, [r3]
 1424              	.LVL111:
 106:Src/configuration.c ****   return data;
 1425              		.loc 1 106 3 is_stmt 1 view .LVU358
 107:Src/configuration.c **** }
 1426              		.loc 1 107 3 view .LVU359
 107:Src/configuration.c **** }
 1427              		.loc 1 107 3 is_stmt 0 view .LVU360
 1428              	.LBE54:
 1429              	.LBE53:
 1430              		.loc 1 238 5 view .LVU361
ARM GAS  /var/folders/80/65lm4rm97rv_n74c85vt01040000gn/T//ccnbidPO.s 			page 32


 1431 0012 B3F1FF3F 		cmp	r3, #-1
 1432 0016 03D1     		bne	.L100
 1433              	.LVL112:
 1434              	.L95:
 239:Src/configuration.c ****     Config_EraseUpdatePage();
 240:Src/configuration.c ****   }
 241:Src/configuration.c **** }
 1435              		.loc 1 241 1 view .LVU362
 1436 0018 08BD     		pop	{r3, pc}
 1437              	.LVL113:
 1438              	.L99:
 235:Src/configuration.c ****   }
 1439              		.loc 1 235 5 is_stmt 1 view .LVU363
 1440 001a FFF7FEFF 		bl	Config_EraseBitPage
 1441              	.LVL114:
 1442 001e F6E7     		b	.L96
 1443              	.LVL115:
 1444              	.L100:
 239:Src/configuration.c ****     Config_EraseUpdatePage();
 1445              		.loc 1 239 5 view .LVU364
 1446 0020 FFF7FEFF 		bl	Config_EraseUpdatePage
 1447              	.LVL116:
 1448              		.loc 1 241 1 is_stmt 0 view .LVU365
 1449 0024 F8E7     		b	.L95
 1450              	.L102:
 1451 0026 00BF     		.align	2
 1452              	.L101:
 1453 0028 00200008 		.word	134225920
 1454 002c 00200208 		.word	134356992
 1455              		.cfi_endproc
 1456              	.LFE143:
 1458              		.section	.text.Config_FlashSetAppBit,"ax",%progbits
 1459              		.align	1
 1460              		.global	Config_FlashSetAppBit
 1461              		.syntax unified
 1462              		.thumb
 1463              		.thumb_func
 1464              		.fpu fpv4-sp-d16
 1466              	Config_FlashSetAppBit:
 1467              	.LFB144:
 242:Src/configuration.c **** 
 243:Src/configuration.c **** void Config_FlashSetAppBit() {
 1468              		.loc 1 243 30 is_stmt 1 view -0
 1469              		.cfi_startproc
 1470              		@ Volatile: function does not return.
 1471              		@ args = 0, pretend = 0, frame = 8
 1472              		@ frame_needed = 0, uses_anonymous_args = 0
 1473 0000 00B5     		push	{lr}
 1474              	.LCFI27:
 1475              		.cfi_def_cfa_offset 4
 1476              		.cfi_offset 14, -4
 1477 0002 83B0     		sub	sp, sp, #12
 1478              	.LCFI28:
 1479              		.cfi_def_cfa_offset 16
 244:Src/configuration.c ****   HAL_FLASH_Unlock();
 1480              		.loc 1 244 3 view .LVU367
 1481 0004 FFF7FEFF 		bl	HAL_FLASH_Unlock
ARM GAS  /var/folders/80/65lm4rm97rv_n74c85vt01040000gn/T//ccnbidPO.s 			page 33


 1482              	.LVL117:
 245:Src/configuration.c ****   uint32_t appbit = kBIT_ADDRESS;
 1483              		.loc 1 245 3 view .LVU368
 1484              		.loc 1 245 12 is_stmt 0 view .LVU369
 1485 0008 0949     		ldr	r1, .L106
 1486 000a 0191     		str	r1, [sp, #4]
 246:Src/configuration.c ****   Config_FlashWord(&appbit,appbit);
 1487              		.loc 1 246 3 is_stmt 1 view .LVU370
 1488 000c 01A8     		add	r0, sp, #4
 1489 000e FFF7FEFF 		bl	Config_FlashWord
 1490              	.LVL118:
 247:Src/configuration.c ****   HAL_FLASH_Lock();
 1491              		.loc 1 247 3 view .LVU371
 1492 0012 FFF7FEFF 		bl	HAL_FLASH_Lock
 1493              	.LVL119:
 248:Src/configuration.c ****   NVIC_SystemReset();
 1494              		.loc 1 248 3 view .LVU372
 1495              	.LBB63:
 1496              	.LBI63:
 1497              		.file 2 "Drivers/CMSIS/Include/core_cm4.h"
   1:Drivers/CMSIS/Include/core_cm4.h **** /**************************************************************************//**
   2:Drivers/CMSIS/Include/core_cm4.h ****  * @file     core_cm4.h
   3:Drivers/CMSIS/Include/core_cm4.h ****  * @brief    CMSIS Cortex-M4 Core Peripheral Access Layer Header File
   4:Drivers/CMSIS/Include/core_cm4.h ****  * @version  V4.30
   5:Drivers/CMSIS/Include/core_cm4.h ****  * @date     20. October 2015
   6:Drivers/CMSIS/Include/core_cm4.h ****  ******************************************************************************/
   7:Drivers/CMSIS/Include/core_cm4.h **** /* Copyright (c) 2009 - 2015 ARM LIMITED
   8:Drivers/CMSIS/Include/core_cm4.h **** 
   9:Drivers/CMSIS/Include/core_cm4.h ****    All rights reserved.
  10:Drivers/CMSIS/Include/core_cm4.h ****    Redistribution and use in source and binary forms, with or without
  11:Drivers/CMSIS/Include/core_cm4.h ****    modification, are permitted provided that the following conditions are met:
  12:Drivers/CMSIS/Include/core_cm4.h ****    - Redistributions of source code must retain the above copyright
  13:Drivers/CMSIS/Include/core_cm4.h ****      notice, this list of conditions and the following disclaimer.
  14:Drivers/CMSIS/Include/core_cm4.h ****    - Redistributions in binary form must reproduce the above copyright
  15:Drivers/CMSIS/Include/core_cm4.h ****      notice, this list of conditions and the following disclaimer in the
  16:Drivers/CMSIS/Include/core_cm4.h ****      documentation and/or other materials provided with the distribution.
  17:Drivers/CMSIS/Include/core_cm4.h ****    - Neither the name of ARM nor the names of its contributors may be used
  18:Drivers/CMSIS/Include/core_cm4.h ****      to endorse or promote products derived from this software without
  19:Drivers/CMSIS/Include/core_cm4.h ****      specific prior written permission.
  20:Drivers/CMSIS/Include/core_cm4.h ****    *
  21:Drivers/CMSIS/Include/core_cm4.h ****    THIS SOFTWARE IS PROVIDED BY THE COPYRIGHT HOLDERS AND CONTRIBUTORS "AS IS"
  22:Drivers/CMSIS/Include/core_cm4.h ****    AND ANY EXPRESS OR IMPLIED WARRANTIES, INCLUDING, BUT NOT LIMITED TO, THE
  23:Drivers/CMSIS/Include/core_cm4.h ****    IMPLIED WARRANTIES OF MERCHANTABILITY AND FITNESS FOR A PARTICULAR PURPOSE
  24:Drivers/CMSIS/Include/core_cm4.h ****    ARE DISCLAIMED. IN NO EVENT SHALL COPYRIGHT HOLDERS AND CONTRIBUTORS BE
  25:Drivers/CMSIS/Include/core_cm4.h ****    LIABLE FOR ANY DIRECT, INDIRECT, INCIDENTAL, SPECIAL, EXEMPLARY, OR
  26:Drivers/CMSIS/Include/core_cm4.h ****    CONSEQUENTIAL DAMAGES (INCLUDING, BUT NOT LIMITED TO, PROCUREMENT OF
  27:Drivers/CMSIS/Include/core_cm4.h ****    SUBSTITUTE GOODS OR SERVICES; LOSS OF USE, DATA, OR PROFITS; OR BUSINESS
  28:Drivers/CMSIS/Include/core_cm4.h ****    INTERRUPTION) HOWEVER CAUSED AND ON ANY THEORY OF LIABILITY, WHETHER IN
  29:Drivers/CMSIS/Include/core_cm4.h ****    CONTRACT, STRICT LIABILITY, OR TORT (INCLUDING NEGLIGENCE OR OTHERWISE)
  30:Drivers/CMSIS/Include/core_cm4.h ****    ARISING IN ANY WAY OUT OF THE USE OF THIS SOFTWARE, EVEN IF ADVISED OF THE
  31:Drivers/CMSIS/Include/core_cm4.h ****    POSSIBILITY OF SUCH DAMAGE.
  32:Drivers/CMSIS/Include/core_cm4.h ****    ---------------------------------------------------------------------------*/
  33:Drivers/CMSIS/Include/core_cm4.h **** 
  34:Drivers/CMSIS/Include/core_cm4.h **** 
  35:Drivers/CMSIS/Include/core_cm4.h **** #if   defined ( __ICCARM__ )
  36:Drivers/CMSIS/Include/core_cm4.h ****  #pragma system_include         /* treat file as system include file for MISRA check */
  37:Drivers/CMSIS/Include/core_cm4.h **** #elif defined(__ARMCC_VERSION) && (__ARMCC_VERSION >= 6010050)
ARM GAS  /var/folders/80/65lm4rm97rv_n74c85vt01040000gn/T//ccnbidPO.s 			page 34


  38:Drivers/CMSIS/Include/core_cm4.h ****   #pragma clang system_header   /* treat file as system include file */
  39:Drivers/CMSIS/Include/core_cm4.h **** #endif
  40:Drivers/CMSIS/Include/core_cm4.h **** 
  41:Drivers/CMSIS/Include/core_cm4.h **** #ifndef __CORE_CM4_H_GENERIC
  42:Drivers/CMSIS/Include/core_cm4.h **** #define __CORE_CM4_H_GENERIC
  43:Drivers/CMSIS/Include/core_cm4.h **** 
  44:Drivers/CMSIS/Include/core_cm4.h **** #include <stdint.h>
  45:Drivers/CMSIS/Include/core_cm4.h **** 
  46:Drivers/CMSIS/Include/core_cm4.h **** #ifdef __cplusplus
  47:Drivers/CMSIS/Include/core_cm4.h ****  extern "C" {
  48:Drivers/CMSIS/Include/core_cm4.h **** #endif
  49:Drivers/CMSIS/Include/core_cm4.h **** 
  50:Drivers/CMSIS/Include/core_cm4.h **** /**
  51:Drivers/CMSIS/Include/core_cm4.h ****   \page CMSIS_MISRA_Exceptions  MISRA-C:2004 Compliance Exceptions
  52:Drivers/CMSIS/Include/core_cm4.h ****   CMSIS violates the following MISRA-C:2004 rules:
  53:Drivers/CMSIS/Include/core_cm4.h **** 
  54:Drivers/CMSIS/Include/core_cm4.h ****    \li Required Rule 8.5, object/function definition in header file.<br>
  55:Drivers/CMSIS/Include/core_cm4.h ****      Function definitions in header files are used to allow 'inlining'.
  56:Drivers/CMSIS/Include/core_cm4.h **** 
  57:Drivers/CMSIS/Include/core_cm4.h ****    \li Required Rule 18.4, declaration of union type or object of union type: '{...}'.<br>
  58:Drivers/CMSIS/Include/core_cm4.h ****      Unions are used for effective representation of core registers.
  59:Drivers/CMSIS/Include/core_cm4.h **** 
  60:Drivers/CMSIS/Include/core_cm4.h ****    \li Advisory Rule 19.7, Function-like macro defined.<br>
  61:Drivers/CMSIS/Include/core_cm4.h ****      Function-like macros are used to allow more efficient code.
  62:Drivers/CMSIS/Include/core_cm4.h ****  */
  63:Drivers/CMSIS/Include/core_cm4.h **** 
  64:Drivers/CMSIS/Include/core_cm4.h **** 
  65:Drivers/CMSIS/Include/core_cm4.h **** /*******************************************************************************
  66:Drivers/CMSIS/Include/core_cm4.h ****  *                 CMSIS definitions
  67:Drivers/CMSIS/Include/core_cm4.h ****  ******************************************************************************/
  68:Drivers/CMSIS/Include/core_cm4.h **** /**
  69:Drivers/CMSIS/Include/core_cm4.h ****   \ingroup Cortex_M4
  70:Drivers/CMSIS/Include/core_cm4.h ****   @{
  71:Drivers/CMSIS/Include/core_cm4.h ****  */
  72:Drivers/CMSIS/Include/core_cm4.h **** 
  73:Drivers/CMSIS/Include/core_cm4.h **** /*  CMSIS CM4 definitions */
  74:Drivers/CMSIS/Include/core_cm4.h **** #define __CM4_CMSIS_VERSION_MAIN  (0x04U)                                      /*!< [31:16] CMSIS H
  75:Drivers/CMSIS/Include/core_cm4.h **** #define __CM4_CMSIS_VERSION_SUB   (0x1EU)                                      /*!< [15:0]  CMSIS H
  76:Drivers/CMSIS/Include/core_cm4.h **** #define __CM4_CMSIS_VERSION       ((__CM4_CMSIS_VERSION_MAIN << 16U) | \
  77:Drivers/CMSIS/Include/core_cm4.h ****                                     __CM4_CMSIS_VERSION_SUB           )        /*!< CMSIS HAL versi
  78:Drivers/CMSIS/Include/core_cm4.h **** 
  79:Drivers/CMSIS/Include/core_cm4.h **** #define __CORTEX_M                (0x04U)                                      /*!< Cortex-M Core *
  80:Drivers/CMSIS/Include/core_cm4.h **** 
  81:Drivers/CMSIS/Include/core_cm4.h **** 
  82:Drivers/CMSIS/Include/core_cm4.h **** #if   defined ( __CC_ARM )
  83:Drivers/CMSIS/Include/core_cm4.h ****   #define __ASM            __asm                                      /*!< asm keyword for ARM Comp
  84:Drivers/CMSIS/Include/core_cm4.h ****   #define __INLINE         __inline                                   /*!< inline keyword for ARM C
  85:Drivers/CMSIS/Include/core_cm4.h ****   #define __STATIC_INLINE  static __inline
  86:Drivers/CMSIS/Include/core_cm4.h **** 
  87:Drivers/CMSIS/Include/core_cm4.h **** #elif defined(__ARMCC_VERSION) && (__ARMCC_VERSION >= 6010050)
  88:Drivers/CMSIS/Include/core_cm4.h ****   #define __ASM            __asm                                      /*!< asm keyword for ARM Comp
  89:Drivers/CMSIS/Include/core_cm4.h ****   #define __INLINE         __inline                                   /*!< inline keyword for ARM C
  90:Drivers/CMSIS/Include/core_cm4.h ****   #define __STATIC_INLINE  static __inline
  91:Drivers/CMSIS/Include/core_cm4.h **** 
  92:Drivers/CMSIS/Include/core_cm4.h **** #elif defined ( __GNUC__ )
  93:Drivers/CMSIS/Include/core_cm4.h ****   #define __ASM            __asm                                      /*!< asm keyword for GNU Comp
  94:Drivers/CMSIS/Include/core_cm4.h ****   #define __INLINE         inline                                     /*!< inline keyword for GNU C
ARM GAS  /var/folders/80/65lm4rm97rv_n74c85vt01040000gn/T//ccnbidPO.s 			page 35


  95:Drivers/CMSIS/Include/core_cm4.h ****   #define __STATIC_INLINE  static inline
  96:Drivers/CMSIS/Include/core_cm4.h **** 
  97:Drivers/CMSIS/Include/core_cm4.h **** #elif defined ( __ICCARM__ )
  98:Drivers/CMSIS/Include/core_cm4.h ****   #define __ASM            __asm                                      /*!< asm keyword for IAR Comp
  99:Drivers/CMSIS/Include/core_cm4.h ****   #define __INLINE         inline                                     /*!< inline keyword for IAR C
 100:Drivers/CMSIS/Include/core_cm4.h ****   #define __STATIC_INLINE  static inline
 101:Drivers/CMSIS/Include/core_cm4.h **** 
 102:Drivers/CMSIS/Include/core_cm4.h **** #elif defined ( __TMS470__ )
 103:Drivers/CMSIS/Include/core_cm4.h ****   #define __ASM            __asm                                      /*!< asm keyword for TI CCS C
 104:Drivers/CMSIS/Include/core_cm4.h ****   #define __STATIC_INLINE  static inline
 105:Drivers/CMSIS/Include/core_cm4.h **** 
 106:Drivers/CMSIS/Include/core_cm4.h **** #elif defined ( __TASKING__ )
 107:Drivers/CMSIS/Include/core_cm4.h ****   #define __ASM            __asm                                      /*!< asm keyword for TASKING 
 108:Drivers/CMSIS/Include/core_cm4.h ****   #define __INLINE         inline                                     /*!< inline keyword for TASKI
 109:Drivers/CMSIS/Include/core_cm4.h ****   #define __STATIC_INLINE  static inline
 110:Drivers/CMSIS/Include/core_cm4.h **** 
 111:Drivers/CMSIS/Include/core_cm4.h **** #elif defined ( __CSMC__ )
 112:Drivers/CMSIS/Include/core_cm4.h ****   #define __packed
 113:Drivers/CMSIS/Include/core_cm4.h ****   #define __ASM            _asm                                      /*!< asm keyword for COSMIC Co
 114:Drivers/CMSIS/Include/core_cm4.h ****   #define __INLINE         inline                                    /*!< inline keyword for COSMIC
 115:Drivers/CMSIS/Include/core_cm4.h ****   #define __STATIC_INLINE  static inline
 116:Drivers/CMSIS/Include/core_cm4.h **** 
 117:Drivers/CMSIS/Include/core_cm4.h **** #else
 118:Drivers/CMSIS/Include/core_cm4.h ****   #error Unknown compiler
 119:Drivers/CMSIS/Include/core_cm4.h **** #endif
 120:Drivers/CMSIS/Include/core_cm4.h **** 
 121:Drivers/CMSIS/Include/core_cm4.h **** /** __FPU_USED indicates whether an FPU is used or not.
 122:Drivers/CMSIS/Include/core_cm4.h ****     For this, __FPU_PRESENT has to be checked prior to making use of FPU specific registers and fun
 123:Drivers/CMSIS/Include/core_cm4.h **** */
 124:Drivers/CMSIS/Include/core_cm4.h **** #if defined ( __CC_ARM )
 125:Drivers/CMSIS/Include/core_cm4.h ****   #if defined __TARGET_FPU_VFP
 126:Drivers/CMSIS/Include/core_cm4.h ****     #if (__FPU_PRESENT == 1U)
 127:Drivers/CMSIS/Include/core_cm4.h ****       #define __FPU_USED       1U
 128:Drivers/CMSIS/Include/core_cm4.h ****     #else
 129:Drivers/CMSIS/Include/core_cm4.h ****       #error "Compiler generates FPU instructions for a device without an FPU (check __FPU_PRESENT)
 130:Drivers/CMSIS/Include/core_cm4.h ****       #define __FPU_USED       0U
 131:Drivers/CMSIS/Include/core_cm4.h ****     #endif
 132:Drivers/CMSIS/Include/core_cm4.h ****   #else
 133:Drivers/CMSIS/Include/core_cm4.h ****     #define __FPU_USED         0U
 134:Drivers/CMSIS/Include/core_cm4.h ****   #endif
 135:Drivers/CMSIS/Include/core_cm4.h **** 
 136:Drivers/CMSIS/Include/core_cm4.h **** #elif defined(__ARMCC_VERSION) && (__ARMCC_VERSION >= 6010050)
 137:Drivers/CMSIS/Include/core_cm4.h ****   #if defined __ARM_PCS_VFP
 138:Drivers/CMSIS/Include/core_cm4.h ****     #if (__FPU_PRESENT == 1)
 139:Drivers/CMSIS/Include/core_cm4.h ****       #define __FPU_USED       1U
 140:Drivers/CMSIS/Include/core_cm4.h ****     #else
 141:Drivers/CMSIS/Include/core_cm4.h ****       #warning "Compiler generates FPU instructions for a device without an FPU (check __FPU_PRESEN
 142:Drivers/CMSIS/Include/core_cm4.h ****       #define __FPU_USED       0U
 143:Drivers/CMSIS/Include/core_cm4.h ****     #endif
 144:Drivers/CMSIS/Include/core_cm4.h ****   #else
 145:Drivers/CMSIS/Include/core_cm4.h ****     #define __FPU_USED         0U
 146:Drivers/CMSIS/Include/core_cm4.h ****   #endif
 147:Drivers/CMSIS/Include/core_cm4.h **** 
 148:Drivers/CMSIS/Include/core_cm4.h **** #elif defined ( __GNUC__ )
 149:Drivers/CMSIS/Include/core_cm4.h ****   #if defined (__VFP_FP__) && !defined(__SOFTFP__)
 150:Drivers/CMSIS/Include/core_cm4.h ****     #if (__FPU_PRESENT == 1U)
 151:Drivers/CMSIS/Include/core_cm4.h ****       #define __FPU_USED       1U
ARM GAS  /var/folders/80/65lm4rm97rv_n74c85vt01040000gn/T//ccnbidPO.s 			page 36


 152:Drivers/CMSIS/Include/core_cm4.h ****     #else
 153:Drivers/CMSIS/Include/core_cm4.h ****       #error "Compiler generates FPU instructions for a device without an FPU (check __FPU_PRESENT)
 154:Drivers/CMSIS/Include/core_cm4.h ****       #define __FPU_USED       0U
 155:Drivers/CMSIS/Include/core_cm4.h ****     #endif
 156:Drivers/CMSIS/Include/core_cm4.h ****   #else
 157:Drivers/CMSIS/Include/core_cm4.h ****     #define __FPU_USED         0U
 158:Drivers/CMSIS/Include/core_cm4.h ****   #endif
 159:Drivers/CMSIS/Include/core_cm4.h **** 
 160:Drivers/CMSIS/Include/core_cm4.h **** #elif defined ( __ICCARM__ )
 161:Drivers/CMSIS/Include/core_cm4.h ****   #if defined __ARMVFP__
 162:Drivers/CMSIS/Include/core_cm4.h ****     #if (__FPU_PRESENT == 1U)
 163:Drivers/CMSIS/Include/core_cm4.h ****       #define __FPU_USED       1U
 164:Drivers/CMSIS/Include/core_cm4.h ****     #else
 165:Drivers/CMSIS/Include/core_cm4.h ****       #error "Compiler generates FPU instructions for a device without an FPU (check __FPU_PRESENT)
 166:Drivers/CMSIS/Include/core_cm4.h ****       #define __FPU_USED       0U
 167:Drivers/CMSIS/Include/core_cm4.h ****     #endif
 168:Drivers/CMSIS/Include/core_cm4.h ****   #else
 169:Drivers/CMSIS/Include/core_cm4.h ****     #define __FPU_USED         0U
 170:Drivers/CMSIS/Include/core_cm4.h ****   #endif
 171:Drivers/CMSIS/Include/core_cm4.h **** 
 172:Drivers/CMSIS/Include/core_cm4.h **** #elif defined ( __TMS470__ )
 173:Drivers/CMSIS/Include/core_cm4.h ****   #if defined __TI_VFP_SUPPORT__
 174:Drivers/CMSIS/Include/core_cm4.h ****     #if (__FPU_PRESENT == 1U)
 175:Drivers/CMSIS/Include/core_cm4.h ****       #define __FPU_USED       1U
 176:Drivers/CMSIS/Include/core_cm4.h ****     #else
 177:Drivers/CMSIS/Include/core_cm4.h ****       #error "Compiler generates FPU instructions for a device without an FPU (check __FPU_PRESENT)
 178:Drivers/CMSIS/Include/core_cm4.h ****       #define __FPU_USED       0U
 179:Drivers/CMSIS/Include/core_cm4.h ****     #endif
 180:Drivers/CMSIS/Include/core_cm4.h ****   #else
 181:Drivers/CMSIS/Include/core_cm4.h ****     #define __FPU_USED         0U
 182:Drivers/CMSIS/Include/core_cm4.h ****   #endif
 183:Drivers/CMSIS/Include/core_cm4.h **** 
 184:Drivers/CMSIS/Include/core_cm4.h **** #elif defined ( __TASKING__ )
 185:Drivers/CMSIS/Include/core_cm4.h ****   #if defined __FPU_VFP__
 186:Drivers/CMSIS/Include/core_cm4.h ****     #if (__FPU_PRESENT == 1U)
 187:Drivers/CMSIS/Include/core_cm4.h ****       #define __FPU_USED       1U
 188:Drivers/CMSIS/Include/core_cm4.h ****     #else
 189:Drivers/CMSIS/Include/core_cm4.h ****       #error "Compiler generates FPU instructions for a device without an FPU (check __FPU_PRESENT)
 190:Drivers/CMSIS/Include/core_cm4.h ****       #define __FPU_USED       0U
 191:Drivers/CMSIS/Include/core_cm4.h ****     #endif
 192:Drivers/CMSIS/Include/core_cm4.h ****   #else
 193:Drivers/CMSIS/Include/core_cm4.h ****     #define __FPU_USED         0U
 194:Drivers/CMSIS/Include/core_cm4.h ****   #endif
 195:Drivers/CMSIS/Include/core_cm4.h **** 
 196:Drivers/CMSIS/Include/core_cm4.h **** #elif defined ( __CSMC__ )
 197:Drivers/CMSIS/Include/core_cm4.h ****   #if ( __CSMC__ & 0x400U)
 198:Drivers/CMSIS/Include/core_cm4.h ****     #if (__FPU_PRESENT == 1U)
 199:Drivers/CMSIS/Include/core_cm4.h ****       #define __FPU_USED       1U
 200:Drivers/CMSIS/Include/core_cm4.h ****     #else
 201:Drivers/CMSIS/Include/core_cm4.h ****       #error "Compiler generates FPU instructions for a device without an FPU (check __FPU_PRESENT)
 202:Drivers/CMSIS/Include/core_cm4.h ****       #define __FPU_USED       0U
 203:Drivers/CMSIS/Include/core_cm4.h ****     #endif
 204:Drivers/CMSIS/Include/core_cm4.h ****   #else
 205:Drivers/CMSIS/Include/core_cm4.h ****     #define __FPU_USED         0U
 206:Drivers/CMSIS/Include/core_cm4.h ****   #endif
 207:Drivers/CMSIS/Include/core_cm4.h **** 
 208:Drivers/CMSIS/Include/core_cm4.h **** #endif
ARM GAS  /var/folders/80/65lm4rm97rv_n74c85vt01040000gn/T//ccnbidPO.s 			page 37


 209:Drivers/CMSIS/Include/core_cm4.h **** 
 210:Drivers/CMSIS/Include/core_cm4.h **** #include "core_cmInstr.h"                /* Core Instruction Access */
 211:Drivers/CMSIS/Include/core_cm4.h **** #include "core_cmFunc.h"                 /* Core Function Access */
 212:Drivers/CMSIS/Include/core_cm4.h **** #include "core_cmSimd.h"                 /* Compiler specific SIMD Intrinsics */
 213:Drivers/CMSIS/Include/core_cm4.h **** 
 214:Drivers/CMSIS/Include/core_cm4.h **** #ifdef __cplusplus
 215:Drivers/CMSIS/Include/core_cm4.h **** }
 216:Drivers/CMSIS/Include/core_cm4.h **** #endif
 217:Drivers/CMSIS/Include/core_cm4.h **** 
 218:Drivers/CMSIS/Include/core_cm4.h **** #endif /* __CORE_CM4_H_GENERIC */
 219:Drivers/CMSIS/Include/core_cm4.h **** 
 220:Drivers/CMSIS/Include/core_cm4.h **** #ifndef __CMSIS_GENERIC
 221:Drivers/CMSIS/Include/core_cm4.h **** 
 222:Drivers/CMSIS/Include/core_cm4.h **** #ifndef __CORE_CM4_H_DEPENDANT
 223:Drivers/CMSIS/Include/core_cm4.h **** #define __CORE_CM4_H_DEPENDANT
 224:Drivers/CMSIS/Include/core_cm4.h **** 
 225:Drivers/CMSIS/Include/core_cm4.h **** #ifdef __cplusplus
 226:Drivers/CMSIS/Include/core_cm4.h ****  extern "C" {
 227:Drivers/CMSIS/Include/core_cm4.h **** #endif
 228:Drivers/CMSIS/Include/core_cm4.h **** 
 229:Drivers/CMSIS/Include/core_cm4.h **** /* check device defines and use defaults */
 230:Drivers/CMSIS/Include/core_cm4.h **** #if defined __CHECK_DEVICE_DEFINES
 231:Drivers/CMSIS/Include/core_cm4.h ****   #ifndef __CM4_REV
 232:Drivers/CMSIS/Include/core_cm4.h ****     #define __CM4_REV               0x0000U
 233:Drivers/CMSIS/Include/core_cm4.h ****     #warning "__CM4_REV not defined in device header file; using default!"
 234:Drivers/CMSIS/Include/core_cm4.h ****   #endif
 235:Drivers/CMSIS/Include/core_cm4.h **** 
 236:Drivers/CMSIS/Include/core_cm4.h ****   #ifndef __FPU_PRESENT
 237:Drivers/CMSIS/Include/core_cm4.h ****     #define __FPU_PRESENT             0U
 238:Drivers/CMSIS/Include/core_cm4.h ****     #warning "__FPU_PRESENT not defined in device header file; using default!"
 239:Drivers/CMSIS/Include/core_cm4.h ****   #endif
 240:Drivers/CMSIS/Include/core_cm4.h **** 
 241:Drivers/CMSIS/Include/core_cm4.h ****   #ifndef __MPU_PRESENT
 242:Drivers/CMSIS/Include/core_cm4.h ****     #define __MPU_PRESENT             0U
 243:Drivers/CMSIS/Include/core_cm4.h ****     #warning "__MPU_PRESENT not defined in device header file; using default!"
 244:Drivers/CMSIS/Include/core_cm4.h ****   #endif
 245:Drivers/CMSIS/Include/core_cm4.h **** 
 246:Drivers/CMSIS/Include/core_cm4.h ****   #ifndef __NVIC_PRIO_BITS
 247:Drivers/CMSIS/Include/core_cm4.h ****     #define __NVIC_PRIO_BITS          4U
 248:Drivers/CMSIS/Include/core_cm4.h ****     #warning "__NVIC_PRIO_BITS not defined in device header file; using default!"
 249:Drivers/CMSIS/Include/core_cm4.h ****   #endif
 250:Drivers/CMSIS/Include/core_cm4.h **** 
 251:Drivers/CMSIS/Include/core_cm4.h ****   #ifndef __Vendor_SysTickConfig
 252:Drivers/CMSIS/Include/core_cm4.h ****     #define __Vendor_SysTickConfig    0U
 253:Drivers/CMSIS/Include/core_cm4.h ****     #warning "__Vendor_SysTickConfig not defined in device header file; using default!"
 254:Drivers/CMSIS/Include/core_cm4.h ****   #endif
 255:Drivers/CMSIS/Include/core_cm4.h **** #endif
 256:Drivers/CMSIS/Include/core_cm4.h **** 
 257:Drivers/CMSIS/Include/core_cm4.h **** /* IO definitions (access restrictions to peripheral registers) */
 258:Drivers/CMSIS/Include/core_cm4.h **** /**
 259:Drivers/CMSIS/Include/core_cm4.h ****     \defgroup CMSIS_glob_defs CMSIS Global Defines
 260:Drivers/CMSIS/Include/core_cm4.h **** 
 261:Drivers/CMSIS/Include/core_cm4.h ****     <strong>IO Type Qualifiers</strong> are used
 262:Drivers/CMSIS/Include/core_cm4.h ****     \li to specify the access to peripheral variables.
 263:Drivers/CMSIS/Include/core_cm4.h ****     \li for automatic generation of peripheral register debug information.
 264:Drivers/CMSIS/Include/core_cm4.h **** */
 265:Drivers/CMSIS/Include/core_cm4.h **** #ifdef __cplusplus
ARM GAS  /var/folders/80/65lm4rm97rv_n74c85vt01040000gn/T//ccnbidPO.s 			page 38


 266:Drivers/CMSIS/Include/core_cm4.h ****   #define   __I     volatile             /*!< Defines 'read only' permissions */
 267:Drivers/CMSIS/Include/core_cm4.h **** #else
 268:Drivers/CMSIS/Include/core_cm4.h ****   #define   __I     volatile const       /*!< Defines 'read only' permissions */
 269:Drivers/CMSIS/Include/core_cm4.h **** #endif
 270:Drivers/CMSIS/Include/core_cm4.h **** #define     __O     volatile             /*!< Defines 'write only' permissions */
 271:Drivers/CMSIS/Include/core_cm4.h **** #define     __IO    volatile             /*!< Defines 'read / write' permissions */
 272:Drivers/CMSIS/Include/core_cm4.h **** 
 273:Drivers/CMSIS/Include/core_cm4.h **** /* following defines should be used for structure members */
 274:Drivers/CMSIS/Include/core_cm4.h **** #define     __IM     volatile const      /*! Defines 'read only' structure member permissions */
 275:Drivers/CMSIS/Include/core_cm4.h **** #define     __OM     volatile            /*! Defines 'write only' structure member permissions */
 276:Drivers/CMSIS/Include/core_cm4.h **** #define     __IOM    volatile            /*! Defines 'read / write' structure member permissions */
 277:Drivers/CMSIS/Include/core_cm4.h **** 
 278:Drivers/CMSIS/Include/core_cm4.h **** /*@} end of group Cortex_M4 */
 279:Drivers/CMSIS/Include/core_cm4.h **** 
 280:Drivers/CMSIS/Include/core_cm4.h **** 
 281:Drivers/CMSIS/Include/core_cm4.h **** 
 282:Drivers/CMSIS/Include/core_cm4.h **** /*******************************************************************************
 283:Drivers/CMSIS/Include/core_cm4.h ****  *                 Register Abstraction
 284:Drivers/CMSIS/Include/core_cm4.h ****   Core Register contain:
 285:Drivers/CMSIS/Include/core_cm4.h ****   - Core Register
 286:Drivers/CMSIS/Include/core_cm4.h ****   - Core NVIC Register
 287:Drivers/CMSIS/Include/core_cm4.h ****   - Core SCB Register
 288:Drivers/CMSIS/Include/core_cm4.h ****   - Core SysTick Register
 289:Drivers/CMSIS/Include/core_cm4.h ****   - Core Debug Register
 290:Drivers/CMSIS/Include/core_cm4.h ****   - Core MPU Register
 291:Drivers/CMSIS/Include/core_cm4.h ****   - Core FPU Register
 292:Drivers/CMSIS/Include/core_cm4.h ****  ******************************************************************************/
 293:Drivers/CMSIS/Include/core_cm4.h **** /**
 294:Drivers/CMSIS/Include/core_cm4.h ****   \defgroup CMSIS_core_register Defines and Type Definitions
 295:Drivers/CMSIS/Include/core_cm4.h ****   \brief Type definitions and defines for Cortex-M processor based devices.
 296:Drivers/CMSIS/Include/core_cm4.h **** */
 297:Drivers/CMSIS/Include/core_cm4.h **** 
 298:Drivers/CMSIS/Include/core_cm4.h **** /**
 299:Drivers/CMSIS/Include/core_cm4.h ****   \ingroup    CMSIS_core_register
 300:Drivers/CMSIS/Include/core_cm4.h ****   \defgroup   CMSIS_CORE  Status and Control Registers
 301:Drivers/CMSIS/Include/core_cm4.h ****   \brief      Core Register type definitions.
 302:Drivers/CMSIS/Include/core_cm4.h ****   @{
 303:Drivers/CMSIS/Include/core_cm4.h ****  */
 304:Drivers/CMSIS/Include/core_cm4.h **** 
 305:Drivers/CMSIS/Include/core_cm4.h **** /**
 306:Drivers/CMSIS/Include/core_cm4.h ****   \brief  Union type to access the Application Program Status Register (APSR).
 307:Drivers/CMSIS/Include/core_cm4.h ****  */
 308:Drivers/CMSIS/Include/core_cm4.h **** typedef union
 309:Drivers/CMSIS/Include/core_cm4.h **** {
 310:Drivers/CMSIS/Include/core_cm4.h ****   struct
 311:Drivers/CMSIS/Include/core_cm4.h ****   {
 312:Drivers/CMSIS/Include/core_cm4.h ****     uint32_t _reserved0:16;              /*!< bit:  0..15  Reserved */
 313:Drivers/CMSIS/Include/core_cm4.h ****     uint32_t GE:4;                       /*!< bit: 16..19  Greater than or Equal flags */
 314:Drivers/CMSIS/Include/core_cm4.h ****     uint32_t _reserved1:7;               /*!< bit: 20..26  Reserved */
 315:Drivers/CMSIS/Include/core_cm4.h ****     uint32_t Q:1;                        /*!< bit:     27  Saturation condition flag */
 316:Drivers/CMSIS/Include/core_cm4.h ****     uint32_t V:1;                        /*!< bit:     28  Overflow condition code flag */
 317:Drivers/CMSIS/Include/core_cm4.h ****     uint32_t C:1;                        /*!< bit:     29  Carry condition code flag */
 318:Drivers/CMSIS/Include/core_cm4.h ****     uint32_t Z:1;                        /*!< bit:     30  Zero condition code flag */
 319:Drivers/CMSIS/Include/core_cm4.h ****     uint32_t N:1;                        /*!< bit:     31  Negative condition code flag */
 320:Drivers/CMSIS/Include/core_cm4.h ****   } b;                                   /*!< Structure used for bit  access */
 321:Drivers/CMSIS/Include/core_cm4.h ****   uint32_t w;                            /*!< Type      used for word access */
 322:Drivers/CMSIS/Include/core_cm4.h **** } APSR_Type;
ARM GAS  /var/folders/80/65lm4rm97rv_n74c85vt01040000gn/T//ccnbidPO.s 			page 39


 323:Drivers/CMSIS/Include/core_cm4.h **** 
 324:Drivers/CMSIS/Include/core_cm4.h **** /* APSR Register Definitions */
 325:Drivers/CMSIS/Include/core_cm4.h **** #define APSR_N_Pos                         31U                                            /*!< APSR
 326:Drivers/CMSIS/Include/core_cm4.h **** #define APSR_N_Msk                         (1UL << APSR_N_Pos)                            /*!< APSR
 327:Drivers/CMSIS/Include/core_cm4.h **** 
 328:Drivers/CMSIS/Include/core_cm4.h **** #define APSR_Z_Pos                         30U                                            /*!< APSR
 329:Drivers/CMSIS/Include/core_cm4.h **** #define APSR_Z_Msk                         (1UL << APSR_Z_Pos)                            /*!< APSR
 330:Drivers/CMSIS/Include/core_cm4.h **** 
 331:Drivers/CMSIS/Include/core_cm4.h **** #define APSR_C_Pos                         29U                                            /*!< APSR
 332:Drivers/CMSIS/Include/core_cm4.h **** #define APSR_C_Msk                         (1UL << APSR_C_Pos)                            /*!< APSR
 333:Drivers/CMSIS/Include/core_cm4.h **** 
 334:Drivers/CMSIS/Include/core_cm4.h **** #define APSR_V_Pos                         28U                                            /*!< APSR
 335:Drivers/CMSIS/Include/core_cm4.h **** #define APSR_V_Msk                         (1UL << APSR_V_Pos)                            /*!< APSR
 336:Drivers/CMSIS/Include/core_cm4.h **** 
 337:Drivers/CMSIS/Include/core_cm4.h **** #define APSR_Q_Pos                         27U                                            /*!< APSR
 338:Drivers/CMSIS/Include/core_cm4.h **** #define APSR_Q_Msk                         (1UL << APSR_Q_Pos)                            /*!< APSR
 339:Drivers/CMSIS/Include/core_cm4.h **** 
 340:Drivers/CMSIS/Include/core_cm4.h **** #define APSR_GE_Pos                        16U                                            /*!< APSR
 341:Drivers/CMSIS/Include/core_cm4.h **** #define APSR_GE_Msk                        (0xFUL << APSR_GE_Pos)                         /*!< APSR
 342:Drivers/CMSIS/Include/core_cm4.h **** 
 343:Drivers/CMSIS/Include/core_cm4.h **** 
 344:Drivers/CMSIS/Include/core_cm4.h **** /**
 345:Drivers/CMSIS/Include/core_cm4.h ****   \brief  Union type to access the Interrupt Program Status Register (IPSR).
 346:Drivers/CMSIS/Include/core_cm4.h ****  */
 347:Drivers/CMSIS/Include/core_cm4.h **** typedef union
 348:Drivers/CMSIS/Include/core_cm4.h **** {
 349:Drivers/CMSIS/Include/core_cm4.h ****   struct
 350:Drivers/CMSIS/Include/core_cm4.h ****   {
 351:Drivers/CMSIS/Include/core_cm4.h ****     uint32_t ISR:9;                      /*!< bit:  0.. 8  Exception number */
 352:Drivers/CMSIS/Include/core_cm4.h ****     uint32_t _reserved0:23;              /*!< bit:  9..31  Reserved */
 353:Drivers/CMSIS/Include/core_cm4.h ****   } b;                                   /*!< Structure used for bit  access */
 354:Drivers/CMSIS/Include/core_cm4.h ****   uint32_t w;                            /*!< Type      used for word access */
 355:Drivers/CMSIS/Include/core_cm4.h **** } IPSR_Type;
 356:Drivers/CMSIS/Include/core_cm4.h **** 
 357:Drivers/CMSIS/Include/core_cm4.h **** /* IPSR Register Definitions */
 358:Drivers/CMSIS/Include/core_cm4.h **** #define IPSR_ISR_Pos                        0U                                            /*!< IPSR
 359:Drivers/CMSIS/Include/core_cm4.h **** #define IPSR_ISR_Msk                       (0x1FFUL /*<< IPSR_ISR_Pos*/)                  /*!< IPSR
 360:Drivers/CMSIS/Include/core_cm4.h **** 
 361:Drivers/CMSIS/Include/core_cm4.h **** 
 362:Drivers/CMSIS/Include/core_cm4.h **** /**
 363:Drivers/CMSIS/Include/core_cm4.h ****   \brief  Union type to access the Special-Purpose Program Status Registers (xPSR).
 364:Drivers/CMSIS/Include/core_cm4.h ****  */
 365:Drivers/CMSIS/Include/core_cm4.h **** typedef union
 366:Drivers/CMSIS/Include/core_cm4.h **** {
 367:Drivers/CMSIS/Include/core_cm4.h ****   struct
 368:Drivers/CMSIS/Include/core_cm4.h ****   {
 369:Drivers/CMSIS/Include/core_cm4.h ****     uint32_t ISR:9;                      /*!< bit:  0.. 8  Exception number */
 370:Drivers/CMSIS/Include/core_cm4.h ****     uint32_t _reserved0:7;               /*!< bit:  9..15  Reserved */
 371:Drivers/CMSIS/Include/core_cm4.h ****     uint32_t GE:4;                       /*!< bit: 16..19  Greater than or Equal flags */
 372:Drivers/CMSIS/Include/core_cm4.h ****     uint32_t _reserved1:4;               /*!< bit: 20..23  Reserved */
 373:Drivers/CMSIS/Include/core_cm4.h ****     uint32_t T:1;                        /*!< bit:     24  Thumb bit        (read 0) */
 374:Drivers/CMSIS/Include/core_cm4.h ****     uint32_t IT:2;                       /*!< bit: 25..26  saved IT state   (read 0) */
 375:Drivers/CMSIS/Include/core_cm4.h ****     uint32_t Q:1;                        /*!< bit:     27  Saturation condition flag */
 376:Drivers/CMSIS/Include/core_cm4.h ****     uint32_t V:1;                        /*!< bit:     28  Overflow condition code flag */
 377:Drivers/CMSIS/Include/core_cm4.h ****     uint32_t C:1;                        /*!< bit:     29  Carry condition code flag */
 378:Drivers/CMSIS/Include/core_cm4.h ****     uint32_t Z:1;                        /*!< bit:     30  Zero condition code flag */
 379:Drivers/CMSIS/Include/core_cm4.h ****     uint32_t N:1;                        /*!< bit:     31  Negative condition code flag */
ARM GAS  /var/folders/80/65lm4rm97rv_n74c85vt01040000gn/T//ccnbidPO.s 			page 40


 380:Drivers/CMSIS/Include/core_cm4.h ****   } b;                                   /*!< Structure used for bit  access */
 381:Drivers/CMSIS/Include/core_cm4.h ****   uint32_t w;                            /*!< Type      used for word access */
 382:Drivers/CMSIS/Include/core_cm4.h **** } xPSR_Type;
 383:Drivers/CMSIS/Include/core_cm4.h **** 
 384:Drivers/CMSIS/Include/core_cm4.h **** /* xPSR Register Definitions */
 385:Drivers/CMSIS/Include/core_cm4.h **** #define xPSR_N_Pos                         31U                                            /*!< xPSR
 386:Drivers/CMSIS/Include/core_cm4.h **** #define xPSR_N_Msk                         (1UL << xPSR_N_Pos)                            /*!< xPSR
 387:Drivers/CMSIS/Include/core_cm4.h **** 
 388:Drivers/CMSIS/Include/core_cm4.h **** #define xPSR_Z_Pos                         30U                                            /*!< xPSR
 389:Drivers/CMSIS/Include/core_cm4.h **** #define xPSR_Z_Msk                         (1UL << xPSR_Z_Pos)                            /*!< xPSR
 390:Drivers/CMSIS/Include/core_cm4.h **** 
 391:Drivers/CMSIS/Include/core_cm4.h **** #define xPSR_C_Pos                         29U                                            /*!< xPSR
 392:Drivers/CMSIS/Include/core_cm4.h **** #define xPSR_C_Msk                         (1UL << xPSR_C_Pos)                            /*!< xPSR
 393:Drivers/CMSIS/Include/core_cm4.h **** 
 394:Drivers/CMSIS/Include/core_cm4.h **** #define xPSR_V_Pos                         28U                                            /*!< xPSR
 395:Drivers/CMSIS/Include/core_cm4.h **** #define xPSR_V_Msk                         (1UL << xPSR_V_Pos)                            /*!< xPSR
 396:Drivers/CMSIS/Include/core_cm4.h **** 
 397:Drivers/CMSIS/Include/core_cm4.h **** #define xPSR_Q_Pos                         27U                                            /*!< xPSR
 398:Drivers/CMSIS/Include/core_cm4.h **** #define xPSR_Q_Msk                         (1UL << xPSR_Q_Pos)                            /*!< xPSR
 399:Drivers/CMSIS/Include/core_cm4.h **** 
 400:Drivers/CMSIS/Include/core_cm4.h **** #define xPSR_IT_Pos                        25U                                            /*!< xPSR
 401:Drivers/CMSIS/Include/core_cm4.h **** #define xPSR_IT_Msk                        (3UL << xPSR_IT_Pos)                           /*!< xPSR
 402:Drivers/CMSIS/Include/core_cm4.h **** 
 403:Drivers/CMSIS/Include/core_cm4.h **** #define xPSR_T_Pos                         24U                                            /*!< xPSR
 404:Drivers/CMSIS/Include/core_cm4.h **** #define xPSR_T_Msk                         (1UL << xPSR_T_Pos)                            /*!< xPSR
 405:Drivers/CMSIS/Include/core_cm4.h **** 
 406:Drivers/CMSIS/Include/core_cm4.h **** #define xPSR_GE_Pos                        16U                                            /*!< xPSR
 407:Drivers/CMSIS/Include/core_cm4.h **** #define xPSR_GE_Msk                        (0xFUL << xPSR_GE_Pos)                         /*!< xPSR
 408:Drivers/CMSIS/Include/core_cm4.h **** 
 409:Drivers/CMSIS/Include/core_cm4.h **** #define xPSR_ISR_Pos                        0U                                            /*!< xPSR
 410:Drivers/CMSIS/Include/core_cm4.h **** #define xPSR_ISR_Msk                       (0x1FFUL /*<< xPSR_ISR_Pos*/)                  /*!< xPSR
 411:Drivers/CMSIS/Include/core_cm4.h **** 
 412:Drivers/CMSIS/Include/core_cm4.h **** 
 413:Drivers/CMSIS/Include/core_cm4.h **** /**
 414:Drivers/CMSIS/Include/core_cm4.h ****   \brief  Union type to access the Control Registers (CONTROL).
 415:Drivers/CMSIS/Include/core_cm4.h ****  */
 416:Drivers/CMSIS/Include/core_cm4.h **** typedef union
 417:Drivers/CMSIS/Include/core_cm4.h **** {
 418:Drivers/CMSIS/Include/core_cm4.h ****   struct
 419:Drivers/CMSIS/Include/core_cm4.h ****   {
 420:Drivers/CMSIS/Include/core_cm4.h ****     uint32_t nPRIV:1;                    /*!< bit:      0  Execution privilege in Thread mode */
 421:Drivers/CMSIS/Include/core_cm4.h ****     uint32_t SPSEL:1;                    /*!< bit:      1  Stack to be used */
 422:Drivers/CMSIS/Include/core_cm4.h ****     uint32_t FPCA:1;                     /*!< bit:      2  FP extension active flag */
 423:Drivers/CMSIS/Include/core_cm4.h ****     uint32_t _reserved0:29;              /*!< bit:  3..31  Reserved */
 424:Drivers/CMSIS/Include/core_cm4.h ****   } b;                                   /*!< Structure used for bit  access */
 425:Drivers/CMSIS/Include/core_cm4.h ****   uint32_t w;                            /*!< Type      used for word access */
 426:Drivers/CMSIS/Include/core_cm4.h **** } CONTROL_Type;
 427:Drivers/CMSIS/Include/core_cm4.h **** 
 428:Drivers/CMSIS/Include/core_cm4.h **** /* CONTROL Register Definitions */
 429:Drivers/CMSIS/Include/core_cm4.h **** #define CONTROL_FPCA_Pos                    2U                                            /*!< CONT
 430:Drivers/CMSIS/Include/core_cm4.h **** #define CONTROL_FPCA_Msk                   (1UL << CONTROL_FPCA_Pos)                      /*!< CONT
 431:Drivers/CMSIS/Include/core_cm4.h **** 
 432:Drivers/CMSIS/Include/core_cm4.h **** #define CONTROL_SPSEL_Pos                   1U                                            /*!< CONT
 433:Drivers/CMSIS/Include/core_cm4.h **** #define CONTROL_SPSEL_Msk                  (1UL << CONTROL_SPSEL_Pos)                     /*!< CONT
 434:Drivers/CMSIS/Include/core_cm4.h **** 
 435:Drivers/CMSIS/Include/core_cm4.h **** #define CONTROL_nPRIV_Pos                   0U                                            /*!< CONT
 436:Drivers/CMSIS/Include/core_cm4.h **** #define CONTROL_nPRIV_Msk                  (1UL /*<< CONTROL_nPRIV_Pos*/)                 /*!< CONT
ARM GAS  /var/folders/80/65lm4rm97rv_n74c85vt01040000gn/T//ccnbidPO.s 			page 41


 437:Drivers/CMSIS/Include/core_cm4.h **** 
 438:Drivers/CMSIS/Include/core_cm4.h **** /*@} end of group CMSIS_CORE */
 439:Drivers/CMSIS/Include/core_cm4.h **** 
 440:Drivers/CMSIS/Include/core_cm4.h **** 
 441:Drivers/CMSIS/Include/core_cm4.h **** /**
 442:Drivers/CMSIS/Include/core_cm4.h ****   \ingroup    CMSIS_core_register
 443:Drivers/CMSIS/Include/core_cm4.h ****   \defgroup   CMSIS_NVIC  Nested Vectored Interrupt Controller (NVIC)
 444:Drivers/CMSIS/Include/core_cm4.h ****   \brief      Type definitions for the NVIC Registers
 445:Drivers/CMSIS/Include/core_cm4.h ****   @{
 446:Drivers/CMSIS/Include/core_cm4.h ****  */
 447:Drivers/CMSIS/Include/core_cm4.h **** 
 448:Drivers/CMSIS/Include/core_cm4.h **** /**
 449:Drivers/CMSIS/Include/core_cm4.h ****   \brief  Structure type to access the Nested Vectored Interrupt Controller (NVIC).
 450:Drivers/CMSIS/Include/core_cm4.h ****  */
 451:Drivers/CMSIS/Include/core_cm4.h **** typedef struct
 452:Drivers/CMSIS/Include/core_cm4.h **** {
 453:Drivers/CMSIS/Include/core_cm4.h ****   __IOM uint32_t ISER[8U];               /*!< Offset: 0x000 (R/W)  Interrupt Set Enable Register */
 454:Drivers/CMSIS/Include/core_cm4.h ****         uint32_t RESERVED0[24U];
 455:Drivers/CMSIS/Include/core_cm4.h ****   __IOM uint32_t ICER[8U];               /*!< Offset: 0x080 (R/W)  Interrupt Clear Enable Register 
 456:Drivers/CMSIS/Include/core_cm4.h ****         uint32_t RSERVED1[24U];
 457:Drivers/CMSIS/Include/core_cm4.h ****   __IOM uint32_t ISPR[8U];               /*!< Offset: 0x100 (R/W)  Interrupt Set Pending Register *
 458:Drivers/CMSIS/Include/core_cm4.h ****         uint32_t RESERVED2[24U];
 459:Drivers/CMSIS/Include/core_cm4.h ****   __IOM uint32_t ICPR[8U];               /*!< Offset: 0x180 (R/W)  Interrupt Clear Pending Register
 460:Drivers/CMSIS/Include/core_cm4.h ****         uint32_t RESERVED3[24U];
 461:Drivers/CMSIS/Include/core_cm4.h ****   __IOM uint32_t IABR[8U];               /*!< Offset: 0x200 (R/W)  Interrupt Active bit Register */
 462:Drivers/CMSIS/Include/core_cm4.h ****         uint32_t RESERVED4[56U];
 463:Drivers/CMSIS/Include/core_cm4.h ****   __IOM uint8_t  IP[240U];               /*!< Offset: 0x300 (R/W)  Interrupt Priority Register (8Bi
 464:Drivers/CMSIS/Include/core_cm4.h ****         uint32_t RESERVED5[644U];
 465:Drivers/CMSIS/Include/core_cm4.h ****   __OM  uint32_t STIR;                   /*!< Offset: 0xE00 ( /W)  Software Trigger Interrupt Regis
 466:Drivers/CMSIS/Include/core_cm4.h **** }  NVIC_Type;
 467:Drivers/CMSIS/Include/core_cm4.h **** 
 468:Drivers/CMSIS/Include/core_cm4.h **** /* Software Triggered Interrupt Register Definitions */
 469:Drivers/CMSIS/Include/core_cm4.h **** #define NVIC_STIR_INTID_Pos                 0U                                         /*!< STIR: I
 470:Drivers/CMSIS/Include/core_cm4.h **** #define NVIC_STIR_INTID_Msk                (0x1FFUL /*<< NVIC_STIR_INTID_Pos*/)        /*!< STIR: I
 471:Drivers/CMSIS/Include/core_cm4.h **** 
 472:Drivers/CMSIS/Include/core_cm4.h **** /*@} end of group CMSIS_NVIC */
 473:Drivers/CMSIS/Include/core_cm4.h **** 
 474:Drivers/CMSIS/Include/core_cm4.h **** 
 475:Drivers/CMSIS/Include/core_cm4.h **** /**
 476:Drivers/CMSIS/Include/core_cm4.h ****   \ingroup  CMSIS_core_register
 477:Drivers/CMSIS/Include/core_cm4.h ****   \defgroup CMSIS_SCB     System Control Block (SCB)
 478:Drivers/CMSIS/Include/core_cm4.h ****   \brief    Type definitions for the System Control Block Registers
 479:Drivers/CMSIS/Include/core_cm4.h ****   @{
 480:Drivers/CMSIS/Include/core_cm4.h ****  */
 481:Drivers/CMSIS/Include/core_cm4.h **** 
 482:Drivers/CMSIS/Include/core_cm4.h **** /**
 483:Drivers/CMSIS/Include/core_cm4.h ****   \brief  Structure type to access the System Control Block (SCB).
 484:Drivers/CMSIS/Include/core_cm4.h ****  */
 485:Drivers/CMSIS/Include/core_cm4.h **** typedef struct
 486:Drivers/CMSIS/Include/core_cm4.h **** {
 487:Drivers/CMSIS/Include/core_cm4.h ****   __IM  uint32_t CPUID;                  /*!< Offset: 0x000 (R/ )  CPUID Base Register */
 488:Drivers/CMSIS/Include/core_cm4.h ****   __IOM uint32_t ICSR;                   /*!< Offset: 0x004 (R/W)  Interrupt Control and State Regi
 489:Drivers/CMSIS/Include/core_cm4.h ****   __IOM uint32_t VTOR;                   /*!< Offset: 0x008 (R/W)  Vector Table Offset Register */
 490:Drivers/CMSIS/Include/core_cm4.h ****   __IOM uint32_t AIRCR;                  /*!< Offset: 0x00C (R/W)  Application Interrupt and Reset 
 491:Drivers/CMSIS/Include/core_cm4.h ****   __IOM uint32_t SCR;                    /*!< Offset: 0x010 (R/W)  System Control Register */
 492:Drivers/CMSIS/Include/core_cm4.h ****   __IOM uint32_t CCR;                    /*!< Offset: 0x014 (R/W)  Configuration Control Register *
 493:Drivers/CMSIS/Include/core_cm4.h ****   __IOM uint8_t  SHP[12U];               /*!< Offset: 0x018 (R/W)  System Handlers Priority Registe
ARM GAS  /var/folders/80/65lm4rm97rv_n74c85vt01040000gn/T//ccnbidPO.s 			page 42


 494:Drivers/CMSIS/Include/core_cm4.h ****   __IOM uint32_t SHCSR;                  /*!< Offset: 0x024 (R/W)  System Handler Control and State
 495:Drivers/CMSIS/Include/core_cm4.h ****   __IOM uint32_t CFSR;                   /*!< Offset: 0x028 (R/W)  Configurable Fault Status Regist
 496:Drivers/CMSIS/Include/core_cm4.h ****   __IOM uint32_t HFSR;                   /*!< Offset: 0x02C (R/W)  HardFault Status Register */
 497:Drivers/CMSIS/Include/core_cm4.h ****   __IOM uint32_t DFSR;                   /*!< Offset: 0x030 (R/W)  Debug Fault Status Register */
 498:Drivers/CMSIS/Include/core_cm4.h ****   __IOM uint32_t MMFAR;                  /*!< Offset: 0x034 (R/W)  MemManage Fault Address Register
 499:Drivers/CMSIS/Include/core_cm4.h ****   __IOM uint32_t BFAR;                   /*!< Offset: 0x038 (R/W)  BusFault Address Register */
 500:Drivers/CMSIS/Include/core_cm4.h ****   __IOM uint32_t AFSR;                   /*!< Offset: 0x03C (R/W)  Auxiliary Fault Status Register 
 501:Drivers/CMSIS/Include/core_cm4.h ****   __IM  uint32_t PFR[2U];                /*!< Offset: 0x040 (R/ )  Processor Feature Register */
 502:Drivers/CMSIS/Include/core_cm4.h ****   __IM  uint32_t DFR;                    /*!< Offset: 0x048 (R/ )  Debug Feature Register */
 503:Drivers/CMSIS/Include/core_cm4.h ****   __IM  uint32_t ADR;                    /*!< Offset: 0x04C (R/ )  Auxiliary Feature Register */
 504:Drivers/CMSIS/Include/core_cm4.h ****   __IM  uint32_t MMFR[4U];               /*!< Offset: 0x050 (R/ )  Memory Model Feature Register */
 505:Drivers/CMSIS/Include/core_cm4.h ****   __IM  uint32_t ISAR[5U];               /*!< Offset: 0x060 (R/ )  Instruction Set Attributes Regis
 506:Drivers/CMSIS/Include/core_cm4.h ****         uint32_t RESERVED0[5U];
 507:Drivers/CMSIS/Include/core_cm4.h ****   __IOM uint32_t CPACR;                  /*!< Offset: 0x088 (R/W)  Coprocessor Access Control Regis
 508:Drivers/CMSIS/Include/core_cm4.h **** } SCB_Type;
 509:Drivers/CMSIS/Include/core_cm4.h **** 
 510:Drivers/CMSIS/Include/core_cm4.h **** /* SCB CPUID Register Definitions */
 511:Drivers/CMSIS/Include/core_cm4.h **** #define SCB_CPUID_IMPLEMENTER_Pos          24U                                            /*!< SCB 
 512:Drivers/CMSIS/Include/core_cm4.h **** #define SCB_CPUID_IMPLEMENTER_Msk          (0xFFUL << SCB_CPUID_IMPLEMENTER_Pos)          /*!< SCB 
 513:Drivers/CMSIS/Include/core_cm4.h **** 
 514:Drivers/CMSIS/Include/core_cm4.h **** #define SCB_CPUID_VARIANT_Pos              20U                                            /*!< SCB 
 515:Drivers/CMSIS/Include/core_cm4.h **** #define SCB_CPUID_VARIANT_Msk              (0xFUL << SCB_CPUID_VARIANT_Pos)               /*!< SCB 
 516:Drivers/CMSIS/Include/core_cm4.h **** 
 517:Drivers/CMSIS/Include/core_cm4.h **** #define SCB_CPUID_ARCHITECTURE_Pos         16U                                            /*!< SCB 
 518:Drivers/CMSIS/Include/core_cm4.h **** #define SCB_CPUID_ARCHITECTURE_Msk         (0xFUL << SCB_CPUID_ARCHITECTURE_Pos)          /*!< SCB 
 519:Drivers/CMSIS/Include/core_cm4.h **** 
 520:Drivers/CMSIS/Include/core_cm4.h **** #define SCB_CPUID_PARTNO_Pos                4U                                            /*!< SCB 
 521:Drivers/CMSIS/Include/core_cm4.h **** #define SCB_CPUID_PARTNO_Msk               (0xFFFUL << SCB_CPUID_PARTNO_Pos)              /*!< SCB 
 522:Drivers/CMSIS/Include/core_cm4.h **** 
 523:Drivers/CMSIS/Include/core_cm4.h **** #define SCB_CPUID_REVISION_Pos              0U                                            /*!< SCB 
 524:Drivers/CMSIS/Include/core_cm4.h **** #define SCB_CPUID_REVISION_Msk             (0xFUL /*<< SCB_CPUID_REVISION_Pos*/)          /*!< SCB 
 525:Drivers/CMSIS/Include/core_cm4.h **** 
 526:Drivers/CMSIS/Include/core_cm4.h **** /* SCB Interrupt Control State Register Definitions */
 527:Drivers/CMSIS/Include/core_cm4.h **** #define SCB_ICSR_NMIPENDSET_Pos            31U                                            /*!< SCB 
 528:Drivers/CMSIS/Include/core_cm4.h **** #define SCB_ICSR_NMIPENDSET_Msk            (1UL << SCB_ICSR_NMIPENDSET_Pos)               /*!< SCB 
 529:Drivers/CMSIS/Include/core_cm4.h **** 
 530:Drivers/CMSIS/Include/core_cm4.h **** #define SCB_ICSR_PENDSVSET_Pos             28U                                            /*!< SCB 
 531:Drivers/CMSIS/Include/core_cm4.h **** #define SCB_ICSR_PENDSVSET_Msk             (1UL << SCB_ICSR_PENDSVSET_Pos)                /*!< SCB 
 532:Drivers/CMSIS/Include/core_cm4.h **** 
 533:Drivers/CMSIS/Include/core_cm4.h **** #define SCB_ICSR_PENDSVCLR_Pos             27U                                            /*!< SCB 
 534:Drivers/CMSIS/Include/core_cm4.h **** #define SCB_ICSR_PENDSVCLR_Msk             (1UL << SCB_ICSR_PENDSVCLR_Pos)                /*!< SCB 
 535:Drivers/CMSIS/Include/core_cm4.h **** 
 536:Drivers/CMSIS/Include/core_cm4.h **** #define SCB_ICSR_PENDSTSET_Pos             26U                                            /*!< SCB 
 537:Drivers/CMSIS/Include/core_cm4.h **** #define SCB_ICSR_PENDSTSET_Msk             (1UL << SCB_ICSR_PENDSTSET_Pos)                /*!< SCB 
 538:Drivers/CMSIS/Include/core_cm4.h **** 
 539:Drivers/CMSIS/Include/core_cm4.h **** #define SCB_ICSR_PENDSTCLR_Pos             25U                                            /*!< SCB 
 540:Drivers/CMSIS/Include/core_cm4.h **** #define SCB_ICSR_PENDSTCLR_Msk             (1UL << SCB_ICSR_PENDSTCLR_Pos)                /*!< SCB 
 541:Drivers/CMSIS/Include/core_cm4.h **** 
 542:Drivers/CMSIS/Include/core_cm4.h **** #define SCB_ICSR_ISRPREEMPT_Pos            23U                                            /*!< SCB 
 543:Drivers/CMSIS/Include/core_cm4.h **** #define SCB_ICSR_ISRPREEMPT_Msk            (1UL << SCB_ICSR_ISRPREEMPT_Pos)               /*!< SCB 
 544:Drivers/CMSIS/Include/core_cm4.h **** 
 545:Drivers/CMSIS/Include/core_cm4.h **** #define SCB_ICSR_ISRPENDING_Pos            22U                                            /*!< SCB 
 546:Drivers/CMSIS/Include/core_cm4.h **** #define SCB_ICSR_ISRPENDING_Msk            (1UL << SCB_ICSR_ISRPENDING_Pos)               /*!< SCB 
 547:Drivers/CMSIS/Include/core_cm4.h **** 
 548:Drivers/CMSIS/Include/core_cm4.h **** #define SCB_ICSR_VECTPENDING_Pos           12U                                            /*!< SCB 
 549:Drivers/CMSIS/Include/core_cm4.h **** #define SCB_ICSR_VECTPENDING_Msk           (0x1FFUL << SCB_ICSR_VECTPENDING_Pos)          /*!< SCB 
 550:Drivers/CMSIS/Include/core_cm4.h **** 
ARM GAS  /var/folders/80/65lm4rm97rv_n74c85vt01040000gn/T//ccnbidPO.s 			page 43


 551:Drivers/CMSIS/Include/core_cm4.h **** #define SCB_ICSR_RETTOBASE_Pos             11U                                            /*!< SCB 
 552:Drivers/CMSIS/Include/core_cm4.h **** #define SCB_ICSR_RETTOBASE_Msk             (1UL << SCB_ICSR_RETTOBASE_Pos)                /*!< SCB 
 553:Drivers/CMSIS/Include/core_cm4.h **** 
 554:Drivers/CMSIS/Include/core_cm4.h **** #define SCB_ICSR_VECTACTIVE_Pos             0U                                            /*!< SCB 
 555:Drivers/CMSIS/Include/core_cm4.h **** #define SCB_ICSR_VECTACTIVE_Msk            (0x1FFUL /*<< SCB_ICSR_VECTACTIVE_Pos*/)       /*!< SCB 
 556:Drivers/CMSIS/Include/core_cm4.h **** 
 557:Drivers/CMSIS/Include/core_cm4.h **** /* SCB Vector Table Offset Register Definitions */
 558:Drivers/CMSIS/Include/core_cm4.h **** #define SCB_VTOR_TBLOFF_Pos                 7U                                            /*!< SCB 
 559:Drivers/CMSIS/Include/core_cm4.h **** #define SCB_VTOR_TBLOFF_Msk                (0x1FFFFFFUL << SCB_VTOR_TBLOFF_Pos)           /*!< SCB 
 560:Drivers/CMSIS/Include/core_cm4.h **** 
 561:Drivers/CMSIS/Include/core_cm4.h **** /* SCB Application Interrupt and Reset Control Register Definitions */
 562:Drivers/CMSIS/Include/core_cm4.h **** #define SCB_AIRCR_VECTKEY_Pos              16U                                            /*!< SCB 
 563:Drivers/CMSIS/Include/core_cm4.h **** #define SCB_AIRCR_VECTKEY_Msk              (0xFFFFUL << SCB_AIRCR_VECTKEY_Pos)            /*!< SCB 
 564:Drivers/CMSIS/Include/core_cm4.h **** 
 565:Drivers/CMSIS/Include/core_cm4.h **** #define SCB_AIRCR_VECTKEYSTAT_Pos          16U                                            /*!< SCB 
 566:Drivers/CMSIS/Include/core_cm4.h **** #define SCB_AIRCR_VECTKEYSTAT_Msk          (0xFFFFUL << SCB_AIRCR_VECTKEYSTAT_Pos)        /*!< SCB 
 567:Drivers/CMSIS/Include/core_cm4.h **** 
 568:Drivers/CMSIS/Include/core_cm4.h **** #define SCB_AIRCR_ENDIANESS_Pos            15U                                            /*!< SCB 
 569:Drivers/CMSIS/Include/core_cm4.h **** #define SCB_AIRCR_ENDIANESS_Msk            (1UL << SCB_AIRCR_ENDIANESS_Pos)               /*!< SCB 
 570:Drivers/CMSIS/Include/core_cm4.h **** 
 571:Drivers/CMSIS/Include/core_cm4.h **** #define SCB_AIRCR_PRIGROUP_Pos              8U                                            /*!< SCB 
 572:Drivers/CMSIS/Include/core_cm4.h **** #define SCB_AIRCR_PRIGROUP_Msk             (7UL << SCB_AIRCR_PRIGROUP_Pos)                /*!< SCB 
 573:Drivers/CMSIS/Include/core_cm4.h **** 
 574:Drivers/CMSIS/Include/core_cm4.h **** #define SCB_AIRCR_SYSRESETREQ_Pos           2U                                            /*!< SCB 
 575:Drivers/CMSIS/Include/core_cm4.h **** #define SCB_AIRCR_SYSRESETREQ_Msk          (1UL << SCB_AIRCR_SYSRESETREQ_Pos)             /*!< SCB 
 576:Drivers/CMSIS/Include/core_cm4.h **** 
 577:Drivers/CMSIS/Include/core_cm4.h **** #define SCB_AIRCR_VECTCLRACTIVE_Pos         1U                                            /*!< SCB 
 578:Drivers/CMSIS/Include/core_cm4.h **** #define SCB_AIRCR_VECTCLRACTIVE_Msk        (1UL << SCB_AIRCR_VECTCLRACTIVE_Pos)           /*!< SCB 
 579:Drivers/CMSIS/Include/core_cm4.h **** 
 580:Drivers/CMSIS/Include/core_cm4.h **** #define SCB_AIRCR_VECTRESET_Pos             0U                                            /*!< SCB 
 581:Drivers/CMSIS/Include/core_cm4.h **** #define SCB_AIRCR_VECTRESET_Msk            (1UL /*<< SCB_AIRCR_VECTRESET_Pos*/)           /*!< SCB 
 582:Drivers/CMSIS/Include/core_cm4.h **** 
 583:Drivers/CMSIS/Include/core_cm4.h **** /* SCB System Control Register Definitions */
 584:Drivers/CMSIS/Include/core_cm4.h **** #define SCB_SCR_SEVONPEND_Pos               4U                                            /*!< SCB 
 585:Drivers/CMSIS/Include/core_cm4.h **** #define SCB_SCR_SEVONPEND_Msk              (1UL << SCB_SCR_SEVONPEND_Pos)                 /*!< SCB 
 586:Drivers/CMSIS/Include/core_cm4.h **** 
 587:Drivers/CMSIS/Include/core_cm4.h **** #define SCB_SCR_SLEEPDEEP_Pos               2U                                            /*!< SCB 
 588:Drivers/CMSIS/Include/core_cm4.h **** #define SCB_SCR_SLEEPDEEP_Msk              (1UL << SCB_SCR_SLEEPDEEP_Pos)                 /*!< SCB 
 589:Drivers/CMSIS/Include/core_cm4.h **** 
 590:Drivers/CMSIS/Include/core_cm4.h **** #define SCB_SCR_SLEEPONEXIT_Pos             1U                                            /*!< SCB 
 591:Drivers/CMSIS/Include/core_cm4.h **** #define SCB_SCR_SLEEPONEXIT_Msk            (1UL << SCB_SCR_SLEEPONEXIT_Pos)               /*!< SCB 
 592:Drivers/CMSIS/Include/core_cm4.h **** 
 593:Drivers/CMSIS/Include/core_cm4.h **** /* SCB Configuration Control Register Definitions */
 594:Drivers/CMSIS/Include/core_cm4.h **** #define SCB_CCR_STKALIGN_Pos                9U                                            /*!< SCB 
 595:Drivers/CMSIS/Include/core_cm4.h **** #define SCB_CCR_STKALIGN_Msk               (1UL << SCB_CCR_STKALIGN_Pos)                  /*!< SCB 
 596:Drivers/CMSIS/Include/core_cm4.h **** 
 597:Drivers/CMSIS/Include/core_cm4.h **** #define SCB_CCR_BFHFNMIGN_Pos               8U                                            /*!< SCB 
 598:Drivers/CMSIS/Include/core_cm4.h **** #define SCB_CCR_BFHFNMIGN_Msk              (1UL << SCB_CCR_BFHFNMIGN_Pos)                 /*!< SCB 
 599:Drivers/CMSIS/Include/core_cm4.h **** 
 600:Drivers/CMSIS/Include/core_cm4.h **** #define SCB_CCR_DIV_0_TRP_Pos               4U                                            /*!< SCB 
 601:Drivers/CMSIS/Include/core_cm4.h **** #define SCB_CCR_DIV_0_TRP_Msk              (1UL << SCB_CCR_DIV_0_TRP_Pos)                 /*!< SCB 
 602:Drivers/CMSIS/Include/core_cm4.h **** 
 603:Drivers/CMSIS/Include/core_cm4.h **** #define SCB_CCR_UNALIGN_TRP_Pos             3U                                            /*!< SCB 
 604:Drivers/CMSIS/Include/core_cm4.h **** #define SCB_CCR_UNALIGN_TRP_Msk            (1UL << SCB_CCR_UNALIGN_TRP_Pos)               /*!< SCB 
 605:Drivers/CMSIS/Include/core_cm4.h **** 
 606:Drivers/CMSIS/Include/core_cm4.h **** #define SCB_CCR_USERSETMPEND_Pos            1U                                            /*!< SCB 
 607:Drivers/CMSIS/Include/core_cm4.h **** #define SCB_CCR_USERSETMPEND_Msk           (1UL << SCB_CCR_USERSETMPEND_Pos)              /*!< SCB 
ARM GAS  /var/folders/80/65lm4rm97rv_n74c85vt01040000gn/T//ccnbidPO.s 			page 44


 608:Drivers/CMSIS/Include/core_cm4.h **** 
 609:Drivers/CMSIS/Include/core_cm4.h **** #define SCB_CCR_NONBASETHRDENA_Pos          0U                                            /*!< SCB 
 610:Drivers/CMSIS/Include/core_cm4.h **** #define SCB_CCR_NONBASETHRDENA_Msk         (1UL /*<< SCB_CCR_NONBASETHRDENA_Pos*/)        /*!< SCB 
 611:Drivers/CMSIS/Include/core_cm4.h **** 
 612:Drivers/CMSIS/Include/core_cm4.h **** /* SCB System Handler Control and State Register Definitions */
 613:Drivers/CMSIS/Include/core_cm4.h **** #define SCB_SHCSR_USGFAULTENA_Pos          18U                                            /*!< SCB 
 614:Drivers/CMSIS/Include/core_cm4.h **** #define SCB_SHCSR_USGFAULTENA_Msk          (1UL << SCB_SHCSR_USGFAULTENA_Pos)             /*!< SCB 
 615:Drivers/CMSIS/Include/core_cm4.h **** 
 616:Drivers/CMSIS/Include/core_cm4.h **** #define SCB_SHCSR_BUSFAULTENA_Pos          17U                                            /*!< SCB 
 617:Drivers/CMSIS/Include/core_cm4.h **** #define SCB_SHCSR_BUSFAULTENA_Msk          (1UL << SCB_SHCSR_BUSFAULTENA_Pos)             /*!< SCB 
 618:Drivers/CMSIS/Include/core_cm4.h **** 
 619:Drivers/CMSIS/Include/core_cm4.h **** #define SCB_SHCSR_MEMFAULTENA_Pos          16U                                            /*!< SCB 
 620:Drivers/CMSIS/Include/core_cm4.h **** #define SCB_SHCSR_MEMFAULTENA_Msk          (1UL << SCB_SHCSR_MEMFAULTENA_Pos)             /*!< SCB 
 621:Drivers/CMSIS/Include/core_cm4.h **** 
 622:Drivers/CMSIS/Include/core_cm4.h **** #define SCB_SHCSR_SVCALLPENDED_Pos         15U                                            /*!< SCB 
 623:Drivers/CMSIS/Include/core_cm4.h **** #define SCB_SHCSR_SVCALLPENDED_Msk         (1UL << SCB_SHCSR_SVCALLPENDED_Pos)            /*!< SCB 
 624:Drivers/CMSIS/Include/core_cm4.h **** 
 625:Drivers/CMSIS/Include/core_cm4.h **** #define SCB_SHCSR_BUSFAULTPENDED_Pos       14U                                            /*!< SCB 
 626:Drivers/CMSIS/Include/core_cm4.h **** #define SCB_SHCSR_BUSFAULTPENDED_Msk       (1UL << SCB_SHCSR_BUSFAULTPENDED_Pos)          /*!< SCB 
 627:Drivers/CMSIS/Include/core_cm4.h **** 
 628:Drivers/CMSIS/Include/core_cm4.h **** #define SCB_SHCSR_MEMFAULTPENDED_Pos       13U                                            /*!< SCB 
 629:Drivers/CMSIS/Include/core_cm4.h **** #define SCB_SHCSR_MEMFAULTPENDED_Msk       (1UL << SCB_SHCSR_MEMFAULTPENDED_Pos)          /*!< SCB 
 630:Drivers/CMSIS/Include/core_cm4.h **** 
 631:Drivers/CMSIS/Include/core_cm4.h **** #define SCB_SHCSR_USGFAULTPENDED_Pos       12U                                            /*!< SCB 
 632:Drivers/CMSIS/Include/core_cm4.h **** #define SCB_SHCSR_USGFAULTPENDED_Msk       (1UL << SCB_SHCSR_USGFAULTPENDED_Pos)          /*!< SCB 
 633:Drivers/CMSIS/Include/core_cm4.h **** 
 634:Drivers/CMSIS/Include/core_cm4.h **** #define SCB_SHCSR_SYSTICKACT_Pos           11U                                            /*!< SCB 
 635:Drivers/CMSIS/Include/core_cm4.h **** #define SCB_SHCSR_SYSTICKACT_Msk           (1UL << SCB_SHCSR_SYSTICKACT_Pos)              /*!< SCB 
 636:Drivers/CMSIS/Include/core_cm4.h **** 
 637:Drivers/CMSIS/Include/core_cm4.h **** #define SCB_SHCSR_PENDSVACT_Pos            10U                                            /*!< SCB 
 638:Drivers/CMSIS/Include/core_cm4.h **** #define SCB_SHCSR_PENDSVACT_Msk            (1UL << SCB_SHCSR_PENDSVACT_Pos)               /*!< SCB 
 639:Drivers/CMSIS/Include/core_cm4.h **** 
 640:Drivers/CMSIS/Include/core_cm4.h **** #define SCB_SHCSR_MONITORACT_Pos            8U                                            /*!< SCB 
 641:Drivers/CMSIS/Include/core_cm4.h **** #define SCB_SHCSR_MONITORACT_Msk           (1UL << SCB_SHCSR_MONITORACT_Pos)              /*!< SCB 
 642:Drivers/CMSIS/Include/core_cm4.h **** 
 643:Drivers/CMSIS/Include/core_cm4.h **** #define SCB_SHCSR_SVCALLACT_Pos             7U                                            /*!< SCB 
 644:Drivers/CMSIS/Include/core_cm4.h **** #define SCB_SHCSR_SVCALLACT_Msk            (1UL << SCB_SHCSR_SVCALLACT_Pos)               /*!< SCB 
 645:Drivers/CMSIS/Include/core_cm4.h **** 
 646:Drivers/CMSIS/Include/core_cm4.h **** #define SCB_SHCSR_USGFAULTACT_Pos           3U                                            /*!< SCB 
 647:Drivers/CMSIS/Include/core_cm4.h **** #define SCB_SHCSR_USGFAULTACT_Msk          (1UL << SCB_SHCSR_USGFAULTACT_Pos)             /*!< SCB 
 648:Drivers/CMSIS/Include/core_cm4.h **** 
 649:Drivers/CMSIS/Include/core_cm4.h **** #define SCB_SHCSR_BUSFAULTACT_Pos           1U                                            /*!< SCB 
 650:Drivers/CMSIS/Include/core_cm4.h **** #define SCB_SHCSR_BUSFAULTACT_Msk          (1UL << SCB_SHCSR_BUSFAULTACT_Pos)             /*!< SCB 
 651:Drivers/CMSIS/Include/core_cm4.h **** 
 652:Drivers/CMSIS/Include/core_cm4.h **** #define SCB_SHCSR_MEMFAULTACT_Pos           0U                                            /*!< SCB 
 653:Drivers/CMSIS/Include/core_cm4.h **** #define SCB_SHCSR_MEMFAULTACT_Msk          (1UL /*<< SCB_SHCSR_MEMFAULTACT_Pos*/)         /*!< SCB 
 654:Drivers/CMSIS/Include/core_cm4.h **** 
 655:Drivers/CMSIS/Include/core_cm4.h **** /* SCB Configurable Fault Status Register Definitions */
 656:Drivers/CMSIS/Include/core_cm4.h **** #define SCB_CFSR_USGFAULTSR_Pos            16U                                            /*!< SCB 
 657:Drivers/CMSIS/Include/core_cm4.h **** #define SCB_CFSR_USGFAULTSR_Msk            (0xFFFFUL << SCB_CFSR_USGFAULTSR_Pos)          /*!< SCB 
 658:Drivers/CMSIS/Include/core_cm4.h **** 
 659:Drivers/CMSIS/Include/core_cm4.h **** #define SCB_CFSR_BUSFAULTSR_Pos             8U                                            /*!< SCB 
 660:Drivers/CMSIS/Include/core_cm4.h **** #define SCB_CFSR_BUSFAULTSR_Msk            (0xFFUL << SCB_CFSR_BUSFAULTSR_Pos)            /*!< SCB 
 661:Drivers/CMSIS/Include/core_cm4.h **** 
 662:Drivers/CMSIS/Include/core_cm4.h **** #define SCB_CFSR_MEMFAULTSR_Pos             0U                                            /*!< SCB 
 663:Drivers/CMSIS/Include/core_cm4.h **** #define SCB_CFSR_MEMFAULTSR_Msk            (0xFFUL /*<< SCB_CFSR_MEMFAULTSR_Pos*/)        /*!< SCB 
 664:Drivers/CMSIS/Include/core_cm4.h **** 
ARM GAS  /var/folders/80/65lm4rm97rv_n74c85vt01040000gn/T//ccnbidPO.s 			page 45


 665:Drivers/CMSIS/Include/core_cm4.h **** /* SCB Hard Fault Status Register Definitions */
 666:Drivers/CMSIS/Include/core_cm4.h **** #define SCB_HFSR_DEBUGEVT_Pos              31U                                            /*!< SCB 
 667:Drivers/CMSIS/Include/core_cm4.h **** #define SCB_HFSR_DEBUGEVT_Msk              (1UL << SCB_HFSR_DEBUGEVT_Pos)                 /*!< SCB 
 668:Drivers/CMSIS/Include/core_cm4.h **** 
 669:Drivers/CMSIS/Include/core_cm4.h **** #define SCB_HFSR_FORCED_Pos                30U                                            /*!< SCB 
 670:Drivers/CMSIS/Include/core_cm4.h **** #define SCB_HFSR_FORCED_Msk                (1UL << SCB_HFSR_FORCED_Pos)                   /*!< SCB 
 671:Drivers/CMSIS/Include/core_cm4.h **** 
 672:Drivers/CMSIS/Include/core_cm4.h **** #define SCB_HFSR_VECTTBL_Pos                1U                                            /*!< SCB 
 673:Drivers/CMSIS/Include/core_cm4.h **** #define SCB_HFSR_VECTTBL_Msk               (1UL << SCB_HFSR_VECTTBL_Pos)                  /*!< SCB 
 674:Drivers/CMSIS/Include/core_cm4.h **** 
 675:Drivers/CMSIS/Include/core_cm4.h **** /* SCB Debug Fault Status Register Definitions */
 676:Drivers/CMSIS/Include/core_cm4.h **** #define SCB_DFSR_EXTERNAL_Pos               4U                                            /*!< SCB 
 677:Drivers/CMSIS/Include/core_cm4.h **** #define SCB_DFSR_EXTERNAL_Msk              (1UL << SCB_DFSR_EXTERNAL_Pos)                 /*!< SCB 
 678:Drivers/CMSIS/Include/core_cm4.h **** 
 679:Drivers/CMSIS/Include/core_cm4.h **** #define SCB_DFSR_VCATCH_Pos                 3U                                            /*!< SCB 
 680:Drivers/CMSIS/Include/core_cm4.h **** #define SCB_DFSR_VCATCH_Msk                (1UL << SCB_DFSR_VCATCH_Pos)                   /*!< SCB 
 681:Drivers/CMSIS/Include/core_cm4.h **** 
 682:Drivers/CMSIS/Include/core_cm4.h **** #define SCB_DFSR_DWTTRAP_Pos                2U                                            /*!< SCB 
 683:Drivers/CMSIS/Include/core_cm4.h **** #define SCB_DFSR_DWTTRAP_Msk               (1UL << SCB_DFSR_DWTTRAP_Pos)                  /*!< SCB 
 684:Drivers/CMSIS/Include/core_cm4.h **** 
 685:Drivers/CMSIS/Include/core_cm4.h **** #define SCB_DFSR_BKPT_Pos                   1U                                            /*!< SCB 
 686:Drivers/CMSIS/Include/core_cm4.h **** #define SCB_DFSR_BKPT_Msk                  (1UL << SCB_DFSR_BKPT_Pos)                     /*!< SCB 
 687:Drivers/CMSIS/Include/core_cm4.h **** 
 688:Drivers/CMSIS/Include/core_cm4.h **** #define SCB_DFSR_HALTED_Pos                 0U                                            /*!< SCB 
 689:Drivers/CMSIS/Include/core_cm4.h **** #define SCB_DFSR_HALTED_Msk                (1UL /*<< SCB_DFSR_HALTED_Pos*/)               /*!< SCB 
 690:Drivers/CMSIS/Include/core_cm4.h **** 
 691:Drivers/CMSIS/Include/core_cm4.h **** /*@} end of group CMSIS_SCB */
 692:Drivers/CMSIS/Include/core_cm4.h **** 
 693:Drivers/CMSIS/Include/core_cm4.h **** 
 694:Drivers/CMSIS/Include/core_cm4.h **** /**
 695:Drivers/CMSIS/Include/core_cm4.h ****   \ingroup  CMSIS_core_register
 696:Drivers/CMSIS/Include/core_cm4.h ****   \defgroup CMSIS_SCnSCB System Controls not in SCB (SCnSCB)
 697:Drivers/CMSIS/Include/core_cm4.h ****   \brief    Type definitions for the System Control and ID Register not in the SCB
 698:Drivers/CMSIS/Include/core_cm4.h ****   @{
 699:Drivers/CMSIS/Include/core_cm4.h ****  */
 700:Drivers/CMSIS/Include/core_cm4.h **** 
 701:Drivers/CMSIS/Include/core_cm4.h **** /**
 702:Drivers/CMSIS/Include/core_cm4.h ****   \brief  Structure type to access the System Control and ID Register not in the SCB.
 703:Drivers/CMSIS/Include/core_cm4.h ****  */
 704:Drivers/CMSIS/Include/core_cm4.h **** typedef struct
 705:Drivers/CMSIS/Include/core_cm4.h **** {
 706:Drivers/CMSIS/Include/core_cm4.h ****         uint32_t RESERVED0[1U];
 707:Drivers/CMSIS/Include/core_cm4.h ****   __IM  uint32_t ICTR;                   /*!< Offset: 0x004 (R/ )  Interrupt Controller Type Regist
 708:Drivers/CMSIS/Include/core_cm4.h ****   __IOM uint32_t ACTLR;                  /*!< Offset: 0x008 (R/W)  Auxiliary Control Register */
 709:Drivers/CMSIS/Include/core_cm4.h **** } SCnSCB_Type;
 710:Drivers/CMSIS/Include/core_cm4.h **** 
 711:Drivers/CMSIS/Include/core_cm4.h **** /* Interrupt Controller Type Register Definitions */
 712:Drivers/CMSIS/Include/core_cm4.h **** #define SCnSCB_ICTR_INTLINESNUM_Pos         0U                                         /*!< ICTR: I
 713:Drivers/CMSIS/Include/core_cm4.h **** #define SCnSCB_ICTR_INTLINESNUM_Msk        (0xFUL /*<< SCnSCB_ICTR_INTLINESNUM_Pos*/)  /*!< ICTR: I
 714:Drivers/CMSIS/Include/core_cm4.h **** 
 715:Drivers/CMSIS/Include/core_cm4.h **** /* Auxiliary Control Register Definitions */
 716:Drivers/CMSIS/Include/core_cm4.h **** #define SCnSCB_ACTLR_DISOOFP_Pos            9U                                         /*!< ACTLR: 
 717:Drivers/CMSIS/Include/core_cm4.h **** #define SCnSCB_ACTLR_DISOOFP_Msk           (1UL << SCnSCB_ACTLR_DISOOFP_Pos)           /*!< ACTLR: 
 718:Drivers/CMSIS/Include/core_cm4.h **** 
 719:Drivers/CMSIS/Include/core_cm4.h **** #define SCnSCB_ACTLR_DISFPCA_Pos            8U                                         /*!< ACTLR: 
 720:Drivers/CMSIS/Include/core_cm4.h **** #define SCnSCB_ACTLR_DISFPCA_Msk           (1UL << SCnSCB_ACTLR_DISFPCA_Pos)           /*!< ACTLR: 
 721:Drivers/CMSIS/Include/core_cm4.h **** 
ARM GAS  /var/folders/80/65lm4rm97rv_n74c85vt01040000gn/T//ccnbidPO.s 			page 46


 722:Drivers/CMSIS/Include/core_cm4.h **** #define SCnSCB_ACTLR_DISFOLD_Pos            2U                                         /*!< ACTLR: 
 723:Drivers/CMSIS/Include/core_cm4.h **** #define SCnSCB_ACTLR_DISFOLD_Msk           (1UL << SCnSCB_ACTLR_DISFOLD_Pos)           /*!< ACTLR: 
 724:Drivers/CMSIS/Include/core_cm4.h **** 
 725:Drivers/CMSIS/Include/core_cm4.h **** #define SCnSCB_ACTLR_DISDEFWBUF_Pos         1U                                         /*!< ACTLR: 
 726:Drivers/CMSIS/Include/core_cm4.h **** #define SCnSCB_ACTLR_DISDEFWBUF_Msk        (1UL << SCnSCB_ACTLR_DISDEFWBUF_Pos)        /*!< ACTLR: 
 727:Drivers/CMSIS/Include/core_cm4.h **** 
 728:Drivers/CMSIS/Include/core_cm4.h **** #define SCnSCB_ACTLR_DISMCYCINT_Pos         0U                                         /*!< ACTLR: 
 729:Drivers/CMSIS/Include/core_cm4.h **** #define SCnSCB_ACTLR_DISMCYCINT_Msk        (1UL /*<< SCnSCB_ACTLR_DISMCYCINT_Pos*/)    /*!< ACTLR: 
 730:Drivers/CMSIS/Include/core_cm4.h **** 
 731:Drivers/CMSIS/Include/core_cm4.h **** /*@} end of group CMSIS_SCnotSCB */
 732:Drivers/CMSIS/Include/core_cm4.h **** 
 733:Drivers/CMSIS/Include/core_cm4.h **** 
 734:Drivers/CMSIS/Include/core_cm4.h **** /**
 735:Drivers/CMSIS/Include/core_cm4.h ****   \ingroup  CMSIS_core_register
 736:Drivers/CMSIS/Include/core_cm4.h ****   \defgroup CMSIS_SysTick     System Tick Timer (SysTick)
 737:Drivers/CMSIS/Include/core_cm4.h ****   \brief    Type definitions for the System Timer Registers.
 738:Drivers/CMSIS/Include/core_cm4.h ****   @{
 739:Drivers/CMSIS/Include/core_cm4.h ****  */
 740:Drivers/CMSIS/Include/core_cm4.h **** 
 741:Drivers/CMSIS/Include/core_cm4.h **** /**
 742:Drivers/CMSIS/Include/core_cm4.h ****   \brief  Structure type to access the System Timer (SysTick).
 743:Drivers/CMSIS/Include/core_cm4.h ****  */
 744:Drivers/CMSIS/Include/core_cm4.h **** typedef struct
 745:Drivers/CMSIS/Include/core_cm4.h **** {
 746:Drivers/CMSIS/Include/core_cm4.h ****   __IOM uint32_t CTRL;                   /*!< Offset: 0x000 (R/W)  SysTick Control and Status Regis
 747:Drivers/CMSIS/Include/core_cm4.h ****   __IOM uint32_t LOAD;                   /*!< Offset: 0x004 (R/W)  SysTick Reload Value Register */
 748:Drivers/CMSIS/Include/core_cm4.h ****   __IOM uint32_t VAL;                    /*!< Offset: 0x008 (R/W)  SysTick Current Value Register *
 749:Drivers/CMSIS/Include/core_cm4.h ****   __IM  uint32_t CALIB;                  /*!< Offset: 0x00C (R/ )  SysTick Calibration Register */
 750:Drivers/CMSIS/Include/core_cm4.h **** } SysTick_Type;
 751:Drivers/CMSIS/Include/core_cm4.h **** 
 752:Drivers/CMSIS/Include/core_cm4.h **** /* SysTick Control / Status Register Definitions */
 753:Drivers/CMSIS/Include/core_cm4.h **** #define SysTick_CTRL_COUNTFLAG_Pos         16U                                            /*!< SysT
 754:Drivers/CMSIS/Include/core_cm4.h **** #define SysTick_CTRL_COUNTFLAG_Msk         (1UL << SysTick_CTRL_COUNTFLAG_Pos)            /*!< SysT
 755:Drivers/CMSIS/Include/core_cm4.h **** 
 756:Drivers/CMSIS/Include/core_cm4.h **** #define SysTick_CTRL_CLKSOURCE_Pos          2U                                            /*!< SysT
 757:Drivers/CMSIS/Include/core_cm4.h **** #define SysTick_CTRL_CLKSOURCE_Msk         (1UL << SysTick_CTRL_CLKSOURCE_Pos)            /*!< SysT
 758:Drivers/CMSIS/Include/core_cm4.h **** 
 759:Drivers/CMSIS/Include/core_cm4.h **** #define SysTick_CTRL_TICKINT_Pos            1U                                            /*!< SysT
 760:Drivers/CMSIS/Include/core_cm4.h **** #define SysTick_CTRL_TICKINT_Msk           (1UL << SysTick_CTRL_TICKINT_Pos)              /*!< SysT
 761:Drivers/CMSIS/Include/core_cm4.h **** 
 762:Drivers/CMSIS/Include/core_cm4.h **** #define SysTick_CTRL_ENABLE_Pos             0U                                            /*!< SysT
 763:Drivers/CMSIS/Include/core_cm4.h **** #define SysTick_CTRL_ENABLE_Msk            (1UL /*<< SysTick_CTRL_ENABLE_Pos*/)           /*!< SysT
 764:Drivers/CMSIS/Include/core_cm4.h **** 
 765:Drivers/CMSIS/Include/core_cm4.h **** /* SysTick Reload Register Definitions */
 766:Drivers/CMSIS/Include/core_cm4.h **** #define SysTick_LOAD_RELOAD_Pos             0U                                            /*!< SysT
 767:Drivers/CMSIS/Include/core_cm4.h **** #define SysTick_LOAD_RELOAD_Msk            (0xFFFFFFUL /*<< SysTick_LOAD_RELOAD_Pos*/)    /*!< SysT
 768:Drivers/CMSIS/Include/core_cm4.h **** 
 769:Drivers/CMSIS/Include/core_cm4.h **** /* SysTick Current Register Definitions */
 770:Drivers/CMSIS/Include/core_cm4.h **** #define SysTick_VAL_CURRENT_Pos             0U                                            /*!< SysT
 771:Drivers/CMSIS/Include/core_cm4.h **** #define SysTick_VAL_CURRENT_Msk            (0xFFFFFFUL /*<< SysTick_VAL_CURRENT_Pos*/)    /*!< SysT
 772:Drivers/CMSIS/Include/core_cm4.h **** 
 773:Drivers/CMSIS/Include/core_cm4.h **** /* SysTick Calibration Register Definitions */
 774:Drivers/CMSIS/Include/core_cm4.h **** #define SysTick_CALIB_NOREF_Pos            31U                                            /*!< SysT
 775:Drivers/CMSIS/Include/core_cm4.h **** #define SysTick_CALIB_NOREF_Msk            (1UL << SysTick_CALIB_NOREF_Pos)               /*!< SysT
 776:Drivers/CMSIS/Include/core_cm4.h **** 
 777:Drivers/CMSIS/Include/core_cm4.h **** #define SysTick_CALIB_SKEW_Pos             30U                                            /*!< SysT
 778:Drivers/CMSIS/Include/core_cm4.h **** #define SysTick_CALIB_SKEW_Msk             (1UL << SysTick_CALIB_SKEW_Pos)                /*!< SysT
ARM GAS  /var/folders/80/65lm4rm97rv_n74c85vt01040000gn/T//ccnbidPO.s 			page 47


 779:Drivers/CMSIS/Include/core_cm4.h **** 
 780:Drivers/CMSIS/Include/core_cm4.h **** #define SysTick_CALIB_TENMS_Pos             0U                                            /*!< SysT
 781:Drivers/CMSIS/Include/core_cm4.h **** #define SysTick_CALIB_TENMS_Msk            (0xFFFFFFUL /*<< SysTick_CALIB_TENMS_Pos*/)    /*!< SysT
 782:Drivers/CMSIS/Include/core_cm4.h **** 
 783:Drivers/CMSIS/Include/core_cm4.h **** /*@} end of group CMSIS_SysTick */
 784:Drivers/CMSIS/Include/core_cm4.h **** 
 785:Drivers/CMSIS/Include/core_cm4.h **** 
 786:Drivers/CMSIS/Include/core_cm4.h **** /**
 787:Drivers/CMSIS/Include/core_cm4.h ****   \ingroup  CMSIS_core_register
 788:Drivers/CMSIS/Include/core_cm4.h ****   \defgroup CMSIS_ITM     Instrumentation Trace Macrocell (ITM)
 789:Drivers/CMSIS/Include/core_cm4.h ****   \brief    Type definitions for the Instrumentation Trace Macrocell (ITM)
 790:Drivers/CMSIS/Include/core_cm4.h ****   @{
 791:Drivers/CMSIS/Include/core_cm4.h ****  */
 792:Drivers/CMSIS/Include/core_cm4.h **** 
 793:Drivers/CMSIS/Include/core_cm4.h **** /**
 794:Drivers/CMSIS/Include/core_cm4.h ****   \brief  Structure type to access the Instrumentation Trace Macrocell Register (ITM).
 795:Drivers/CMSIS/Include/core_cm4.h ****  */
 796:Drivers/CMSIS/Include/core_cm4.h **** typedef struct
 797:Drivers/CMSIS/Include/core_cm4.h **** {
 798:Drivers/CMSIS/Include/core_cm4.h ****   __OM  union
 799:Drivers/CMSIS/Include/core_cm4.h ****   {
 800:Drivers/CMSIS/Include/core_cm4.h ****     __OM  uint8_t    u8;                 /*!< Offset: 0x000 ( /W)  ITM Stimulus Port 8-bit */
 801:Drivers/CMSIS/Include/core_cm4.h ****     __OM  uint16_t   u16;                /*!< Offset: 0x000 ( /W)  ITM Stimulus Port 16-bit */
 802:Drivers/CMSIS/Include/core_cm4.h ****     __OM  uint32_t   u32;                /*!< Offset: 0x000 ( /W)  ITM Stimulus Port 32-bit */
 803:Drivers/CMSIS/Include/core_cm4.h ****   }  PORT [32U];                         /*!< Offset: 0x000 ( /W)  ITM Stimulus Port Registers */
 804:Drivers/CMSIS/Include/core_cm4.h ****         uint32_t RESERVED0[864U];
 805:Drivers/CMSIS/Include/core_cm4.h ****   __IOM uint32_t TER;                    /*!< Offset: 0xE00 (R/W)  ITM Trace Enable Register */
 806:Drivers/CMSIS/Include/core_cm4.h ****         uint32_t RESERVED1[15U];
 807:Drivers/CMSIS/Include/core_cm4.h ****   __IOM uint32_t TPR;                    /*!< Offset: 0xE40 (R/W)  ITM Trace Privilege Register */
 808:Drivers/CMSIS/Include/core_cm4.h ****         uint32_t RESERVED2[15U];
 809:Drivers/CMSIS/Include/core_cm4.h ****   __IOM uint32_t TCR;                    /*!< Offset: 0xE80 (R/W)  ITM Trace Control Register */
 810:Drivers/CMSIS/Include/core_cm4.h ****         uint32_t RESERVED3[29U];
 811:Drivers/CMSIS/Include/core_cm4.h ****   __OM  uint32_t IWR;                    /*!< Offset: 0xEF8 ( /W)  ITM Integration Write Register *
 812:Drivers/CMSIS/Include/core_cm4.h ****   __IM  uint32_t IRR;                    /*!< Offset: 0xEFC (R/ )  ITM Integration Read Register */
 813:Drivers/CMSIS/Include/core_cm4.h ****   __IOM uint32_t IMCR;                   /*!< Offset: 0xF00 (R/W)  ITM Integration Mode Control Reg
 814:Drivers/CMSIS/Include/core_cm4.h ****         uint32_t RESERVED4[43U];
 815:Drivers/CMSIS/Include/core_cm4.h ****   __OM  uint32_t LAR;                    /*!< Offset: 0xFB0 ( /W)  ITM Lock Access Register */
 816:Drivers/CMSIS/Include/core_cm4.h ****   __IM  uint32_t LSR;                    /*!< Offset: 0xFB4 (R/ )  ITM Lock Status Register */
 817:Drivers/CMSIS/Include/core_cm4.h ****         uint32_t RESERVED5[6U];
 818:Drivers/CMSIS/Include/core_cm4.h ****   __IM  uint32_t PID4;                   /*!< Offset: 0xFD0 (R/ )  ITM Peripheral Identification Re
 819:Drivers/CMSIS/Include/core_cm4.h ****   __IM  uint32_t PID5;                   /*!< Offset: 0xFD4 (R/ )  ITM Peripheral Identification Re
 820:Drivers/CMSIS/Include/core_cm4.h ****   __IM  uint32_t PID6;                   /*!< Offset: 0xFD8 (R/ )  ITM Peripheral Identification Re
 821:Drivers/CMSIS/Include/core_cm4.h ****   __IM  uint32_t PID7;                   /*!< Offset: 0xFDC (R/ )  ITM Peripheral Identification Re
 822:Drivers/CMSIS/Include/core_cm4.h ****   __IM  uint32_t PID0;                   /*!< Offset: 0xFE0 (R/ )  ITM Peripheral Identification Re
 823:Drivers/CMSIS/Include/core_cm4.h ****   __IM  uint32_t PID1;                   /*!< Offset: 0xFE4 (R/ )  ITM Peripheral Identification Re
 824:Drivers/CMSIS/Include/core_cm4.h ****   __IM  uint32_t PID2;                   /*!< Offset: 0xFE8 (R/ )  ITM Peripheral Identification Re
 825:Drivers/CMSIS/Include/core_cm4.h ****   __IM  uint32_t PID3;                   /*!< Offset: 0xFEC (R/ )  ITM Peripheral Identification Re
 826:Drivers/CMSIS/Include/core_cm4.h ****   __IM  uint32_t CID0;                   /*!< Offset: 0xFF0 (R/ )  ITM Component  Identification Re
 827:Drivers/CMSIS/Include/core_cm4.h ****   __IM  uint32_t CID1;                   /*!< Offset: 0xFF4 (R/ )  ITM Component  Identification Re
 828:Drivers/CMSIS/Include/core_cm4.h ****   __IM  uint32_t CID2;                   /*!< Offset: 0xFF8 (R/ )  ITM Component  Identification Re
 829:Drivers/CMSIS/Include/core_cm4.h ****   __IM  uint32_t CID3;                   /*!< Offset: 0xFFC (R/ )  ITM Component  Identification Re
 830:Drivers/CMSIS/Include/core_cm4.h **** } ITM_Type;
 831:Drivers/CMSIS/Include/core_cm4.h **** 
 832:Drivers/CMSIS/Include/core_cm4.h **** /* ITM Trace Privilege Register Definitions */
 833:Drivers/CMSIS/Include/core_cm4.h **** #define ITM_TPR_PRIVMASK_Pos                0U                                            /*!< ITM 
 834:Drivers/CMSIS/Include/core_cm4.h **** #define ITM_TPR_PRIVMASK_Msk               (0xFUL /*<< ITM_TPR_PRIVMASK_Pos*/)            /*!< ITM 
 835:Drivers/CMSIS/Include/core_cm4.h **** 
ARM GAS  /var/folders/80/65lm4rm97rv_n74c85vt01040000gn/T//ccnbidPO.s 			page 48


 836:Drivers/CMSIS/Include/core_cm4.h **** /* ITM Trace Control Register Definitions */
 837:Drivers/CMSIS/Include/core_cm4.h **** #define ITM_TCR_BUSY_Pos                   23U                                            /*!< ITM 
 838:Drivers/CMSIS/Include/core_cm4.h **** #define ITM_TCR_BUSY_Msk                   (1UL << ITM_TCR_BUSY_Pos)                      /*!< ITM 
 839:Drivers/CMSIS/Include/core_cm4.h **** 
 840:Drivers/CMSIS/Include/core_cm4.h **** #define ITM_TCR_TraceBusID_Pos             16U                                            /*!< ITM 
 841:Drivers/CMSIS/Include/core_cm4.h **** #define ITM_TCR_TraceBusID_Msk             (0x7FUL << ITM_TCR_TraceBusID_Pos)             /*!< ITM 
 842:Drivers/CMSIS/Include/core_cm4.h **** 
 843:Drivers/CMSIS/Include/core_cm4.h **** #define ITM_TCR_GTSFREQ_Pos                10U                                            /*!< ITM 
 844:Drivers/CMSIS/Include/core_cm4.h **** #define ITM_TCR_GTSFREQ_Msk                (3UL << ITM_TCR_GTSFREQ_Pos)                   /*!< ITM 
 845:Drivers/CMSIS/Include/core_cm4.h **** 
 846:Drivers/CMSIS/Include/core_cm4.h **** #define ITM_TCR_TSPrescale_Pos              8U                                            /*!< ITM 
 847:Drivers/CMSIS/Include/core_cm4.h **** #define ITM_TCR_TSPrescale_Msk             (3UL << ITM_TCR_TSPrescale_Pos)                /*!< ITM 
 848:Drivers/CMSIS/Include/core_cm4.h **** 
 849:Drivers/CMSIS/Include/core_cm4.h **** #define ITM_TCR_SWOENA_Pos                  4U                                            /*!< ITM 
 850:Drivers/CMSIS/Include/core_cm4.h **** #define ITM_TCR_SWOENA_Msk                 (1UL << ITM_TCR_SWOENA_Pos)                    /*!< ITM 
 851:Drivers/CMSIS/Include/core_cm4.h **** 
 852:Drivers/CMSIS/Include/core_cm4.h **** #define ITM_TCR_DWTENA_Pos                  3U                                            /*!< ITM 
 853:Drivers/CMSIS/Include/core_cm4.h **** #define ITM_TCR_DWTENA_Msk                 (1UL << ITM_TCR_DWTENA_Pos)                    /*!< ITM 
 854:Drivers/CMSIS/Include/core_cm4.h **** 
 855:Drivers/CMSIS/Include/core_cm4.h **** #define ITM_TCR_SYNCENA_Pos                 2U                                            /*!< ITM 
 856:Drivers/CMSIS/Include/core_cm4.h **** #define ITM_TCR_SYNCENA_Msk                (1UL << ITM_TCR_SYNCENA_Pos)                   /*!< ITM 
 857:Drivers/CMSIS/Include/core_cm4.h **** 
 858:Drivers/CMSIS/Include/core_cm4.h **** #define ITM_TCR_TSENA_Pos                   1U                                            /*!< ITM 
 859:Drivers/CMSIS/Include/core_cm4.h **** #define ITM_TCR_TSENA_Msk                  (1UL << ITM_TCR_TSENA_Pos)                     /*!< ITM 
 860:Drivers/CMSIS/Include/core_cm4.h **** 
 861:Drivers/CMSIS/Include/core_cm4.h **** #define ITM_TCR_ITMENA_Pos                  0U                                            /*!< ITM 
 862:Drivers/CMSIS/Include/core_cm4.h **** #define ITM_TCR_ITMENA_Msk                 (1UL /*<< ITM_TCR_ITMENA_Pos*/)                /*!< ITM 
 863:Drivers/CMSIS/Include/core_cm4.h **** 
 864:Drivers/CMSIS/Include/core_cm4.h **** /* ITM Integration Write Register Definitions */
 865:Drivers/CMSIS/Include/core_cm4.h **** #define ITM_IWR_ATVALIDM_Pos                0U                                            /*!< ITM 
 866:Drivers/CMSIS/Include/core_cm4.h **** #define ITM_IWR_ATVALIDM_Msk               (1UL /*<< ITM_IWR_ATVALIDM_Pos*/)              /*!< ITM 
 867:Drivers/CMSIS/Include/core_cm4.h **** 
 868:Drivers/CMSIS/Include/core_cm4.h **** /* ITM Integration Read Register Definitions */
 869:Drivers/CMSIS/Include/core_cm4.h **** #define ITM_IRR_ATREADYM_Pos                0U                                            /*!< ITM 
 870:Drivers/CMSIS/Include/core_cm4.h **** #define ITM_IRR_ATREADYM_Msk               (1UL /*<< ITM_IRR_ATREADYM_Pos*/)              /*!< ITM 
 871:Drivers/CMSIS/Include/core_cm4.h **** 
 872:Drivers/CMSIS/Include/core_cm4.h **** /* ITM Integration Mode Control Register Definitions */
 873:Drivers/CMSIS/Include/core_cm4.h **** #define ITM_IMCR_INTEGRATION_Pos            0U                                            /*!< ITM 
 874:Drivers/CMSIS/Include/core_cm4.h **** #define ITM_IMCR_INTEGRATION_Msk           (1UL /*<< ITM_IMCR_INTEGRATION_Pos*/)          /*!< ITM 
 875:Drivers/CMSIS/Include/core_cm4.h **** 
 876:Drivers/CMSIS/Include/core_cm4.h **** /* ITM Lock Status Register Definitions */
 877:Drivers/CMSIS/Include/core_cm4.h **** #define ITM_LSR_ByteAcc_Pos                 2U                                            /*!< ITM 
 878:Drivers/CMSIS/Include/core_cm4.h **** #define ITM_LSR_ByteAcc_Msk                (1UL << ITM_LSR_ByteAcc_Pos)                   /*!< ITM 
 879:Drivers/CMSIS/Include/core_cm4.h **** 
 880:Drivers/CMSIS/Include/core_cm4.h **** #define ITM_LSR_Access_Pos                  1U                                            /*!< ITM 
 881:Drivers/CMSIS/Include/core_cm4.h **** #define ITM_LSR_Access_Msk                 (1UL << ITM_LSR_Access_Pos)                    /*!< ITM 
 882:Drivers/CMSIS/Include/core_cm4.h **** 
 883:Drivers/CMSIS/Include/core_cm4.h **** #define ITM_LSR_Present_Pos                 0U                                            /*!< ITM 
 884:Drivers/CMSIS/Include/core_cm4.h **** #define ITM_LSR_Present_Msk                (1UL /*<< ITM_LSR_Present_Pos*/)               /*!< ITM 
 885:Drivers/CMSIS/Include/core_cm4.h **** 
 886:Drivers/CMSIS/Include/core_cm4.h **** /*@}*/ /* end of group CMSIS_ITM */
 887:Drivers/CMSIS/Include/core_cm4.h **** 
 888:Drivers/CMSIS/Include/core_cm4.h **** 
 889:Drivers/CMSIS/Include/core_cm4.h **** /**
 890:Drivers/CMSIS/Include/core_cm4.h ****   \ingroup  CMSIS_core_register
 891:Drivers/CMSIS/Include/core_cm4.h ****   \defgroup CMSIS_DWT     Data Watchpoint and Trace (DWT)
 892:Drivers/CMSIS/Include/core_cm4.h ****   \brief    Type definitions for the Data Watchpoint and Trace (DWT)
ARM GAS  /var/folders/80/65lm4rm97rv_n74c85vt01040000gn/T//ccnbidPO.s 			page 49


 893:Drivers/CMSIS/Include/core_cm4.h ****   @{
 894:Drivers/CMSIS/Include/core_cm4.h ****  */
 895:Drivers/CMSIS/Include/core_cm4.h **** 
 896:Drivers/CMSIS/Include/core_cm4.h **** /**
 897:Drivers/CMSIS/Include/core_cm4.h ****   \brief  Structure type to access the Data Watchpoint and Trace Register (DWT).
 898:Drivers/CMSIS/Include/core_cm4.h ****  */
 899:Drivers/CMSIS/Include/core_cm4.h **** typedef struct
 900:Drivers/CMSIS/Include/core_cm4.h **** {
 901:Drivers/CMSIS/Include/core_cm4.h ****   __IOM uint32_t CTRL;                   /*!< Offset: 0x000 (R/W)  Control Register */
 902:Drivers/CMSIS/Include/core_cm4.h ****   __IOM uint32_t CYCCNT;                 /*!< Offset: 0x004 (R/W)  Cycle Count Register */
 903:Drivers/CMSIS/Include/core_cm4.h ****   __IOM uint32_t CPICNT;                 /*!< Offset: 0x008 (R/W)  CPI Count Register */
 904:Drivers/CMSIS/Include/core_cm4.h ****   __IOM uint32_t EXCCNT;                 /*!< Offset: 0x00C (R/W)  Exception Overhead Count Registe
 905:Drivers/CMSIS/Include/core_cm4.h ****   __IOM uint32_t SLEEPCNT;               /*!< Offset: 0x010 (R/W)  Sleep Count Register */
 906:Drivers/CMSIS/Include/core_cm4.h ****   __IOM uint32_t LSUCNT;                 /*!< Offset: 0x014 (R/W)  LSU Count Register */
 907:Drivers/CMSIS/Include/core_cm4.h ****   __IOM uint32_t FOLDCNT;                /*!< Offset: 0x018 (R/W)  Folded-instruction Count Registe
 908:Drivers/CMSIS/Include/core_cm4.h ****   __IM  uint32_t PCSR;                   /*!< Offset: 0x01C (R/ )  Program Counter Sample Register 
 909:Drivers/CMSIS/Include/core_cm4.h ****   __IOM uint32_t COMP0;                  /*!< Offset: 0x020 (R/W)  Comparator Register 0 */
 910:Drivers/CMSIS/Include/core_cm4.h ****   __IOM uint32_t MASK0;                  /*!< Offset: 0x024 (R/W)  Mask Register 0 */
 911:Drivers/CMSIS/Include/core_cm4.h ****   __IOM uint32_t FUNCTION0;              /*!< Offset: 0x028 (R/W)  Function Register 0 */
 912:Drivers/CMSIS/Include/core_cm4.h ****         uint32_t RESERVED0[1U];
 913:Drivers/CMSIS/Include/core_cm4.h ****   __IOM uint32_t COMP1;                  /*!< Offset: 0x030 (R/W)  Comparator Register 1 */
 914:Drivers/CMSIS/Include/core_cm4.h ****   __IOM uint32_t MASK1;                  /*!< Offset: 0x034 (R/W)  Mask Register 1 */
 915:Drivers/CMSIS/Include/core_cm4.h ****   __IOM uint32_t FUNCTION1;              /*!< Offset: 0x038 (R/W)  Function Register 1 */
 916:Drivers/CMSIS/Include/core_cm4.h ****         uint32_t RESERVED1[1U];
 917:Drivers/CMSIS/Include/core_cm4.h ****   __IOM uint32_t COMP2;                  /*!< Offset: 0x040 (R/W)  Comparator Register 2 */
 918:Drivers/CMSIS/Include/core_cm4.h ****   __IOM uint32_t MASK2;                  /*!< Offset: 0x044 (R/W)  Mask Register 2 */
 919:Drivers/CMSIS/Include/core_cm4.h ****   __IOM uint32_t FUNCTION2;              /*!< Offset: 0x048 (R/W)  Function Register 2 */
 920:Drivers/CMSIS/Include/core_cm4.h ****         uint32_t RESERVED2[1U];
 921:Drivers/CMSIS/Include/core_cm4.h ****   __IOM uint32_t COMP3;                  /*!< Offset: 0x050 (R/W)  Comparator Register 3 */
 922:Drivers/CMSIS/Include/core_cm4.h ****   __IOM uint32_t MASK3;                  /*!< Offset: 0x054 (R/W)  Mask Register 3 */
 923:Drivers/CMSIS/Include/core_cm4.h ****   __IOM uint32_t FUNCTION3;              /*!< Offset: 0x058 (R/W)  Function Register 3 */
 924:Drivers/CMSIS/Include/core_cm4.h **** } DWT_Type;
 925:Drivers/CMSIS/Include/core_cm4.h **** 
 926:Drivers/CMSIS/Include/core_cm4.h **** /* DWT Control Register Definitions */
 927:Drivers/CMSIS/Include/core_cm4.h **** #define DWT_CTRL_NUMCOMP_Pos               28U                                         /*!< DWT CTR
 928:Drivers/CMSIS/Include/core_cm4.h **** #define DWT_CTRL_NUMCOMP_Msk               (0xFUL << DWT_CTRL_NUMCOMP_Pos)             /*!< DWT CTR
 929:Drivers/CMSIS/Include/core_cm4.h **** 
 930:Drivers/CMSIS/Include/core_cm4.h **** #define DWT_CTRL_NOTRCPKT_Pos              27U                                         /*!< DWT CTR
 931:Drivers/CMSIS/Include/core_cm4.h **** #define DWT_CTRL_NOTRCPKT_Msk              (0x1UL << DWT_CTRL_NOTRCPKT_Pos)            /*!< DWT CTR
 932:Drivers/CMSIS/Include/core_cm4.h **** 
 933:Drivers/CMSIS/Include/core_cm4.h **** #define DWT_CTRL_NOEXTTRIG_Pos             26U                                         /*!< DWT CTR
 934:Drivers/CMSIS/Include/core_cm4.h **** #define DWT_CTRL_NOEXTTRIG_Msk             (0x1UL << DWT_CTRL_NOEXTTRIG_Pos)           /*!< DWT CTR
 935:Drivers/CMSIS/Include/core_cm4.h **** 
 936:Drivers/CMSIS/Include/core_cm4.h **** #define DWT_CTRL_NOCYCCNT_Pos              25U                                         /*!< DWT CTR
 937:Drivers/CMSIS/Include/core_cm4.h **** #define DWT_CTRL_NOCYCCNT_Msk              (0x1UL << DWT_CTRL_NOCYCCNT_Pos)            /*!< DWT CTR
 938:Drivers/CMSIS/Include/core_cm4.h **** 
 939:Drivers/CMSIS/Include/core_cm4.h **** #define DWT_CTRL_NOPRFCNT_Pos              24U                                         /*!< DWT CTR
 940:Drivers/CMSIS/Include/core_cm4.h **** #define DWT_CTRL_NOPRFCNT_Msk              (0x1UL << DWT_CTRL_NOPRFCNT_Pos)            /*!< DWT CTR
 941:Drivers/CMSIS/Include/core_cm4.h **** 
 942:Drivers/CMSIS/Include/core_cm4.h **** #define DWT_CTRL_CYCEVTENA_Pos             22U                                         /*!< DWT CTR
 943:Drivers/CMSIS/Include/core_cm4.h **** #define DWT_CTRL_CYCEVTENA_Msk             (0x1UL << DWT_CTRL_CYCEVTENA_Pos)           /*!< DWT CTR
 944:Drivers/CMSIS/Include/core_cm4.h **** 
 945:Drivers/CMSIS/Include/core_cm4.h **** #define DWT_CTRL_FOLDEVTENA_Pos            21U                                         /*!< DWT CTR
 946:Drivers/CMSIS/Include/core_cm4.h **** #define DWT_CTRL_FOLDEVTENA_Msk            (0x1UL << DWT_CTRL_FOLDEVTENA_Pos)          /*!< DWT CTR
 947:Drivers/CMSIS/Include/core_cm4.h **** 
 948:Drivers/CMSIS/Include/core_cm4.h **** #define DWT_CTRL_LSUEVTENA_Pos             20U                                         /*!< DWT CTR
 949:Drivers/CMSIS/Include/core_cm4.h **** #define DWT_CTRL_LSUEVTENA_Msk             (0x1UL << DWT_CTRL_LSUEVTENA_Pos)           /*!< DWT CTR
ARM GAS  /var/folders/80/65lm4rm97rv_n74c85vt01040000gn/T//ccnbidPO.s 			page 50


 950:Drivers/CMSIS/Include/core_cm4.h **** 
 951:Drivers/CMSIS/Include/core_cm4.h **** #define DWT_CTRL_SLEEPEVTENA_Pos           19U                                         /*!< DWT CTR
 952:Drivers/CMSIS/Include/core_cm4.h **** #define DWT_CTRL_SLEEPEVTENA_Msk           (0x1UL << DWT_CTRL_SLEEPEVTENA_Pos)         /*!< DWT CTR
 953:Drivers/CMSIS/Include/core_cm4.h **** 
 954:Drivers/CMSIS/Include/core_cm4.h **** #define DWT_CTRL_EXCEVTENA_Pos             18U                                         /*!< DWT CTR
 955:Drivers/CMSIS/Include/core_cm4.h **** #define DWT_CTRL_EXCEVTENA_Msk             (0x1UL << DWT_CTRL_EXCEVTENA_Pos)           /*!< DWT CTR
 956:Drivers/CMSIS/Include/core_cm4.h **** 
 957:Drivers/CMSIS/Include/core_cm4.h **** #define DWT_CTRL_CPIEVTENA_Pos             17U                                         /*!< DWT CTR
 958:Drivers/CMSIS/Include/core_cm4.h **** #define DWT_CTRL_CPIEVTENA_Msk             (0x1UL << DWT_CTRL_CPIEVTENA_Pos)           /*!< DWT CTR
 959:Drivers/CMSIS/Include/core_cm4.h **** 
 960:Drivers/CMSIS/Include/core_cm4.h **** #define DWT_CTRL_EXCTRCENA_Pos             16U                                         /*!< DWT CTR
 961:Drivers/CMSIS/Include/core_cm4.h **** #define DWT_CTRL_EXCTRCENA_Msk             (0x1UL << DWT_CTRL_EXCTRCENA_Pos)           /*!< DWT CTR
 962:Drivers/CMSIS/Include/core_cm4.h **** 
 963:Drivers/CMSIS/Include/core_cm4.h **** #define DWT_CTRL_PCSAMPLENA_Pos            12U                                         /*!< DWT CTR
 964:Drivers/CMSIS/Include/core_cm4.h **** #define DWT_CTRL_PCSAMPLENA_Msk            (0x1UL << DWT_CTRL_PCSAMPLENA_Pos)          /*!< DWT CTR
 965:Drivers/CMSIS/Include/core_cm4.h **** 
 966:Drivers/CMSIS/Include/core_cm4.h **** #define DWT_CTRL_SYNCTAP_Pos               10U                                         /*!< DWT CTR
 967:Drivers/CMSIS/Include/core_cm4.h **** #define DWT_CTRL_SYNCTAP_Msk               (0x3UL << DWT_CTRL_SYNCTAP_Pos)             /*!< DWT CTR
 968:Drivers/CMSIS/Include/core_cm4.h **** 
 969:Drivers/CMSIS/Include/core_cm4.h **** #define DWT_CTRL_CYCTAP_Pos                 9U                                         /*!< DWT CTR
 970:Drivers/CMSIS/Include/core_cm4.h **** #define DWT_CTRL_CYCTAP_Msk                (0x1UL << DWT_CTRL_CYCTAP_Pos)              /*!< DWT CTR
 971:Drivers/CMSIS/Include/core_cm4.h **** 
 972:Drivers/CMSIS/Include/core_cm4.h **** #define DWT_CTRL_POSTINIT_Pos               5U                                         /*!< DWT CTR
 973:Drivers/CMSIS/Include/core_cm4.h **** #define DWT_CTRL_POSTINIT_Msk              (0xFUL << DWT_CTRL_POSTINIT_Pos)            /*!< DWT CTR
 974:Drivers/CMSIS/Include/core_cm4.h **** 
 975:Drivers/CMSIS/Include/core_cm4.h **** #define DWT_CTRL_POSTPRESET_Pos             1U                                         /*!< DWT CTR
 976:Drivers/CMSIS/Include/core_cm4.h **** #define DWT_CTRL_POSTPRESET_Msk            (0xFUL << DWT_CTRL_POSTPRESET_Pos)          /*!< DWT CTR
 977:Drivers/CMSIS/Include/core_cm4.h **** 
 978:Drivers/CMSIS/Include/core_cm4.h **** #define DWT_CTRL_CYCCNTENA_Pos              0U                                         /*!< DWT CTR
 979:Drivers/CMSIS/Include/core_cm4.h **** #define DWT_CTRL_CYCCNTENA_Msk             (0x1UL /*<< DWT_CTRL_CYCCNTENA_Pos*/)       /*!< DWT CTR
 980:Drivers/CMSIS/Include/core_cm4.h **** 
 981:Drivers/CMSIS/Include/core_cm4.h **** /* DWT CPI Count Register Definitions */
 982:Drivers/CMSIS/Include/core_cm4.h **** #define DWT_CPICNT_CPICNT_Pos               0U                                         /*!< DWT CPI
 983:Drivers/CMSIS/Include/core_cm4.h **** #define DWT_CPICNT_CPICNT_Msk              (0xFFUL /*<< DWT_CPICNT_CPICNT_Pos*/)       /*!< DWT CPI
 984:Drivers/CMSIS/Include/core_cm4.h **** 
 985:Drivers/CMSIS/Include/core_cm4.h **** /* DWT Exception Overhead Count Register Definitions */
 986:Drivers/CMSIS/Include/core_cm4.h **** #define DWT_EXCCNT_EXCCNT_Pos               0U                                         /*!< DWT EXC
 987:Drivers/CMSIS/Include/core_cm4.h **** #define DWT_EXCCNT_EXCCNT_Msk              (0xFFUL /*<< DWT_EXCCNT_EXCCNT_Pos*/)       /*!< DWT EXC
 988:Drivers/CMSIS/Include/core_cm4.h **** 
 989:Drivers/CMSIS/Include/core_cm4.h **** /* DWT Sleep Count Register Definitions */
 990:Drivers/CMSIS/Include/core_cm4.h **** #define DWT_SLEEPCNT_SLEEPCNT_Pos           0U                                         /*!< DWT SLE
 991:Drivers/CMSIS/Include/core_cm4.h **** #define DWT_SLEEPCNT_SLEEPCNT_Msk          (0xFFUL /*<< DWT_SLEEPCNT_SLEEPCNT_Pos*/)   /*!< DWT SLE
 992:Drivers/CMSIS/Include/core_cm4.h **** 
 993:Drivers/CMSIS/Include/core_cm4.h **** /* DWT LSU Count Register Definitions */
 994:Drivers/CMSIS/Include/core_cm4.h **** #define DWT_LSUCNT_LSUCNT_Pos               0U                                         /*!< DWT LSU
 995:Drivers/CMSIS/Include/core_cm4.h **** #define DWT_LSUCNT_LSUCNT_Msk              (0xFFUL /*<< DWT_LSUCNT_LSUCNT_Pos*/)       /*!< DWT LSU
 996:Drivers/CMSIS/Include/core_cm4.h **** 
 997:Drivers/CMSIS/Include/core_cm4.h **** /* DWT Folded-instruction Count Register Definitions */
 998:Drivers/CMSIS/Include/core_cm4.h **** #define DWT_FOLDCNT_FOLDCNT_Pos             0U                                         /*!< DWT FOL
 999:Drivers/CMSIS/Include/core_cm4.h **** #define DWT_FOLDCNT_FOLDCNT_Msk            (0xFFUL /*<< DWT_FOLDCNT_FOLDCNT_Pos*/)     /*!< DWT FOL
1000:Drivers/CMSIS/Include/core_cm4.h **** 
1001:Drivers/CMSIS/Include/core_cm4.h **** /* DWT Comparator Mask Register Definitions */
1002:Drivers/CMSIS/Include/core_cm4.h **** #define DWT_MASK_MASK_Pos                   0U                                         /*!< DWT MAS
1003:Drivers/CMSIS/Include/core_cm4.h **** #define DWT_MASK_MASK_Msk                  (0x1FUL /*<< DWT_MASK_MASK_Pos*/)           /*!< DWT MAS
1004:Drivers/CMSIS/Include/core_cm4.h **** 
1005:Drivers/CMSIS/Include/core_cm4.h **** /* DWT Comparator Function Register Definitions */
1006:Drivers/CMSIS/Include/core_cm4.h **** #define DWT_FUNCTION_MATCHED_Pos           24U                                         /*!< DWT FUN
ARM GAS  /var/folders/80/65lm4rm97rv_n74c85vt01040000gn/T//ccnbidPO.s 			page 51


1007:Drivers/CMSIS/Include/core_cm4.h **** #define DWT_FUNCTION_MATCHED_Msk           (0x1UL << DWT_FUNCTION_MATCHED_Pos)         /*!< DWT FUN
1008:Drivers/CMSIS/Include/core_cm4.h **** 
1009:Drivers/CMSIS/Include/core_cm4.h **** #define DWT_FUNCTION_DATAVADDR1_Pos        16U                                         /*!< DWT FUN
1010:Drivers/CMSIS/Include/core_cm4.h **** #define DWT_FUNCTION_DATAVADDR1_Msk        (0xFUL << DWT_FUNCTION_DATAVADDR1_Pos)      /*!< DWT FUN
1011:Drivers/CMSIS/Include/core_cm4.h **** 
1012:Drivers/CMSIS/Include/core_cm4.h **** #define DWT_FUNCTION_DATAVADDR0_Pos        12U                                         /*!< DWT FUN
1013:Drivers/CMSIS/Include/core_cm4.h **** #define DWT_FUNCTION_DATAVADDR0_Msk        (0xFUL << DWT_FUNCTION_DATAVADDR0_Pos)      /*!< DWT FUN
1014:Drivers/CMSIS/Include/core_cm4.h **** 
1015:Drivers/CMSIS/Include/core_cm4.h **** #define DWT_FUNCTION_DATAVSIZE_Pos         10U                                         /*!< DWT FUN
1016:Drivers/CMSIS/Include/core_cm4.h **** #define DWT_FUNCTION_DATAVSIZE_Msk         (0x3UL << DWT_FUNCTION_DATAVSIZE_Pos)       /*!< DWT FUN
1017:Drivers/CMSIS/Include/core_cm4.h **** 
1018:Drivers/CMSIS/Include/core_cm4.h **** #define DWT_FUNCTION_LNK1ENA_Pos            9U                                         /*!< DWT FUN
1019:Drivers/CMSIS/Include/core_cm4.h **** #define DWT_FUNCTION_LNK1ENA_Msk           (0x1UL << DWT_FUNCTION_LNK1ENA_Pos)         /*!< DWT FUN
1020:Drivers/CMSIS/Include/core_cm4.h **** 
1021:Drivers/CMSIS/Include/core_cm4.h **** #define DWT_FUNCTION_DATAVMATCH_Pos         8U                                         /*!< DWT FUN
1022:Drivers/CMSIS/Include/core_cm4.h **** #define DWT_FUNCTION_DATAVMATCH_Msk        (0x1UL << DWT_FUNCTION_DATAVMATCH_Pos)      /*!< DWT FUN
1023:Drivers/CMSIS/Include/core_cm4.h **** 
1024:Drivers/CMSIS/Include/core_cm4.h **** #define DWT_FUNCTION_CYCMATCH_Pos           7U                                         /*!< DWT FUN
1025:Drivers/CMSIS/Include/core_cm4.h **** #define DWT_FUNCTION_CYCMATCH_Msk          (0x1UL << DWT_FUNCTION_CYCMATCH_Pos)        /*!< DWT FUN
1026:Drivers/CMSIS/Include/core_cm4.h **** 
1027:Drivers/CMSIS/Include/core_cm4.h **** #define DWT_FUNCTION_EMITRANGE_Pos          5U                                         /*!< DWT FUN
1028:Drivers/CMSIS/Include/core_cm4.h **** #define DWT_FUNCTION_EMITRANGE_Msk         (0x1UL << DWT_FUNCTION_EMITRANGE_Pos)       /*!< DWT FUN
1029:Drivers/CMSIS/Include/core_cm4.h **** 
1030:Drivers/CMSIS/Include/core_cm4.h **** #define DWT_FUNCTION_FUNCTION_Pos           0U                                         /*!< DWT FUN
1031:Drivers/CMSIS/Include/core_cm4.h **** #define DWT_FUNCTION_FUNCTION_Msk          (0xFUL /*<< DWT_FUNCTION_FUNCTION_Pos*/)    /*!< DWT FUN
1032:Drivers/CMSIS/Include/core_cm4.h **** 
1033:Drivers/CMSIS/Include/core_cm4.h **** /*@}*/ /* end of group CMSIS_DWT */
1034:Drivers/CMSIS/Include/core_cm4.h **** 
1035:Drivers/CMSIS/Include/core_cm4.h **** 
1036:Drivers/CMSIS/Include/core_cm4.h **** /**
1037:Drivers/CMSIS/Include/core_cm4.h ****   \ingroup  CMSIS_core_register
1038:Drivers/CMSIS/Include/core_cm4.h ****   \defgroup CMSIS_TPI     Trace Port Interface (TPI)
1039:Drivers/CMSIS/Include/core_cm4.h ****   \brief    Type definitions for the Trace Port Interface (TPI)
1040:Drivers/CMSIS/Include/core_cm4.h ****   @{
1041:Drivers/CMSIS/Include/core_cm4.h ****  */
1042:Drivers/CMSIS/Include/core_cm4.h **** 
1043:Drivers/CMSIS/Include/core_cm4.h **** /**
1044:Drivers/CMSIS/Include/core_cm4.h ****   \brief  Structure type to access the Trace Port Interface Register (TPI).
1045:Drivers/CMSIS/Include/core_cm4.h ****  */
1046:Drivers/CMSIS/Include/core_cm4.h **** typedef struct
1047:Drivers/CMSIS/Include/core_cm4.h **** {
1048:Drivers/CMSIS/Include/core_cm4.h ****   __IOM uint32_t SSPSR;                  /*!< Offset: 0x000 (R/ )  Supported Parallel Port Size Reg
1049:Drivers/CMSIS/Include/core_cm4.h ****   __IOM uint32_t CSPSR;                  /*!< Offset: 0x004 (R/W)  Current Parallel Port Size Regis
1050:Drivers/CMSIS/Include/core_cm4.h ****         uint32_t RESERVED0[2U];
1051:Drivers/CMSIS/Include/core_cm4.h ****   __IOM uint32_t ACPR;                   /*!< Offset: 0x010 (R/W)  Asynchronous Clock Prescaler Reg
1052:Drivers/CMSIS/Include/core_cm4.h ****         uint32_t RESERVED1[55U];
1053:Drivers/CMSIS/Include/core_cm4.h ****   __IOM uint32_t SPPR;                   /*!< Offset: 0x0F0 (R/W)  Selected Pin Protocol Register *
1054:Drivers/CMSIS/Include/core_cm4.h ****         uint32_t RESERVED2[131U];
1055:Drivers/CMSIS/Include/core_cm4.h ****   __IM  uint32_t FFSR;                   /*!< Offset: 0x300 (R/ )  Formatter and Flush Status Regis
1056:Drivers/CMSIS/Include/core_cm4.h ****   __IOM uint32_t FFCR;                   /*!< Offset: 0x304 (R/W)  Formatter and Flush Control Regi
1057:Drivers/CMSIS/Include/core_cm4.h ****   __IM  uint32_t FSCR;                   /*!< Offset: 0x308 (R/ )  Formatter Synchronization Counte
1058:Drivers/CMSIS/Include/core_cm4.h ****         uint32_t RESERVED3[759U];
1059:Drivers/CMSIS/Include/core_cm4.h ****   __IM  uint32_t TRIGGER;                /*!< Offset: 0xEE8 (R/ )  TRIGGER */
1060:Drivers/CMSIS/Include/core_cm4.h ****   __IM  uint32_t FIFO0;                  /*!< Offset: 0xEEC (R/ )  Integration ETM Data */
1061:Drivers/CMSIS/Include/core_cm4.h ****   __IM  uint32_t ITATBCTR2;              /*!< Offset: 0xEF0 (R/ )  ITATBCTR2 */
1062:Drivers/CMSIS/Include/core_cm4.h ****         uint32_t RESERVED4[1U];
1063:Drivers/CMSIS/Include/core_cm4.h ****   __IM  uint32_t ITATBCTR0;              /*!< Offset: 0xEF8 (R/ )  ITATBCTR0 */
ARM GAS  /var/folders/80/65lm4rm97rv_n74c85vt01040000gn/T//ccnbidPO.s 			page 52


1064:Drivers/CMSIS/Include/core_cm4.h ****   __IM  uint32_t FIFO1;                  /*!< Offset: 0xEFC (R/ )  Integration ITM Data */
1065:Drivers/CMSIS/Include/core_cm4.h ****   __IOM uint32_t ITCTRL;                 /*!< Offset: 0xF00 (R/W)  Integration Mode Control */
1066:Drivers/CMSIS/Include/core_cm4.h ****         uint32_t RESERVED5[39U];
1067:Drivers/CMSIS/Include/core_cm4.h ****   __IOM uint32_t CLAIMSET;               /*!< Offset: 0xFA0 (R/W)  Claim tag set */
1068:Drivers/CMSIS/Include/core_cm4.h ****   __IOM uint32_t CLAIMCLR;               /*!< Offset: 0xFA4 (R/W)  Claim tag clear */
1069:Drivers/CMSIS/Include/core_cm4.h ****         uint32_t RESERVED7[8U];
1070:Drivers/CMSIS/Include/core_cm4.h ****   __IM  uint32_t DEVID;                  /*!< Offset: 0xFC8 (R/ )  TPIU_DEVID */
1071:Drivers/CMSIS/Include/core_cm4.h ****   __IM  uint32_t DEVTYPE;                /*!< Offset: 0xFCC (R/ )  TPIU_DEVTYPE */
1072:Drivers/CMSIS/Include/core_cm4.h **** } TPI_Type;
1073:Drivers/CMSIS/Include/core_cm4.h **** 
1074:Drivers/CMSIS/Include/core_cm4.h **** /* TPI Asynchronous Clock Prescaler Register Definitions */
1075:Drivers/CMSIS/Include/core_cm4.h **** #define TPI_ACPR_PRESCALER_Pos              0U                                         /*!< TPI ACP
1076:Drivers/CMSIS/Include/core_cm4.h **** #define TPI_ACPR_PRESCALER_Msk             (0x1FFFUL /*<< TPI_ACPR_PRESCALER_Pos*/)    /*!< TPI ACP
1077:Drivers/CMSIS/Include/core_cm4.h **** 
1078:Drivers/CMSIS/Include/core_cm4.h **** /* TPI Selected Pin Protocol Register Definitions */
1079:Drivers/CMSIS/Include/core_cm4.h **** #define TPI_SPPR_TXMODE_Pos                 0U                                         /*!< TPI SPP
1080:Drivers/CMSIS/Include/core_cm4.h **** #define TPI_SPPR_TXMODE_Msk                (0x3UL /*<< TPI_SPPR_TXMODE_Pos*/)          /*!< TPI SPP
1081:Drivers/CMSIS/Include/core_cm4.h **** 
1082:Drivers/CMSIS/Include/core_cm4.h **** /* TPI Formatter and Flush Status Register Definitions */
1083:Drivers/CMSIS/Include/core_cm4.h **** #define TPI_FFSR_FtNonStop_Pos              3U                                         /*!< TPI FFS
1084:Drivers/CMSIS/Include/core_cm4.h **** #define TPI_FFSR_FtNonStop_Msk             (0x1UL << TPI_FFSR_FtNonStop_Pos)           /*!< TPI FFS
1085:Drivers/CMSIS/Include/core_cm4.h **** 
1086:Drivers/CMSIS/Include/core_cm4.h **** #define TPI_FFSR_TCPresent_Pos              2U                                         /*!< TPI FFS
1087:Drivers/CMSIS/Include/core_cm4.h **** #define TPI_FFSR_TCPresent_Msk             (0x1UL << TPI_FFSR_TCPresent_Pos)           /*!< TPI FFS
1088:Drivers/CMSIS/Include/core_cm4.h **** 
1089:Drivers/CMSIS/Include/core_cm4.h **** #define TPI_FFSR_FtStopped_Pos              1U                                         /*!< TPI FFS
1090:Drivers/CMSIS/Include/core_cm4.h **** #define TPI_FFSR_FtStopped_Msk             (0x1UL << TPI_FFSR_FtStopped_Pos)           /*!< TPI FFS
1091:Drivers/CMSIS/Include/core_cm4.h **** 
1092:Drivers/CMSIS/Include/core_cm4.h **** #define TPI_FFSR_FlInProg_Pos               0U                                         /*!< TPI FFS
1093:Drivers/CMSIS/Include/core_cm4.h **** #define TPI_FFSR_FlInProg_Msk              (0x1UL /*<< TPI_FFSR_FlInProg_Pos*/)        /*!< TPI FFS
1094:Drivers/CMSIS/Include/core_cm4.h **** 
1095:Drivers/CMSIS/Include/core_cm4.h **** /* TPI Formatter and Flush Control Register Definitions */
1096:Drivers/CMSIS/Include/core_cm4.h **** #define TPI_FFCR_TrigIn_Pos                 8U                                         /*!< TPI FFC
1097:Drivers/CMSIS/Include/core_cm4.h **** #define TPI_FFCR_TrigIn_Msk                (0x1UL << TPI_FFCR_TrigIn_Pos)              /*!< TPI FFC
1098:Drivers/CMSIS/Include/core_cm4.h **** 
1099:Drivers/CMSIS/Include/core_cm4.h **** #define TPI_FFCR_EnFCont_Pos                1U                                         /*!< TPI FFC
1100:Drivers/CMSIS/Include/core_cm4.h **** #define TPI_FFCR_EnFCont_Msk               (0x1UL << TPI_FFCR_EnFCont_Pos)             /*!< TPI FFC
1101:Drivers/CMSIS/Include/core_cm4.h **** 
1102:Drivers/CMSIS/Include/core_cm4.h **** /* TPI TRIGGER Register Definitions */
1103:Drivers/CMSIS/Include/core_cm4.h **** #define TPI_TRIGGER_TRIGGER_Pos             0U                                         /*!< TPI TRI
1104:Drivers/CMSIS/Include/core_cm4.h **** #define TPI_TRIGGER_TRIGGER_Msk            (0x1UL /*<< TPI_TRIGGER_TRIGGER_Pos*/)      /*!< TPI TRI
1105:Drivers/CMSIS/Include/core_cm4.h **** 
1106:Drivers/CMSIS/Include/core_cm4.h **** /* TPI Integration ETM Data Register Definitions (FIFO0) */
1107:Drivers/CMSIS/Include/core_cm4.h **** #define TPI_FIFO0_ITM_ATVALID_Pos          29U                                         /*!< TPI FIF
1108:Drivers/CMSIS/Include/core_cm4.h **** #define TPI_FIFO0_ITM_ATVALID_Msk          (0x3UL << TPI_FIFO0_ITM_ATVALID_Pos)        /*!< TPI FIF
1109:Drivers/CMSIS/Include/core_cm4.h **** 
1110:Drivers/CMSIS/Include/core_cm4.h **** #define TPI_FIFO0_ITM_bytecount_Pos        27U                                         /*!< TPI FIF
1111:Drivers/CMSIS/Include/core_cm4.h **** #define TPI_FIFO0_ITM_bytecount_Msk        (0x3UL << TPI_FIFO0_ITM_bytecount_Pos)      /*!< TPI FIF
1112:Drivers/CMSIS/Include/core_cm4.h **** 
1113:Drivers/CMSIS/Include/core_cm4.h **** #define TPI_FIFO0_ETM_ATVALID_Pos          26U                                         /*!< TPI FIF
1114:Drivers/CMSIS/Include/core_cm4.h **** #define TPI_FIFO0_ETM_ATVALID_Msk          (0x3UL << TPI_FIFO0_ETM_ATVALID_Pos)        /*!< TPI FIF
1115:Drivers/CMSIS/Include/core_cm4.h **** 
1116:Drivers/CMSIS/Include/core_cm4.h **** #define TPI_FIFO0_ETM_bytecount_Pos        24U                                         /*!< TPI FIF
1117:Drivers/CMSIS/Include/core_cm4.h **** #define TPI_FIFO0_ETM_bytecount_Msk        (0x3UL << TPI_FIFO0_ETM_bytecount_Pos)      /*!< TPI FIF
1118:Drivers/CMSIS/Include/core_cm4.h **** 
1119:Drivers/CMSIS/Include/core_cm4.h **** #define TPI_FIFO0_ETM2_Pos                 16U                                         /*!< TPI FIF
1120:Drivers/CMSIS/Include/core_cm4.h **** #define TPI_FIFO0_ETM2_Msk                 (0xFFUL << TPI_FIFO0_ETM2_Pos)              /*!< TPI FIF
ARM GAS  /var/folders/80/65lm4rm97rv_n74c85vt01040000gn/T//ccnbidPO.s 			page 53


1121:Drivers/CMSIS/Include/core_cm4.h **** 
1122:Drivers/CMSIS/Include/core_cm4.h **** #define TPI_FIFO0_ETM1_Pos                  8U                                         /*!< TPI FIF
1123:Drivers/CMSIS/Include/core_cm4.h **** #define TPI_FIFO0_ETM1_Msk                 (0xFFUL << TPI_FIFO0_ETM1_Pos)              /*!< TPI FIF
1124:Drivers/CMSIS/Include/core_cm4.h **** 
1125:Drivers/CMSIS/Include/core_cm4.h **** #define TPI_FIFO0_ETM0_Pos                  0U                                         /*!< TPI FIF
1126:Drivers/CMSIS/Include/core_cm4.h **** #define TPI_FIFO0_ETM0_Msk                 (0xFFUL /*<< TPI_FIFO0_ETM0_Pos*/)          /*!< TPI FIF
1127:Drivers/CMSIS/Include/core_cm4.h **** 
1128:Drivers/CMSIS/Include/core_cm4.h **** /* TPI ITATBCTR2 Register Definitions */
1129:Drivers/CMSIS/Include/core_cm4.h **** #define TPI_ITATBCTR2_ATREADY_Pos           0U                                         /*!< TPI ITA
1130:Drivers/CMSIS/Include/core_cm4.h **** #define TPI_ITATBCTR2_ATREADY_Msk          (0x1UL /*<< TPI_ITATBCTR2_ATREADY_Pos*/)    /*!< TPI ITA
1131:Drivers/CMSIS/Include/core_cm4.h **** 
1132:Drivers/CMSIS/Include/core_cm4.h **** /* TPI Integration ITM Data Register Definitions (FIFO1) */
1133:Drivers/CMSIS/Include/core_cm4.h **** #define TPI_FIFO1_ITM_ATVALID_Pos          29U                                         /*!< TPI FIF
1134:Drivers/CMSIS/Include/core_cm4.h **** #define TPI_FIFO1_ITM_ATVALID_Msk          (0x3UL << TPI_FIFO1_ITM_ATVALID_Pos)        /*!< TPI FIF
1135:Drivers/CMSIS/Include/core_cm4.h **** 
1136:Drivers/CMSIS/Include/core_cm4.h **** #define TPI_FIFO1_ITM_bytecount_Pos        27U                                         /*!< TPI FIF
1137:Drivers/CMSIS/Include/core_cm4.h **** #define TPI_FIFO1_ITM_bytecount_Msk        (0x3UL << TPI_FIFO1_ITM_bytecount_Pos)      /*!< TPI FIF
1138:Drivers/CMSIS/Include/core_cm4.h **** 
1139:Drivers/CMSIS/Include/core_cm4.h **** #define TPI_FIFO1_ETM_ATVALID_Pos          26U                                         /*!< TPI FIF
1140:Drivers/CMSIS/Include/core_cm4.h **** #define TPI_FIFO1_ETM_ATVALID_Msk          (0x3UL << TPI_FIFO1_ETM_ATVALID_Pos)        /*!< TPI FIF
1141:Drivers/CMSIS/Include/core_cm4.h **** 
1142:Drivers/CMSIS/Include/core_cm4.h **** #define TPI_FIFO1_ETM_bytecount_Pos        24U                                         /*!< TPI FIF
1143:Drivers/CMSIS/Include/core_cm4.h **** #define TPI_FIFO1_ETM_bytecount_Msk        (0x3UL << TPI_FIFO1_ETM_bytecount_Pos)      /*!< TPI FIF
1144:Drivers/CMSIS/Include/core_cm4.h **** 
1145:Drivers/CMSIS/Include/core_cm4.h **** #define TPI_FIFO1_ITM2_Pos                 16U                                         /*!< TPI FIF
1146:Drivers/CMSIS/Include/core_cm4.h **** #define TPI_FIFO1_ITM2_Msk                 (0xFFUL << TPI_FIFO1_ITM2_Pos)              /*!< TPI FIF
1147:Drivers/CMSIS/Include/core_cm4.h **** 
1148:Drivers/CMSIS/Include/core_cm4.h **** #define TPI_FIFO1_ITM1_Pos                  8U                                         /*!< TPI FIF
1149:Drivers/CMSIS/Include/core_cm4.h **** #define TPI_FIFO1_ITM1_Msk                 (0xFFUL << TPI_FIFO1_ITM1_Pos)              /*!< TPI FIF
1150:Drivers/CMSIS/Include/core_cm4.h **** 
1151:Drivers/CMSIS/Include/core_cm4.h **** #define TPI_FIFO1_ITM0_Pos                  0U                                         /*!< TPI FIF
1152:Drivers/CMSIS/Include/core_cm4.h **** #define TPI_FIFO1_ITM0_Msk                 (0xFFUL /*<< TPI_FIFO1_ITM0_Pos*/)          /*!< TPI FIF
1153:Drivers/CMSIS/Include/core_cm4.h **** 
1154:Drivers/CMSIS/Include/core_cm4.h **** /* TPI ITATBCTR0 Register Definitions */
1155:Drivers/CMSIS/Include/core_cm4.h **** #define TPI_ITATBCTR0_ATREADY_Pos           0U                                         /*!< TPI ITA
1156:Drivers/CMSIS/Include/core_cm4.h **** #define TPI_ITATBCTR0_ATREADY_Msk          (0x1UL /*<< TPI_ITATBCTR0_ATREADY_Pos*/)    /*!< TPI ITA
1157:Drivers/CMSIS/Include/core_cm4.h **** 
1158:Drivers/CMSIS/Include/core_cm4.h **** /* TPI Integration Mode Control Register Definitions */
1159:Drivers/CMSIS/Include/core_cm4.h **** #define TPI_ITCTRL_Mode_Pos                 0U                                         /*!< TPI ITC
1160:Drivers/CMSIS/Include/core_cm4.h **** #define TPI_ITCTRL_Mode_Msk                (0x1UL /*<< TPI_ITCTRL_Mode_Pos*/)          /*!< TPI ITC
1161:Drivers/CMSIS/Include/core_cm4.h **** 
1162:Drivers/CMSIS/Include/core_cm4.h **** /* TPI DEVID Register Definitions */
1163:Drivers/CMSIS/Include/core_cm4.h **** #define TPI_DEVID_NRZVALID_Pos             11U                                         /*!< TPI DEV
1164:Drivers/CMSIS/Include/core_cm4.h **** #define TPI_DEVID_NRZVALID_Msk             (0x1UL << TPI_DEVID_NRZVALID_Pos)           /*!< TPI DEV
1165:Drivers/CMSIS/Include/core_cm4.h **** 
1166:Drivers/CMSIS/Include/core_cm4.h **** #define TPI_DEVID_MANCVALID_Pos            10U                                         /*!< TPI DEV
1167:Drivers/CMSIS/Include/core_cm4.h **** #define TPI_DEVID_MANCVALID_Msk            (0x1UL << TPI_DEVID_MANCVALID_Pos)          /*!< TPI DEV
1168:Drivers/CMSIS/Include/core_cm4.h **** 
1169:Drivers/CMSIS/Include/core_cm4.h **** #define TPI_DEVID_PTINVALID_Pos             9U                                         /*!< TPI DEV
1170:Drivers/CMSIS/Include/core_cm4.h **** #define TPI_DEVID_PTINVALID_Msk            (0x1UL << TPI_DEVID_PTINVALID_Pos)          /*!< TPI DEV
1171:Drivers/CMSIS/Include/core_cm4.h **** 
1172:Drivers/CMSIS/Include/core_cm4.h **** #define TPI_DEVID_MinBufSz_Pos              6U                                         /*!< TPI DEV
1173:Drivers/CMSIS/Include/core_cm4.h **** #define TPI_DEVID_MinBufSz_Msk             (0x7UL << TPI_DEVID_MinBufSz_Pos)           /*!< TPI DEV
1174:Drivers/CMSIS/Include/core_cm4.h **** 
1175:Drivers/CMSIS/Include/core_cm4.h **** #define TPI_DEVID_AsynClkIn_Pos             5U                                         /*!< TPI DEV
1176:Drivers/CMSIS/Include/core_cm4.h **** #define TPI_DEVID_AsynClkIn_Msk            (0x1UL << TPI_DEVID_AsynClkIn_Pos)          /*!< TPI DEV
1177:Drivers/CMSIS/Include/core_cm4.h **** 
ARM GAS  /var/folders/80/65lm4rm97rv_n74c85vt01040000gn/T//ccnbidPO.s 			page 54


1178:Drivers/CMSIS/Include/core_cm4.h **** #define TPI_DEVID_NrTraceInput_Pos          0U                                         /*!< TPI DEV
1179:Drivers/CMSIS/Include/core_cm4.h **** #define TPI_DEVID_NrTraceInput_Msk         (0x1FUL /*<< TPI_DEVID_NrTraceInput_Pos*/)  /*!< TPI DEV
1180:Drivers/CMSIS/Include/core_cm4.h **** 
1181:Drivers/CMSIS/Include/core_cm4.h **** /* TPI DEVTYPE Register Definitions */
1182:Drivers/CMSIS/Include/core_cm4.h **** #define TPI_DEVTYPE_MajorType_Pos           4U                                         /*!< TPI DEV
1183:Drivers/CMSIS/Include/core_cm4.h **** #define TPI_DEVTYPE_MajorType_Msk          (0xFUL << TPI_DEVTYPE_MajorType_Pos)        /*!< TPI DEV
1184:Drivers/CMSIS/Include/core_cm4.h **** 
1185:Drivers/CMSIS/Include/core_cm4.h **** #define TPI_DEVTYPE_SubType_Pos             0U                                         /*!< TPI DEV
1186:Drivers/CMSIS/Include/core_cm4.h **** #define TPI_DEVTYPE_SubType_Msk            (0xFUL /*<< TPI_DEVTYPE_SubType_Pos*/)      /*!< TPI DEV
1187:Drivers/CMSIS/Include/core_cm4.h **** 
1188:Drivers/CMSIS/Include/core_cm4.h **** /*@}*/ /* end of group CMSIS_TPI */
1189:Drivers/CMSIS/Include/core_cm4.h **** 
1190:Drivers/CMSIS/Include/core_cm4.h **** 
1191:Drivers/CMSIS/Include/core_cm4.h **** #if (__MPU_PRESENT == 1U)
1192:Drivers/CMSIS/Include/core_cm4.h **** /**
1193:Drivers/CMSIS/Include/core_cm4.h ****   \ingroup  CMSIS_core_register
1194:Drivers/CMSIS/Include/core_cm4.h ****   \defgroup CMSIS_MPU     Memory Protection Unit (MPU)
1195:Drivers/CMSIS/Include/core_cm4.h ****   \brief    Type definitions for the Memory Protection Unit (MPU)
1196:Drivers/CMSIS/Include/core_cm4.h ****   @{
1197:Drivers/CMSIS/Include/core_cm4.h ****  */
1198:Drivers/CMSIS/Include/core_cm4.h **** 
1199:Drivers/CMSIS/Include/core_cm4.h **** /**
1200:Drivers/CMSIS/Include/core_cm4.h ****   \brief  Structure type to access the Memory Protection Unit (MPU).
1201:Drivers/CMSIS/Include/core_cm4.h ****  */
1202:Drivers/CMSIS/Include/core_cm4.h **** typedef struct
1203:Drivers/CMSIS/Include/core_cm4.h **** {
1204:Drivers/CMSIS/Include/core_cm4.h ****   __IM  uint32_t TYPE;                   /*!< Offset: 0x000 (R/ )  MPU Type Register */
1205:Drivers/CMSIS/Include/core_cm4.h ****   __IOM uint32_t CTRL;                   /*!< Offset: 0x004 (R/W)  MPU Control Register */
1206:Drivers/CMSIS/Include/core_cm4.h ****   __IOM uint32_t RNR;                    /*!< Offset: 0x008 (R/W)  MPU Region RNRber Register */
1207:Drivers/CMSIS/Include/core_cm4.h ****   __IOM uint32_t RBAR;                   /*!< Offset: 0x00C (R/W)  MPU Region Base Address Register
1208:Drivers/CMSIS/Include/core_cm4.h ****   __IOM uint32_t RASR;                   /*!< Offset: 0x010 (R/W)  MPU Region Attribute and Size Re
1209:Drivers/CMSIS/Include/core_cm4.h ****   __IOM uint32_t RBAR_A1;                /*!< Offset: 0x014 (R/W)  MPU Alias 1 Region Base Address 
1210:Drivers/CMSIS/Include/core_cm4.h ****   __IOM uint32_t RASR_A1;                /*!< Offset: 0x018 (R/W)  MPU Alias 1 Region Attribute and
1211:Drivers/CMSIS/Include/core_cm4.h ****   __IOM uint32_t RBAR_A2;                /*!< Offset: 0x01C (R/W)  MPU Alias 2 Region Base Address 
1212:Drivers/CMSIS/Include/core_cm4.h ****   __IOM uint32_t RASR_A2;                /*!< Offset: 0x020 (R/W)  MPU Alias 2 Region Attribute and
1213:Drivers/CMSIS/Include/core_cm4.h ****   __IOM uint32_t RBAR_A3;                /*!< Offset: 0x024 (R/W)  MPU Alias 3 Region Base Address 
1214:Drivers/CMSIS/Include/core_cm4.h ****   __IOM uint32_t RASR_A3;                /*!< Offset: 0x028 (R/W)  MPU Alias 3 Region Attribute and
1215:Drivers/CMSIS/Include/core_cm4.h **** } MPU_Type;
1216:Drivers/CMSIS/Include/core_cm4.h **** 
1217:Drivers/CMSIS/Include/core_cm4.h **** /* MPU Type Register Definitions */
1218:Drivers/CMSIS/Include/core_cm4.h **** #define MPU_TYPE_IREGION_Pos               16U                                            /*!< MPU 
1219:Drivers/CMSIS/Include/core_cm4.h **** #define MPU_TYPE_IREGION_Msk               (0xFFUL << MPU_TYPE_IREGION_Pos)               /*!< MPU 
1220:Drivers/CMSIS/Include/core_cm4.h **** 
1221:Drivers/CMSIS/Include/core_cm4.h **** #define MPU_TYPE_DREGION_Pos                8U                                            /*!< MPU 
1222:Drivers/CMSIS/Include/core_cm4.h **** #define MPU_TYPE_DREGION_Msk               (0xFFUL << MPU_TYPE_DREGION_Pos)               /*!< MPU 
1223:Drivers/CMSIS/Include/core_cm4.h **** 
1224:Drivers/CMSIS/Include/core_cm4.h **** #define MPU_TYPE_SEPARATE_Pos               0U                                            /*!< MPU 
1225:Drivers/CMSIS/Include/core_cm4.h **** #define MPU_TYPE_SEPARATE_Msk              (1UL /*<< MPU_TYPE_SEPARATE_Pos*/)             /*!< MPU 
1226:Drivers/CMSIS/Include/core_cm4.h **** 
1227:Drivers/CMSIS/Include/core_cm4.h **** /* MPU Control Register Definitions */
1228:Drivers/CMSIS/Include/core_cm4.h **** #define MPU_CTRL_PRIVDEFENA_Pos             2U                                            /*!< MPU 
1229:Drivers/CMSIS/Include/core_cm4.h **** #define MPU_CTRL_PRIVDEFENA_Msk            (1UL << MPU_CTRL_PRIVDEFENA_Pos)               /*!< MPU 
1230:Drivers/CMSIS/Include/core_cm4.h **** 
1231:Drivers/CMSIS/Include/core_cm4.h **** #define MPU_CTRL_HFNMIENA_Pos               1U                                            /*!< MPU 
1232:Drivers/CMSIS/Include/core_cm4.h **** #define MPU_CTRL_HFNMIENA_Msk              (1UL << MPU_CTRL_HFNMIENA_Pos)                 /*!< MPU 
1233:Drivers/CMSIS/Include/core_cm4.h **** 
1234:Drivers/CMSIS/Include/core_cm4.h **** #define MPU_CTRL_ENABLE_Pos                 0U                                            /*!< MPU 
ARM GAS  /var/folders/80/65lm4rm97rv_n74c85vt01040000gn/T//ccnbidPO.s 			page 55


1235:Drivers/CMSIS/Include/core_cm4.h **** #define MPU_CTRL_ENABLE_Msk                (1UL /*<< MPU_CTRL_ENABLE_Pos*/)               /*!< MPU 
1236:Drivers/CMSIS/Include/core_cm4.h **** 
1237:Drivers/CMSIS/Include/core_cm4.h **** /* MPU Region Number Register Definitions */
1238:Drivers/CMSIS/Include/core_cm4.h **** #define MPU_RNR_REGION_Pos                  0U                                            /*!< MPU 
1239:Drivers/CMSIS/Include/core_cm4.h **** #define MPU_RNR_REGION_Msk                 (0xFFUL /*<< MPU_RNR_REGION_Pos*/)             /*!< MPU 
1240:Drivers/CMSIS/Include/core_cm4.h **** 
1241:Drivers/CMSIS/Include/core_cm4.h **** /* MPU Region Base Address Register Definitions */
1242:Drivers/CMSIS/Include/core_cm4.h **** #define MPU_RBAR_ADDR_Pos                   5U                                            /*!< MPU 
1243:Drivers/CMSIS/Include/core_cm4.h **** #define MPU_RBAR_ADDR_Msk                  (0x7FFFFFFUL << MPU_RBAR_ADDR_Pos)             /*!< MPU 
1244:Drivers/CMSIS/Include/core_cm4.h **** 
1245:Drivers/CMSIS/Include/core_cm4.h **** #define MPU_RBAR_VALID_Pos                  4U                                            /*!< MPU 
1246:Drivers/CMSIS/Include/core_cm4.h **** #define MPU_RBAR_VALID_Msk                 (1UL << MPU_RBAR_VALID_Pos)                    /*!< MPU 
1247:Drivers/CMSIS/Include/core_cm4.h **** 
1248:Drivers/CMSIS/Include/core_cm4.h **** #define MPU_RBAR_REGION_Pos                 0U                                            /*!< MPU 
1249:Drivers/CMSIS/Include/core_cm4.h **** #define MPU_RBAR_REGION_Msk                (0xFUL /*<< MPU_RBAR_REGION_Pos*/)             /*!< MPU 
1250:Drivers/CMSIS/Include/core_cm4.h **** 
1251:Drivers/CMSIS/Include/core_cm4.h **** /* MPU Region Attribute and Size Register Definitions */
1252:Drivers/CMSIS/Include/core_cm4.h **** #define MPU_RASR_ATTRS_Pos                 16U                                            /*!< MPU 
1253:Drivers/CMSIS/Include/core_cm4.h **** #define MPU_RASR_ATTRS_Msk                 (0xFFFFUL << MPU_RASR_ATTRS_Pos)               /*!< MPU 
1254:Drivers/CMSIS/Include/core_cm4.h **** 
1255:Drivers/CMSIS/Include/core_cm4.h **** #define MPU_RASR_XN_Pos                    28U                                            /*!< MPU 
1256:Drivers/CMSIS/Include/core_cm4.h **** #define MPU_RASR_XN_Msk                    (1UL << MPU_RASR_XN_Pos)                       /*!< MPU 
1257:Drivers/CMSIS/Include/core_cm4.h **** 
1258:Drivers/CMSIS/Include/core_cm4.h **** #define MPU_RASR_AP_Pos                    24U                                            /*!< MPU 
1259:Drivers/CMSIS/Include/core_cm4.h **** #define MPU_RASR_AP_Msk                    (0x7UL << MPU_RASR_AP_Pos)                     /*!< MPU 
1260:Drivers/CMSIS/Include/core_cm4.h **** 
1261:Drivers/CMSIS/Include/core_cm4.h **** #define MPU_RASR_TEX_Pos                   19U                                            /*!< MPU 
1262:Drivers/CMSIS/Include/core_cm4.h **** #define MPU_RASR_TEX_Msk                   (0x7UL << MPU_RASR_TEX_Pos)                    /*!< MPU 
1263:Drivers/CMSIS/Include/core_cm4.h **** 
1264:Drivers/CMSIS/Include/core_cm4.h **** #define MPU_RASR_S_Pos                     18U                                            /*!< MPU 
1265:Drivers/CMSIS/Include/core_cm4.h **** #define MPU_RASR_S_Msk                     (1UL << MPU_RASR_S_Pos)                        /*!< MPU 
1266:Drivers/CMSIS/Include/core_cm4.h **** 
1267:Drivers/CMSIS/Include/core_cm4.h **** #define MPU_RASR_C_Pos                     17U                                            /*!< MPU 
1268:Drivers/CMSIS/Include/core_cm4.h **** #define MPU_RASR_C_Msk                     (1UL << MPU_RASR_C_Pos)                        /*!< MPU 
1269:Drivers/CMSIS/Include/core_cm4.h **** 
1270:Drivers/CMSIS/Include/core_cm4.h **** #define MPU_RASR_B_Pos                     16U                                            /*!< MPU 
1271:Drivers/CMSIS/Include/core_cm4.h **** #define MPU_RASR_B_Msk                     (1UL << MPU_RASR_B_Pos)                        /*!< MPU 
1272:Drivers/CMSIS/Include/core_cm4.h **** 
1273:Drivers/CMSIS/Include/core_cm4.h **** #define MPU_RASR_SRD_Pos                    8U                                            /*!< MPU 
1274:Drivers/CMSIS/Include/core_cm4.h **** #define MPU_RASR_SRD_Msk                   (0xFFUL << MPU_RASR_SRD_Pos)                   /*!< MPU 
1275:Drivers/CMSIS/Include/core_cm4.h **** 
1276:Drivers/CMSIS/Include/core_cm4.h **** #define MPU_RASR_SIZE_Pos                   1U                                            /*!< MPU 
1277:Drivers/CMSIS/Include/core_cm4.h **** #define MPU_RASR_SIZE_Msk                  (0x1FUL << MPU_RASR_SIZE_Pos)                  /*!< MPU 
1278:Drivers/CMSIS/Include/core_cm4.h **** 
1279:Drivers/CMSIS/Include/core_cm4.h **** #define MPU_RASR_ENABLE_Pos                 0U                                            /*!< MPU 
1280:Drivers/CMSIS/Include/core_cm4.h **** #define MPU_RASR_ENABLE_Msk                (1UL /*<< MPU_RASR_ENABLE_Pos*/)               /*!< MPU 
1281:Drivers/CMSIS/Include/core_cm4.h **** 
1282:Drivers/CMSIS/Include/core_cm4.h **** /*@} end of group CMSIS_MPU */
1283:Drivers/CMSIS/Include/core_cm4.h **** #endif
1284:Drivers/CMSIS/Include/core_cm4.h **** 
1285:Drivers/CMSIS/Include/core_cm4.h **** 
1286:Drivers/CMSIS/Include/core_cm4.h **** #if (__FPU_PRESENT == 1U)
1287:Drivers/CMSIS/Include/core_cm4.h **** /**
1288:Drivers/CMSIS/Include/core_cm4.h ****   \ingroup  CMSIS_core_register
1289:Drivers/CMSIS/Include/core_cm4.h ****   \defgroup CMSIS_FPU     Floating Point Unit (FPU)
1290:Drivers/CMSIS/Include/core_cm4.h ****   \brief    Type definitions for the Floating Point Unit (FPU)
1291:Drivers/CMSIS/Include/core_cm4.h ****   @{
ARM GAS  /var/folders/80/65lm4rm97rv_n74c85vt01040000gn/T//ccnbidPO.s 			page 56


1292:Drivers/CMSIS/Include/core_cm4.h ****  */
1293:Drivers/CMSIS/Include/core_cm4.h **** 
1294:Drivers/CMSIS/Include/core_cm4.h **** /**
1295:Drivers/CMSIS/Include/core_cm4.h ****   \brief  Structure type to access the Floating Point Unit (FPU).
1296:Drivers/CMSIS/Include/core_cm4.h ****  */
1297:Drivers/CMSIS/Include/core_cm4.h **** typedef struct
1298:Drivers/CMSIS/Include/core_cm4.h **** {
1299:Drivers/CMSIS/Include/core_cm4.h ****         uint32_t RESERVED0[1U];
1300:Drivers/CMSIS/Include/core_cm4.h ****   __IOM uint32_t FPCCR;                  /*!< Offset: 0x004 (R/W)  Floating-Point Context Control R
1301:Drivers/CMSIS/Include/core_cm4.h ****   __IOM uint32_t FPCAR;                  /*!< Offset: 0x008 (R/W)  Floating-Point Context Address R
1302:Drivers/CMSIS/Include/core_cm4.h ****   __IOM uint32_t FPDSCR;                 /*!< Offset: 0x00C (R/W)  Floating-Point Default Status Co
1303:Drivers/CMSIS/Include/core_cm4.h ****   __IM  uint32_t MVFR0;                  /*!< Offset: 0x010 (R/ )  Media and FP Feature Register 0 
1304:Drivers/CMSIS/Include/core_cm4.h ****   __IM  uint32_t MVFR1;                  /*!< Offset: 0x014 (R/ )  Media and FP Feature Register 1 
1305:Drivers/CMSIS/Include/core_cm4.h **** } FPU_Type;
1306:Drivers/CMSIS/Include/core_cm4.h **** 
1307:Drivers/CMSIS/Include/core_cm4.h **** /* Floating-Point Context Control Register Definitions */
1308:Drivers/CMSIS/Include/core_cm4.h **** #define FPU_FPCCR_ASPEN_Pos                31U                                            /*!< FPCC
1309:Drivers/CMSIS/Include/core_cm4.h **** #define FPU_FPCCR_ASPEN_Msk                (1UL << FPU_FPCCR_ASPEN_Pos)                   /*!< FPCC
1310:Drivers/CMSIS/Include/core_cm4.h **** 
1311:Drivers/CMSIS/Include/core_cm4.h **** #define FPU_FPCCR_LSPEN_Pos                30U                                            /*!< FPCC
1312:Drivers/CMSIS/Include/core_cm4.h **** #define FPU_FPCCR_LSPEN_Msk                (1UL << FPU_FPCCR_LSPEN_Pos)                   /*!< FPCC
1313:Drivers/CMSIS/Include/core_cm4.h **** 
1314:Drivers/CMSIS/Include/core_cm4.h **** #define FPU_FPCCR_MONRDY_Pos                8U                                            /*!< FPCC
1315:Drivers/CMSIS/Include/core_cm4.h **** #define FPU_FPCCR_MONRDY_Msk               (1UL << FPU_FPCCR_MONRDY_Pos)                  /*!< FPCC
1316:Drivers/CMSIS/Include/core_cm4.h **** 
1317:Drivers/CMSIS/Include/core_cm4.h **** #define FPU_FPCCR_BFRDY_Pos                 6U                                            /*!< FPCC
1318:Drivers/CMSIS/Include/core_cm4.h **** #define FPU_FPCCR_BFRDY_Msk                (1UL << FPU_FPCCR_BFRDY_Pos)                   /*!< FPCC
1319:Drivers/CMSIS/Include/core_cm4.h **** 
1320:Drivers/CMSIS/Include/core_cm4.h **** #define FPU_FPCCR_MMRDY_Pos                 5U                                            /*!< FPCC
1321:Drivers/CMSIS/Include/core_cm4.h **** #define FPU_FPCCR_MMRDY_Msk                (1UL << FPU_FPCCR_MMRDY_Pos)                   /*!< FPCC
1322:Drivers/CMSIS/Include/core_cm4.h **** 
1323:Drivers/CMSIS/Include/core_cm4.h **** #define FPU_FPCCR_HFRDY_Pos                 4U                                            /*!< FPCC
1324:Drivers/CMSIS/Include/core_cm4.h **** #define FPU_FPCCR_HFRDY_Msk                (1UL << FPU_FPCCR_HFRDY_Pos)                   /*!< FPCC
1325:Drivers/CMSIS/Include/core_cm4.h **** 
1326:Drivers/CMSIS/Include/core_cm4.h **** #define FPU_FPCCR_THREAD_Pos                3U                                            /*!< FPCC
1327:Drivers/CMSIS/Include/core_cm4.h **** #define FPU_FPCCR_THREAD_Msk               (1UL << FPU_FPCCR_THREAD_Pos)                  /*!< FPCC
1328:Drivers/CMSIS/Include/core_cm4.h **** 
1329:Drivers/CMSIS/Include/core_cm4.h **** #define FPU_FPCCR_USER_Pos                  1U                                            /*!< FPCC
1330:Drivers/CMSIS/Include/core_cm4.h **** #define FPU_FPCCR_USER_Msk                 (1UL << FPU_FPCCR_USER_Pos)                    /*!< FPCC
1331:Drivers/CMSIS/Include/core_cm4.h **** 
1332:Drivers/CMSIS/Include/core_cm4.h **** #define FPU_FPCCR_LSPACT_Pos                0U                                            /*!< FPCC
1333:Drivers/CMSIS/Include/core_cm4.h **** #define FPU_FPCCR_LSPACT_Msk               (1UL /*<< FPU_FPCCR_LSPACT_Pos*/)              /*!< FPCC
1334:Drivers/CMSIS/Include/core_cm4.h **** 
1335:Drivers/CMSIS/Include/core_cm4.h **** /* Floating-Point Context Address Register Definitions */
1336:Drivers/CMSIS/Include/core_cm4.h **** #define FPU_FPCAR_ADDRESS_Pos               3U                                            /*!< FPCA
1337:Drivers/CMSIS/Include/core_cm4.h **** #define FPU_FPCAR_ADDRESS_Msk              (0x1FFFFFFFUL << FPU_FPCAR_ADDRESS_Pos)        /*!< FPCA
1338:Drivers/CMSIS/Include/core_cm4.h **** 
1339:Drivers/CMSIS/Include/core_cm4.h **** /* Floating-Point Default Status Control Register Definitions */
1340:Drivers/CMSIS/Include/core_cm4.h **** #define FPU_FPDSCR_AHP_Pos                 26U                                            /*!< FPDS
1341:Drivers/CMSIS/Include/core_cm4.h **** #define FPU_FPDSCR_AHP_Msk                 (1UL << FPU_FPDSCR_AHP_Pos)                    /*!< FPDS
1342:Drivers/CMSIS/Include/core_cm4.h **** 
1343:Drivers/CMSIS/Include/core_cm4.h **** #define FPU_FPDSCR_DN_Pos                  25U                                            /*!< FPDS
1344:Drivers/CMSIS/Include/core_cm4.h **** #define FPU_FPDSCR_DN_Msk                  (1UL << FPU_FPDSCR_DN_Pos)                     /*!< FPDS
1345:Drivers/CMSIS/Include/core_cm4.h **** 
1346:Drivers/CMSIS/Include/core_cm4.h **** #define FPU_FPDSCR_FZ_Pos                  24U                                            /*!< FPDS
1347:Drivers/CMSIS/Include/core_cm4.h **** #define FPU_FPDSCR_FZ_Msk                  (1UL << FPU_FPDSCR_FZ_Pos)                     /*!< FPDS
1348:Drivers/CMSIS/Include/core_cm4.h **** 
ARM GAS  /var/folders/80/65lm4rm97rv_n74c85vt01040000gn/T//ccnbidPO.s 			page 57


1349:Drivers/CMSIS/Include/core_cm4.h **** #define FPU_FPDSCR_RMode_Pos               22U                                            /*!< FPDS
1350:Drivers/CMSIS/Include/core_cm4.h **** #define FPU_FPDSCR_RMode_Msk               (3UL << FPU_FPDSCR_RMode_Pos)                  /*!< FPDS
1351:Drivers/CMSIS/Include/core_cm4.h **** 
1352:Drivers/CMSIS/Include/core_cm4.h **** /* Media and FP Feature Register 0 Definitions */
1353:Drivers/CMSIS/Include/core_cm4.h **** #define FPU_MVFR0_FP_rounding_modes_Pos    28U                                            /*!< MVFR
1354:Drivers/CMSIS/Include/core_cm4.h **** #define FPU_MVFR0_FP_rounding_modes_Msk    (0xFUL << FPU_MVFR0_FP_rounding_modes_Pos)     /*!< MVFR
1355:Drivers/CMSIS/Include/core_cm4.h **** 
1356:Drivers/CMSIS/Include/core_cm4.h **** #define FPU_MVFR0_Short_vectors_Pos        24U                                            /*!< MVFR
1357:Drivers/CMSIS/Include/core_cm4.h **** #define FPU_MVFR0_Short_vectors_Msk        (0xFUL << FPU_MVFR0_Short_vectors_Pos)         /*!< MVFR
1358:Drivers/CMSIS/Include/core_cm4.h **** 
1359:Drivers/CMSIS/Include/core_cm4.h **** #define FPU_MVFR0_Square_root_Pos          20U                                            /*!< MVFR
1360:Drivers/CMSIS/Include/core_cm4.h **** #define FPU_MVFR0_Square_root_Msk          (0xFUL << FPU_MVFR0_Square_root_Pos)           /*!< MVFR
1361:Drivers/CMSIS/Include/core_cm4.h **** 
1362:Drivers/CMSIS/Include/core_cm4.h **** #define FPU_MVFR0_Divide_Pos               16U                                            /*!< MVFR
1363:Drivers/CMSIS/Include/core_cm4.h **** #define FPU_MVFR0_Divide_Msk               (0xFUL << FPU_MVFR0_Divide_Pos)                /*!< MVFR
1364:Drivers/CMSIS/Include/core_cm4.h **** 
1365:Drivers/CMSIS/Include/core_cm4.h **** #define FPU_MVFR0_FP_excep_trapping_Pos    12U                                            /*!< MVFR
1366:Drivers/CMSIS/Include/core_cm4.h **** #define FPU_MVFR0_FP_excep_trapping_Msk    (0xFUL << FPU_MVFR0_FP_excep_trapping_Pos)     /*!< MVFR
1367:Drivers/CMSIS/Include/core_cm4.h **** 
1368:Drivers/CMSIS/Include/core_cm4.h **** #define FPU_MVFR0_Double_precision_Pos      8U                                            /*!< MVFR
1369:Drivers/CMSIS/Include/core_cm4.h **** #define FPU_MVFR0_Double_precision_Msk     (0xFUL << FPU_MVFR0_Double_precision_Pos)      /*!< MVFR
1370:Drivers/CMSIS/Include/core_cm4.h **** 
1371:Drivers/CMSIS/Include/core_cm4.h **** #define FPU_MVFR0_Single_precision_Pos      4U                                            /*!< MVFR
1372:Drivers/CMSIS/Include/core_cm4.h **** #define FPU_MVFR0_Single_precision_Msk     (0xFUL << FPU_MVFR0_Single_precision_Pos)      /*!< MVFR
1373:Drivers/CMSIS/Include/core_cm4.h **** 
1374:Drivers/CMSIS/Include/core_cm4.h **** #define FPU_MVFR0_A_SIMD_registers_Pos      0U                                            /*!< MVFR
1375:Drivers/CMSIS/Include/core_cm4.h **** #define FPU_MVFR0_A_SIMD_registers_Msk     (0xFUL /*<< FPU_MVFR0_A_SIMD_registers_Pos*/)  /*!< MVFR
1376:Drivers/CMSIS/Include/core_cm4.h **** 
1377:Drivers/CMSIS/Include/core_cm4.h **** /* Media and FP Feature Register 1 Definitions */
1378:Drivers/CMSIS/Include/core_cm4.h **** #define FPU_MVFR1_FP_fused_MAC_Pos         28U                                            /*!< MVFR
1379:Drivers/CMSIS/Include/core_cm4.h **** #define FPU_MVFR1_FP_fused_MAC_Msk         (0xFUL << FPU_MVFR1_FP_fused_MAC_Pos)          /*!< MVFR
1380:Drivers/CMSIS/Include/core_cm4.h **** 
1381:Drivers/CMSIS/Include/core_cm4.h **** #define FPU_MVFR1_FP_HPFP_Pos              24U                                            /*!< MVFR
1382:Drivers/CMSIS/Include/core_cm4.h **** #define FPU_MVFR1_FP_HPFP_Msk              (0xFUL << FPU_MVFR1_FP_HPFP_Pos)               /*!< MVFR
1383:Drivers/CMSIS/Include/core_cm4.h **** 
1384:Drivers/CMSIS/Include/core_cm4.h **** #define FPU_MVFR1_D_NaN_mode_Pos            4U                                            /*!< MVFR
1385:Drivers/CMSIS/Include/core_cm4.h **** #define FPU_MVFR1_D_NaN_mode_Msk           (0xFUL << FPU_MVFR1_D_NaN_mode_Pos)            /*!< MVFR
1386:Drivers/CMSIS/Include/core_cm4.h **** 
1387:Drivers/CMSIS/Include/core_cm4.h **** #define FPU_MVFR1_FtZ_mode_Pos              0U                                            /*!< MVFR
1388:Drivers/CMSIS/Include/core_cm4.h **** #define FPU_MVFR1_FtZ_mode_Msk             (0xFUL /*<< FPU_MVFR1_FtZ_mode_Pos*/)          /*!< MVFR
1389:Drivers/CMSIS/Include/core_cm4.h **** 
1390:Drivers/CMSIS/Include/core_cm4.h **** /*@} end of group CMSIS_FPU */
1391:Drivers/CMSIS/Include/core_cm4.h **** #endif
1392:Drivers/CMSIS/Include/core_cm4.h **** 
1393:Drivers/CMSIS/Include/core_cm4.h **** 
1394:Drivers/CMSIS/Include/core_cm4.h **** /**
1395:Drivers/CMSIS/Include/core_cm4.h ****   \ingroup  CMSIS_core_register
1396:Drivers/CMSIS/Include/core_cm4.h ****   \defgroup CMSIS_CoreDebug       Core Debug Registers (CoreDebug)
1397:Drivers/CMSIS/Include/core_cm4.h ****   \brief    Type definitions for the Core Debug Registers
1398:Drivers/CMSIS/Include/core_cm4.h ****   @{
1399:Drivers/CMSIS/Include/core_cm4.h ****  */
1400:Drivers/CMSIS/Include/core_cm4.h **** 
1401:Drivers/CMSIS/Include/core_cm4.h **** /**
1402:Drivers/CMSIS/Include/core_cm4.h ****   \brief  Structure type to access the Core Debug Register (CoreDebug).
1403:Drivers/CMSIS/Include/core_cm4.h ****  */
1404:Drivers/CMSIS/Include/core_cm4.h **** typedef struct
1405:Drivers/CMSIS/Include/core_cm4.h **** {
ARM GAS  /var/folders/80/65lm4rm97rv_n74c85vt01040000gn/T//ccnbidPO.s 			page 58


1406:Drivers/CMSIS/Include/core_cm4.h ****   __IOM uint32_t DHCSR;                  /*!< Offset: 0x000 (R/W)  Debug Halting Control and Status
1407:Drivers/CMSIS/Include/core_cm4.h ****   __OM  uint32_t DCRSR;                  /*!< Offset: 0x004 ( /W)  Debug Core Register Selector Reg
1408:Drivers/CMSIS/Include/core_cm4.h ****   __IOM uint32_t DCRDR;                  /*!< Offset: 0x008 (R/W)  Debug Core Register Data Registe
1409:Drivers/CMSIS/Include/core_cm4.h ****   __IOM uint32_t DEMCR;                  /*!< Offset: 0x00C (R/W)  Debug Exception and Monitor Cont
1410:Drivers/CMSIS/Include/core_cm4.h **** } CoreDebug_Type;
1411:Drivers/CMSIS/Include/core_cm4.h **** 
1412:Drivers/CMSIS/Include/core_cm4.h **** /* Debug Halting Control and Status Register Definitions */
1413:Drivers/CMSIS/Include/core_cm4.h **** #define CoreDebug_DHCSR_DBGKEY_Pos         16U                                            /*!< Core
1414:Drivers/CMSIS/Include/core_cm4.h **** #define CoreDebug_DHCSR_DBGKEY_Msk         (0xFFFFUL << CoreDebug_DHCSR_DBGKEY_Pos)       /*!< Core
1415:Drivers/CMSIS/Include/core_cm4.h **** 
1416:Drivers/CMSIS/Include/core_cm4.h **** #define CoreDebug_DHCSR_S_RESET_ST_Pos     25U                                            /*!< Core
1417:Drivers/CMSIS/Include/core_cm4.h **** #define CoreDebug_DHCSR_S_RESET_ST_Msk     (1UL << CoreDebug_DHCSR_S_RESET_ST_Pos)        /*!< Core
1418:Drivers/CMSIS/Include/core_cm4.h **** 
1419:Drivers/CMSIS/Include/core_cm4.h **** #define CoreDebug_DHCSR_S_RETIRE_ST_Pos    24U                                            /*!< Core
1420:Drivers/CMSIS/Include/core_cm4.h **** #define CoreDebug_DHCSR_S_RETIRE_ST_Msk    (1UL << CoreDebug_DHCSR_S_RETIRE_ST_Pos)       /*!< Core
1421:Drivers/CMSIS/Include/core_cm4.h **** 
1422:Drivers/CMSIS/Include/core_cm4.h **** #define CoreDebug_DHCSR_S_LOCKUP_Pos       19U                                            /*!< Core
1423:Drivers/CMSIS/Include/core_cm4.h **** #define CoreDebug_DHCSR_S_LOCKUP_Msk       (1UL << CoreDebug_DHCSR_S_LOCKUP_Pos)          /*!< Core
1424:Drivers/CMSIS/Include/core_cm4.h **** 
1425:Drivers/CMSIS/Include/core_cm4.h **** #define CoreDebug_DHCSR_S_SLEEP_Pos        18U                                            /*!< Core
1426:Drivers/CMSIS/Include/core_cm4.h **** #define CoreDebug_DHCSR_S_SLEEP_Msk        (1UL << CoreDebug_DHCSR_S_SLEEP_Pos)           /*!< Core
1427:Drivers/CMSIS/Include/core_cm4.h **** 
1428:Drivers/CMSIS/Include/core_cm4.h **** #define CoreDebug_DHCSR_S_HALT_Pos         17U                                            /*!< Core
1429:Drivers/CMSIS/Include/core_cm4.h **** #define CoreDebug_DHCSR_S_HALT_Msk         (1UL << CoreDebug_DHCSR_S_HALT_Pos)            /*!< Core
1430:Drivers/CMSIS/Include/core_cm4.h **** 
1431:Drivers/CMSIS/Include/core_cm4.h **** #define CoreDebug_DHCSR_S_REGRDY_Pos       16U                                            /*!< Core
1432:Drivers/CMSIS/Include/core_cm4.h **** #define CoreDebug_DHCSR_S_REGRDY_Msk       (1UL << CoreDebug_DHCSR_S_REGRDY_Pos)          /*!< Core
1433:Drivers/CMSIS/Include/core_cm4.h **** 
1434:Drivers/CMSIS/Include/core_cm4.h **** #define CoreDebug_DHCSR_C_SNAPSTALL_Pos     5U                                            /*!< Core
1435:Drivers/CMSIS/Include/core_cm4.h **** #define CoreDebug_DHCSR_C_SNAPSTALL_Msk    (1UL << CoreDebug_DHCSR_C_SNAPSTALL_Pos)       /*!< Core
1436:Drivers/CMSIS/Include/core_cm4.h **** 
1437:Drivers/CMSIS/Include/core_cm4.h **** #define CoreDebug_DHCSR_C_MASKINTS_Pos      3U                                            /*!< Core
1438:Drivers/CMSIS/Include/core_cm4.h **** #define CoreDebug_DHCSR_C_MASKINTS_Msk     (1UL << CoreDebug_DHCSR_C_MASKINTS_Pos)        /*!< Core
1439:Drivers/CMSIS/Include/core_cm4.h **** 
1440:Drivers/CMSIS/Include/core_cm4.h **** #define CoreDebug_DHCSR_C_STEP_Pos          2U                                            /*!< Core
1441:Drivers/CMSIS/Include/core_cm4.h **** #define CoreDebug_DHCSR_C_STEP_Msk         (1UL << CoreDebug_DHCSR_C_STEP_Pos)            /*!< Core
1442:Drivers/CMSIS/Include/core_cm4.h **** 
1443:Drivers/CMSIS/Include/core_cm4.h **** #define CoreDebug_DHCSR_C_HALT_Pos          1U                                            /*!< Core
1444:Drivers/CMSIS/Include/core_cm4.h **** #define CoreDebug_DHCSR_C_HALT_Msk         (1UL << CoreDebug_DHCSR_C_HALT_Pos)            /*!< Core
1445:Drivers/CMSIS/Include/core_cm4.h **** 
1446:Drivers/CMSIS/Include/core_cm4.h **** #define CoreDebug_DHCSR_C_DEBUGEN_Pos       0U                                            /*!< Core
1447:Drivers/CMSIS/Include/core_cm4.h **** #define CoreDebug_DHCSR_C_DEBUGEN_Msk      (1UL /*<< CoreDebug_DHCSR_C_DEBUGEN_Pos*/)     /*!< Core
1448:Drivers/CMSIS/Include/core_cm4.h **** 
1449:Drivers/CMSIS/Include/core_cm4.h **** /* Debug Core Register Selector Register Definitions */
1450:Drivers/CMSIS/Include/core_cm4.h **** #define CoreDebug_DCRSR_REGWnR_Pos         16U                                            /*!< Core
1451:Drivers/CMSIS/Include/core_cm4.h **** #define CoreDebug_DCRSR_REGWnR_Msk         (1UL << CoreDebug_DCRSR_REGWnR_Pos)            /*!< Core
1452:Drivers/CMSIS/Include/core_cm4.h **** 
1453:Drivers/CMSIS/Include/core_cm4.h **** #define CoreDebug_DCRSR_REGSEL_Pos          0U                                            /*!< Core
1454:Drivers/CMSIS/Include/core_cm4.h **** #define CoreDebug_DCRSR_REGSEL_Msk         (0x1FUL /*<< CoreDebug_DCRSR_REGSEL_Pos*/)     /*!< Core
1455:Drivers/CMSIS/Include/core_cm4.h **** 
1456:Drivers/CMSIS/Include/core_cm4.h **** /* Debug Exception and Monitor Control Register Definitions */
1457:Drivers/CMSIS/Include/core_cm4.h **** #define CoreDebug_DEMCR_TRCENA_Pos         24U                                            /*!< Core
1458:Drivers/CMSIS/Include/core_cm4.h **** #define CoreDebug_DEMCR_TRCENA_Msk         (1UL << CoreDebug_DEMCR_TRCENA_Pos)            /*!< Core
1459:Drivers/CMSIS/Include/core_cm4.h **** 
1460:Drivers/CMSIS/Include/core_cm4.h **** #define CoreDebug_DEMCR_MON_REQ_Pos        19U                                            /*!< Core
1461:Drivers/CMSIS/Include/core_cm4.h **** #define CoreDebug_DEMCR_MON_REQ_Msk        (1UL << CoreDebug_DEMCR_MON_REQ_Pos)           /*!< Core
1462:Drivers/CMSIS/Include/core_cm4.h **** 
ARM GAS  /var/folders/80/65lm4rm97rv_n74c85vt01040000gn/T//ccnbidPO.s 			page 59


1463:Drivers/CMSIS/Include/core_cm4.h **** #define CoreDebug_DEMCR_MON_STEP_Pos       18U                                            /*!< Core
1464:Drivers/CMSIS/Include/core_cm4.h **** #define CoreDebug_DEMCR_MON_STEP_Msk       (1UL << CoreDebug_DEMCR_MON_STEP_Pos)          /*!< Core
1465:Drivers/CMSIS/Include/core_cm4.h **** 
1466:Drivers/CMSIS/Include/core_cm4.h **** #define CoreDebug_DEMCR_MON_PEND_Pos       17U                                            /*!< Core
1467:Drivers/CMSIS/Include/core_cm4.h **** #define CoreDebug_DEMCR_MON_PEND_Msk       (1UL << CoreDebug_DEMCR_MON_PEND_Pos)          /*!< Core
1468:Drivers/CMSIS/Include/core_cm4.h **** 
1469:Drivers/CMSIS/Include/core_cm4.h **** #define CoreDebug_DEMCR_MON_EN_Pos         16U                                            /*!< Core
1470:Drivers/CMSIS/Include/core_cm4.h **** #define CoreDebug_DEMCR_MON_EN_Msk         (1UL << CoreDebug_DEMCR_MON_EN_Pos)            /*!< Core
1471:Drivers/CMSIS/Include/core_cm4.h **** 
1472:Drivers/CMSIS/Include/core_cm4.h **** #define CoreDebug_DEMCR_VC_HARDERR_Pos     10U                                            /*!< Core
1473:Drivers/CMSIS/Include/core_cm4.h **** #define CoreDebug_DEMCR_VC_HARDERR_Msk     (1UL << CoreDebug_DEMCR_VC_HARDERR_Pos)        /*!< Core
1474:Drivers/CMSIS/Include/core_cm4.h **** 
1475:Drivers/CMSIS/Include/core_cm4.h **** #define CoreDebug_DEMCR_VC_INTERR_Pos       9U                                            /*!< Core
1476:Drivers/CMSIS/Include/core_cm4.h **** #define CoreDebug_DEMCR_VC_INTERR_Msk      (1UL << CoreDebug_DEMCR_VC_INTERR_Pos)         /*!< Core
1477:Drivers/CMSIS/Include/core_cm4.h **** 
1478:Drivers/CMSIS/Include/core_cm4.h **** #define CoreDebug_DEMCR_VC_BUSERR_Pos       8U                                            /*!< Core
1479:Drivers/CMSIS/Include/core_cm4.h **** #define CoreDebug_DEMCR_VC_BUSERR_Msk      (1UL << CoreDebug_DEMCR_VC_BUSERR_Pos)         /*!< Core
1480:Drivers/CMSIS/Include/core_cm4.h **** 
1481:Drivers/CMSIS/Include/core_cm4.h **** #define CoreDebug_DEMCR_VC_STATERR_Pos      7U                                            /*!< Core
1482:Drivers/CMSIS/Include/core_cm4.h **** #define CoreDebug_DEMCR_VC_STATERR_Msk     (1UL << CoreDebug_DEMCR_VC_STATERR_Pos)        /*!< Core
1483:Drivers/CMSIS/Include/core_cm4.h **** 
1484:Drivers/CMSIS/Include/core_cm4.h **** #define CoreDebug_DEMCR_VC_CHKERR_Pos       6U                                            /*!< Core
1485:Drivers/CMSIS/Include/core_cm4.h **** #define CoreDebug_DEMCR_VC_CHKERR_Msk      (1UL << CoreDebug_DEMCR_VC_CHKERR_Pos)         /*!< Core
1486:Drivers/CMSIS/Include/core_cm4.h **** 
1487:Drivers/CMSIS/Include/core_cm4.h **** #define CoreDebug_DEMCR_VC_NOCPERR_Pos      5U                                            /*!< Core
1488:Drivers/CMSIS/Include/core_cm4.h **** #define CoreDebug_DEMCR_VC_NOCPERR_Msk     (1UL << CoreDebug_DEMCR_VC_NOCPERR_Pos)        /*!< Core
1489:Drivers/CMSIS/Include/core_cm4.h **** 
1490:Drivers/CMSIS/Include/core_cm4.h **** #define CoreDebug_DEMCR_VC_MMERR_Pos        4U                                            /*!< Core
1491:Drivers/CMSIS/Include/core_cm4.h **** #define CoreDebug_DEMCR_VC_MMERR_Msk       (1UL << CoreDebug_DEMCR_VC_MMERR_Pos)          /*!< Core
1492:Drivers/CMSIS/Include/core_cm4.h **** 
1493:Drivers/CMSIS/Include/core_cm4.h **** #define CoreDebug_DEMCR_VC_CORERESET_Pos    0U                                            /*!< Core
1494:Drivers/CMSIS/Include/core_cm4.h **** #define CoreDebug_DEMCR_VC_CORERESET_Msk   (1UL /*<< CoreDebug_DEMCR_VC_CORERESET_Pos*/)  /*!< Core
1495:Drivers/CMSIS/Include/core_cm4.h **** 
1496:Drivers/CMSIS/Include/core_cm4.h **** /*@} end of group CMSIS_CoreDebug */
1497:Drivers/CMSIS/Include/core_cm4.h **** 
1498:Drivers/CMSIS/Include/core_cm4.h **** 
1499:Drivers/CMSIS/Include/core_cm4.h **** /**
1500:Drivers/CMSIS/Include/core_cm4.h ****   \ingroup    CMSIS_core_register
1501:Drivers/CMSIS/Include/core_cm4.h ****   \defgroup   CMSIS_core_bitfield     Core register bit field macros
1502:Drivers/CMSIS/Include/core_cm4.h ****   \brief      Macros for use with bit field definitions (xxx_Pos, xxx_Msk).
1503:Drivers/CMSIS/Include/core_cm4.h ****   @{
1504:Drivers/CMSIS/Include/core_cm4.h ****  */
1505:Drivers/CMSIS/Include/core_cm4.h **** 
1506:Drivers/CMSIS/Include/core_cm4.h **** /**
1507:Drivers/CMSIS/Include/core_cm4.h ****   \brief   Mask and shift a bit field value for use in a register bit range.
1508:Drivers/CMSIS/Include/core_cm4.h ****   \param[in] field  Name of the register bit field.
1509:Drivers/CMSIS/Include/core_cm4.h ****   \param[in] value  Value of the bit field.
1510:Drivers/CMSIS/Include/core_cm4.h ****   \return           Masked and shifted value.
1511:Drivers/CMSIS/Include/core_cm4.h **** */
1512:Drivers/CMSIS/Include/core_cm4.h **** #define _VAL2FLD(field, value)    ((value << field ## _Pos) & field ## _Msk)
1513:Drivers/CMSIS/Include/core_cm4.h **** 
1514:Drivers/CMSIS/Include/core_cm4.h **** /**
1515:Drivers/CMSIS/Include/core_cm4.h ****   \brief     Mask and shift a register value to extract a bit filed value.
1516:Drivers/CMSIS/Include/core_cm4.h ****   \param[in] field  Name of the register bit field.
1517:Drivers/CMSIS/Include/core_cm4.h ****   \param[in] value  Value of register.
1518:Drivers/CMSIS/Include/core_cm4.h ****   \return           Masked and shifted bit field value.
1519:Drivers/CMSIS/Include/core_cm4.h **** */
ARM GAS  /var/folders/80/65lm4rm97rv_n74c85vt01040000gn/T//ccnbidPO.s 			page 60


1520:Drivers/CMSIS/Include/core_cm4.h **** #define _FLD2VAL(field, value)    ((value & field ## _Msk) >> field ## _Pos)
1521:Drivers/CMSIS/Include/core_cm4.h **** 
1522:Drivers/CMSIS/Include/core_cm4.h **** /*@} end of group CMSIS_core_bitfield */
1523:Drivers/CMSIS/Include/core_cm4.h **** 
1524:Drivers/CMSIS/Include/core_cm4.h **** 
1525:Drivers/CMSIS/Include/core_cm4.h **** /**
1526:Drivers/CMSIS/Include/core_cm4.h ****   \ingroup    CMSIS_core_register
1527:Drivers/CMSIS/Include/core_cm4.h ****   \defgroup   CMSIS_core_base     Core Definitions
1528:Drivers/CMSIS/Include/core_cm4.h ****   \brief      Definitions for base addresses, unions, and structures.
1529:Drivers/CMSIS/Include/core_cm4.h ****   @{
1530:Drivers/CMSIS/Include/core_cm4.h ****  */
1531:Drivers/CMSIS/Include/core_cm4.h **** 
1532:Drivers/CMSIS/Include/core_cm4.h **** /* Memory mapping of Cortex-M4 Hardware */
1533:Drivers/CMSIS/Include/core_cm4.h **** #define SCS_BASE            (0xE000E000UL)                            /*!< System Control Space Bas
1534:Drivers/CMSIS/Include/core_cm4.h **** #define ITM_BASE            (0xE0000000UL)                            /*!< ITM Base Address */
1535:Drivers/CMSIS/Include/core_cm4.h **** #define DWT_BASE            (0xE0001000UL)                            /*!< DWT Base Address */
1536:Drivers/CMSIS/Include/core_cm4.h **** #define TPI_BASE            (0xE0040000UL)                            /*!< TPI Base Address */
1537:Drivers/CMSIS/Include/core_cm4.h **** #define CoreDebug_BASE      (0xE000EDF0UL)                            /*!< Core Debug Base Address 
1538:Drivers/CMSIS/Include/core_cm4.h **** #define SysTick_BASE        (SCS_BASE +  0x0010UL)                    /*!< SysTick Base Address */
1539:Drivers/CMSIS/Include/core_cm4.h **** #define NVIC_BASE           (SCS_BASE +  0x0100UL)                    /*!< NVIC Base Address */
1540:Drivers/CMSIS/Include/core_cm4.h **** #define SCB_BASE            (SCS_BASE +  0x0D00UL)                    /*!< System Control Block Bas
1541:Drivers/CMSIS/Include/core_cm4.h **** 
1542:Drivers/CMSIS/Include/core_cm4.h **** #define SCnSCB              ((SCnSCB_Type    *)     SCS_BASE      )   /*!< System control Register 
1543:Drivers/CMSIS/Include/core_cm4.h **** #define SCB                 ((SCB_Type       *)     SCB_BASE      )   /*!< SCB configuration struct
1544:Drivers/CMSIS/Include/core_cm4.h **** #define SysTick             ((SysTick_Type   *)     SysTick_BASE  )   /*!< SysTick configuration st
1545:Drivers/CMSIS/Include/core_cm4.h **** #define NVIC                ((NVIC_Type      *)     NVIC_BASE     )   /*!< NVIC configuration struc
1546:Drivers/CMSIS/Include/core_cm4.h **** #define ITM                 ((ITM_Type       *)     ITM_BASE      )   /*!< ITM configuration struct
1547:Drivers/CMSIS/Include/core_cm4.h **** #define DWT                 ((DWT_Type       *)     DWT_BASE      )   /*!< DWT configuration struct
1548:Drivers/CMSIS/Include/core_cm4.h **** #define TPI                 ((TPI_Type       *)     TPI_BASE      )   /*!< TPI configuration struct
1549:Drivers/CMSIS/Include/core_cm4.h **** #define CoreDebug           ((CoreDebug_Type *)     CoreDebug_BASE)   /*!< Core Debug configuration
1550:Drivers/CMSIS/Include/core_cm4.h **** 
1551:Drivers/CMSIS/Include/core_cm4.h **** #if (__MPU_PRESENT == 1U)
1552:Drivers/CMSIS/Include/core_cm4.h ****   #define MPU_BASE          (SCS_BASE +  0x0D90UL)                    /*!< Memory Protection Unit *
1553:Drivers/CMSIS/Include/core_cm4.h ****   #define MPU               ((MPU_Type       *)     MPU_BASE      )   /*!< Memory Protection Unit *
1554:Drivers/CMSIS/Include/core_cm4.h **** #endif
1555:Drivers/CMSIS/Include/core_cm4.h **** 
1556:Drivers/CMSIS/Include/core_cm4.h **** #if (__FPU_PRESENT == 1U)
1557:Drivers/CMSIS/Include/core_cm4.h ****   #define FPU_BASE          (SCS_BASE +  0x0F30UL)                    /*!< Floating Point Unit */
1558:Drivers/CMSIS/Include/core_cm4.h ****   #define FPU               ((FPU_Type       *)     FPU_BASE      )   /*!< Floating Point Unit */
1559:Drivers/CMSIS/Include/core_cm4.h **** #endif
1560:Drivers/CMSIS/Include/core_cm4.h **** 
1561:Drivers/CMSIS/Include/core_cm4.h **** /*@} */
1562:Drivers/CMSIS/Include/core_cm4.h **** 
1563:Drivers/CMSIS/Include/core_cm4.h **** 
1564:Drivers/CMSIS/Include/core_cm4.h **** 
1565:Drivers/CMSIS/Include/core_cm4.h **** /*******************************************************************************
1566:Drivers/CMSIS/Include/core_cm4.h ****  *                Hardware Abstraction Layer
1567:Drivers/CMSIS/Include/core_cm4.h ****   Core Function Interface contains:
1568:Drivers/CMSIS/Include/core_cm4.h ****   - Core NVIC Functions
1569:Drivers/CMSIS/Include/core_cm4.h ****   - Core SysTick Functions
1570:Drivers/CMSIS/Include/core_cm4.h ****   - Core Debug Functions
1571:Drivers/CMSIS/Include/core_cm4.h ****   - Core Register Access Functions
1572:Drivers/CMSIS/Include/core_cm4.h ****  ******************************************************************************/
1573:Drivers/CMSIS/Include/core_cm4.h **** /**
1574:Drivers/CMSIS/Include/core_cm4.h ****   \defgroup CMSIS_Core_FunctionInterface Functions and Instructions Reference
1575:Drivers/CMSIS/Include/core_cm4.h **** */
1576:Drivers/CMSIS/Include/core_cm4.h **** 
ARM GAS  /var/folders/80/65lm4rm97rv_n74c85vt01040000gn/T//ccnbidPO.s 			page 61


1577:Drivers/CMSIS/Include/core_cm4.h **** 
1578:Drivers/CMSIS/Include/core_cm4.h **** 
1579:Drivers/CMSIS/Include/core_cm4.h **** /* ##########################   NVIC functions  #################################### */
1580:Drivers/CMSIS/Include/core_cm4.h **** /**
1581:Drivers/CMSIS/Include/core_cm4.h ****   \ingroup  CMSIS_Core_FunctionInterface
1582:Drivers/CMSIS/Include/core_cm4.h ****   \defgroup CMSIS_Core_NVICFunctions NVIC Functions
1583:Drivers/CMSIS/Include/core_cm4.h ****   \brief    Functions that manage interrupts and exceptions via the NVIC.
1584:Drivers/CMSIS/Include/core_cm4.h ****   @{
1585:Drivers/CMSIS/Include/core_cm4.h ****  */
1586:Drivers/CMSIS/Include/core_cm4.h **** 
1587:Drivers/CMSIS/Include/core_cm4.h **** /**
1588:Drivers/CMSIS/Include/core_cm4.h ****   \brief   Set Priority Grouping
1589:Drivers/CMSIS/Include/core_cm4.h ****   \details Sets the priority grouping field using the required unlock sequence.
1590:Drivers/CMSIS/Include/core_cm4.h ****            The parameter PriorityGroup is assigned to the field SCB->AIRCR [10:8] PRIGROUP field.
1591:Drivers/CMSIS/Include/core_cm4.h ****            Only values from 0..7 are used.
1592:Drivers/CMSIS/Include/core_cm4.h ****            In case of a conflict between priority grouping and available
1593:Drivers/CMSIS/Include/core_cm4.h ****            priority bits (__NVIC_PRIO_BITS), the smallest possible priority group is set.
1594:Drivers/CMSIS/Include/core_cm4.h ****   \param [in]      PriorityGroup  Priority grouping field.
1595:Drivers/CMSIS/Include/core_cm4.h ****  */
1596:Drivers/CMSIS/Include/core_cm4.h **** __STATIC_INLINE void NVIC_SetPriorityGrouping(uint32_t PriorityGroup)
1597:Drivers/CMSIS/Include/core_cm4.h **** {
1598:Drivers/CMSIS/Include/core_cm4.h ****   uint32_t reg_value;
1599:Drivers/CMSIS/Include/core_cm4.h ****   uint32_t PriorityGroupTmp = (PriorityGroup & (uint32_t)0x07UL);             /* only values 0..7 a
1600:Drivers/CMSIS/Include/core_cm4.h **** 
1601:Drivers/CMSIS/Include/core_cm4.h ****   reg_value  =  SCB->AIRCR;                                                   /* read old register 
1602:Drivers/CMSIS/Include/core_cm4.h ****   reg_value &= ~((uint32_t)(SCB_AIRCR_VECTKEY_Msk | SCB_AIRCR_PRIGROUP_Msk)); /* clear bits to chan
1603:Drivers/CMSIS/Include/core_cm4.h ****   reg_value  =  (reg_value                                   |
1604:Drivers/CMSIS/Include/core_cm4.h ****                 ((uint32_t)0x5FAUL << SCB_AIRCR_VECTKEY_Pos) |
1605:Drivers/CMSIS/Include/core_cm4.h ****                 (PriorityGroupTmp << 8U)                      );              /* Insert write key a
1606:Drivers/CMSIS/Include/core_cm4.h ****   SCB->AIRCR =  reg_value;
1607:Drivers/CMSIS/Include/core_cm4.h **** }
1608:Drivers/CMSIS/Include/core_cm4.h **** 
1609:Drivers/CMSIS/Include/core_cm4.h **** 
1610:Drivers/CMSIS/Include/core_cm4.h **** /**
1611:Drivers/CMSIS/Include/core_cm4.h ****   \brief   Get Priority Grouping
1612:Drivers/CMSIS/Include/core_cm4.h ****   \details Reads the priority grouping field from the NVIC Interrupt Controller.
1613:Drivers/CMSIS/Include/core_cm4.h ****   \return                Priority grouping field (SCB->AIRCR [10:8] PRIGROUP field).
1614:Drivers/CMSIS/Include/core_cm4.h ****  */
1615:Drivers/CMSIS/Include/core_cm4.h **** __STATIC_INLINE uint32_t NVIC_GetPriorityGrouping(void)
1616:Drivers/CMSIS/Include/core_cm4.h **** {
1617:Drivers/CMSIS/Include/core_cm4.h ****   return ((uint32_t)((SCB->AIRCR & SCB_AIRCR_PRIGROUP_Msk) >> SCB_AIRCR_PRIGROUP_Pos));
1618:Drivers/CMSIS/Include/core_cm4.h **** }
1619:Drivers/CMSIS/Include/core_cm4.h **** 
1620:Drivers/CMSIS/Include/core_cm4.h **** 
1621:Drivers/CMSIS/Include/core_cm4.h **** /**
1622:Drivers/CMSIS/Include/core_cm4.h ****   \brief   Enable External Interrupt
1623:Drivers/CMSIS/Include/core_cm4.h ****   \details Enables a device-specific interrupt in the NVIC interrupt controller.
1624:Drivers/CMSIS/Include/core_cm4.h ****   \param [in]      IRQn  External interrupt number. Value cannot be negative.
1625:Drivers/CMSIS/Include/core_cm4.h ****  */
1626:Drivers/CMSIS/Include/core_cm4.h **** __STATIC_INLINE void NVIC_EnableIRQ(IRQn_Type IRQn)
1627:Drivers/CMSIS/Include/core_cm4.h **** {
1628:Drivers/CMSIS/Include/core_cm4.h ****   NVIC->ISER[(((uint32_t)(int32_t)IRQn) >> 5UL)] = (uint32_t)(1UL << (((uint32_t)(int32_t)IRQn) & 0
1629:Drivers/CMSIS/Include/core_cm4.h **** }
1630:Drivers/CMSIS/Include/core_cm4.h **** 
1631:Drivers/CMSIS/Include/core_cm4.h **** 
1632:Drivers/CMSIS/Include/core_cm4.h **** /**
1633:Drivers/CMSIS/Include/core_cm4.h ****   \brief   Disable External Interrupt
ARM GAS  /var/folders/80/65lm4rm97rv_n74c85vt01040000gn/T//ccnbidPO.s 			page 62


1634:Drivers/CMSIS/Include/core_cm4.h ****   \details Disables a device-specific interrupt in the NVIC interrupt controller.
1635:Drivers/CMSIS/Include/core_cm4.h ****   \param [in]      IRQn  External interrupt number. Value cannot be negative.
1636:Drivers/CMSIS/Include/core_cm4.h ****  */
1637:Drivers/CMSIS/Include/core_cm4.h **** __STATIC_INLINE void NVIC_DisableIRQ(IRQn_Type IRQn)
1638:Drivers/CMSIS/Include/core_cm4.h **** {
1639:Drivers/CMSIS/Include/core_cm4.h ****   NVIC->ICER[(((uint32_t)(int32_t)IRQn) >> 5UL)] = (uint32_t)(1UL << (((uint32_t)(int32_t)IRQn) & 0
1640:Drivers/CMSIS/Include/core_cm4.h **** }
1641:Drivers/CMSIS/Include/core_cm4.h **** 
1642:Drivers/CMSIS/Include/core_cm4.h **** 
1643:Drivers/CMSIS/Include/core_cm4.h **** /**
1644:Drivers/CMSIS/Include/core_cm4.h ****   \brief   Get Pending Interrupt
1645:Drivers/CMSIS/Include/core_cm4.h ****   \details Reads the pending register in the NVIC and returns the pending bit for the specified int
1646:Drivers/CMSIS/Include/core_cm4.h ****   \param [in]      IRQn  Interrupt number.
1647:Drivers/CMSIS/Include/core_cm4.h ****   \return             0  Interrupt status is not pending.
1648:Drivers/CMSIS/Include/core_cm4.h ****   \return             1  Interrupt status is pending.
1649:Drivers/CMSIS/Include/core_cm4.h ****  */
1650:Drivers/CMSIS/Include/core_cm4.h **** __STATIC_INLINE uint32_t NVIC_GetPendingIRQ(IRQn_Type IRQn)
1651:Drivers/CMSIS/Include/core_cm4.h **** {
1652:Drivers/CMSIS/Include/core_cm4.h ****   return((uint32_t)(((NVIC->ISPR[(((uint32_t)(int32_t)IRQn) >> 5UL)] & (1UL << (((uint32_t)(int32_t
1653:Drivers/CMSIS/Include/core_cm4.h **** }
1654:Drivers/CMSIS/Include/core_cm4.h **** 
1655:Drivers/CMSIS/Include/core_cm4.h **** 
1656:Drivers/CMSIS/Include/core_cm4.h **** /**
1657:Drivers/CMSIS/Include/core_cm4.h ****   \brief   Set Pending Interrupt
1658:Drivers/CMSIS/Include/core_cm4.h ****   \details Sets the pending bit of an external interrupt.
1659:Drivers/CMSIS/Include/core_cm4.h ****   \param [in]      IRQn  Interrupt number. Value cannot be negative.
1660:Drivers/CMSIS/Include/core_cm4.h ****  */
1661:Drivers/CMSIS/Include/core_cm4.h **** __STATIC_INLINE void NVIC_SetPendingIRQ(IRQn_Type IRQn)
1662:Drivers/CMSIS/Include/core_cm4.h **** {
1663:Drivers/CMSIS/Include/core_cm4.h ****   NVIC->ISPR[(((uint32_t)(int32_t)IRQn) >> 5UL)] = (uint32_t)(1UL << (((uint32_t)(int32_t)IRQn) & 0
1664:Drivers/CMSIS/Include/core_cm4.h **** }
1665:Drivers/CMSIS/Include/core_cm4.h **** 
1666:Drivers/CMSIS/Include/core_cm4.h **** 
1667:Drivers/CMSIS/Include/core_cm4.h **** /**
1668:Drivers/CMSIS/Include/core_cm4.h ****   \brief   Clear Pending Interrupt
1669:Drivers/CMSIS/Include/core_cm4.h ****   \details Clears the pending bit of an external interrupt.
1670:Drivers/CMSIS/Include/core_cm4.h ****   \param [in]      IRQn  External interrupt number. Value cannot be negative.
1671:Drivers/CMSIS/Include/core_cm4.h ****  */
1672:Drivers/CMSIS/Include/core_cm4.h **** __STATIC_INLINE void NVIC_ClearPendingIRQ(IRQn_Type IRQn)
1673:Drivers/CMSIS/Include/core_cm4.h **** {
1674:Drivers/CMSIS/Include/core_cm4.h ****   NVIC->ICPR[(((uint32_t)(int32_t)IRQn) >> 5UL)] = (uint32_t)(1UL << (((uint32_t)(int32_t)IRQn) & 0
1675:Drivers/CMSIS/Include/core_cm4.h **** }
1676:Drivers/CMSIS/Include/core_cm4.h **** 
1677:Drivers/CMSIS/Include/core_cm4.h **** 
1678:Drivers/CMSIS/Include/core_cm4.h **** /**
1679:Drivers/CMSIS/Include/core_cm4.h ****   \brief   Get Active Interrupt
1680:Drivers/CMSIS/Include/core_cm4.h ****   \details Reads the active register in NVIC and returns the active bit.
1681:Drivers/CMSIS/Include/core_cm4.h ****   \param [in]      IRQn  Interrupt number.
1682:Drivers/CMSIS/Include/core_cm4.h ****   \return             0  Interrupt status is not active.
1683:Drivers/CMSIS/Include/core_cm4.h ****   \return             1  Interrupt status is active.
1684:Drivers/CMSIS/Include/core_cm4.h ****  */
1685:Drivers/CMSIS/Include/core_cm4.h **** __STATIC_INLINE uint32_t NVIC_GetActive(IRQn_Type IRQn)
1686:Drivers/CMSIS/Include/core_cm4.h **** {
