ARM GAS  /var/folders/k_/r2bh2pj93_jff4n9gmtn9jvr0000gn/T//ccZj4Tv2.s 			page 1


   1              		.cpu cortex-m4
   2              		.eabi_attribute 27, 1
   3              		.eabi_attribute 28, 1
   4              		.eabi_attribute 20, 1
   5              		.eabi_attribute 21, 1
   6              		.eabi_attribute 23, 3
   7              		.eabi_attribute 24, 1
   8              		.eabi_attribute 25, 1
   9              		.eabi_attribute 26, 1
  10              		.eabi_attribute 30, 1
  11              		.eabi_attribute 34, 1
  12              		.eabi_attribute 18, 4
  13              		.file	"led.c"
  14              		.text
  15              	.Ltext0:
  16              		.cfi_sections	.debug_frame
  17              		.section	.text.LED_Update,"ax",%progbits
  18              		.align	1
  19              		.global	LED_Update
  20              		.syntax unified
  21              		.thumb
  22              		.thumb_func
  23              		.fpu fpv4-sp-d16
  25              	LED_Update:
  26              	.LFB130:
  27              		.file 1 "led.c"
   1:led.c         **** #include "led.h"
   2:led.c         **** #include "tim.h"
   3:led.c         **** #include "stm32f3xx_hal_tim.h"
   4:led.c         **** 
   5:led.c         **** void LED_SetRed() {
   6:led.c         ****   for (uint8_t i = 0; i < 4; i++)
   7:led.c         ****   {
   8:led.c         ****     leds[i].r = 255;
   9:led.c         ****     leds[i].g = 0;
  10:led.c         ****   }
  11:led.c         ****   LED_Update();
  12:led.c         **** }
  13:led.c         **** void LED_SetOrange() {
  14:led.c         ****   for (uint8_t i = 0; i < 4; i++)
  15:led.c         ****   {
  16:led.c         ****     leds[i].r = 255;
  17:led.c         ****     leds[i].g = 255;
  18:led.c         ****   }
  19:led.c         ****   LED_Update();
  20:led.c         **** }
  21:led.c         **** void LED_SetGreen() {
  22:led.c         ****   for (uint8_t i = 0; i < 4; i++)
  23:led.c         ****   {
  24:led.c         ****     leds[i].r = 0;
  25:led.c         ****     leds[i].g = 255;
  26:led.c         ****   }
  27:led.c         ****   LED_Update();
  28:led.c         **** }
  29:led.c         **** 
  30:led.c         **** 
  31:led.c         **** void LED_Init() {
ARM GAS  /var/folders/k_/r2bh2pj93_jff4n9gmtn9jvr0000gn/T//ccZj4Tv2.s 			page 2


  32:led.c         ****   HAL_TIM_PWM_Start(&htim3,TIM_CHANNEL_1);
  33:led.c         ****   HAL_TIM_PWM_Start(&htim3,TIM_CHANNEL_2);
  34:led.c         ****   HAL_TIM_PWM_Start(&htim3,TIM_CHANNEL_3);
  35:led.c         ****   HAL_TIM_PWM_Start(&htim3,TIM_CHANNEL_4);
  36:led.c         ****   HAL_TIM_PWM_Start(&htim4,TIM_CHANNEL_1);
  37:led.c         ****   HAL_TIM_PWM_Start(&htim4,TIM_CHANNEL_2);
  38:led.c         ****   HAL_TIM_PWM_Start(&htim4,TIM_CHANNEL_3);
  39:led.c         ****   HAL_TIM_PWM_Start(&htim4,TIM_CHANNEL_4);
  40:led.c         ****   LED_Update();
  41:led.c         **** }
  42:led.c         **** 
  43:led.c         **** void LED_Update() {
  28              		.loc 1 43 0
  29              		.cfi_startproc
  30              		@ args = 0, pretend = 0, frame = 0
  31              		@ frame_needed = 0, uses_anonymous_args = 0
  32              		@ link register save eliminated.
  44:led.c         ****   __HAL_TIM_SET_COMPARE(&htim3,TIM_CHANNEL_1,leds[0].r);
  33              		.loc 1 44 0
  34 0000 0A4B     		ldr	r3, .L2
  35 0002 1A68     		ldr	r2, [r3]
  36 0004 0A4B     		ldr	r3, .L2+4
  37 0006 1978     		ldrb	r1, [r3]	@ zero_extendqisi2
  38 0008 5163     		str	r1, [r2, #52]
  45:led.c         ****   __HAL_TIM_SET_COMPARE(&htim3,TIM_CHANNEL_2,leds[0].g);
  39              		.loc 1 45 0
  40 000a 5978     		ldrb	r1, [r3, #1]	@ zero_extendqisi2
  41 000c 9163     		str	r1, [r2, #56]
  46:led.c         **** 
  47:led.c         ****   __HAL_TIM_SET_COMPARE(&htim3,TIM_CHANNEL_4,leds[1].r);
  42              		.loc 1 47 0
  43 000e D978     		ldrb	r1, [r3, #3]	@ zero_extendqisi2
  44 0010 1164     		str	r1, [r2, #64]
  48:led.c         ****   __HAL_TIM_SET_COMPARE(&htim3,TIM_CHANNEL_3,leds[1].g);
  45              		.loc 1 48 0
  46 0012 1979     		ldrb	r1, [r3, #4]	@ zero_extendqisi2
  47 0014 D163     		str	r1, [r2, #60]
  49:led.c         **** 
  50:led.c         ****   __HAL_TIM_SET_COMPARE(&htim4,TIM_CHANNEL_3,leds[2].r);
  48              		.loc 1 50 0
  49 0016 074A     		ldr	r2, .L2+8
  50 0018 1268     		ldr	r2, [r2]
  51 001a 9979     		ldrb	r1, [r3, #6]	@ zero_extendqisi2
  52 001c D163     		str	r1, [r2, #60]
  51:led.c         ****   __HAL_TIM_SET_COMPARE(&htim4,TIM_CHANNEL_4,leds[2].g);
  53              		.loc 1 51 0
  54 001e D979     		ldrb	r1, [r3, #7]	@ zero_extendqisi2
  55 0020 1164     		str	r1, [r2, #64]
  52:led.c         **** 
  53:led.c         ****   __HAL_TIM_SET_COMPARE(&htim4,TIM_CHANNEL_1,leds[3].r);
  56              		.loc 1 53 0
  57 0022 597A     		ldrb	r1, [r3, #9]	@ zero_extendqisi2
  58 0024 5163     		str	r1, [r2, #52]
  54:led.c         ****   __HAL_TIM_SET_COMPARE(&htim4,TIM_CHANNEL_2,leds[3].g);
  59              		.loc 1 54 0
  60 0026 9B7A     		ldrb	r3, [r3, #10]	@ zero_extendqisi2
  61 0028 9363     		str	r3, [r2, #56]
ARM GAS  /var/folders/k_/r2bh2pj93_jff4n9gmtn9jvr0000gn/T//ccZj4Tv2.s 			page 3


  55:led.c         **** }
  62              		.loc 1 55 0
  63 002a 7047     		bx	lr
  64              	.L3:
  65              		.align	2
  66              	.L2:
  67 002c 00000000 		.word	htim3
  68 0030 00000000 		.word	leds
  69 0034 00000000 		.word	htim4
  70              		.cfi_endproc
  71              	.LFE130:
  73              		.section	.text.LED_SetRed,"ax",%progbits
  74              		.align	1
  75              		.global	LED_SetRed
  76              		.syntax unified
  77              		.thumb
  78              		.thumb_func
  79              		.fpu fpv4-sp-d16
  81              	LED_SetRed:
  82              	.LFB126:
   5:led.c         ****   for (uint8_t i = 0; i < 4; i++)
  83              		.loc 1 5 0
  84              		.cfi_startproc
  85              		@ args = 0, pretend = 0, frame = 0
  86              		@ frame_needed = 0, uses_anonymous_args = 0
  87 0000 10B5     		push	{r4, lr}
  88              	.LCFI0:
  89              		.cfi_def_cfa_offset 8
  90              		.cfi_offset 4, -8
  91              		.cfi_offset 14, -4
  92              	.LVL0:
  93              	.LBB2:
   6:led.c         ****   {
  94              		.loc 1 6 0
  95 0002 0023     		movs	r3, #0
  96 0004 09E0     		b	.L5
  97              	.LVL1:
  98              	.L6:
   8:led.c         ****     leds[i].g = 0;
  99              		.loc 1 8 0 discriminator 3
 100 0006 0749     		ldr	r1, .L8
 101 0008 03EB4302 		add	r2, r3, r3, lsl #1
 102 000c 8818     		adds	r0, r1, r2
 103 000e FF24     		movs	r4, #255
 104 0010 8C54     		strb	r4, [r1, r2]
   9:led.c         ****   }
 105              		.loc 1 9 0 discriminator 3
 106 0012 0022     		movs	r2, #0
 107 0014 4270     		strb	r2, [r0, #1]
   6:led.c         ****   {
 108              		.loc 1 6 0 discriminator 3
 109 0016 0133     		adds	r3, r3, #1
 110              	.LVL2:
 111 0018 DBB2     		uxtb	r3, r3
 112              	.LVL3:
 113              	.L5:
   6:led.c         ****   {
ARM GAS  /var/folders/k_/r2bh2pj93_jff4n9gmtn9jvr0000gn/T//ccZj4Tv2.s 			page 4


 114              		.loc 1 6 0 is_stmt 0 discriminator 1
 115 001a 032B     		cmp	r3, #3
 116 001c F3D9     		bls	.L6
 117              	.LBE2:
  11:led.c         **** }
 118              		.loc 1 11 0 is_stmt 1
 119 001e FFF7FEFF 		bl	LED_Update
 120              	.LVL4:
  12:led.c         **** void LED_SetOrange() {
 121              		.loc 1 12 0
 122 0022 10BD     		pop	{r4, pc}
 123              	.L9:
 124              		.align	2
 125              	.L8:
 126 0024 00000000 		.word	leds
 127              		.cfi_endproc
 128              	.LFE126:
 130              		.section	.text.LED_SetOrange,"ax",%progbits
 131              		.align	1
 132              		.global	LED_SetOrange
 133              		.syntax unified
 134              		.thumb
 135              		.thumb_func
 136              		.fpu fpv4-sp-d16
 138              	LED_SetOrange:
 139              	.LFB127:
  13:led.c         ****   for (uint8_t i = 0; i < 4; i++)
 140              		.loc 1 13 0
 141              		.cfi_startproc
 142              		@ args = 0, pretend = 0, frame = 0
 143              		@ frame_needed = 0, uses_anonymous_args = 0
 144 0000 10B5     		push	{r4, lr}
 145              	.LCFI1:
 146              		.cfi_def_cfa_offset 8
 147              		.cfi_offset 4, -8
 148              		.cfi_offset 14, -4
 149              	.LVL5:
 150              	.LBB3:
  14:led.c         ****   {
 151              		.loc 1 14 0
 152 0002 0023     		movs	r3, #0
 153 0004 08E0     		b	.L11
 154              	.LVL6:
 155              	.L12:
  16:led.c         ****     leds[i].g = 255;
 156              		.loc 1 16 0 discriminator 3
 157 0006 0748     		ldr	r0, .L14
 158 0008 03EB4301 		add	r1, r3, r3, lsl #1
 159 000c 4418     		adds	r4, r0, r1
 160 000e FF22     		movs	r2, #255
 161 0010 4254     		strb	r2, [r0, r1]
  17:led.c         ****   }
 162              		.loc 1 17 0 discriminator 3
 163 0012 6270     		strb	r2, [r4, #1]
  14:led.c         ****   {
 164              		.loc 1 14 0 discriminator 3
 165 0014 0133     		adds	r3, r3, #1
ARM GAS  /var/folders/k_/r2bh2pj93_jff4n9gmtn9jvr0000gn/T//ccZj4Tv2.s 			page 5


 166              	.LVL7:
 167 0016 DBB2     		uxtb	r3, r3
 168              	.LVL8:
 169              	.L11:
  14:led.c         ****   {
 170              		.loc 1 14 0 is_stmt 0 discriminator 1
 171 0018 032B     		cmp	r3, #3
 172 001a F4D9     		bls	.L12
 173              	.LBE3:
  19:led.c         **** }
 174              		.loc 1 19 0 is_stmt 1
 175 001c FFF7FEFF 		bl	LED_Update
 176              	.LVL9:
  20:led.c         **** void LED_SetGreen() {
 177              		.loc 1 20 0
 178 0020 10BD     		pop	{r4, pc}
 179              	.L15:
 180 0022 00BF     		.align	2
 181              	.L14:
 182 0024 00000000 		.word	leds
 183              		.cfi_endproc
 184              	.LFE127:
 186              		.section	.text.LED_SetGreen,"ax",%progbits
 187              		.align	1
 188              		.global	LED_SetGreen
 189              		.syntax unified
 190              		.thumb
 191              		.thumb_func
 192              		.fpu fpv4-sp-d16
 194              	LED_SetGreen:
 195              	.LFB128:
  21:led.c         ****   for (uint8_t i = 0; i < 4; i++)
 196              		.loc 1 21 0
 197              		.cfi_startproc
 198              		@ args = 0, pretend = 0, frame = 0
 199              		@ frame_needed = 0, uses_anonymous_args = 0
 200 0000 10B5     		push	{r4, lr}
 201              	.LCFI2:
 202              		.cfi_def_cfa_offset 8
 203              		.cfi_offset 4, -8
 204              		.cfi_offset 14, -4
 205              	.LVL10:
 206              	.LBB4:
  22:led.c         ****   {
 207              		.loc 1 22 0
 208 0002 0023     		movs	r3, #0
 209 0004 09E0     		b	.L17
 210              	.LVL11:
 211              	.L18:
  24:led.c         ****     leds[i].g = 255;
 212              		.loc 1 24 0 discriminator 3
 213 0006 0749     		ldr	r1, .L20
 214 0008 03EB4302 		add	r2, r3, r3, lsl #1
 215 000c 8818     		adds	r0, r1, r2
 216 000e 0024     		movs	r4, #0
 217 0010 8C54     		strb	r4, [r1, r2]
  25:led.c         ****   }
ARM GAS  /var/folders/k_/r2bh2pj93_jff4n9gmtn9jvr0000gn/T//ccZj4Tv2.s 			page 6


 218              		.loc 1 25 0 discriminator 3
 219 0012 FF22     		movs	r2, #255
 220 0014 4270     		strb	r2, [r0, #1]
  22:led.c         ****   {
 221              		.loc 1 22 0 discriminator 3
 222 0016 0133     		adds	r3, r3, #1
 223              	.LVL12:
 224 0018 DBB2     		uxtb	r3, r3
 225              	.LVL13:
 226              	.L17:
  22:led.c         ****   {
 227              		.loc 1 22 0 is_stmt 0 discriminator 1
 228 001a 032B     		cmp	r3, #3
 229 001c F3D9     		bls	.L18
 230              	.LBE4:
  27:led.c         **** }
 231              		.loc 1 27 0 is_stmt 1
 232 001e FFF7FEFF 		bl	LED_Update
 233              	.LVL14:
  28:led.c         **** 
 234              		.loc 1 28 0
 235 0022 10BD     		pop	{r4, pc}
 236              	.L21:
 237              		.align	2
 238              	.L20:
 239 0024 00000000 		.word	leds
 240              		.cfi_endproc
 241              	.LFE128:
 243              		.section	.text.LED_Init,"ax",%progbits
 244              		.align	1
 245              		.global	LED_Init
 246              		.syntax unified
 247              		.thumb
 248              		.thumb_func
 249              		.fpu fpv4-sp-d16
 251              	LED_Init:
 252              	.LFB129:
  31:led.c         ****   HAL_TIM_PWM_Start(&htim3,TIM_CHANNEL_1);
 253              		.loc 1 31 0
 254              		.cfi_startproc
 255              		@ args = 0, pretend = 0, frame = 0
 256              		@ frame_needed = 0, uses_anonymous_args = 0
 257 0000 10B5     		push	{r4, lr}
 258              	.LCFI3:
 259              		.cfi_def_cfa_offset 8
 260              		.cfi_offset 4, -8
 261              		.cfi_offset 14, -4
  32:led.c         ****   HAL_TIM_PWM_Start(&htim3,TIM_CHANNEL_2);
 262              		.loc 1 32 0
 263 0002 124C     		ldr	r4, .L24
 264 0004 0021     		movs	r1, #0
 265 0006 2046     		mov	r0, r4
 266 0008 FFF7FEFF 		bl	HAL_TIM_PWM_Start
 267              	.LVL15:
  33:led.c         ****   HAL_TIM_PWM_Start(&htim3,TIM_CHANNEL_3);
 268              		.loc 1 33 0
 269 000c 0421     		movs	r1, #4
ARM GAS  /var/folders/k_/r2bh2pj93_jff4n9gmtn9jvr0000gn/T//ccZj4Tv2.s 			page 7


 270 000e 2046     		mov	r0, r4
 271 0010 FFF7FEFF 		bl	HAL_TIM_PWM_Start
 272              	.LVL16:
  34:led.c         ****   HAL_TIM_PWM_Start(&htim3,TIM_CHANNEL_4);
 273              		.loc 1 34 0
 274 0014 0821     		movs	r1, #8
 275 0016 2046     		mov	r0, r4
 276 0018 FFF7FEFF 		bl	HAL_TIM_PWM_Start
 277              	.LVL17:
  35:led.c         ****   HAL_TIM_PWM_Start(&htim4,TIM_CHANNEL_1);
 278              		.loc 1 35 0
 279 001c 0C21     		movs	r1, #12
 280 001e 2046     		mov	r0, r4
 281 0020 FFF7FEFF 		bl	HAL_TIM_PWM_Start
 282              	.LVL18:
  36:led.c         ****   HAL_TIM_PWM_Start(&htim4,TIM_CHANNEL_2);
 283              		.loc 1 36 0
 284 0024 0A4C     		ldr	r4, .L24+4
 285 0026 0021     		movs	r1, #0
 286 0028 2046     		mov	r0, r4
 287 002a FFF7FEFF 		bl	HAL_TIM_PWM_Start
 288              	.LVL19:
  37:led.c         ****   HAL_TIM_PWM_Start(&htim4,TIM_CHANNEL_3);
 289              		.loc 1 37 0
 290 002e 0421     		movs	r1, #4
 291 0030 2046     		mov	r0, r4
 292 0032 FFF7FEFF 		bl	HAL_TIM_PWM_Start
 293              	.LVL20:
  38:led.c         ****   HAL_TIM_PWM_Start(&htim4,TIM_CHANNEL_4);
 294              		.loc 1 38 0
 295 0036 0821     		movs	r1, #8
 296 0038 2046     		mov	r0, r4
 297 003a FFF7FEFF 		bl	HAL_TIM_PWM_Start
 298              	.LVL21:
  39:led.c         ****   LED_Update();
 299              		.loc 1 39 0
 300 003e 0C21     		movs	r1, #12
 301 0040 2046     		mov	r0, r4
 302 0042 FFF7FEFF 		bl	HAL_TIM_PWM_Start
 303              	.LVL22:
  40:led.c         **** }
 304              		.loc 1 40 0
 305 0046 FFF7FEFF 		bl	LED_Update
 306              	.LVL23:
  41:led.c         **** 
 307              		.loc 1 41 0
 308 004a 10BD     		pop	{r4, pc}
 309              	.L25:
 310              		.align	2
 311              	.L24:
 312 004c 00000000 		.word	htim3
 313 0050 00000000 		.word	htim4
 314              		.cfi_endproc
 315              	.LFE129:
 317              		.comm	leds,12,4
 318              		.comm	ledupdate,1,1
 319              		.text
ARM GAS  /var/folders/k_/r2bh2pj93_jff4n9gmtn9jvr0000gn/T//ccZj4Tv2.s 			page 8


 320              	.Letext0:
 321              		.file 2 "/usr/local/Cellar/arm-none-eabi-gcc/7-2018-q2-update/gcc/arm-none-eabi/include/machine/_d
 322              		.file 3 "/usr/local/Cellar/arm-none-eabi-gcc/7-2018-q2-update/gcc/arm-none-eabi/include/sys/_stdin
 323              		.file 4 "led.h"
 324              		.file 5 "../Drivers/CMSIS/Include/core_cm4.h"
 325              		.file 6 "../Drivers/CMSIS/Device/ST/STM32F3xx/Include/system_stm32f3xx.h"
 326              		.file 7 "../Drivers/CMSIS/Device/ST/STM32F3xx/Include/stm32f373xc.h"
 327              		.file 8 "/usr/local/Cellar/arm-none-eabi-gcc/7-2018-q2-update/gcc/arm-none-eabi/include/sys/lock.h
 328              		.file 9 "/usr/local/Cellar/arm-none-eabi-gcc/7-2018-q2-update/gcc/arm-none-eabi/include/sys/_types
 329              		.file 10 "/usr/local/Cellar/arm-none-eabi-gcc/7-2018-q2-update/gcc/lib/gcc/arm-none-eabi/7.3.1/inc
 330              		.file 11 "/usr/local/Cellar/arm-none-eabi-gcc/7-2018-q2-update/gcc/arm-none-eabi/include/sys/reent
 331              		.file 12 "../Drivers/STM32F3xx_HAL_Driver/Inc/stm32f3xx_hal_def.h"
 332              		.file 13 "../Drivers/STM32F3xx_HAL_Driver/Inc/stm32f3xx_hal_dma.h"
 333              		.file 14 "../Drivers/STM32F3xx_HAL_Driver/Inc/stm32f3xx_hal_tim.h"
 334              		.file 15 "tim.h"
ARM GAS  /var/folders/k_/r2bh2pj93_jff4n9gmtn9jvr0000gn/T//ccZj4Tv2.s 			page 9

