ARM GAS  /var/folders/k_/r2bh2pj93_jff4n9gmtn9jvr0000gn/T//cc0u2Ioj.s 			page 1


   1              		.cpu cortex-m4
   2              		.eabi_attribute 27, 1
   3              		.eabi_attribute 28, 1
   4              		.eabi_attribute 20, 1
   5              		.eabi_attribute 21, 1
   6              		.eabi_attribute 23, 3
   7              		.eabi_attribute 24, 1
   8              		.eabi_attribute 25, 1
   9              		.eabi_attribute 26, 1
  10              		.eabi_attribute 30, 1
  11              		.eabi_attribute 34, 1
  12              		.eabi_attribute 18, 4
  13              		.file	"stm32f3xx_hal_rcc.c"
  14              		.text
  15              	.Ltext0:
  16              		.cfi_sections	.debug_frame
  17              		.section	.text.HAL_RCC_DeInit,"ax",%progbits
  18              		.align	1
  19              		.global	HAL_RCC_DeInit
  20              		.syntax unified
  21              		.thumb
  22              		.thumb_func
  23              		.fpu fpv4-sp-d16
  25              	HAL_RCC_DeInit:
  26              	.LFB126:
  27              		.file 1 "../Drivers/STM32F3xx_HAL_Driver/Src/stm32f3xx_hal_rcc.c"
   1:../Drivers/STM32F3xx_HAL_Driver/Src/stm32f3xx_hal_rcc.c **** /**
   2:../Drivers/STM32F3xx_HAL_Driver/Src/stm32f3xx_hal_rcc.c ****   ******************************************************************************
   3:../Drivers/STM32F3xx_HAL_Driver/Src/stm32f3xx_hal_rcc.c ****   * @file    stm32f3xx_hal_rcc.c
   4:../Drivers/STM32F3xx_HAL_Driver/Src/stm32f3xx_hal_rcc.c ****   * @author  MCD Application Team
   5:../Drivers/STM32F3xx_HAL_Driver/Src/stm32f3xx_hal_rcc.c ****   * @version V1.4.0
   6:../Drivers/STM32F3xx_HAL_Driver/Src/stm32f3xx_hal_rcc.c ****   * @date    16-December-2016
   7:../Drivers/STM32F3xx_HAL_Driver/Src/stm32f3xx_hal_rcc.c ****   * @brief   RCC HAL module driver.
   8:../Drivers/STM32F3xx_HAL_Driver/Src/stm32f3xx_hal_rcc.c ****   *          This file provides firmware functions to manage the following 
   9:../Drivers/STM32F3xx_HAL_Driver/Src/stm32f3xx_hal_rcc.c ****   *          functionalities of the Reset and Clock Control (RCC) peripheral:
  10:../Drivers/STM32F3xx_HAL_Driver/Src/stm32f3xx_hal_rcc.c ****   *           + Initialization and de-initialization functions
  11:../Drivers/STM32F3xx_HAL_Driver/Src/stm32f3xx_hal_rcc.c ****   *           + Peripheral Control functions
  12:../Drivers/STM32F3xx_HAL_Driver/Src/stm32f3xx_hal_rcc.c ****   *       
  13:../Drivers/STM32F3xx_HAL_Driver/Src/stm32f3xx_hal_rcc.c ****   @verbatim                
  14:../Drivers/STM32F3xx_HAL_Driver/Src/stm32f3xx_hal_rcc.c ****   ==============================================================================
  15:../Drivers/STM32F3xx_HAL_Driver/Src/stm32f3xx_hal_rcc.c ****                       ##### RCC specific features #####
  16:../Drivers/STM32F3xx_HAL_Driver/Src/stm32f3xx_hal_rcc.c ****   ==============================================================================
  17:../Drivers/STM32F3xx_HAL_Driver/Src/stm32f3xx_hal_rcc.c ****     [..]  
  18:../Drivers/STM32F3xx_HAL_Driver/Src/stm32f3xx_hal_rcc.c ****       After reset the device is running from Internal High Speed oscillator
  19:../Drivers/STM32F3xx_HAL_Driver/Src/stm32f3xx_hal_rcc.c ****       (HSI 8MHz) with Flash 0 wait state, Flash prefetch buffer is enabled, 
  20:../Drivers/STM32F3xx_HAL_Driver/Src/stm32f3xx_hal_rcc.c ****       and all peripherals are off except internal SRAM, Flash and JTAG.
  21:../Drivers/STM32F3xx_HAL_Driver/Src/stm32f3xx_hal_rcc.c ****       (+) There is no prescaler on High speed (AHB) and Low speed (APB) buses;
  22:../Drivers/STM32F3xx_HAL_Driver/Src/stm32f3xx_hal_rcc.c ****           all peripherals mapped on these buses are running at HSI speed.
  23:../Drivers/STM32F3xx_HAL_Driver/Src/stm32f3xx_hal_rcc.c ****       (+) The clock for all peripherals is switched off, except the SRAM and FLASH.
  24:../Drivers/STM32F3xx_HAL_Driver/Src/stm32f3xx_hal_rcc.c ****       (+) All GPIOs are in input floating state, except the JTAG pins which
  25:../Drivers/STM32F3xx_HAL_Driver/Src/stm32f3xx_hal_rcc.c ****           are assigned to be used for debug purpose.
  26:../Drivers/STM32F3xx_HAL_Driver/Src/stm32f3xx_hal_rcc.c ****     [..] Once the device started from reset, the user application has to:
  27:../Drivers/STM32F3xx_HAL_Driver/Src/stm32f3xx_hal_rcc.c ****       (+) Configure the clock source to be used to drive the System clock
  28:../Drivers/STM32F3xx_HAL_Driver/Src/stm32f3xx_hal_rcc.c ****           (if the application needs higher frequency/performance)
  29:../Drivers/STM32F3xx_HAL_Driver/Src/stm32f3xx_hal_rcc.c ****       (+) Configure the System clock frequency and Flash settings  
  30:../Drivers/STM32F3xx_HAL_Driver/Src/stm32f3xx_hal_rcc.c ****       (+) Configure the AHB and APB buses prescalers
  31:../Drivers/STM32F3xx_HAL_Driver/Src/stm32f3xx_hal_rcc.c ****       (+) Enable the clock for the peripheral(s) to be used
ARM GAS  /var/folders/k_/r2bh2pj93_jff4n9gmtn9jvr0000gn/T//cc0u2Ioj.s 			page 2


  32:../Drivers/STM32F3xx_HAL_Driver/Src/stm32f3xx_hal_rcc.c ****       (+) Configure the clock source(s) for peripherals whose clocks are not
  33:../Drivers/STM32F3xx_HAL_Driver/Src/stm32f3xx_hal_rcc.c ****           derived from the System clock (RTC, ADC, I2C, I2S, TIM, USB FS)
  34:../Drivers/STM32F3xx_HAL_Driver/Src/stm32f3xx_hal_rcc.c **** 
  35:../Drivers/STM32F3xx_HAL_Driver/Src/stm32f3xx_hal_rcc.c ****                       ##### RCC Limitations #####
  36:../Drivers/STM32F3xx_HAL_Driver/Src/stm32f3xx_hal_rcc.c ****   ==============================================================================
  37:../Drivers/STM32F3xx_HAL_Driver/Src/stm32f3xx_hal_rcc.c ****     [..]  
  38:../Drivers/STM32F3xx_HAL_Driver/Src/stm32f3xx_hal_rcc.c ****       A delay between an RCC peripheral clock enable and the effective peripheral 
  39:../Drivers/STM32F3xx_HAL_Driver/Src/stm32f3xx_hal_rcc.c ****       enabling should be taken into account in order to manage the peripheral read/write 
  40:../Drivers/STM32F3xx_HAL_Driver/Src/stm32f3xx_hal_rcc.c ****       from/to registers.
  41:../Drivers/STM32F3xx_HAL_Driver/Src/stm32f3xx_hal_rcc.c ****       (+) This delay depends on the peripheral mapping.
  42:../Drivers/STM32F3xx_HAL_Driver/Src/stm32f3xx_hal_rcc.c ****         (++) AHB & APB peripherals, 1 dummy read is necessary
  43:../Drivers/STM32F3xx_HAL_Driver/Src/stm32f3xx_hal_rcc.c **** 
  44:../Drivers/STM32F3xx_HAL_Driver/Src/stm32f3xx_hal_rcc.c ****     [..]  
  45:../Drivers/STM32F3xx_HAL_Driver/Src/stm32f3xx_hal_rcc.c ****       Workarounds:
  46:../Drivers/STM32F3xx_HAL_Driver/Src/stm32f3xx_hal_rcc.c ****       (#) For AHB & APB peripherals, a dummy read to the peripheral register has been
  47:../Drivers/STM32F3xx_HAL_Driver/Src/stm32f3xx_hal_rcc.c ****           inserted in each __HAL_RCC_PPP_CLK_ENABLE() macro.
  48:../Drivers/STM32F3xx_HAL_Driver/Src/stm32f3xx_hal_rcc.c **** 
  49:../Drivers/STM32F3xx_HAL_Driver/Src/stm32f3xx_hal_rcc.c ****   @endverbatim
  50:../Drivers/STM32F3xx_HAL_Driver/Src/stm32f3xx_hal_rcc.c ****   ******************************************************************************
  51:../Drivers/STM32F3xx_HAL_Driver/Src/stm32f3xx_hal_rcc.c ****   * @attention
  52:../Drivers/STM32F3xx_HAL_Driver/Src/stm32f3xx_hal_rcc.c ****   *
  53:../Drivers/STM32F3xx_HAL_Driver/Src/stm32f3xx_hal_rcc.c ****   * <h2><center>&copy; COPYRIGHT(c) 2016 STMicroelectronics</center></h2>
  54:../Drivers/STM32F3xx_HAL_Driver/Src/stm32f3xx_hal_rcc.c ****   *
  55:../Drivers/STM32F3xx_HAL_Driver/Src/stm32f3xx_hal_rcc.c ****   * Redistribution and use in source and binary forms, with or without modification,
  56:../Drivers/STM32F3xx_HAL_Driver/Src/stm32f3xx_hal_rcc.c ****   * are permitted provided that the following conditions are met:
  57:../Drivers/STM32F3xx_HAL_Driver/Src/stm32f3xx_hal_rcc.c ****   *   1. Redistributions of source code must retain the above copyright notice,
  58:../Drivers/STM32F3xx_HAL_Driver/Src/stm32f3xx_hal_rcc.c ****   *      this list of conditions and the following disclaimer.
  59:../Drivers/STM32F3xx_HAL_Driver/Src/stm32f3xx_hal_rcc.c ****   *   2. Redistributions in binary form must reproduce the above copyright notice,
  60:../Drivers/STM32F3xx_HAL_Driver/Src/stm32f3xx_hal_rcc.c ****   *      this list of conditions and the following disclaimer in the documentation
  61:../Drivers/STM32F3xx_HAL_Driver/Src/stm32f3xx_hal_rcc.c ****   *      and/or other materials provided with the distribution.
  62:../Drivers/STM32F3xx_HAL_Driver/Src/stm32f3xx_hal_rcc.c ****   *   3. Neither the name of STMicroelectronics nor the names of its contributors
  63:../Drivers/STM32F3xx_HAL_Driver/Src/stm32f3xx_hal_rcc.c ****   *      may be used to endorse or promote products derived from this software
  64:../Drivers/STM32F3xx_HAL_Driver/Src/stm32f3xx_hal_rcc.c ****   *      without specific prior written permission.
  65:../Drivers/STM32F3xx_HAL_Driver/Src/stm32f3xx_hal_rcc.c ****   *
  66:../Drivers/STM32F3xx_HAL_Driver/Src/stm32f3xx_hal_rcc.c ****   * THIS SOFTWARE IS PROVIDED BY THE COPYRIGHT HOLDERS AND CONTRIBUTORS "AS IS"
  67:../Drivers/STM32F3xx_HAL_Driver/Src/stm32f3xx_hal_rcc.c ****   * AND ANY EXPRESS OR IMPLIED WARRANTIES, INCLUDING, BUT NOT LIMITED TO, THE
  68:../Drivers/STM32F3xx_HAL_Driver/Src/stm32f3xx_hal_rcc.c ****   * IMPLIED WARRANTIES OF MERCHANTABILITY AND FITNESS FOR A PARTICULAR PURPOSE ARE
  69:../Drivers/STM32F3xx_HAL_Driver/Src/stm32f3xx_hal_rcc.c ****   * DISCLAIMED. IN NO EVENT SHALL THE COPYRIGHT HOLDER OR CONTRIBUTORS BE LIABLE
  70:../Drivers/STM32F3xx_HAL_Driver/Src/stm32f3xx_hal_rcc.c ****   * FOR ANY DIRECT, INDIRECT, INCIDENTAL, SPECIAL, EXEMPLARY, OR CONSEQUENTIAL
  71:../Drivers/STM32F3xx_HAL_Driver/Src/stm32f3xx_hal_rcc.c ****   * DAMAGES (INCLUDING, BUT NOT LIMITED TO, PROCUREMENT OF SUBSTITUTE GOODS OR
  72:../Drivers/STM32F3xx_HAL_Driver/Src/stm32f3xx_hal_rcc.c ****   * SERVICES; LOSS OF USE, DATA, OR PROFITS; OR BUSINESS INTERRUPTION) HOWEVER
  73:../Drivers/STM32F3xx_HAL_Driver/Src/stm32f3xx_hal_rcc.c ****   * CAUSED AND ON ANY THEORY OF LIABILITY, WHETHER IN CONTRACT, STRICT LIABILITY,
  74:../Drivers/STM32F3xx_HAL_Driver/Src/stm32f3xx_hal_rcc.c ****   * OR TORT (INCLUDING NEGLIGENCE OR OTHERWISE) ARISING IN ANY WAY OUT OF THE USE
  75:../Drivers/STM32F3xx_HAL_Driver/Src/stm32f3xx_hal_rcc.c ****   * OF THIS SOFTWARE, EVEN IF ADVISED OF THE POSSIBILITY OF SUCH DAMAGE.
  76:../Drivers/STM32F3xx_HAL_Driver/Src/stm32f3xx_hal_rcc.c ****   *
  77:../Drivers/STM32F3xx_HAL_Driver/Src/stm32f3xx_hal_rcc.c ****   ******************************************************************************  
  78:../Drivers/STM32F3xx_HAL_Driver/Src/stm32f3xx_hal_rcc.c **** */
  79:../Drivers/STM32F3xx_HAL_Driver/Src/stm32f3xx_hal_rcc.c **** 
  80:../Drivers/STM32F3xx_HAL_Driver/Src/stm32f3xx_hal_rcc.c **** /* Includes ------------------------------------------------------------------*/
  81:../Drivers/STM32F3xx_HAL_Driver/Src/stm32f3xx_hal_rcc.c **** #include "stm32f3xx_hal.h"
  82:../Drivers/STM32F3xx_HAL_Driver/Src/stm32f3xx_hal_rcc.c **** 
  83:../Drivers/STM32F3xx_HAL_Driver/Src/stm32f3xx_hal_rcc.c **** /** @addtogroup STM32F3xx_HAL_Driver
  84:../Drivers/STM32F3xx_HAL_Driver/Src/stm32f3xx_hal_rcc.c ****   * @{
  85:../Drivers/STM32F3xx_HAL_Driver/Src/stm32f3xx_hal_rcc.c ****   */
  86:../Drivers/STM32F3xx_HAL_Driver/Src/stm32f3xx_hal_rcc.c **** 
  87:../Drivers/STM32F3xx_HAL_Driver/Src/stm32f3xx_hal_rcc.c **** /** @defgroup RCC RCC
  88:../Drivers/STM32F3xx_HAL_Driver/Src/stm32f3xx_hal_rcc.c **** * @brief RCC HAL module driver
ARM GAS  /var/folders/k_/r2bh2pj93_jff4n9gmtn9jvr0000gn/T//cc0u2Ioj.s 			page 3


  89:../Drivers/STM32F3xx_HAL_Driver/Src/stm32f3xx_hal_rcc.c ****   * @{
  90:../Drivers/STM32F3xx_HAL_Driver/Src/stm32f3xx_hal_rcc.c ****   */
  91:../Drivers/STM32F3xx_HAL_Driver/Src/stm32f3xx_hal_rcc.c **** 
  92:../Drivers/STM32F3xx_HAL_Driver/Src/stm32f3xx_hal_rcc.c **** #ifdef HAL_RCC_MODULE_ENABLED
  93:../Drivers/STM32F3xx_HAL_Driver/Src/stm32f3xx_hal_rcc.c **** 
  94:../Drivers/STM32F3xx_HAL_Driver/Src/stm32f3xx_hal_rcc.c **** /* Private typedef -----------------------------------------------------------*/
  95:../Drivers/STM32F3xx_HAL_Driver/Src/stm32f3xx_hal_rcc.c **** /* Private define ------------------------------------------------------------*/
  96:../Drivers/STM32F3xx_HAL_Driver/Src/stm32f3xx_hal_rcc.c **** /** @defgroup RCC_Private_Constants RCC Private Constants
  97:../Drivers/STM32F3xx_HAL_Driver/Src/stm32f3xx_hal_rcc.c ****  * @{
  98:../Drivers/STM32F3xx_HAL_Driver/Src/stm32f3xx_hal_rcc.c ****  */
  99:../Drivers/STM32F3xx_HAL_Driver/Src/stm32f3xx_hal_rcc.c **** /* Bits position in  in the CFGR register */
 100:../Drivers/STM32F3xx_HAL_Driver/Src/stm32f3xx_hal_rcc.c **** #define RCC_CFGR_HPRE_BITNUMBER           POSITION_VAL(RCC_CFGR_HPRE)
 101:../Drivers/STM32F3xx_HAL_Driver/Src/stm32f3xx_hal_rcc.c **** #define RCC_CFGR_PPRE1_BITNUMBER          POSITION_VAL(RCC_CFGR_PPRE1)
 102:../Drivers/STM32F3xx_HAL_Driver/Src/stm32f3xx_hal_rcc.c **** #define RCC_CFGR_PPRE2_BITNUMBER          POSITION_VAL(RCC_CFGR_PPRE2)
 103:../Drivers/STM32F3xx_HAL_Driver/Src/stm32f3xx_hal_rcc.c **** /**
 104:../Drivers/STM32F3xx_HAL_Driver/Src/stm32f3xx_hal_rcc.c ****   * @}
 105:../Drivers/STM32F3xx_HAL_Driver/Src/stm32f3xx_hal_rcc.c ****   */
 106:../Drivers/STM32F3xx_HAL_Driver/Src/stm32f3xx_hal_rcc.c **** /* Private macro -------------------------------------------------------------*/
 107:../Drivers/STM32F3xx_HAL_Driver/Src/stm32f3xx_hal_rcc.c **** /** @defgroup RCC_Private_Macros RCC Private Macros
 108:../Drivers/STM32F3xx_HAL_Driver/Src/stm32f3xx_hal_rcc.c ****   * @{
 109:../Drivers/STM32F3xx_HAL_Driver/Src/stm32f3xx_hal_rcc.c ****   */
 110:../Drivers/STM32F3xx_HAL_Driver/Src/stm32f3xx_hal_rcc.c **** 
 111:../Drivers/STM32F3xx_HAL_Driver/Src/stm32f3xx_hal_rcc.c **** #define MCO1_CLK_ENABLE()     __HAL_RCC_GPIOA_CLK_ENABLE()
 112:../Drivers/STM32F3xx_HAL_Driver/Src/stm32f3xx_hal_rcc.c **** #define MCO1_GPIO_PORT        GPIOA
 113:../Drivers/STM32F3xx_HAL_Driver/Src/stm32f3xx_hal_rcc.c **** #define MCO1_PIN              GPIO_PIN_8
 114:../Drivers/STM32F3xx_HAL_Driver/Src/stm32f3xx_hal_rcc.c **** 
 115:../Drivers/STM32F3xx_HAL_Driver/Src/stm32f3xx_hal_rcc.c **** /**
 116:../Drivers/STM32F3xx_HAL_Driver/Src/stm32f3xx_hal_rcc.c ****   * @}
 117:../Drivers/STM32F3xx_HAL_Driver/Src/stm32f3xx_hal_rcc.c ****   */
 118:../Drivers/STM32F3xx_HAL_Driver/Src/stm32f3xx_hal_rcc.c **** 
 119:../Drivers/STM32F3xx_HAL_Driver/Src/stm32f3xx_hal_rcc.c **** /* Private variables ---------------------------------------------------------*/
 120:../Drivers/STM32F3xx_HAL_Driver/Src/stm32f3xx_hal_rcc.c **** /** @defgroup RCC_Private_Variables RCC Private Variables
 121:../Drivers/STM32F3xx_HAL_Driver/Src/stm32f3xx_hal_rcc.c ****   * @{
 122:../Drivers/STM32F3xx_HAL_Driver/Src/stm32f3xx_hal_rcc.c ****   */
 123:../Drivers/STM32F3xx_HAL_Driver/Src/stm32f3xx_hal_rcc.c **** const uint8_t aPLLMULFactorTable[16] = { 2U,  3U,  4U,  5U,  6U,  7U,  8U,  9U,
 124:../Drivers/STM32F3xx_HAL_Driver/Src/stm32f3xx_hal_rcc.c ****                                        10U, 11U, 12U, 13U, 14U, 15U, 16U, 16U};
 125:../Drivers/STM32F3xx_HAL_Driver/Src/stm32f3xx_hal_rcc.c **** const uint8_t aPredivFactorTable[16] = { 1U, 2U,  3U,  4U,  5U,  6U,  7U,  8U,
 126:../Drivers/STM32F3xx_HAL_Driver/Src/stm32f3xx_hal_rcc.c ****                                          9U,10U, 11U, 12U, 13U, 14U, 15U, 16U};
 127:../Drivers/STM32F3xx_HAL_Driver/Src/stm32f3xx_hal_rcc.c **** /**
 128:../Drivers/STM32F3xx_HAL_Driver/Src/stm32f3xx_hal_rcc.c ****   * @}
 129:../Drivers/STM32F3xx_HAL_Driver/Src/stm32f3xx_hal_rcc.c ****   */
 130:../Drivers/STM32F3xx_HAL_Driver/Src/stm32f3xx_hal_rcc.c **** 
 131:../Drivers/STM32F3xx_HAL_Driver/Src/stm32f3xx_hal_rcc.c **** /* Private function prototypes -----------------------------------------------*/
 132:../Drivers/STM32F3xx_HAL_Driver/Src/stm32f3xx_hal_rcc.c **** /* Exported functions ---------------------------------------------------------*/
 133:../Drivers/STM32F3xx_HAL_Driver/Src/stm32f3xx_hal_rcc.c **** 
 134:../Drivers/STM32F3xx_HAL_Driver/Src/stm32f3xx_hal_rcc.c **** /** @defgroup RCC_Exported_Functions RCC Exported Functions
 135:../Drivers/STM32F3xx_HAL_Driver/Src/stm32f3xx_hal_rcc.c ****   * @{
 136:../Drivers/STM32F3xx_HAL_Driver/Src/stm32f3xx_hal_rcc.c ****   */
 137:../Drivers/STM32F3xx_HAL_Driver/Src/stm32f3xx_hal_rcc.c **** 
 138:../Drivers/STM32F3xx_HAL_Driver/Src/stm32f3xx_hal_rcc.c **** /** @defgroup RCC_Exported_Functions_Group1 Initialization and de-initialization functions 
 139:../Drivers/STM32F3xx_HAL_Driver/Src/stm32f3xx_hal_rcc.c ****   *  @brief    Initialization and Configuration functions 
 140:../Drivers/STM32F3xx_HAL_Driver/Src/stm32f3xx_hal_rcc.c ****   *
 141:../Drivers/STM32F3xx_HAL_Driver/Src/stm32f3xx_hal_rcc.c ****   @verbatim    
 142:../Drivers/STM32F3xx_HAL_Driver/Src/stm32f3xx_hal_rcc.c ****   ===============================================================================
 143:../Drivers/STM32F3xx_HAL_Driver/Src/stm32f3xx_hal_rcc.c ****            ##### Initialization and de-initialization functions #####
 144:../Drivers/STM32F3xx_HAL_Driver/Src/stm32f3xx_hal_rcc.c ****   ===============================================================================
 145:../Drivers/STM32F3xx_HAL_Driver/Src/stm32f3xx_hal_rcc.c ****     [..]
ARM GAS  /var/folders/k_/r2bh2pj93_jff4n9gmtn9jvr0000gn/T//cc0u2Ioj.s 			page 4


 146:../Drivers/STM32F3xx_HAL_Driver/Src/stm32f3xx_hal_rcc.c ****       This section provides functions allowing to configure the internal/external oscillators
 147:../Drivers/STM32F3xx_HAL_Driver/Src/stm32f3xx_hal_rcc.c ****       (HSE, HSI, LSE, LSI, PLL, CSS and MCO) and the System buses clocks (SYSCLK, AHB, APB1
 148:../Drivers/STM32F3xx_HAL_Driver/Src/stm32f3xx_hal_rcc.c ****       and APB2).
 149:../Drivers/STM32F3xx_HAL_Driver/Src/stm32f3xx_hal_rcc.c **** 
 150:../Drivers/STM32F3xx_HAL_Driver/Src/stm32f3xx_hal_rcc.c ****     [..] Internal/external clock and PLL configuration
 151:../Drivers/STM32F3xx_HAL_Driver/Src/stm32f3xx_hal_rcc.c ****       (#) HSI (high-speed internal), 8 MHz factory-trimmed RC used directly or through
 152:../Drivers/STM32F3xx_HAL_Driver/Src/stm32f3xx_hal_rcc.c ****           the PLL as System clock source.
 153:../Drivers/STM32F3xx_HAL_Driver/Src/stm32f3xx_hal_rcc.c ****           The HSI clock can be used also to clock the USART and I2C peripherals.
 154:../Drivers/STM32F3xx_HAL_Driver/Src/stm32f3xx_hal_rcc.c **** 
 155:../Drivers/STM32F3xx_HAL_Driver/Src/stm32f3xx_hal_rcc.c ****       (#) LSI (low-speed internal), ~40 KHz low consumption RC used as IWDG and/or RTC
 156:../Drivers/STM32F3xx_HAL_Driver/Src/stm32f3xx_hal_rcc.c ****           clock source.
 157:../Drivers/STM32F3xx_HAL_Driver/Src/stm32f3xx_hal_rcc.c **** 
 158:../Drivers/STM32F3xx_HAL_Driver/Src/stm32f3xx_hal_rcc.c ****       (#) HSE (high-speed external), 4 to 32 MHz crystal oscillator used directly or
 159:../Drivers/STM32F3xx_HAL_Driver/Src/stm32f3xx_hal_rcc.c ****           through the PLL as System clock source. Can be used also as RTC clock source.
 160:../Drivers/STM32F3xx_HAL_Driver/Src/stm32f3xx_hal_rcc.c **** 
 161:../Drivers/STM32F3xx_HAL_Driver/Src/stm32f3xx_hal_rcc.c ****       (#) LSE (low-speed external), 32 KHz oscillator used as RTC clock source.   
 162:../Drivers/STM32F3xx_HAL_Driver/Src/stm32f3xx_hal_rcc.c **** 
 163:../Drivers/STM32F3xx_HAL_Driver/Src/stm32f3xx_hal_rcc.c ****       (#) PLL (clocked by HSI or HSE), featuring different output clocks:
 164:../Drivers/STM32F3xx_HAL_Driver/Src/stm32f3xx_hal_rcc.c ****         (++) The first output is used to generate the high speed system clock (up to 72 MHz)
 165:../Drivers/STM32F3xx_HAL_Driver/Src/stm32f3xx_hal_rcc.c ****         (++) The second output is used to generate the clock for the USB FS (48 MHz)
 166:../Drivers/STM32F3xx_HAL_Driver/Src/stm32f3xx_hal_rcc.c ****         (++) The third output may be used to generate the clock for the ADC peripherals (up to 72 M
 167:../Drivers/STM32F3xx_HAL_Driver/Src/stm32f3xx_hal_rcc.c ****         (++) The fourth output may be used to generate the clock for the TIM peripherals (144 MHz)
 168:../Drivers/STM32F3xx_HAL_Driver/Src/stm32f3xx_hal_rcc.c **** 
 169:../Drivers/STM32F3xx_HAL_Driver/Src/stm32f3xx_hal_rcc.c ****       (#) CSS (Clock security system), once enable using the macro __HAL_RCC_CSS_ENABLE()
 170:../Drivers/STM32F3xx_HAL_Driver/Src/stm32f3xx_hal_rcc.c ****           and if a HSE clock failure occurs(HSE used directly or through PLL as System 
 171:../Drivers/STM32F3xx_HAL_Driver/Src/stm32f3xx_hal_rcc.c ****           clock source), the System clocks automatically switched to HSI and an interrupt
 172:../Drivers/STM32F3xx_HAL_Driver/Src/stm32f3xx_hal_rcc.c ****           is generated if enabled. The interrupt is linked to the Cortex-M4 NMI 
 173:../Drivers/STM32F3xx_HAL_Driver/Src/stm32f3xx_hal_rcc.c ****           (Non-Maskable Interrupt) exception vector.   
 174:../Drivers/STM32F3xx_HAL_Driver/Src/stm32f3xx_hal_rcc.c **** 
 175:../Drivers/STM32F3xx_HAL_Driver/Src/stm32f3xx_hal_rcc.c ****       (#) MCO (microcontroller clock output), used to output SYSCLK, HSI, HSE, LSI, LSE or PLL
 176:../Drivers/STM32F3xx_HAL_Driver/Src/stm32f3xx_hal_rcc.c ****           clock (divided by 2) output on pin (such as PA8 pin).
 177:../Drivers/STM32F3xx_HAL_Driver/Src/stm32f3xx_hal_rcc.c **** 
 178:../Drivers/STM32F3xx_HAL_Driver/Src/stm32f3xx_hal_rcc.c ****     [..] System, AHB and APB buses clocks configuration
 179:../Drivers/STM32F3xx_HAL_Driver/Src/stm32f3xx_hal_rcc.c ****       (#) Several clock sources can be used to drive the System clock (SYSCLK): HSI,
 180:../Drivers/STM32F3xx_HAL_Driver/Src/stm32f3xx_hal_rcc.c ****           HSE and PLL.
 181:../Drivers/STM32F3xx_HAL_Driver/Src/stm32f3xx_hal_rcc.c ****           The AHB clock (HCLK) is derived from System clock through configurable
 182:../Drivers/STM32F3xx_HAL_Driver/Src/stm32f3xx_hal_rcc.c ****           prescaler and used to clock the CPU, memory and peripherals mapped
 183:../Drivers/STM32F3xx_HAL_Driver/Src/stm32f3xx_hal_rcc.c ****           on AHB bus (DMA, GPIO...). APB1 (PCLK1) and APB2 (PCLK2) clocks are derived
 184:../Drivers/STM32F3xx_HAL_Driver/Src/stm32f3xx_hal_rcc.c ****           from AHB clock through configurable prescalers and used to clock
 185:../Drivers/STM32F3xx_HAL_Driver/Src/stm32f3xx_hal_rcc.c ****           the peripherals mapped on these buses. You can use
 186:../Drivers/STM32F3xx_HAL_Driver/Src/stm32f3xx_hal_rcc.c ****           "@ref HAL_RCC_GetSysClockFreq()" function to retrieve the frequencies of these clocks.
 187:../Drivers/STM32F3xx_HAL_Driver/Src/stm32f3xx_hal_rcc.c **** 
 188:../Drivers/STM32F3xx_HAL_Driver/Src/stm32f3xx_hal_rcc.c ****       (#) All the peripheral clocks are derived from the System clock (SYSCLK) except:
 189:../Drivers/STM32F3xx_HAL_Driver/Src/stm32f3xx_hal_rcc.c ****         (++) The FLASH program/erase clock  which is always HSI 8MHz clock.
 190:../Drivers/STM32F3xx_HAL_Driver/Src/stm32f3xx_hal_rcc.c ****         (++) The USB 48 MHz clock which is derived from the PLL VCO clock.
 191:../Drivers/STM32F3xx_HAL_Driver/Src/stm32f3xx_hal_rcc.c ****         (++) The USART clock which can be derived as well from HSI 8MHz, LSI or LSE.
 192:../Drivers/STM32F3xx_HAL_Driver/Src/stm32f3xx_hal_rcc.c ****         (++) The I2C clock which can be derived as well from HSI 8MHz clock.
 193:../Drivers/STM32F3xx_HAL_Driver/Src/stm32f3xx_hal_rcc.c ****         (++) The ADC clock which is derived from PLL output.
 194:../Drivers/STM32F3xx_HAL_Driver/Src/stm32f3xx_hal_rcc.c ****         (++) The RTC clock which is derived from the LSE, LSI or 1 MHz HSE_RTC
 195:../Drivers/STM32F3xx_HAL_Driver/Src/stm32f3xx_hal_rcc.c ****              (HSE divided by a programmable prescaler). The System clock (SYSCLK)
 196:../Drivers/STM32F3xx_HAL_Driver/Src/stm32f3xx_hal_rcc.c ****              frequency must be higher or equal to the RTC clock frequency.
 197:../Drivers/STM32F3xx_HAL_Driver/Src/stm32f3xx_hal_rcc.c ****         (++) IWDG clock which is always the LSI clock.
 198:../Drivers/STM32F3xx_HAL_Driver/Src/stm32f3xx_hal_rcc.c **** 
 199:../Drivers/STM32F3xx_HAL_Driver/Src/stm32f3xx_hal_rcc.c ****          (#) For the STM32F3xx devices, the maximum frequency of the SYSCLK, HCLK, PCLK1 and PCLK2 
 200:../Drivers/STM32F3xx_HAL_Driver/Src/stm32f3xx_hal_rcc.c ****              Depending on the SYSCLK frequency, the flash latency should be adapted accordingly.
 201:../Drivers/STM32F3xx_HAL_Driver/Src/stm32f3xx_hal_rcc.c **** 
 202:../Drivers/STM32F3xx_HAL_Driver/Src/stm32f3xx_hal_rcc.c ****          (#) After reset, the System clock source is the HSI (8 MHz) with 0 WS and
ARM GAS  /var/folders/k_/r2bh2pj93_jff4n9gmtn9jvr0000gn/T//cc0u2Ioj.s 			page 5


 203:../Drivers/STM32F3xx_HAL_Driver/Src/stm32f3xx_hal_rcc.c ****              prefetch is disabled.
 204:../Drivers/STM32F3xx_HAL_Driver/Src/stm32f3xx_hal_rcc.c ****   @endverbatim
 205:../Drivers/STM32F3xx_HAL_Driver/Src/stm32f3xx_hal_rcc.c ****   * @{
 206:../Drivers/STM32F3xx_HAL_Driver/Src/stm32f3xx_hal_rcc.c ****   */
 207:../Drivers/STM32F3xx_HAL_Driver/Src/stm32f3xx_hal_rcc.c ****   
 208:../Drivers/STM32F3xx_HAL_Driver/Src/stm32f3xx_hal_rcc.c **** /*
 209:../Drivers/STM32F3xx_HAL_Driver/Src/stm32f3xx_hal_rcc.c ****   Additional consideration on the SYSCLK based on Latency settings:
 210:../Drivers/STM32F3xx_HAL_Driver/Src/stm32f3xx_hal_rcc.c ****         +-----------------------------------------------+
 211:../Drivers/STM32F3xx_HAL_Driver/Src/stm32f3xx_hal_rcc.c ****         | Latency       | SYSCLK clock frequency (MHz)  |
 212:../Drivers/STM32F3xx_HAL_Driver/Src/stm32f3xx_hal_rcc.c ****         |---------------|-------------------------------|
 213:../Drivers/STM32F3xx_HAL_Driver/Src/stm32f3xx_hal_rcc.c ****         |0WS(1CPU cycle)|       0 < SYSCLK <= 24        |
 214:../Drivers/STM32F3xx_HAL_Driver/Src/stm32f3xx_hal_rcc.c ****         |---------------|-------------------------------|
 215:../Drivers/STM32F3xx_HAL_Driver/Src/stm32f3xx_hal_rcc.c ****         |1WS(2CPU cycle)|      24 < SYSCLK <= 48        |
 216:../Drivers/STM32F3xx_HAL_Driver/Src/stm32f3xx_hal_rcc.c ****         |---------------|-------------------------------|
 217:../Drivers/STM32F3xx_HAL_Driver/Src/stm32f3xx_hal_rcc.c ****         |2WS(3CPU cycle)|      48 < SYSCLK <= 72        |
 218:../Drivers/STM32F3xx_HAL_Driver/Src/stm32f3xx_hal_rcc.c ****         +-----------------------------------------------+
 219:../Drivers/STM32F3xx_HAL_Driver/Src/stm32f3xx_hal_rcc.c ****   */
 220:../Drivers/STM32F3xx_HAL_Driver/Src/stm32f3xx_hal_rcc.c **** 
 221:../Drivers/STM32F3xx_HAL_Driver/Src/stm32f3xx_hal_rcc.c **** /**
 222:../Drivers/STM32F3xx_HAL_Driver/Src/stm32f3xx_hal_rcc.c ****   * @brief  Resets the RCC clock configuration to the default reset state.
 223:../Drivers/STM32F3xx_HAL_Driver/Src/stm32f3xx_hal_rcc.c ****   * @note   The default reset state of the clock configuration is given below:
 224:../Drivers/STM32F3xx_HAL_Driver/Src/stm32f3xx_hal_rcc.c ****   *            - HSI ON and used as system clock source
 225:../Drivers/STM32F3xx_HAL_Driver/Src/stm32f3xx_hal_rcc.c ****   *            - HSE and PLL OFF
 226:../Drivers/STM32F3xx_HAL_Driver/Src/stm32f3xx_hal_rcc.c ****   *            - AHB, APB1 and APB2 prescaler set to 1.
 227:../Drivers/STM32F3xx_HAL_Driver/Src/stm32f3xx_hal_rcc.c ****   *            - CSS and MCO1 OFF
 228:../Drivers/STM32F3xx_HAL_Driver/Src/stm32f3xx_hal_rcc.c ****   *            - All interrupts disabled
 229:../Drivers/STM32F3xx_HAL_Driver/Src/stm32f3xx_hal_rcc.c ****   * @note   This function does not modify the configuration of the
 230:../Drivers/STM32F3xx_HAL_Driver/Src/stm32f3xx_hal_rcc.c ****   *            - Peripheral clocks
 231:../Drivers/STM32F3xx_HAL_Driver/Src/stm32f3xx_hal_rcc.c ****   *            - LSI, LSE and RTC clocks
 232:../Drivers/STM32F3xx_HAL_Driver/Src/stm32f3xx_hal_rcc.c ****   * @retval None
 233:../Drivers/STM32F3xx_HAL_Driver/Src/stm32f3xx_hal_rcc.c ****   */
 234:../Drivers/STM32F3xx_HAL_Driver/Src/stm32f3xx_hal_rcc.c **** void HAL_RCC_DeInit(void)
 235:../Drivers/STM32F3xx_HAL_Driver/Src/stm32f3xx_hal_rcc.c **** {
  28              		.loc 1 235 0
  29              		.cfi_startproc
  30              		@ args = 0, pretend = 0, frame = 0
  31              		@ frame_needed = 0, uses_anonymous_args = 0
  32              		@ link register save eliminated.
 236:../Drivers/STM32F3xx_HAL_Driver/Src/stm32f3xx_hal_rcc.c ****   /* Set HSION bit, HSITRIM[4:0] bits to the reset value*/
 237:../Drivers/STM32F3xx_HAL_Driver/Src/stm32f3xx_hal_rcc.c ****   SET_BIT(RCC->CR, RCC_CR_HSION | RCC_CR_HSITRIM_4); 
  33              		.loc 1 237 0
  34 0000 0D4B     		ldr	r3, .L2
  35 0002 1A68     		ldr	r2, [r3]
  36 0004 42F08102 		orr	r2, r2, #129
  37 0008 1A60     		str	r2, [r3]
 238:../Drivers/STM32F3xx_HAL_Driver/Src/stm32f3xx_hal_rcc.c **** 
 239:../Drivers/STM32F3xx_HAL_Driver/Src/stm32f3xx_hal_rcc.c ****   /* Reset SW[1:0], HPRE[3:0], PPRE1[2:0], PPRE2[2:0] and MCOSEL[2:0] bits */
 240:../Drivers/STM32F3xx_HAL_Driver/Src/stm32f3xx_hal_rcc.c ****   CLEAR_BIT(RCC->CFGR, RCC_CFGR_SW | RCC_CFGR_HPRE | RCC_CFGR_PPRE1 | RCC_CFGR_PPRE2 | RCC_CFGR_MCO
  38              		.loc 1 240 0
  39 000a 5968     		ldr	r1, [r3, #4]
  40 000c 0B4A     		ldr	r2, .L2+4
  41 000e 0A40     		ands	r2, r2, r1
  42 0010 5A60     		str	r2, [r3, #4]
 241:../Drivers/STM32F3xx_HAL_Driver/Src/stm32f3xx_hal_rcc.c **** 
 242:../Drivers/STM32F3xx_HAL_Driver/Src/stm32f3xx_hal_rcc.c ****   /* Reset HSEON, CSSON, PLLON bits */
 243:../Drivers/STM32F3xx_HAL_Driver/Src/stm32f3xx_hal_rcc.c ****   CLEAR_BIT(RCC->CR, RCC_CR_PLLON | RCC_CR_CSSON | RCC_CR_HSEON);
  43              		.loc 1 243 0
ARM GAS  /var/folders/k_/r2bh2pj93_jff4n9gmtn9jvr0000gn/T//cc0u2Ioj.s 			page 6


  44 0012 1A68     		ldr	r2, [r3]
  45 0014 22F08472 		bic	r2, r2, #17301504
  46 0018 22F48032 		bic	r2, r2, #65536
  47 001c 1A60     		str	r2, [r3]
 244:../Drivers/STM32F3xx_HAL_Driver/Src/stm32f3xx_hal_rcc.c ****   
 245:../Drivers/STM32F3xx_HAL_Driver/Src/stm32f3xx_hal_rcc.c ****   /* Reset HSEBYP bit */
 246:../Drivers/STM32F3xx_HAL_Driver/Src/stm32f3xx_hal_rcc.c ****   CLEAR_BIT(RCC->CR, RCC_CR_HSEBYP);
  48              		.loc 1 246 0
  49 001e 1A68     		ldr	r2, [r3]
  50 0020 22F48022 		bic	r2, r2, #262144
  51 0024 1A60     		str	r2, [r3]
 247:../Drivers/STM32F3xx_HAL_Driver/Src/stm32f3xx_hal_rcc.c **** 
 248:../Drivers/STM32F3xx_HAL_Driver/Src/stm32f3xx_hal_rcc.c ****   /* Reset CFGR register */
 249:../Drivers/STM32F3xx_HAL_Driver/Src/stm32f3xx_hal_rcc.c ****   CLEAR_REG(RCC->CFGR);
  52              		.loc 1 249 0
  53 0026 0022     		movs	r2, #0
  54 0028 5A60     		str	r2, [r3, #4]
 250:../Drivers/STM32F3xx_HAL_Driver/Src/stm32f3xx_hal_rcc.c ****   
 251:../Drivers/STM32F3xx_HAL_Driver/Src/stm32f3xx_hal_rcc.c ****   /* Reset CFGR2 register */
 252:../Drivers/STM32F3xx_HAL_Driver/Src/stm32f3xx_hal_rcc.c ****   CLEAR_REG(RCC->CFGR2);
  55              		.loc 1 252 0
  56 002a DA62     		str	r2, [r3, #44]
 253:../Drivers/STM32F3xx_HAL_Driver/Src/stm32f3xx_hal_rcc.c ****   
 254:../Drivers/STM32F3xx_HAL_Driver/Src/stm32f3xx_hal_rcc.c ****   /* Reset CFGR3 register */
 255:../Drivers/STM32F3xx_HAL_Driver/Src/stm32f3xx_hal_rcc.c ****   CLEAR_REG(RCC->CFGR3);
  57              		.loc 1 255 0
  58 002c 1A63     		str	r2, [r3, #48]
 256:../Drivers/STM32F3xx_HAL_Driver/Src/stm32f3xx_hal_rcc.c ****   
 257:../Drivers/STM32F3xx_HAL_Driver/Src/stm32f3xx_hal_rcc.c ****   /* Disable all interrupts */
 258:../Drivers/STM32F3xx_HAL_Driver/Src/stm32f3xx_hal_rcc.c ****   CLEAR_REG(RCC->CIR);
  59              		.loc 1 258 0
  60 002e 9A60     		str	r2, [r3, #8]
 259:../Drivers/STM32F3xx_HAL_Driver/Src/stm32f3xx_hal_rcc.c **** 
 260:../Drivers/STM32F3xx_HAL_Driver/Src/stm32f3xx_hal_rcc.c ****   /* Update the SystemCoreClock global variable */
 261:../Drivers/STM32F3xx_HAL_Driver/Src/stm32f3xx_hal_rcc.c ****   SystemCoreClock = HSI_VALUE;
  61              		.loc 1 261 0
  62 0030 034B     		ldr	r3, .L2+8
  63 0032 044A     		ldr	r2, .L2+12
  64 0034 1A60     		str	r2, [r3]
 262:../Drivers/STM32F3xx_HAL_Driver/Src/stm32f3xx_hal_rcc.c **** }
  65              		.loc 1 262 0
  66 0036 7047     		bx	lr
  67              	.L3:
  68              		.align	2
  69              	.L2:
  70 0038 00100240 		.word	1073876992
  71 003c 0CC0FFF8 		.word	-117456884
  72 0040 00000000 		.word	SystemCoreClock
  73 0044 00127A00 		.word	8000000
  74              		.cfi_endproc
  75              	.LFE126:
  77              		.section	.text.HAL_RCC_OscConfig,"ax",%progbits
  78              		.align	1
  79              		.global	HAL_RCC_OscConfig
  80              		.syntax unified
  81              		.thumb
  82              		.thumb_func
ARM GAS  /var/folders/k_/r2bh2pj93_jff4n9gmtn9jvr0000gn/T//cc0u2Ioj.s 			page 7


  83              		.fpu fpv4-sp-d16
  85              	HAL_RCC_OscConfig:
  86              	.LFB127:
 263:../Drivers/STM32F3xx_HAL_Driver/Src/stm32f3xx_hal_rcc.c **** 
 264:../Drivers/STM32F3xx_HAL_Driver/Src/stm32f3xx_hal_rcc.c **** /**
 265:../Drivers/STM32F3xx_HAL_Driver/Src/stm32f3xx_hal_rcc.c ****   * @brief  Initializes the RCC Oscillators according to the specified parameters in the
 266:../Drivers/STM32F3xx_HAL_Driver/Src/stm32f3xx_hal_rcc.c ****   *         RCC_OscInitTypeDef.
 267:../Drivers/STM32F3xx_HAL_Driver/Src/stm32f3xx_hal_rcc.c ****   * @param  RCC_OscInitStruct pointer to an RCC_OscInitTypeDef structure that
 268:../Drivers/STM32F3xx_HAL_Driver/Src/stm32f3xx_hal_rcc.c ****   *         contains the configuration information for the RCC Oscillators.
 269:../Drivers/STM32F3xx_HAL_Driver/Src/stm32f3xx_hal_rcc.c ****   * @note   The PLL is not disabled when used as system clock.
 270:../Drivers/STM32F3xx_HAL_Driver/Src/stm32f3xx_hal_rcc.c ****   * @note   Transitions LSE Bypass to LSE On and LSE On to LSE Bypass are not
 271:../Drivers/STM32F3xx_HAL_Driver/Src/stm32f3xx_hal_rcc.c ****   *         supported by this macro. User should request a transition to LSE Off
 272:../Drivers/STM32F3xx_HAL_Driver/Src/stm32f3xx_hal_rcc.c ****   *         first and then LSE On or LSE Bypass.
 273:../Drivers/STM32F3xx_HAL_Driver/Src/stm32f3xx_hal_rcc.c ****   * @note   Transition HSE Bypass to HSE On and HSE On to HSE Bypass are not
 274:../Drivers/STM32F3xx_HAL_Driver/Src/stm32f3xx_hal_rcc.c ****   *         supported by this macro. User should request a transition to HSE Off
 275:../Drivers/STM32F3xx_HAL_Driver/Src/stm32f3xx_hal_rcc.c ****   *         first and then HSE On or HSE Bypass.
 276:../Drivers/STM32F3xx_HAL_Driver/Src/stm32f3xx_hal_rcc.c ****   * @retval HAL status
 277:../Drivers/STM32F3xx_HAL_Driver/Src/stm32f3xx_hal_rcc.c ****   */
 278:../Drivers/STM32F3xx_HAL_Driver/Src/stm32f3xx_hal_rcc.c **** HAL_StatusTypeDef HAL_RCC_OscConfig(RCC_OscInitTypeDef  *RCC_OscInitStruct)
 279:../Drivers/STM32F3xx_HAL_Driver/Src/stm32f3xx_hal_rcc.c **** {
  87              		.loc 1 279 0
  88              		.cfi_startproc
  89              		@ args = 0, pretend = 0, frame = 8
  90              		@ frame_needed = 0, uses_anonymous_args = 0
  91              	.LVL0:
  92 0000 70B5     		push	{r4, r5, r6, lr}
  93              	.LCFI0:
  94              		.cfi_def_cfa_offset 16
  95              		.cfi_offset 4, -16
  96              		.cfi_offset 5, -12
  97              		.cfi_offset 6, -8
  98              		.cfi_offset 14, -4
  99 0002 82B0     		sub	sp, sp, #8
 100              	.LCFI1:
 101              		.cfi_def_cfa_offset 24
 102 0004 0446     		mov	r4, r0
 103              	.LVL1:
 280:../Drivers/STM32F3xx_HAL_Driver/Src/stm32f3xx_hal_rcc.c ****    uint32_t tickstart = 0U;
 281:../Drivers/STM32F3xx_HAL_Driver/Src/stm32f3xx_hal_rcc.c ****   
 282:../Drivers/STM32F3xx_HAL_Driver/Src/stm32f3xx_hal_rcc.c ****   /* Check the parameters */
 283:../Drivers/STM32F3xx_HAL_Driver/Src/stm32f3xx_hal_rcc.c ****   assert_param(RCC_OscInitStruct != NULL);
 284:../Drivers/STM32F3xx_HAL_Driver/Src/stm32f3xx_hal_rcc.c ****   assert_param(IS_RCC_OSCILLATORTYPE(RCC_OscInitStruct->OscillatorType));
 285:../Drivers/STM32F3xx_HAL_Driver/Src/stm32f3xx_hal_rcc.c **** 
 286:../Drivers/STM32F3xx_HAL_Driver/Src/stm32f3xx_hal_rcc.c ****   /*------------------------------- HSE Configuration ------------------------*/ 
 287:../Drivers/STM32F3xx_HAL_Driver/Src/stm32f3xx_hal_rcc.c ****   if(((RCC_OscInitStruct->OscillatorType) & RCC_OSCILLATORTYPE_HSE) == RCC_OSCILLATORTYPE_HSE)
 104              		.loc 1 287 0
 105 0006 0368     		ldr	r3, [r0]
 106 0008 13F0010F 		tst	r3, #1
 107 000c 3BD0     		beq	.L5
 288:../Drivers/STM32F3xx_HAL_Driver/Src/stm32f3xx_hal_rcc.c ****   {
 289:../Drivers/STM32F3xx_HAL_Driver/Src/stm32f3xx_hal_rcc.c ****     /* Check the parameters */
 290:../Drivers/STM32F3xx_HAL_Driver/Src/stm32f3xx_hal_rcc.c ****     assert_param(IS_RCC_HSE(RCC_OscInitStruct->HSEState));
 291:../Drivers/STM32F3xx_HAL_Driver/Src/stm32f3xx_hal_rcc.c **** 
 292:../Drivers/STM32F3xx_HAL_Driver/Src/stm32f3xx_hal_rcc.c ****     /* When the HSE is used as system clock or clock source for PLL in these cases it is not allowe
 293:../Drivers/STM32F3xx_HAL_Driver/Src/stm32f3xx_hal_rcc.c ****     if((__HAL_RCC_GET_SYSCLK_SOURCE() == RCC_SYSCLKSOURCE_STATUS_HSE) 
 108              		.loc 1 293 0
 109 000e B64B     		ldr	r3, .L111
ARM GAS  /var/folders/k_/r2bh2pj93_jff4n9gmtn9jvr0000gn/T//cc0u2Ioj.s 			page 8


 110 0010 5B68     		ldr	r3, [r3, #4]
 111 0012 03F00C03 		and	r3, r3, #12
 112 0016 042B     		cmp	r3, #4
 113 0018 1ED0     		beq	.L6
 294:../Drivers/STM32F3xx_HAL_Driver/Src/stm32f3xx_hal_rcc.c ****        || ((__HAL_RCC_GET_SYSCLK_SOURCE() == RCC_SYSCLKSOURCE_STATUS_PLLCLK) && (__HAL_RCC_GET_PLL_
 114              		.loc 1 294 0
 115 001a B34B     		ldr	r3, .L111
 116 001c 5B68     		ldr	r3, [r3, #4]
 117 001e 03F00C03 		and	r3, r3, #12
 118 0022 082B     		cmp	r3, #8
 119 0024 13D0     		beq	.L95
 120              	.L7:
 295:../Drivers/STM32F3xx_HAL_Driver/Src/stm32f3xx_hal_rcc.c ****     {
 296:../Drivers/STM32F3xx_HAL_Driver/Src/stm32f3xx_hal_rcc.c ****       if((__HAL_RCC_GET_FLAG(RCC_FLAG_HSERDY) != RESET) && (RCC_OscInitStruct->HSEState == RCC_HSE_
 297:../Drivers/STM32F3xx_HAL_Driver/Src/stm32f3xx_hal_rcc.c ****       {
 298:../Drivers/STM32F3xx_HAL_Driver/Src/stm32f3xx_hal_rcc.c ****         return HAL_ERROR;
 299:../Drivers/STM32F3xx_HAL_Driver/Src/stm32f3xx_hal_rcc.c ****       }
 300:../Drivers/STM32F3xx_HAL_Driver/Src/stm32f3xx_hal_rcc.c ****     }
 301:../Drivers/STM32F3xx_HAL_Driver/Src/stm32f3xx_hal_rcc.c ****     else
 302:../Drivers/STM32F3xx_HAL_Driver/Src/stm32f3xx_hal_rcc.c ****     {
 303:../Drivers/STM32F3xx_HAL_Driver/Src/stm32f3xx_hal_rcc.c ****       /* Set the new HSE configuration ---------------------------------------*/
 304:../Drivers/STM32F3xx_HAL_Driver/Src/stm32f3xx_hal_rcc.c ****       __HAL_RCC_HSE_CONFIG(RCC_OscInitStruct->HSEState);
 121              		.loc 1 304 0
 122 0026 6368     		ldr	r3, [r4, #4]
 123 0028 B3F5803F 		cmp	r3, #65536
 124 002c 68D0     		beq	.L96
 125              		.loc 1 304 0 is_stmt 0 discriminator 2
 126 002e 002B     		cmp	r3, #0
 127 0030 40F09280 		bne	.L13
 128              		.loc 1 304 0 discriminator 3
 129 0034 03F18043 		add	r3, r3, #1073741824
 130 0038 03F50433 		add	r3, r3, #135168
 131 003c 1A68     		ldr	r2, [r3]
 132 003e 22F48032 		bic	r2, r2, #65536
 133 0042 1A60     		str	r2, [r3]
 134 0044 1A68     		ldr	r2, [r3]
 135 0046 22F48022 		bic	r2, r2, #262144
 136 004a 1A60     		str	r2, [r3]
 137 004c 5DE0     		b	.L12
 138              	.L95:
 294:../Drivers/STM32F3xx_HAL_Driver/Src/stm32f3xx_hal_rcc.c ****        || ((__HAL_RCC_GET_SYSCLK_SOURCE() == RCC_SYSCLKSOURCE_STATUS_PLLCLK) && (__HAL_RCC_GET_PLL_
 139              		.loc 1 294 0 is_stmt 1 discriminator 1
 140 004e A64B     		ldr	r3, .L111
 141 0050 5B68     		ldr	r3, [r3, #4]
 142 0052 13F4803F 		tst	r3, #65536
 143 0056 E6D0     		beq	.L7
 144              	.L6:
 145              	.LVL2:
 146              	.LBB166:
 147              	.LBB167:
 148              		.file 2 "../Drivers/CMSIS/Include/cmsis_gcc.h"
   1:../Drivers/CMSIS/Include/cmsis_gcc.h **** /**************************************************************************//**
   2:../Drivers/CMSIS/Include/cmsis_gcc.h ****  * @file     cmsis_gcc.h
   3:../Drivers/CMSIS/Include/cmsis_gcc.h ****  * @brief    CMSIS Cortex-M Core Function/Instruction Header File
   4:../Drivers/CMSIS/Include/cmsis_gcc.h ****  * @version  V4.30
   5:../Drivers/CMSIS/Include/cmsis_gcc.h ****  * @date     20. October 2015
   6:../Drivers/CMSIS/Include/cmsis_gcc.h ****  ******************************************************************************/
ARM GAS  /var/folders/k_/r2bh2pj93_jff4n9gmtn9jvr0000gn/T//cc0u2Ioj.s 			page 9


   7:../Drivers/CMSIS/Include/cmsis_gcc.h **** /* Copyright (c) 2009 - 2015 ARM LIMITED
   8:../Drivers/CMSIS/Include/cmsis_gcc.h **** 
   9:../Drivers/CMSIS/Include/cmsis_gcc.h ****    All rights reserved.
  10:../Drivers/CMSIS/Include/cmsis_gcc.h ****    Redistribution and use in source and binary forms, with or without
  11:../Drivers/CMSIS/Include/cmsis_gcc.h ****    modification, are permitted provided that the following conditions are met:
  12:../Drivers/CMSIS/Include/cmsis_gcc.h ****    - Redistributions of source code must retain the above copyright
  13:../Drivers/CMSIS/Include/cmsis_gcc.h ****      notice, this list of conditions and the following disclaimer.
  14:../Drivers/CMSIS/Include/cmsis_gcc.h ****    - Redistributions in binary form must reproduce the above copyright
  15:../Drivers/CMSIS/Include/cmsis_gcc.h ****      notice, this list of conditions and the following disclaimer in the
  16:../Drivers/CMSIS/Include/cmsis_gcc.h ****      documentation and/or other materials provided with the distribution.
  17:../Drivers/CMSIS/Include/cmsis_gcc.h ****    - Neither the name of ARM nor the names of its contributors may be used
  18:../Drivers/CMSIS/Include/cmsis_gcc.h ****      to endorse or promote products derived from this software without
  19:../Drivers/CMSIS/Include/cmsis_gcc.h ****      specific prior written permission.
  20:../Drivers/CMSIS/Include/cmsis_gcc.h ****    *
  21:../Drivers/CMSIS/Include/cmsis_gcc.h ****    THIS SOFTWARE IS PROVIDED BY THE COPYRIGHT HOLDERS AND CONTRIBUTORS "AS IS"
  22:../Drivers/CMSIS/Include/cmsis_gcc.h ****    AND ANY EXPRESS OR IMPLIED WARRANTIES, INCLUDING, BUT NOT LIMITED TO, THE
  23:../Drivers/CMSIS/Include/cmsis_gcc.h ****    IMPLIED WARRANTIES OF MERCHANTABILITY AND FITNESS FOR A PARTICULAR PURPOSE
  24:../Drivers/CMSIS/Include/cmsis_gcc.h ****    ARE DISCLAIMED. IN NO EVENT SHALL COPYRIGHT HOLDERS AND CONTRIBUTORS BE
  25:../Drivers/CMSIS/Include/cmsis_gcc.h ****    LIABLE FOR ANY DIRECT, INDIRECT, INCIDENTAL, SPECIAL, EXEMPLARY, OR
  26:../Drivers/CMSIS/Include/cmsis_gcc.h ****    CONSEQUENTIAL DAMAGES (INCLUDING, BUT NOT LIMITED TO, PROCUREMENT OF
  27:../Drivers/CMSIS/Include/cmsis_gcc.h ****    SUBSTITUTE GOODS OR SERVICES; LOSS OF USE, DATA, OR PROFITS; OR BUSINESS
  28:../Drivers/CMSIS/Include/cmsis_gcc.h ****    INTERRUPTION) HOWEVER CAUSED AND ON ANY THEORY OF LIABILITY, WHETHER IN
  29:../Drivers/CMSIS/Include/cmsis_gcc.h ****    CONTRACT, STRICT LIABILITY, OR TORT (INCLUDING NEGLIGENCE OR OTHERWISE)
  30:../Drivers/CMSIS/Include/cmsis_gcc.h ****    ARISING IN ANY WAY OUT OF THE USE OF THIS SOFTWARE, EVEN IF ADVISED OF THE
  31:../Drivers/CMSIS/Include/cmsis_gcc.h ****    POSSIBILITY OF SUCH DAMAGE.
  32:../Drivers/CMSIS/Include/cmsis_gcc.h ****    ---------------------------------------------------------------------------*/
  33:../Drivers/CMSIS/Include/cmsis_gcc.h **** 
  34:../Drivers/CMSIS/Include/cmsis_gcc.h **** 
  35:../Drivers/CMSIS/Include/cmsis_gcc.h **** #ifndef __CMSIS_GCC_H
  36:../Drivers/CMSIS/Include/cmsis_gcc.h **** #define __CMSIS_GCC_H
  37:../Drivers/CMSIS/Include/cmsis_gcc.h **** 
  38:../Drivers/CMSIS/Include/cmsis_gcc.h **** /* ignore some GCC warnings */
  39:../Drivers/CMSIS/Include/cmsis_gcc.h **** #if defined ( __GNUC__ )
  40:../Drivers/CMSIS/Include/cmsis_gcc.h **** #pragma GCC diagnostic push
  41:../Drivers/CMSIS/Include/cmsis_gcc.h **** #pragma GCC diagnostic ignored "-Wsign-conversion"
  42:../Drivers/CMSIS/Include/cmsis_gcc.h **** #pragma GCC diagnostic ignored "-Wconversion"
  43:../Drivers/CMSIS/Include/cmsis_gcc.h **** #pragma GCC diagnostic ignored "-Wunused-parameter"
  44:../Drivers/CMSIS/Include/cmsis_gcc.h **** #endif
  45:../Drivers/CMSIS/Include/cmsis_gcc.h **** 
  46:../Drivers/CMSIS/Include/cmsis_gcc.h **** 
  47:../Drivers/CMSIS/Include/cmsis_gcc.h **** /* ###########################  Core Function Access  ########################### */
  48:../Drivers/CMSIS/Include/cmsis_gcc.h **** /** \ingroup  CMSIS_Core_FunctionInterface
  49:../Drivers/CMSIS/Include/cmsis_gcc.h ****     \defgroup CMSIS_Core_RegAccFunctions CMSIS Core Register Access Functions
  50:../Drivers/CMSIS/Include/cmsis_gcc.h ****   @{
  51:../Drivers/CMSIS/Include/cmsis_gcc.h ****  */
  52:../Drivers/CMSIS/Include/cmsis_gcc.h **** 
  53:../Drivers/CMSIS/Include/cmsis_gcc.h **** /**
  54:../Drivers/CMSIS/Include/cmsis_gcc.h ****   \brief   Enable IRQ Interrupts
  55:../Drivers/CMSIS/Include/cmsis_gcc.h ****   \details Enables IRQ interrupts by clearing the I-bit in the CPSR.
  56:../Drivers/CMSIS/Include/cmsis_gcc.h ****            Can only be executed in Privileged modes.
  57:../Drivers/CMSIS/Include/cmsis_gcc.h ****  */
  58:../Drivers/CMSIS/Include/cmsis_gcc.h **** __attribute__( ( always_inline ) ) __STATIC_INLINE void __enable_irq(void)
  59:../Drivers/CMSIS/Include/cmsis_gcc.h **** {
  60:../Drivers/CMSIS/Include/cmsis_gcc.h ****   __ASM volatile ("cpsie i" : : : "memory");
  61:../Drivers/CMSIS/Include/cmsis_gcc.h **** }
  62:../Drivers/CMSIS/Include/cmsis_gcc.h **** 
  63:../Drivers/CMSIS/Include/cmsis_gcc.h **** 
ARM GAS  /var/folders/k_/r2bh2pj93_jff4n9gmtn9jvr0000gn/T//cc0u2Ioj.s 			page 10


  64:../Drivers/CMSIS/Include/cmsis_gcc.h **** /**
  65:../Drivers/CMSIS/Include/cmsis_gcc.h ****   \brief   Disable IRQ Interrupts
  66:../Drivers/CMSIS/Include/cmsis_gcc.h ****   \details Disables IRQ interrupts by setting the I-bit in the CPSR.
  67:../Drivers/CMSIS/Include/cmsis_gcc.h ****   Can only be executed in Privileged modes.
  68:../Drivers/CMSIS/Include/cmsis_gcc.h ****  */
  69:../Drivers/CMSIS/Include/cmsis_gcc.h **** __attribute__( ( always_inline ) ) __STATIC_INLINE void __disable_irq(void)
  70:../Drivers/CMSIS/Include/cmsis_gcc.h **** {
  71:../Drivers/CMSIS/Include/cmsis_gcc.h ****   __ASM volatile ("cpsid i" : : : "memory");
  72:../Drivers/CMSIS/Include/cmsis_gcc.h **** }
  73:../Drivers/CMSIS/Include/cmsis_gcc.h **** 
  74:../Drivers/CMSIS/Include/cmsis_gcc.h **** 
  75:../Drivers/CMSIS/Include/cmsis_gcc.h **** /**
  76:../Drivers/CMSIS/Include/cmsis_gcc.h ****   \brief   Get Control Register
  77:../Drivers/CMSIS/Include/cmsis_gcc.h ****   \details Returns the content of the Control Register.
  78:../Drivers/CMSIS/Include/cmsis_gcc.h ****   \return               Control Register value
  79:../Drivers/CMSIS/Include/cmsis_gcc.h ****  */
  80:../Drivers/CMSIS/Include/cmsis_gcc.h **** __attribute__( ( always_inline ) ) __STATIC_INLINE uint32_t __get_CONTROL(void)
  81:../Drivers/CMSIS/Include/cmsis_gcc.h **** {
  82:../Drivers/CMSIS/Include/cmsis_gcc.h ****   uint32_t result;
  83:../Drivers/CMSIS/Include/cmsis_gcc.h **** 
  84:../Drivers/CMSIS/Include/cmsis_gcc.h ****   __ASM volatile ("MRS %0, control" : "=r" (result) );
  85:../Drivers/CMSIS/Include/cmsis_gcc.h ****   return(result);
  86:../Drivers/CMSIS/Include/cmsis_gcc.h **** }
  87:../Drivers/CMSIS/Include/cmsis_gcc.h **** 
  88:../Drivers/CMSIS/Include/cmsis_gcc.h **** 
  89:../Drivers/CMSIS/Include/cmsis_gcc.h **** /**
  90:../Drivers/CMSIS/Include/cmsis_gcc.h ****   \brief   Set Control Register
  91:../Drivers/CMSIS/Include/cmsis_gcc.h ****   \details Writes the given value to the Control Register.
  92:../Drivers/CMSIS/Include/cmsis_gcc.h ****   \param [in]    control  Control Register value to set
  93:../Drivers/CMSIS/Include/cmsis_gcc.h ****  */
  94:../Drivers/CMSIS/Include/cmsis_gcc.h **** __attribute__( ( always_inline ) ) __STATIC_INLINE void __set_CONTROL(uint32_t control)
  95:../Drivers/CMSIS/Include/cmsis_gcc.h **** {
  96:../Drivers/CMSIS/Include/cmsis_gcc.h ****   __ASM volatile ("MSR control, %0" : : "r" (control) : "memory");
  97:../Drivers/CMSIS/Include/cmsis_gcc.h **** }
  98:../Drivers/CMSIS/Include/cmsis_gcc.h **** 
  99:../Drivers/CMSIS/Include/cmsis_gcc.h **** 
 100:../Drivers/CMSIS/Include/cmsis_gcc.h **** /**
 101:../Drivers/CMSIS/Include/cmsis_gcc.h ****   \brief   Get IPSR Register
 102:../Drivers/CMSIS/Include/cmsis_gcc.h ****   \details Returns the content of the IPSR Register.
 103:../Drivers/CMSIS/Include/cmsis_gcc.h ****   \return               IPSR Register value
 104:../Drivers/CMSIS/Include/cmsis_gcc.h ****  */
 105:../Drivers/CMSIS/Include/cmsis_gcc.h **** __attribute__( ( always_inline ) ) __STATIC_INLINE uint32_t __get_IPSR(void)
 106:../Drivers/CMSIS/Include/cmsis_gcc.h **** {
 107:../Drivers/CMSIS/Include/cmsis_gcc.h ****   uint32_t result;
 108:../Drivers/CMSIS/Include/cmsis_gcc.h **** 
 109:../Drivers/CMSIS/Include/cmsis_gcc.h ****   __ASM volatile ("MRS %0, ipsr" : "=r" (result) );
 110:../Drivers/CMSIS/Include/cmsis_gcc.h ****   return(result);
 111:../Drivers/CMSIS/Include/cmsis_gcc.h **** }
 112:../Drivers/CMSIS/Include/cmsis_gcc.h **** 
 113:../Drivers/CMSIS/Include/cmsis_gcc.h **** 
 114:../Drivers/CMSIS/Include/cmsis_gcc.h **** /**
 115:../Drivers/CMSIS/Include/cmsis_gcc.h ****   \brief   Get APSR Register
 116:../Drivers/CMSIS/Include/cmsis_gcc.h ****   \details Returns the content of the APSR Register.
 117:../Drivers/CMSIS/Include/cmsis_gcc.h ****   \return               APSR Register value
 118:../Drivers/CMSIS/Include/cmsis_gcc.h ****  */
 119:../Drivers/CMSIS/Include/cmsis_gcc.h **** __attribute__( ( always_inline ) ) __STATIC_INLINE uint32_t __get_APSR(void)
 120:../Drivers/CMSIS/Include/cmsis_gcc.h **** {
ARM GAS  /var/folders/k_/r2bh2pj93_jff4n9gmtn9jvr0000gn/T//cc0u2Ioj.s 			page 11


 121:../Drivers/CMSIS/Include/cmsis_gcc.h ****   uint32_t result;
 122:../Drivers/CMSIS/Include/cmsis_gcc.h **** 
 123:../Drivers/CMSIS/Include/cmsis_gcc.h ****   __ASM volatile ("MRS %0, apsr" : "=r" (result) );
 124:../Drivers/CMSIS/Include/cmsis_gcc.h ****   return(result);
 125:../Drivers/CMSIS/Include/cmsis_gcc.h **** }
 126:../Drivers/CMSIS/Include/cmsis_gcc.h **** 
 127:../Drivers/CMSIS/Include/cmsis_gcc.h **** 
 128:../Drivers/CMSIS/Include/cmsis_gcc.h **** /**
 129:../Drivers/CMSIS/Include/cmsis_gcc.h ****   \brief   Get xPSR Register
 130:../Drivers/CMSIS/Include/cmsis_gcc.h ****   \details Returns the content of the xPSR Register.
 131:../Drivers/CMSIS/Include/cmsis_gcc.h **** 
 132:../Drivers/CMSIS/Include/cmsis_gcc.h ****     \return               xPSR Register value
 133:../Drivers/CMSIS/Include/cmsis_gcc.h ****  */
 134:../Drivers/CMSIS/Include/cmsis_gcc.h **** __attribute__( ( always_inline ) ) __STATIC_INLINE uint32_t __get_xPSR(void)
 135:../Drivers/CMSIS/Include/cmsis_gcc.h **** {
 136:../Drivers/CMSIS/Include/cmsis_gcc.h ****   uint32_t result;
 137:../Drivers/CMSIS/Include/cmsis_gcc.h **** 
 138:../Drivers/CMSIS/Include/cmsis_gcc.h ****   __ASM volatile ("MRS %0, xpsr" : "=r" (result) );
 139:../Drivers/CMSIS/Include/cmsis_gcc.h ****   return(result);
 140:../Drivers/CMSIS/Include/cmsis_gcc.h **** }
 141:../Drivers/CMSIS/Include/cmsis_gcc.h **** 
 142:../Drivers/CMSIS/Include/cmsis_gcc.h **** 
 143:../Drivers/CMSIS/Include/cmsis_gcc.h **** /**
 144:../Drivers/CMSIS/Include/cmsis_gcc.h ****   \brief   Get Process Stack Pointer
 145:../Drivers/CMSIS/Include/cmsis_gcc.h ****   \details Returns the current value of the Process Stack Pointer (PSP).
 146:../Drivers/CMSIS/Include/cmsis_gcc.h ****   \return               PSP Register value
 147:../Drivers/CMSIS/Include/cmsis_gcc.h ****  */
 148:../Drivers/CMSIS/Include/cmsis_gcc.h **** __attribute__( ( always_inline ) ) __STATIC_INLINE uint32_t __get_PSP(void)
 149:../Drivers/CMSIS/Include/cmsis_gcc.h **** {
 150:../Drivers/CMSIS/Include/cmsis_gcc.h ****   register uint32_t result;
 151:../Drivers/CMSIS/Include/cmsis_gcc.h **** 
 152:../Drivers/CMSIS/Include/cmsis_gcc.h ****   __ASM volatile ("MRS %0, psp\n"  : "=r" (result) );
 153:../Drivers/CMSIS/Include/cmsis_gcc.h ****   return(result);
 154:../Drivers/CMSIS/Include/cmsis_gcc.h **** }
 155:../Drivers/CMSIS/Include/cmsis_gcc.h **** 
 156:../Drivers/CMSIS/Include/cmsis_gcc.h **** 
 157:../Drivers/CMSIS/Include/cmsis_gcc.h **** /**
 158:../Drivers/CMSIS/Include/cmsis_gcc.h ****   \brief   Set Process Stack Pointer
 159:../Drivers/CMSIS/Include/cmsis_gcc.h ****   \details Assigns the given value to the Process Stack Pointer (PSP).
 160:../Drivers/CMSIS/Include/cmsis_gcc.h ****   \param [in]    topOfProcStack  Process Stack Pointer value to set
 161:../Drivers/CMSIS/Include/cmsis_gcc.h ****  */
 162:../Drivers/CMSIS/Include/cmsis_gcc.h **** __attribute__( ( always_inline ) ) __STATIC_INLINE void __set_PSP(uint32_t topOfProcStack)
 163:../Drivers/CMSIS/Include/cmsis_gcc.h **** {
 164:../Drivers/CMSIS/Include/cmsis_gcc.h ****   __ASM volatile ("MSR psp, %0\n" : : "r" (topOfProcStack) : "sp");
 165:../Drivers/CMSIS/Include/cmsis_gcc.h **** }
 166:../Drivers/CMSIS/Include/cmsis_gcc.h **** 
 167:../Drivers/CMSIS/Include/cmsis_gcc.h **** 
 168:../Drivers/CMSIS/Include/cmsis_gcc.h **** /**
 169:../Drivers/CMSIS/Include/cmsis_gcc.h ****   \brief   Get Main Stack Pointer
 170:../Drivers/CMSIS/Include/cmsis_gcc.h ****   \details Returns the current value of the Main Stack Pointer (MSP).
 171:../Drivers/CMSIS/Include/cmsis_gcc.h ****   \return               MSP Register value
 172:../Drivers/CMSIS/Include/cmsis_gcc.h ****  */
 173:../Drivers/CMSIS/Include/cmsis_gcc.h **** __attribute__( ( always_inline ) ) __STATIC_INLINE uint32_t __get_MSP(void)
 174:../Drivers/CMSIS/Include/cmsis_gcc.h **** {
 175:../Drivers/CMSIS/Include/cmsis_gcc.h ****   register uint32_t result;
 176:../Drivers/CMSIS/Include/cmsis_gcc.h **** 
 177:../Drivers/CMSIS/Include/cmsis_gcc.h ****   __ASM volatile ("MRS %0, msp\n" : "=r" (result) );
ARM GAS  /var/folders/k_/r2bh2pj93_jff4n9gmtn9jvr0000gn/T//cc0u2Ioj.s 			page 12


 178:../Drivers/CMSIS/Include/cmsis_gcc.h ****   return(result);
 179:../Drivers/CMSIS/Include/cmsis_gcc.h **** }
 180:../Drivers/CMSIS/Include/cmsis_gcc.h **** 
 181:../Drivers/CMSIS/Include/cmsis_gcc.h **** 
 182:../Drivers/CMSIS/Include/cmsis_gcc.h **** /**
 183:../Drivers/CMSIS/Include/cmsis_gcc.h ****   \brief   Set Main Stack Pointer
 184:../Drivers/CMSIS/Include/cmsis_gcc.h ****   \details Assigns the given value to the Main Stack Pointer (MSP).
 185:../Drivers/CMSIS/Include/cmsis_gcc.h **** 
 186:../Drivers/CMSIS/Include/cmsis_gcc.h ****     \param [in]    topOfMainStack  Main Stack Pointer value to set
 187:../Drivers/CMSIS/Include/cmsis_gcc.h ****  */
 188:../Drivers/CMSIS/Include/cmsis_gcc.h **** __attribute__( ( always_inline ) ) __STATIC_INLINE void __set_MSP(uint32_t topOfMainStack)
 189:../Drivers/CMSIS/Include/cmsis_gcc.h **** {
 190:../Drivers/CMSIS/Include/cmsis_gcc.h ****   __ASM volatile ("MSR msp, %0\n" : : "r" (topOfMainStack) : "sp");
 191:../Drivers/CMSIS/Include/cmsis_gcc.h **** }
 192:../Drivers/CMSIS/Include/cmsis_gcc.h **** 
 193:../Drivers/CMSIS/Include/cmsis_gcc.h **** 
 194:../Drivers/CMSIS/Include/cmsis_gcc.h **** /**
 195:../Drivers/CMSIS/Include/cmsis_gcc.h ****   \brief   Get Priority Mask
 196:../Drivers/CMSIS/Include/cmsis_gcc.h ****   \details Returns the current state of the priority mask bit from the Priority Mask Register.
 197:../Drivers/CMSIS/Include/cmsis_gcc.h ****   \return               Priority Mask value
 198:../Drivers/CMSIS/Include/cmsis_gcc.h ****  */
 199:../Drivers/CMSIS/Include/cmsis_gcc.h **** __attribute__( ( always_inline ) ) __STATIC_INLINE uint32_t __get_PRIMASK(void)
 200:../Drivers/CMSIS/Include/cmsis_gcc.h **** {
 201:../Drivers/CMSIS/Include/cmsis_gcc.h ****   uint32_t result;
 202:../Drivers/CMSIS/Include/cmsis_gcc.h **** 
 203:../Drivers/CMSIS/Include/cmsis_gcc.h ****   __ASM volatile ("MRS %0, primask" : "=r" (result) );
 204:../Drivers/CMSIS/Include/cmsis_gcc.h ****   return(result);
 205:../Drivers/CMSIS/Include/cmsis_gcc.h **** }
 206:../Drivers/CMSIS/Include/cmsis_gcc.h **** 
 207:../Drivers/CMSIS/Include/cmsis_gcc.h **** 
 208:../Drivers/CMSIS/Include/cmsis_gcc.h **** /**
 209:../Drivers/CMSIS/Include/cmsis_gcc.h ****   \brief   Set Priority Mask
 210:../Drivers/CMSIS/Include/cmsis_gcc.h ****   \details Assigns the given value to the Priority Mask Register.
 211:../Drivers/CMSIS/Include/cmsis_gcc.h ****   \param [in]    priMask  Priority Mask
 212:../Drivers/CMSIS/Include/cmsis_gcc.h ****  */
 213:../Drivers/CMSIS/Include/cmsis_gcc.h **** __attribute__( ( always_inline ) ) __STATIC_INLINE void __set_PRIMASK(uint32_t priMask)
 214:../Drivers/CMSIS/Include/cmsis_gcc.h **** {
 215:../Drivers/CMSIS/Include/cmsis_gcc.h ****   __ASM volatile ("MSR primask, %0" : : "r" (priMask) : "memory");
 216:../Drivers/CMSIS/Include/cmsis_gcc.h **** }
 217:../Drivers/CMSIS/Include/cmsis_gcc.h **** 
 218:../Drivers/CMSIS/Include/cmsis_gcc.h **** 
 219:../Drivers/CMSIS/Include/cmsis_gcc.h **** #if       (__CORTEX_M >= 0x03U)
 220:../Drivers/CMSIS/Include/cmsis_gcc.h **** 
 221:../Drivers/CMSIS/Include/cmsis_gcc.h **** /**
 222:../Drivers/CMSIS/Include/cmsis_gcc.h ****   \brief   Enable FIQ
 223:../Drivers/CMSIS/Include/cmsis_gcc.h ****   \details Enables FIQ interrupts by clearing the F-bit in the CPSR.
 224:../Drivers/CMSIS/Include/cmsis_gcc.h ****            Can only be executed in Privileged modes.
 225:../Drivers/CMSIS/Include/cmsis_gcc.h ****  */
 226:../Drivers/CMSIS/Include/cmsis_gcc.h **** __attribute__( ( always_inline ) ) __STATIC_INLINE void __enable_fault_irq(void)
 227:../Drivers/CMSIS/Include/cmsis_gcc.h **** {
 228:../Drivers/CMSIS/Include/cmsis_gcc.h ****   __ASM volatile ("cpsie f" : : : "memory");
 229:../Drivers/CMSIS/Include/cmsis_gcc.h **** }
 230:../Drivers/CMSIS/Include/cmsis_gcc.h **** 
 231:../Drivers/CMSIS/Include/cmsis_gcc.h **** 
 232:../Drivers/CMSIS/Include/cmsis_gcc.h **** /**
 233:../Drivers/CMSIS/Include/cmsis_gcc.h ****   \brief   Disable FIQ
 234:../Drivers/CMSIS/Include/cmsis_gcc.h ****   \details Disables FIQ interrupts by setting the F-bit in the CPSR.
ARM GAS  /var/folders/k_/r2bh2pj93_jff4n9gmtn9jvr0000gn/T//cc0u2Ioj.s 			page 13


 235:../Drivers/CMSIS/Include/cmsis_gcc.h ****            Can only be executed in Privileged modes.
 236:../Drivers/CMSIS/Include/cmsis_gcc.h ****  */
 237:../Drivers/CMSIS/Include/cmsis_gcc.h **** __attribute__( ( always_inline ) ) __STATIC_INLINE void __disable_fault_irq(void)
 238:../Drivers/CMSIS/Include/cmsis_gcc.h **** {
 239:../Drivers/CMSIS/Include/cmsis_gcc.h ****   __ASM volatile ("cpsid f" : : : "memory");
 240:../Drivers/CMSIS/Include/cmsis_gcc.h **** }
 241:../Drivers/CMSIS/Include/cmsis_gcc.h **** 
 242:../Drivers/CMSIS/Include/cmsis_gcc.h **** 
 243:../Drivers/CMSIS/Include/cmsis_gcc.h **** /**
 244:../Drivers/CMSIS/Include/cmsis_gcc.h ****   \brief   Get Base Priority
 245:../Drivers/CMSIS/Include/cmsis_gcc.h ****   \details Returns the current value of the Base Priority register.
 246:../Drivers/CMSIS/Include/cmsis_gcc.h ****   \return               Base Priority register value
 247:../Drivers/CMSIS/Include/cmsis_gcc.h ****  */
 248:../Drivers/CMSIS/Include/cmsis_gcc.h **** __attribute__( ( always_inline ) ) __STATIC_INLINE uint32_t __get_BASEPRI(void)
 249:../Drivers/CMSIS/Include/cmsis_gcc.h **** {
 250:../Drivers/CMSIS/Include/cmsis_gcc.h ****   uint32_t result;
 251:../Drivers/CMSIS/Include/cmsis_gcc.h **** 
 252:../Drivers/CMSIS/Include/cmsis_gcc.h ****   __ASM volatile ("MRS %0, basepri" : "=r" (result) );
 253:../Drivers/CMSIS/Include/cmsis_gcc.h ****   return(result);
 254:../Drivers/CMSIS/Include/cmsis_gcc.h **** }
 255:../Drivers/CMSIS/Include/cmsis_gcc.h **** 
 256:../Drivers/CMSIS/Include/cmsis_gcc.h **** 
 257:../Drivers/CMSIS/Include/cmsis_gcc.h **** /**
 258:../Drivers/CMSIS/Include/cmsis_gcc.h ****   \brief   Set Base Priority
 259:../Drivers/CMSIS/Include/cmsis_gcc.h ****   \details Assigns the given value to the Base Priority register.
 260:../Drivers/CMSIS/Include/cmsis_gcc.h ****   \param [in]    basePri  Base Priority value to set
 261:../Drivers/CMSIS/Include/cmsis_gcc.h ****  */
 262:../Drivers/CMSIS/Include/cmsis_gcc.h **** __attribute__( ( always_inline ) ) __STATIC_INLINE void __set_BASEPRI(uint32_t value)
 263:../Drivers/CMSIS/Include/cmsis_gcc.h **** {
 264:../Drivers/CMSIS/Include/cmsis_gcc.h ****   __ASM volatile ("MSR basepri, %0" : : "r" (value) : "memory");
 265:../Drivers/CMSIS/Include/cmsis_gcc.h **** }
 266:../Drivers/CMSIS/Include/cmsis_gcc.h **** 
 267:../Drivers/CMSIS/Include/cmsis_gcc.h **** 
 268:../Drivers/CMSIS/Include/cmsis_gcc.h **** /**
 269:../Drivers/CMSIS/Include/cmsis_gcc.h ****   \brief   Set Base Priority with condition
 270:../Drivers/CMSIS/Include/cmsis_gcc.h ****   \details Assigns the given value to the Base Priority register only if BASEPRI masking is disable
 271:../Drivers/CMSIS/Include/cmsis_gcc.h ****            or the new value increases the BASEPRI priority level.
 272:../Drivers/CMSIS/Include/cmsis_gcc.h ****   \param [in]    basePri  Base Priority value to set
 273:../Drivers/CMSIS/Include/cmsis_gcc.h ****  */
 274:../Drivers/CMSIS/Include/cmsis_gcc.h **** __attribute__( ( always_inline ) ) __STATIC_INLINE void __set_BASEPRI_MAX(uint32_t value)
 275:../Drivers/CMSIS/Include/cmsis_gcc.h **** {
 276:../Drivers/CMSIS/Include/cmsis_gcc.h ****   __ASM volatile ("MSR basepri_max, %0" : : "r" (value) : "memory");
 277:../Drivers/CMSIS/Include/cmsis_gcc.h **** }
 278:../Drivers/CMSIS/Include/cmsis_gcc.h **** 
 279:../Drivers/CMSIS/Include/cmsis_gcc.h **** 
 280:../Drivers/CMSIS/Include/cmsis_gcc.h **** /**
 281:../Drivers/CMSIS/Include/cmsis_gcc.h ****   \brief   Get Fault Mask
 282:../Drivers/CMSIS/Include/cmsis_gcc.h ****   \details Returns the current value of the Fault Mask register.
 283:../Drivers/CMSIS/Include/cmsis_gcc.h ****   \return               Fault Mask register value
 284:../Drivers/CMSIS/Include/cmsis_gcc.h ****  */
 285:../Drivers/CMSIS/Include/cmsis_gcc.h **** __attribute__( ( always_inline ) ) __STATIC_INLINE uint32_t __get_FAULTMASK(void)
 286:../Drivers/CMSIS/Include/cmsis_gcc.h **** {
 287:../Drivers/CMSIS/Include/cmsis_gcc.h ****   uint32_t result;
 288:../Drivers/CMSIS/Include/cmsis_gcc.h **** 
 289:../Drivers/CMSIS/Include/cmsis_gcc.h ****   __ASM volatile ("MRS %0, faultmask" : "=r" (result) );
 290:../Drivers/CMSIS/Include/cmsis_gcc.h ****   return(result);
 291:../Drivers/CMSIS/Include/cmsis_gcc.h **** }
ARM GAS  /var/folders/k_/r2bh2pj93_jff4n9gmtn9jvr0000gn/T//cc0u2Ioj.s 			page 14


 292:../Drivers/CMSIS/Include/cmsis_gcc.h **** 
 293:../Drivers/CMSIS/Include/cmsis_gcc.h **** 
 294:../Drivers/CMSIS/Include/cmsis_gcc.h **** /**
 295:../Drivers/CMSIS/Include/cmsis_gcc.h ****   \brief   Set Fault Mask
 296:../Drivers/CMSIS/Include/cmsis_gcc.h ****   \details Assigns the given value to the Fault Mask register.
 297:../Drivers/CMSIS/Include/cmsis_gcc.h ****   \param [in]    faultMask  Fault Mask value to set
 298:../Drivers/CMSIS/Include/cmsis_gcc.h ****  */
 299:../Drivers/CMSIS/Include/cmsis_gcc.h **** __attribute__( ( always_inline ) ) __STATIC_INLINE void __set_FAULTMASK(uint32_t faultMask)
 300:../Drivers/CMSIS/Include/cmsis_gcc.h **** {
 301:../Drivers/CMSIS/Include/cmsis_gcc.h ****   __ASM volatile ("MSR faultmask, %0" : : "r" (faultMask) : "memory");
 302:../Drivers/CMSIS/Include/cmsis_gcc.h **** }
 303:../Drivers/CMSIS/Include/cmsis_gcc.h **** 
 304:../Drivers/CMSIS/Include/cmsis_gcc.h **** #endif /* (__CORTEX_M >= 0x03U) */
 305:../Drivers/CMSIS/Include/cmsis_gcc.h **** 
 306:../Drivers/CMSIS/Include/cmsis_gcc.h **** 
 307:../Drivers/CMSIS/Include/cmsis_gcc.h **** #if       (__CORTEX_M == 0x04U) || (__CORTEX_M == 0x07U)
 308:../Drivers/CMSIS/Include/cmsis_gcc.h **** 
 309:../Drivers/CMSIS/Include/cmsis_gcc.h **** /**
 310:../Drivers/CMSIS/Include/cmsis_gcc.h ****   \brief   Get FPSCR
 311:../Drivers/CMSIS/Include/cmsis_gcc.h ****   \details Returns the current value of the Floating Point Status/Control register.
 312:../Drivers/CMSIS/Include/cmsis_gcc.h ****   \return               Floating Point Status/Control register value
 313:../Drivers/CMSIS/Include/cmsis_gcc.h ****  */
 314:../Drivers/CMSIS/Include/cmsis_gcc.h **** __attribute__( ( always_inline ) ) __STATIC_INLINE uint32_t __get_FPSCR(void)
 315:../Drivers/CMSIS/Include/cmsis_gcc.h **** {
 316:../Drivers/CMSIS/Include/cmsis_gcc.h **** #if (__FPU_PRESENT == 1U) && (__FPU_USED == 1U)
 317:../Drivers/CMSIS/Include/cmsis_gcc.h ****   uint32_t result;
 318:../Drivers/CMSIS/Include/cmsis_gcc.h **** 
 319:../Drivers/CMSIS/Include/cmsis_gcc.h ****   /* Empty asm statement works as a scheduling barrier */
 320:../Drivers/CMSIS/Include/cmsis_gcc.h ****   __ASM volatile ("");
 321:../Drivers/CMSIS/Include/cmsis_gcc.h ****   __ASM volatile ("VMRS %0, fpscr" : "=r" (result) );
 322:../Drivers/CMSIS/Include/cmsis_gcc.h ****   __ASM volatile ("");
 323:../Drivers/CMSIS/Include/cmsis_gcc.h ****   return(result);
 324:../Drivers/CMSIS/Include/cmsis_gcc.h **** #else
 325:../Drivers/CMSIS/Include/cmsis_gcc.h ****    return(0);
 326:../Drivers/CMSIS/Include/cmsis_gcc.h **** #endif
 327:../Drivers/CMSIS/Include/cmsis_gcc.h **** }
 328:../Drivers/CMSIS/Include/cmsis_gcc.h **** 
 329:../Drivers/CMSIS/Include/cmsis_gcc.h **** 
 330:../Drivers/CMSIS/Include/cmsis_gcc.h **** /**
 331:../Drivers/CMSIS/Include/cmsis_gcc.h ****   \brief   Set FPSCR
 332:../Drivers/CMSIS/Include/cmsis_gcc.h ****   \details Assigns the given value to the Floating Point Status/Control register.
 333:../Drivers/CMSIS/Include/cmsis_gcc.h ****   \param [in]    fpscr  Floating Point Status/Control value to set
 334:../Drivers/CMSIS/Include/cmsis_gcc.h ****  */
 335:../Drivers/CMSIS/Include/cmsis_gcc.h **** __attribute__( ( always_inline ) ) __STATIC_INLINE void __set_FPSCR(uint32_t fpscr)
 336:../Drivers/CMSIS/Include/cmsis_gcc.h **** {
 337:../Drivers/CMSIS/Include/cmsis_gcc.h **** #if (__FPU_PRESENT == 1U) && (__FPU_USED == 1U)
 338:../Drivers/CMSIS/Include/cmsis_gcc.h ****   /* Empty asm statement works as a scheduling barrier */
 339:../Drivers/CMSIS/Include/cmsis_gcc.h ****   __ASM volatile ("");
 340:../Drivers/CMSIS/Include/cmsis_gcc.h ****   __ASM volatile ("VMSR fpscr, %0" : : "r" (fpscr) : "vfpcc");
 341:../Drivers/CMSIS/Include/cmsis_gcc.h ****   __ASM volatile ("");
 342:../Drivers/CMSIS/Include/cmsis_gcc.h **** #endif
 343:../Drivers/CMSIS/Include/cmsis_gcc.h **** }
 344:../Drivers/CMSIS/Include/cmsis_gcc.h **** 
 345:../Drivers/CMSIS/Include/cmsis_gcc.h **** #endif /* (__CORTEX_M == 0x04U) || (__CORTEX_M == 0x07U) */
 346:../Drivers/CMSIS/Include/cmsis_gcc.h **** 
 347:../Drivers/CMSIS/Include/cmsis_gcc.h **** 
 348:../Drivers/CMSIS/Include/cmsis_gcc.h **** 
ARM GAS  /var/folders/k_/r2bh2pj93_jff4n9gmtn9jvr0000gn/T//cc0u2Ioj.s 			page 15


 349:../Drivers/CMSIS/Include/cmsis_gcc.h **** /*@} end of CMSIS_Core_RegAccFunctions */
 350:../Drivers/CMSIS/Include/cmsis_gcc.h **** 
 351:../Drivers/CMSIS/Include/cmsis_gcc.h **** 
 352:../Drivers/CMSIS/Include/cmsis_gcc.h **** /* ##########################  Core Instruction Access  ######################### */
 353:../Drivers/CMSIS/Include/cmsis_gcc.h **** /** \defgroup CMSIS_Core_InstructionInterface CMSIS Core Instruction Interface
 354:../Drivers/CMSIS/Include/cmsis_gcc.h ****   Access to dedicated instructions
 355:../Drivers/CMSIS/Include/cmsis_gcc.h ****   @{
 356:../Drivers/CMSIS/Include/cmsis_gcc.h **** */
 357:../Drivers/CMSIS/Include/cmsis_gcc.h **** 
 358:../Drivers/CMSIS/Include/cmsis_gcc.h **** /* Define macros for porting to both thumb1 and thumb2.
 359:../Drivers/CMSIS/Include/cmsis_gcc.h ****  * For thumb1, use low register (r0-r7), specified by constraint "l"
 360:../Drivers/CMSIS/Include/cmsis_gcc.h ****  * Otherwise, use general registers, specified by constraint "r" */
 361:../Drivers/CMSIS/Include/cmsis_gcc.h **** #if defined (__thumb__) && !defined (__thumb2__)
 362:../Drivers/CMSIS/Include/cmsis_gcc.h **** #define __CMSIS_GCC_OUT_REG(r) "=l" (r)
 363:../Drivers/CMSIS/Include/cmsis_gcc.h **** #define __CMSIS_GCC_USE_REG(r) "l" (r)
 364:../Drivers/CMSIS/Include/cmsis_gcc.h **** #else
 365:../Drivers/CMSIS/Include/cmsis_gcc.h **** #define __CMSIS_GCC_OUT_REG(r) "=r" (r)
 366:../Drivers/CMSIS/Include/cmsis_gcc.h **** #define __CMSIS_GCC_USE_REG(r) "r" (r)
 367:../Drivers/CMSIS/Include/cmsis_gcc.h **** #endif
 368:../Drivers/CMSIS/Include/cmsis_gcc.h **** 
 369:../Drivers/CMSIS/Include/cmsis_gcc.h **** /**
 370:../Drivers/CMSIS/Include/cmsis_gcc.h ****   \brief   No Operation
 371:../Drivers/CMSIS/Include/cmsis_gcc.h ****   \details No Operation does nothing. This instruction can be used for code alignment purposes.
 372:../Drivers/CMSIS/Include/cmsis_gcc.h ****  */
 373:../Drivers/CMSIS/Include/cmsis_gcc.h **** __attribute__((always_inline)) __STATIC_INLINE void __NOP(void)
 374:../Drivers/CMSIS/Include/cmsis_gcc.h **** {
 375:../Drivers/CMSIS/Include/cmsis_gcc.h ****   __ASM volatile ("nop");
 376:../Drivers/CMSIS/Include/cmsis_gcc.h **** }
 377:../Drivers/CMSIS/Include/cmsis_gcc.h **** 
 378:../Drivers/CMSIS/Include/cmsis_gcc.h **** 
 379:../Drivers/CMSIS/Include/cmsis_gcc.h **** /**
 380:../Drivers/CMSIS/Include/cmsis_gcc.h ****   \brief   Wait For Interrupt
 381:../Drivers/CMSIS/Include/cmsis_gcc.h ****   \details Wait For Interrupt is a hint instruction that suspends execution until one of a number o
 382:../Drivers/CMSIS/Include/cmsis_gcc.h ****  */
 383:../Drivers/CMSIS/Include/cmsis_gcc.h **** __attribute__((always_inline)) __STATIC_INLINE void __WFI(void)
 384:../Drivers/CMSIS/Include/cmsis_gcc.h **** {
 385:../Drivers/CMSIS/Include/cmsis_gcc.h ****   __ASM volatile ("wfi");
 386:../Drivers/CMSIS/Include/cmsis_gcc.h **** }
 387:../Drivers/CMSIS/Include/cmsis_gcc.h **** 
 388:../Drivers/CMSIS/Include/cmsis_gcc.h **** 
 389:../Drivers/CMSIS/Include/cmsis_gcc.h **** /**
 390:../Drivers/CMSIS/Include/cmsis_gcc.h ****   \brief   Wait For Event
 391:../Drivers/CMSIS/Include/cmsis_gcc.h ****   \details Wait For Event is a hint instruction that permits the processor to enter
 392:../Drivers/CMSIS/Include/cmsis_gcc.h ****     a low-power state until one of a number of events occurs.
 393:../Drivers/CMSIS/Include/cmsis_gcc.h ****  */
 394:../Drivers/CMSIS/Include/cmsis_gcc.h **** __attribute__((always_inline)) __STATIC_INLINE void __WFE(void)
 395:../Drivers/CMSIS/Include/cmsis_gcc.h **** {
 396:../Drivers/CMSIS/Include/cmsis_gcc.h ****   __ASM volatile ("wfe");
 397:../Drivers/CMSIS/Include/cmsis_gcc.h **** }
 398:../Drivers/CMSIS/Include/cmsis_gcc.h **** 
 399:../Drivers/CMSIS/Include/cmsis_gcc.h **** 
 400:../Drivers/CMSIS/Include/cmsis_gcc.h **** /**
 401:../Drivers/CMSIS/Include/cmsis_gcc.h ****   \brief   Send Event
 402:../Drivers/CMSIS/Include/cmsis_gcc.h ****   \details Send Event is a hint instruction. It causes an event to be signaled to the CPU.
 403:../Drivers/CMSIS/Include/cmsis_gcc.h ****  */
 404:../Drivers/CMSIS/Include/cmsis_gcc.h **** __attribute__((always_inline)) __STATIC_INLINE void __SEV(void)
 405:../Drivers/CMSIS/Include/cmsis_gcc.h **** {
ARM GAS  /var/folders/k_/r2bh2pj93_jff4n9gmtn9jvr0000gn/T//cc0u2Ioj.s 			page 16


 406:../Drivers/CMSIS/Include/cmsis_gcc.h ****   __ASM volatile ("sev");
 407:../Drivers/CMSIS/Include/cmsis_gcc.h **** }
 408:../Drivers/CMSIS/Include/cmsis_gcc.h **** 
 409:../Drivers/CMSIS/Include/cmsis_gcc.h **** 
 410:../Drivers/CMSIS/Include/cmsis_gcc.h **** /**
 411:../Drivers/CMSIS/Include/cmsis_gcc.h ****   \brief   Instruction Synchronization Barrier
 412:../Drivers/CMSIS/Include/cmsis_gcc.h ****   \details Instruction Synchronization Barrier flushes the pipeline in the processor,
 413:../Drivers/CMSIS/Include/cmsis_gcc.h ****            so that all instructions following the ISB are fetched from cache or memory,
 414:../Drivers/CMSIS/Include/cmsis_gcc.h ****            after the instruction has been completed.
 415:../Drivers/CMSIS/Include/cmsis_gcc.h ****  */
 416:../Drivers/CMSIS/Include/cmsis_gcc.h **** __attribute__((always_inline)) __STATIC_INLINE void __ISB(void)
 417:../Drivers/CMSIS/Include/cmsis_gcc.h **** {
 418:../Drivers/CMSIS/Include/cmsis_gcc.h ****   __ASM volatile ("isb 0xF":::"memory");
 419:../Drivers/CMSIS/Include/cmsis_gcc.h **** }
 420:../Drivers/CMSIS/Include/cmsis_gcc.h **** 
 421:../Drivers/CMSIS/Include/cmsis_gcc.h **** 
 422:../Drivers/CMSIS/Include/cmsis_gcc.h **** /**
 423:../Drivers/CMSIS/Include/cmsis_gcc.h ****   \brief   Data Synchronization Barrier
 424:../Drivers/CMSIS/Include/cmsis_gcc.h ****   \details Acts as a special kind of Data Memory Barrier.
 425:../Drivers/CMSIS/Include/cmsis_gcc.h ****            It completes when all explicit memory accesses before this instruction complete.
 426:../Drivers/CMSIS/Include/cmsis_gcc.h ****  */
 427:../Drivers/CMSIS/Include/cmsis_gcc.h **** __attribute__((always_inline)) __STATIC_INLINE void __DSB(void)
 428:../Drivers/CMSIS/Include/cmsis_gcc.h **** {
 429:../Drivers/CMSIS/Include/cmsis_gcc.h ****   __ASM volatile ("dsb 0xF":::"memory");
 430:../Drivers/CMSIS/Include/cmsis_gcc.h **** }
 431:../Drivers/CMSIS/Include/cmsis_gcc.h **** 
 432:../Drivers/CMSIS/Include/cmsis_gcc.h **** 
 433:../Drivers/CMSIS/Include/cmsis_gcc.h **** /**
 434:../Drivers/CMSIS/Include/cmsis_gcc.h ****   \brief   Data Memory Barrier
 435:../Drivers/CMSIS/Include/cmsis_gcc.h ****   \details Ensures the apparent order of the explicit memory operations before
 436:../Drivers/CMSIS/Include/cmsis_gcc.h ****            and after the instruction, without ensuring their completion.
 437:../Drivers/CMSIS/Include/cmsis_gcc.h ****  */
 438:../Drivers/CMSIS/Include/cmsis_gcc.h **** __attribute__((always_inline)) __STATIC_INLINE void __DMB(void)
 439:../Drivers/CMSIS/Include/cmsis_gcc.h **** {
 440:../Drivers/CMSIS/Include/cmsis_gcc.h ****   __ASM volatile ("dmb 0xF":::"memory");
 441:../Drivers/CMSIS/Include/cmsis_gcc.h **** }
 442:../Drivers/CMSIS/Include/cmsis_gcc.h **** 
 443:../Drivers/CMSIS/Include/cmsis_gcc.h **** 
 444:../Drivers/CMSIS/Include/cmsis_gcc.h **** /**
 445:../Drivers/CMSIS/Include/cmsis_gcc.h ****   \brief   Reverse byte order (32 bit)
 446:../Drivers/CMSIS/Include/cmsis_gcc.h ****   \details Reverses the byte order in integer value.
 447:../Drivers/CMSIS/Include/cmsis_gcc.h ****   \param [in]    value  Value to reverse
 448:../Drivers/CMSIS/Include/cmsis_gcc.h ****   \return               Reversed value
 449:../Drivers/CMSIS/Include/cmsis_gcc.h ****  */
 450:../Drivers/CMSIS/Include/cmsis_gcc.h **** __attribute__((always_inline)) __STATIC_INLINE uint32_t __REV(uint32_t value)
 451:../Drivers/CMSIS/Include/cmsis_gcc.h **** {
 452:../Drivers/CMSIS/Include/cmsis_gcc.h **** #if (__GNUC__ > 4) || (__GNUC__ == 4 && __GNUC_MINOR__ >= 5)
 453:../Drivers/CMSIS/Include/cmsis_gcc.h ****   return __builtin_bswap32(value);
 454:../Drivers/CMSIS/Include/cmsis_gcc.h **** #else
 455:../Drivers/CMSIS/Include/cmsis_gcc.h ****   uint32_t result;
 456:../Drivers/CMSIS/Include/cmsis_gcc.h **** 
 457:../Drivers/CMSIS/Include/cmsis_gcc.h ****   __ASM volatile ("rev %0, %1" : __CMSIS_GCC_OUT_REG (result) : __CMSIS_GCC_USE_REG (value) );
 458:../Drivers/CMSIS/Include/cmsis_gcc.h ****   return(result);
 459:../Drivers/CMSIS/Include/cmsis_gcc.h **** #endif
 460:../Drivers/CMSIS/Include/cmsis_gcc.h **** }
 461:../Drivers/CMSIS/Include/cmsis_gcc.h **** 
 462:../Drivers/CMSIS/Include/cmsis_gcc.h **** 
ARM GAS  /var/folders/k_/r2bh2pj93_jff4n9gmtn9jvr0000gn/T//cc0u2Ioj.s 			page 17


 463:../Drivers/CMSIS/Include/cmsis_gcc.h **** /**
 464:../Drivers/CMSIS/Include/cmsis_gcc.h ****   \brief   Reverse byte order (16 bit)
 465:../Drivers/CMSIS/Include/cmsis_gcc.h ****   \details Reverses the byte order in two unsigned short values.
 466:../Drivers/CMSIS/Include/cmsis_gcc.h ****   \param [in]    value  Value to reverse
 467:../Drivers/CMSIS/Include/cmsis_gcc.h ****   \return               Reversed value
 468:../Drivers/CMSIS/Include/cmsis_gcc.h ****  */
 469:../Drivers/CMSIS/Include/cmsis_gcc.h **** __attribute__((always_inline)) __STATIC_INLINE uint32_t __REV16(uint32_t value)
 470:../Drivers/CMSIS/Include/cmsis_gcc.h **** {
 471:../Drivers/CMSIS/Include/cmsis_gcc.h ****   uint32_t result;
 472:../Drivers/CMSIS/Include/cmsis_gcc.h **** 
 473:../Drivers/CMSIS/Include/cmsis_gcc.h ****   __ASM volatile ("rev16 %0, %1" : __CMSIS_GCC_OUT_REG (result) : __CMSIS_GCC_USE_REG (value) );
 474:../Drivers/CMSIS/Include/cmsis_gcc.h ****   return(result);
 475:../Drivers/CMSIS/Include/cmsis_gcc.h **** }
 476:../Drivers/CMSIS/Include/cmsis_gcc.h **** 
 477:../Drivers/CMSIS/Include/cmsis_gcc.h **** 
 478:../Drivers/CMSIS/Include/cmsis_gcc.h **** /**
 479:../Drivers/CMSIS/Include/cmsis_gcc.h ****   \brief   Reverse byte order in signed short value
 480:../Drivers/CMSIS/Include/cmsis_gcc.h ****   \details Reverses the byte order in a signed short value with sign extension to integer.
 481:../Drivers/CMSIS/Include/cmsis_gcc.h ****   \param [in]    value  Value to reverse
 482:../Drivers/CMSIS/Include/cmsis_gcc.h ****   \return               Reversed value
 483:../Drivers/CMSIS/Include/cmsis_gcc.h ****  */
 484:../Drivers/CMSIS/Include/cmsis_gcc.h **** __attribute__((always_inline)) __STATIC_INLINE int32_t __REVSH(int32_t value)
 485:../Drivers/CMSIS/Include/cmsis_gcc.h **** {
 486:../Drivers/CMSIS/Include/cmsis_gcc.h **** #if (__GNUC__ > 4) || (__GNUC__ == 4 && __GNUC_MINOR__ >= 8)
 487:../Drivers/CMSIS/Include/cmsis_gcc.h ****   return (short)__builtin_bswap16(value);
 488:../Drivers/CMSIS/Include/cmsis_gcc.h **** #else
 489:../Drivers/CMSIS/Include/cmsis_gcc.h ****   int32_t result;
 490:../Drivers/CMSIS/Include/cmsis_gcc.h **** 
 491:../Drivers/CMSIS/Include/cmsis_gcc.h ****   __ASM volatile ("revsh %0, %1" : __CMSIS_GCC_OUT_REG (result) : __CMSIS_GCC_USE_REG (value) );
 492:../Drivers/CMSIS/Include/cmsis_gcc.h ****   return(result);
 493:../Drivers/CMSIS/Include/cmsis_gcc.h **** #endif
 494:../Drivers/CMSIS/Include/cmsis_gcc.h **** }
 495:../Drivers/CMSIS/Include/cmsis_gcc.h **** 
 496:../Drivers/CMSIS/Include/cmsis_gcc.h **** 
 497:../Drivers/CMSIS/Include/cmsis_gcc.h **** /**
 498:../Drivers/CMSIS/Include/cmsis_gcc.h ****   \brief   Rotate Right in unsigned value (32 bit)
 499:../Drivers/CMSIS/Include/cmsis_gcc.h ****   \details Rotate Right (immediate) provides the value of the contents of a register rotated by a v
 500:../Drivers/CMSIS/Include/cmsis_gcc.h ****   \param [in]    value  Value to rotate
 501:../Drivers/CMSIS/Include/cmsis_gcc.h ****   \param [in]    value  Number of Bits to rotate
 502:../Drivers/CMSIS/Include/cmsis_gcc.h ****   \return               Rotated value
 503:../Drivers/CMSIS/Include/cmsis_gcc.h ****  */
 504:../Drivers/CMSIS/Include/cmsis_gcc.h **** __attribute__((always_inline)) __STATIC_INLINE uint32_t __ROR(uint32_t op1, uint32_t op2)
 505:../Drivers/CMSIS/Include/cmsis_gcc.h **** {
 506:../Drivers/CMSIS/Include/cmsis_gcc.h ****   return (op1 >> op2) | (op1 << (32U - op2));
 507:../Drivers/CMSIS/Include/cmsis_gcc.h **** }
 508:../Drivers/CMSIS/Include/cmsis_gcc.h **** 
 509:../Drivers/CMSIS/Include/cmsis_gcc.h **** 
 510:../Drivers/CMSIS/Include/cmsis_gcc.h **** /**
 511:../Drivers/CMSIS/Include/cmsis_gcc.h ****   \brief   Breakpoint
 512:../Drivers/CMSIS/Include/cmsis_gcc.h ****   \details Causes the processor to enter Debug state.
 513:../Drivers/CMSIS/Include/cmsis_gcc.h ****            Debug tools can use this to investigate system state when the instruction at a particula
 514:../Drivers/CMSIS/Include/cmsis_gcc.h ****   \param [in]    value  is ignored by the processor.
 515:../Drivers/CMSIS/Include/cmsis_gcc.h ****                  If required, a debugger can use it to store additional information about the break
 516:../Drivers/CMSIS/Include/cmsis_gcc.h ****  */
 517:../Drivers/CMSIS/Include/cmsis_gcc.h **** #define __BKPT(value)                       __ASM volatile ("bkpt "#value)
 518:../Drivers/CMSIS/Include/cmsis_gcc.h **** 
 519:../Drivers/CMSIS/Include/cmsis_gcc.h **** 
ARM GAS  /var/folders/k_/r2bh2pj93_jff4n9gmtn9jvr0000gn/T//cc0u2Ioj.s 			page 18


 520:../Drivers/CMSIS/Include/cmsis_gcc.h **** /**
 521:../Drivers/CMSIS/Include/cmsis_gcc.h ****   \brief   Reverse bit order of value
 522:../Drivers/CMSIS/Include/cmsis_gcc.h ****   \details Reverses the bit order of the given value.
 523:../Drivers/CMSIS/Include/cmsis_gcc.h ****   \param [in]    value  Value to reverse
 524:../Drivers/CMSIS/Include/cmsis_gcc.h ****   \return               Reversed value
 525:../Drivers/CMSIS/Include/cmsis_gcc.h ****  */
 526:../Drivers/CMSIS/Include/cmsis_gcc.h **** __attribute__((always_inline)) __STATIC_INLINE uint32_t __RBIT(uint32_t value)
 527:../Drivers/CMSIS/Include/cmsis_gcc.h **** {
 528:../Drivers/CMSIS/Include/cmsis_gcc.h ****   uint32_t result;
 529:../Drivers/CMSIS/Include/cmsis_gcc.h **** 
 530:../Drivers/CMSIS/Include/cmsis_gcc.h **** #if       (__CORTEX_M >= 0x03U) || (__CORTEX_SC >= 300U)
 531:../Drivers/CMSIS/Include/cmsis_gcc.h ****    __ASM volatile ("rbit %0, %1" : "=r" (result) : "r" (value) );
 149              		.loc 2 531 0
 150 0058 4FF40033 		mov	r3, #131072
 151              		.syntax unified
 152              	@ 531 "../Drivers/CMSIS/Include/cmsis_gcc.h" 1
 153 005c 93FAA3F3 		rbit r3, r3
 154              	@ 0 "" 2
 155              	.LVL3:
 156              		.thumb
 157              		.syntax unified
 158              	.LBE167:
 159              	.LBE166:
 296:../Drivers/STM32F3xx_HAL_Driver/Src/stm32f3xx_hal_rcc.c ****       {
 160              		.loc 1 296 0
 161 0060 A14B     		ldr	r3, .L111
 162 0062 1968     		ldr	r1, [r3]
 163              	.LVL4:
 164              	.LBB168:
 165              	.LBB169:
 166              		.loc 2 531 0
 167 0064 4FF40033 		mov	r3, #131072
 168              		.syntax unified
 169              	@ 531 "../Drivers/CMSIS/Include/cmsis_gcc.h" 1
 170 0068 93FAA3F3 		rbit r3, r3
 171              	@ 0 "" 2
 172              	.LVL5:
 173              		.thumb
 174              		.syntax unified
 175              	.LBE169:
 176              	.LBE168:
 296:../Drivers/STM32F3xx_HAL_Driver/Src/stm32f3xx_hal_rcc.c ****       {
 177              		.loc 1 296 0
 178 006c B3FA83F3 		clz	r3, r3
 179 0070 03F01F03 		and	r3, r3, #31
 180 0074 0122     		movs	r2, #1
 181 0076 02FA03F3 		lsl	r3, r2, r3
 182 007a 0B42     		tst	r3, r1
 183 007c 03D0     		beq	.L5
 296:../Drivers/STM32F3xx_HAL_Driver/Src/stm32f3xx_hal_rcc.c ****       {
 184              		.loc 1 296 0 is_stmt 0 discriminator 13
 185 007e 6368     		ldr	r3, [r4, #4]
 186 0080 002B     		cmp	r3, #0
 187 0082 00F0B382 		beq	.L97
 188              	.LVL6:
 189              	.L5:
 305:../Drivers/STM32F3xx_HAL_Driver/Src/stm32f3xx_hal_rcc.c ****       
ARM GAS  /var/folders/k_/r2bh2pj93_jff4n9gmtn9jvr0000gn/T//cc0u2Ioj.s 			page 19


 306:../Drivers/STM32F3xx_HAL_Driver/Src/stm32f3xx_hal_rcc.c **** #if defined(RCC_CFGR_PLLSRC_HSI_DIV2)
 307:../Drivers/STM32F3xx_HAL_Driver/Src/stm32f3xx_hal_rcc.c ****       /* Configure the HSE predivision factor --------------------------------*/
 308:../Drivers/STM32F3xx_HAL_Driver/Src/stm32f3xx_hal_rcc.c ****       __HAL_RCC_HSE_PREDIV_CONFIG(RCC_OscInitStruct->HSEPredivValue);
 309:../Drivers/STM32F3xx_HAL_Driver/Src/stm32f3xx_hal_rcc.c **** #endif /* RCC_CFGR_PLLSRC_HSI_DIV2 */
 310:../Drivers/STM32F3xx_HAL_Driver/Src/stm32f3xx_hal_rcc.c **** 
 311:../Drivers/STM32F3xx_HAL_Driver/Src/stm32f3xx_hal_rcc.c ****        /* Check the HSE State */
 312:../Drivers/STM32F3xx_HAL_Driver/Src/stm32f3xx_hal_rcc.c ****       if(RCC_OscInitStruct->HSEState != RCC_HSE_OFF)
 313:../Drivers/STM32F3xx_HAL_Driver/Src/stm32f3xx_hal_rcc.c ****       {
 314:../Drivers/STM32F3xx_HAL_Driver/Src/stm32f3xx_hal_rcc.c ****         /* Get Start Tick */
 315:../Drivers/STM32F3xx_HAL_Driver/Src/stm32f3xx_hal_rcc.c ****         tickstart = HAL_GetTick();
 316:../Drivers/STM32F3xx_HAL_Driver/Src/stm32f3xx_hal_rcc.c ****         
 317:../Drivers/STM32F3xx_HAL_Driver/Src/stm32f3xx_hal_rcc.c ****         /* Wait till HSE is ready */
 318:../Drivers/STM32F3xx_HAL_Driver/Src/stm32f3xx_hal_rcc.c ****         while(__HAL_RCC_GET_FLAG(RCC_FLAG_HSERDY) == RESET)
 319:../Drivers/STM32F3xx_HAL_Driver/Src/stm32f3xx_hal_rcc.c ****         {
 320:../Drivers/STM32F3xx_HAL_Driver/Src/stm32f3xx_hal_rcc.c ****           if((HAL_GetTick() - tickstart ) > HSE_TIMEOUT_VALUE)
 321:../Drivers/STM32F3xx_HAL_Driver/Src/stm32f3xx_hal_rcc.c ****           {
 322:../Drivers/STM32F3xx_HAL_Driver/Src/stm32f3xx_hal_rcc.c ****             return HAL_TIMEOUT;
 323:../Drivers/STM32F3xx_HAL_Driver/Src/stm32f3xx_hal_rcc.c ****           }
 324:../Drivers/STM32F3xx_HAL_Driver/Src/stm32f3xx_hal_rcc.c ****         }
 325:../Drivers/STM32F3xx_HAL_Driver/Src/stm32f3xx_hal_rcc.c ****       }
 326:../Drivers/STM32F3xx_HAL_Driver/Src/stm32f3xx_hal_rcc.c ****       else
 327:../Drivers/STM32F3xx_HAL_Driver/Src/stm32f3xx_hal_rcc.c ****       {
 328:../Drivers/STM32F3xx_HAL_Driver/Src/stm32f3xx_hal_rcc.c ****         /* Get Start Tick */
 329:../Drivers/STM32F3xx_HAL_Driver/Src/stm32f3xx_hal_rcc.c ****         tickstart = HAL_GetTick();
 330:../Drivers/STM32F3xx_HAL_Driver/Src/stm32f3xx_hal_rcc.c ****         
 331:../Drivers/STM32F3xx_HAL_Driver/Src/stm32f3xx_hal_rcc.c ****         /* Wait till HSE is disabled */
 332:../Drivers/STM32F3xx_HAL_Driver/Src/stm32f3xx_hal_rcc.c ****         while(__HAL_RCC_GET_FLAG(RCC_FLAG_HSERDY) != RESET)
 333:../Drivers/STM32F3xx_HAL_Driver/Src/stm32f3xx_hal_rcc.c ****         {
 334:../Drivers/STM32F3xx_HAL_Driver/Src/stm32f3xx_hal_rcc.c ****            if((HAL_GetTick() - tickstart ) > HSE_TIMEOUT_VALUE)
 335:../Drivers/STM32F3xx_HAL_Driver/Src/stm32f3xx_hal_rcc.c ****           {
 336:../Drivers/STM32F3xx_HAL_Driver/Src/stm32f3xx_hal_rcc.c ****             return HAL_TIMEOUT;
 337:../Drivers/STM32F3xx_HAL_Driver/Src/stm32f3xx_hal_rcc.c ****           }
 338:../Drivers/STM32F3xx_HAL_Driver/Src/stm32f3xx_hal_rcc.c ****         }
 339:../Drivers/STM32F3xx_HAL_Driver/Src/stm32f3xx_hal_rcc.c ****       }
 340:../Drivers/STM32F3xx_HAL_Driver/Src/stm32f3xx_hal_rcc.c ****     }
 341:../Drivers/STM32F3xx_HAL_Driver/Src/stm32f3xx_hal_rcc.c ****   }
 342:../Drivers/STM32F3xx_HAL_Driver/Src/stm32f3xx_hal_rcc.c ****   /*----------------------------- HSI Configuration --------------------------*/ 
 343:../Drivers/STM32F3xx_HAL_Driver/Src/stm32f3xx_hal_rcc.c ****   if(((RCC_OscInitStruct->OscillatorType) & RCC_OSCILLATORTYPE_HSI) == RCC_OSCILLATORTYPE_HSI)
 190              		.loc 1 343 0 is_stmt 1
 191 0086 2368     		ldr	r3, [r4]
 192 0088 13F0020F 		tst	r3, #2
 193 008c 00F0C680 		beq	.L24
 344:../Drivers/STM32F3xx_HAL_Driver/Src/stm32f3xx_hal_rcc.c ****   {
 345:../Drivers/STM32F3xx_HAL_Driver/Src/stm32f3xx_hal_rcc.c ****     /* Check the parameters */
 346:../Drivers/STM32F3xx_HAL_Driver/Src/stm32f3xx_hal_rcc.c ****     assert_param(IS_RCC_HSI(RCC_OscInitStruct->HSIState));
 347:../Drivers/STM32F3xx_HAL_Driver/Src/stm32f3xx_hal_rcc.c ****     assert_param(IS_RCC_CALIBRATION_VALUE(RCC_OscInitStruct->HSICalibrationValue));
 348:../Drivers/STM32F3xx_HAL_Driver/Src/stm32f3xx_hal_rcc.c ****     
 349:../Drivers/STM32F3xx_HAL_Driver/Src/stm32f3xx_hal_rcc.c ****     /* Check if HSI is used as system clock or as PLL source when PLL is selected as system clock *
 350:../Drivers/STM32F3xx_HAL_Driver/Src/stm32f3xx_hal_rcc.c ****     if((__HAL_RCC_GET_SYSCLK_SOURCE() == RCC_SYSCLKSOURCE_STATUS_HSI) 
 194              		.loc 1 350 0
 195 0090 954B     		ldr	r3, .L111
 196 0092 5B68     		ldr	r3, [r3, #4]
 197 0094 13F00C0F 		tst	r3, #12
 198 0098 00F09C80 		beq	.L25
 351:../Drivers/STM32F3xx_HAL_Driver/Src/stm32f3xx_hal_rcc.c ****        || ((__HAL_RCC_GET_SYSCLK_SOURCE() == RCC_SYSCLKSOURCE_STATUS_PLLCLK) && (__HAL_RCC_GET_PLL_
 199              		.loc 1 351 0
 200 009c 924B     		ldr	r3, .L111
ARM GAS  /var/folders/k_/r2bh2pj93_jff4n9gmtn9jvr0000gn/T//cc0u2Ioj.s 			page 20


 201 009e 5B68     		ldr	r3, [r3, #4]
 202 00a0 03F00C03 		and	r3, r3, #12
 203 00a4 082B     		cmp	r3, #8
 204 00a6 00F08F80 		beq	.L98
 205              	.L26:
 352:../Drivers/STM32F3xx_HAL_Driver/Src/stm32f3xx_hal_rcc.c ****     {
 353:../Drivers/STM32F3xx_HAL_Driver/Src/stm32f3xx_hal_rcc.c ****       /* When HSI is used as system clock it will not disabled */
 354:../Drivers/STM32F3xx_HAL_Driver/Src/stm32f3xx_hal_rcc.c ****       if((__HAL_RCC_GET_FLAG(RCC_FLAG_HSIRDY) != RESET) && (RCC_OscInitStruct->HSIState != RCC_HSI_
 355:../Drivers/STM32F3xx_HAL_Driver/Src/stm32f3xx_hal_rcc.c ****       {
 356:../Drivers/STM32F3xx_HAL_Driver/Src/stm32f3xx_hal_rcc.c ****         return HAL_ERROR;
 357:../Drivers/STM32F3xx_HAL_Driver/Src/stm32f3xx_hal_rcc.c ****       }
 358:../Drivers/STM32F3xx_HAL_Driver/Src/stm32f3xx_hal_rcc.c ****       /* Otherwise, just the calibration is allowed */
 359:../Drivers/STM32F3xx_HAL_Driver/Src/stm32f3xx_hal_rcc.c ****       else
 360:../Drivers/STM32F3xx_HAL_Driver/Src/stm32f3xx_hal_rcc.c ****       {
 361:../Drivers/STM32F3xx_HAL_Driver/Src/stm32f3xx_hal_rcc.c ****         /* Adjusts the Internal High Speed oscillator (HSI) calibration value.*/
 362:../Drivers/STM32F3xx_HAL_Driver/Src/stm32f3xx_hal_rcc.c ****         __HAL_RCC_HSI_CALIBRATIONVALUE_ADJUST(RCC_OscInitStruct->HSICalibrationValue);
 363:../Drivers/STM32F3xx_HAL_Driver/Src/stm32f3xx_hal_rcc.c ****       }
 364:../Drivers/STM32F3xx_HAL_Driver/Src/stm32f3xx_hal_rcc.c ****     }
 365:../Drivers/STM32F3xx_HAL_Driver/Src/stm32f3xx_hal_rcc.c ****     else
 366:../Drivers/STM32F3xx_HAL_Driver/Src/stm32f3xx_hal_rcc.c ****     {
 367:../Drivers/STM32F3xx_HAL_Driver/Src/stm32f3xx_hal_rcc.c ****       /* Check the HSI State */
 368:../Drivers/STM32F3xx_HAL_Driver/Src/stm32f3xx_hal_rcc.c ****       if(RCC_OscInitStruct->HSIState != RCC_HSI_OFF)
 206              		.loc 1 368 0
 207 00aa 2369     		ldr	r3, [r4, #16]
 208 00ac 002B     		cmp	r3, #0
 209 00ae 00F0F380 		beq	.L30
 210              	.LVL7:
 211              	.LBB170:
 212              	.LBB171:
 213              		.loc 2 531 0
 214 00b2 0122     		movs	r2, #1
 215              		.syntax unified
 216              	@ 531 "../Drivers/CMSIS/Include/cmsis_gcc.h" 1
 217 00b4 92FAA2F3 		rbit r3, r2
 218              	@ 0 "" 2
 219              	.LVL8:
 220              		.thumb
 221              		.syntax unified
 222              	.LBE171:
 223              	.LBE170:
 369:../Drivers/STM32F3xx_HAL_Driver/Src/stm32f3xx_hal_rcc.c ****       {
 370:../Drivers/STM32F3xx_HAL_Driver/Src/stm32f3xx_hal_rcc.c ****        /* Enable the Internal High Speed oscillator (HSI). */
 371:../Drivers/STM32F3xx_HAL_Driver/Src/stm32f3xx_hal_rcc.c ****         __HAL_RCC_HSI_ENABLE();
 224              		.loc 1 371 0
 225 00b8 B3FA83F3 		clz	r3, r3
 226 00bc 03F18453 		add	r3, r3, #276824064
 227 00c0 03F58413 		add	r3, r3, #1081344
 228 00c4 9B00     		lsls	r3, r3, #2
 229 00c6 1A60     		str	r2, [r3]
 372:../Drivers/STM32F3xx_HAL_Driver/Src/stm32f3xx_hal_rcc.c ****         
 373:../Drivers/STM32F3xx_HAL_Driver/Src/stm32f3xx_hal_rcc.c ****         /* Get Start Tick */
 374:../Drivers/STM32F3xx_HAL_Driver/Src/stm32f3xx_hal_rcc.c ****         tickstart = HAL_GetTick();
 230              		.loc 1 374 0
 231 00c8 FFF7FEFF 		bl	HAL_GetTick
 232              	.LVL9:
 233 00cc 0546     		mov	r5, r0
 234              	.LVL10:
ARM GAS  /var/folders/k_/r2bh2pj93_jff4n9gmtn9jvr0000gn/T//cc0u2Ioj.s 			page 21


 235              	.L31:
 236              	.LBB172:
 237              	.LBB173:
 238              		.loc 2 531 0
 239 00ce 0223     		movs	r3, #2
 240              		.syntax unified
 241              	@ 531 "../Drivers/CMSIS/Include/cmsis_gcc.h" 1
 242 00d0 93FAA3F3 		rbit r3, r3
 243              	@ 0 "" 2
 244              	.LVL11:
 245              		.thumb
 246              		.syntax unified
 247              	.LBE173:
 248              	.LBE172:
 375:../Drivers/STM32F3xx_HAL_Driver/Src/stm32f3xx_hal_rcc.c ****         
 376:../Drivers/STM32F3xx_HAL_Driver/Src/stm32f3xx_hal_rcc.c ****         /* Wait till HSI is ready */
 377:../Drivers/STM32F3xx_HAL_Driver/Src/stm32f3xx_hal_rcc.c ****         while(__HAL_RCC_GET_FLAG(RCC_FLAG_HSIRDY) == RESET)
 249              		.loc 1 377 0
 250 00d4 844B     		ldr	r3, .L111
 251 00d6 1968     		ldr	r1, [r3]
 252              	.LVL12:
 253              	.LBB174:
 254              	.LBB175:
 255              		.loc 2 531 0
 256 00d8 0223     		movs	r3, #2
 257              		.syntax unified
 258              	@ 531 "../Drivers/CMSIS/Include/cmsis_gcc.h" 1
 259 00da 93FAA3F3 		rbit r3, r3
 260              	@ 0 "" 2
 261              	.LVL13:
 262              		.thumb
 263              		.syntax unified
 264              	.LBE175:
 265              	.LBE174:
 266              		.loc 1 377 0
 267 00de B3FA83F3 		clz	r3, r3
 268 00e2 03F01F03 		and	r3, r3, #31
 269 00e6 0122     		movs	r2, #1
 270 00e8 02FA03F3 		lsl	r3, r2, r3
 271 00ec 0B42     		tst	r3, r1
 272 00ee 40F0C480 		bne	.L99
 378:../Drivers/STM32F3xx_HAL_Driver/Src/stm32f3xx_hal_rcc.c ****         {
 379:../Drivers/STM32F3xx_HAL_Driver/Src/stm32f3xx_hal_rcc.c ****           if((HAL_GetTick() - tickstart ) > HSI_TIMEOUT_VALUE)
 273              		.loc 1 379 0
 274 00f2 FFF7FEFF 		bl	HAL_GetTick
 275              	.LVL14:
 276 00f6 401B     		subs	r0, r0, r5
 277 00f8 0228     		cmp	r0, #2
 278 00fa E8D9     		bls	.L31
 380:../Drivers/STM32F3xx_HAL_Driver/Src/stm32f3xx_hal_rcc.c ****           {
 381:../Drivers/STM32F3xx_HAL_Driver/Src/stm32f3xx_hal_rcc.c ****             return HAL_TIMEOUT;
 279              		.loc 1 381 0
 280 00fc 0320     		movs	r0, #3
 281 00fe 7CE2     		b	.L10
 282              	.LVL15:
 283              	.L96:
 304:../Drivers/STM32F3xx_HAL_Driver/Src/stm32f3xx_hal_rcc.c ****       
ARM GAS  /var/folders/k_/r2bh2pj93_jff4n9gmtn9jvr0000gn/T//cc0u2Ioj.s 			page 22


 284              		.loc 1 304 0 discriminator 1
 285 0100 794A     		ldr	r2, .L111
 286 0102 1368     		ldr	r3, [r2]
 287 0104 43F48033 		orr	r3, r3, #65536
 288 0108 1360     		str	r3, [r2]
 289              	.L12:
 308:../Drivers/STM32F3xx_HAL_Driver/Src/stm32f3xx_hal_rcc.c **** #endif /* RCC_CFGR_PLLSRC_HSI_DIV2 */
 290              		.loc 1 308 0
 291 010a 774A     		ldr	r2, .L111
 292 010c D36A     		ldr	r3, [r2, #44]
 293 010e 23F00F03 		bic	r3, r3, #15
 294 0112 A168     		ldr	r1, [r4, #8]
 295 0114 0B43     		orrs	r3, r3, r1
 296 0116 D362     		str	r3, [r2, #44]
 312:../Drivers/STM32F3xx_HAL_Driver/Src/stm32f3xx_hal_rcc.c ****       {
 297              		.loc 1 312 0
 298 0118 6368     		ldr	r3, [r4, #4]
 299 011a 002B     		cmp	r3, #0
 300 011c 36D0     		beq	.L15
 315:../Drivers/STM32F3xx_HAL_Driver/Src/stm32f3xx_hal_rcc.c ****         
 301              		.loc 1 315 0
 302 011e FFF7FEFF 		bl	HAL_GetTick
 303              	.LVL16:
 304 0122 0546     		mov	r5, r0
 305              	.LVL17:
 306              	.L16:
 307              	.LBB176:
 308              	.LBB177:
 309              		.loc 2 531 0
 310 0124 4FF40033 		mov	r3, #131072
 311              		.syntax unified
 312              	@ 531 "../Drivers/CMSIS/Include/cmsis_gcc.h" 1
 313 0128 93FAA3F3 		rbit r3, r3
 314              	@ 0 "" 2
 315              	.LVL18:
 316              		.thumb
 317              		.syntax unified
 318              	.LBE177:
 319              	.LBE176:
 318:../Drivers/STM32F3xx_HAL_Driver/Src/stm32f3xx_hal_rcc.c ****         {
 320              		.loc 1 318 0
 321 012c 6E4B     		ldr	r3, .L111
 322 012e 1968     		ldr	r1, [r3]
 323              	.LVL19:
 324              	.LBB178:
 325              	.LBB179:
 326              		.loc 2 531 0
 327 0130 4FF40033 		mov	r3, #131072
 328              		.syntax unified
 329              	@ 531 "../Drivers/CMSIS/Include/cmsis_gcc.h" 1
 330 0134 93FAA3F3 		rbit r3, r3
 331              	@ 0 "" 2
 332              	.LVL20:
 333              		.thumb
 334              		.syntax unified
 335              	.LBE179:
 336              	.LBE178:
ARM GAS  /var/folders/k_/r2bh2pj93_jff4n9gmtn9jvr0000gn/T//cc0u2Ioj.s 			page 23


 318:../Drivers/STM32F3xx_HAL_Driver/Src/stm32f3xx_hal_rcc.c ****         {
 337              		.loc 1 318 0
 338 0138 B3FA83F3 		clz	r3, r3
 339 013c 03F01F03 		and	r3, r3, #31
 340 0140 0122     		movs	r2, #1
 341 0142 02FA03F3 		lsl	r3, r2, r3
 342 0146 0B42     		tst	r3, r1
 343 0148 9DD1     		bne	.L5
 320:../Drivers/STM32F3xx_HAL_Driver/Src/stm32f3xx_hal_rcc.c ****           {
 344              		.loc 1 320 0
 345 014a FFF7FEFF 		bl	HAL_GetTick
 346              	.LVL21:
 347 014e 401B     		subs	r0, r0, r5
 348 0150 6428     		cmp	r0, #100
 349 0152 E7D9     		bls	.L16
 322:../Drivers/STM32F3xx_HAL_Driver/Src/stm32f3xx_hal_rcc.c ****           }
 350              		.loc 1 322 0
 351 0154 0320     		movs	r0, #3
 352 0156 50E2     		b	.L10
 353              	.LVL22:
 354              	.L13:
 304:../Drivers/STM32F3xx_HAL_Driver/Src/stm32f3xx_hal_rcc.c ****       
 355              		.loc 1 304 0 discriminator 4
 356 0158 B3F5A02F 		cmp	r3, #327680
 357 015c 09D0     		beq	.L100
 304:../Drivers/STM32F3xx_HAL_Driver/Src/stm32f3xx_hal_rcc.c ****       
 358              		.loc 1 304 0 is_stmt 0 discriminator 6
 359 015e 624B     		ldr	r3, .L111
 360 0160 1A68     		ldr	r2, [r3]
 361 0162 22F48032 		bic	r2, r2, #65536
 362 0166 1A60     		str	r2, [r3]
 363 0168 1A68     		ldr	r2, [r3]
 364 016a 22F48022 		bic	r2, r2, #262144
 365 016e 1A60     		str	r2, [r3]
 366 0170 CBE7     		b	.L12
 367              	.L100:
 304:../Drivers/STM32F3xx_HAL_Driver/Src/stm32f3xx_hal_rcc.c ****       
 368              		.loc 1 304 0 discriminator 5
 369 0172 03F18043 		add	r3, r3, #1073741824
 370 0176 A3F53C33 		sub	r3, r3, #192512
 371 017a 1A68     		ldr	r2, [r3]
 372 017c 42F48022 		orr	r2, r2, #262144
 373 0180 1A60     		str	r2, [r3]
 374 0182 1A68     		ldr	r2, [r3]
 375 0184 42F48032 		orr	r2, r2, #65536
 376 0188 1A60     		str	r2, [r3]
 377 018a BEE7     		b	.L12
 378              	.L15:
 329:../Drivers/STM32F3xx_HAL_Driver/Src/stm32f3xx_hal_rcc.c ****         
 379              		.loc 1 329 0 is_stmt 1
 380 018c FFF7FEFF 		bl	HAL_GetTick
 381              	.LVL23:
 382 0190 0546     		mov	r5, r0
 383              	.LVL24:
 384              	.L20:
 385              	.LBB180:
 386              	.LBB181:
ARM GAS  /var/folders/k_/r2bh2pj93_jff4n9gmtn9jvr0000gn/T//cc0u2Ioj.s 			page 24


 387              		.loc 2 531 0
 388 0192 4FF40033 		mov	r3, #131072
 389              		.syntax unified
 390              	@ 531 "../Drivers/CMSIS/Include/cmsis_gcc.h" 1
 391 0196 93FAA3F3 		rbit r3, r3
 392              	@ 0 "" 2
 393              	.LVL25:
 394              		.thumb
 395              		.syntax unified
 396              	.LBE181:
 397              	.LBE180:
 332:../Drivers/STM32F3xx_HAL_Driver/Src/stm32f3xx_hal_rcc.c ****         {
 398              		.loc 1 332 0
 399 019a 534B     		ldr	r3, .L111
 400 019c 1968     		ldr	r1, [r3]
 401              	.LVL26:
 402              	.LBB182:
 403              	.LBB183:
 404              		.loc 2 531 0
 405 019e 4FF40033 		mov	r3, #131072
 406              		.syntax unified
 407              	@ 531 "../Drivers/CMSIS/Include/cmsis_gcc.h" 1
 408 01a2 93FAA3F3 		rbit r3, r3
 409              	@ 0 "" 2
 410              	.LVL27:
 411              		.thumb
 412              		.syntax unified
 413              	.LBE183:
 414              	.LBE182:
 332:../Drivers/STM32F3xx_HAL_Driver/Src/stm32f3xx_hal_rcc.c ****         {
 415              		.loc 1 332 0
 416 01a6 B3FA83F3 		clz	r3, r3
 417 01aa 03F01F03 		and	r3, r3, #31
 418 01ae 0122     		movs	r2, #1
 419 01b0 02FA03F3 		lsl	r3, r2, r3
 420 01b4 0B42     		tst	r3, r1
 421 01b6 3FF466AF 		beq	.L5
 334:../Drivers/STM32F3xx_HAL_Driver/Src/stm32f3xx_hal_rcc.c ****           {
 422              		.loc 1 334 0
 423 01ba FFF7FEFF 		bl	HAL_GetTick
 424              	.LVL28:
 425 01be 401B     		subs	r0, r0, r5
 426 01c0 6428     		cmp	r0, #100
 427 01c2 E6D9     		bls	.L20
 336:../Drivers/STM32F3xx_HAL_Driver/Src/stm32f3xx_hal_rcc.c ****           }
 428              		.loc 1 336 0
 429 01c4 0320     		movs	r0, #3
 430 01c6 18E2     		b	.L10
 431              	.LVL29:
 432              	.L98:
 351:../Drivers/STM32F3xx_HAL_Driver/Src/stm32f3xx_hal_rcc.c ****     {
 433              		.loc 1 351 0 discriminator 1
 434 01c8 474B     		ldr	r3, .L111
 435 01ca 5B68     		ldr	r3, [r3, #4]
 436 01cc 13F4803F 		tst	r3, #65536
 437 01d0 7FF46BAF 		bne	.L26
 438              	.L25:
ARM GAS  /var/folders/k_/r2bh2pj93_jff4n9gmtn9jvr0000gn/T//cc0u2Ioj.s 			page 25


 439              	.LVL30:
 440              	.LBB184:
 441              	.LBB185:
 442              		.loc 2 531 0
 443 01d4 0223     		movs	r3, #2
 444              		.syntax unified
 445              	@ 531 "../Drivers/CMSIS/Include/cmsis_gcc.h" 1
 446 01d6 93FAA3F3 		rbit r3, r3
 447              	@ 0 "" 2
 448              	.LVL31:
 449              		.thumb
 450              		.syntax unified
 451              	.LBE185:
 452              	.LBE184:
 354:../Drivers/STM32F3xx_HAL_Driver/Src/stm32f3xx_hal_rcc.c ****       {
 453              		.loc 1 354 0
 454 01da 434B     		ldr	r3, .L111
 455 01dc 1968     		ldr	r1, [r3]
 456              	.LVL32:
 457              	.LBB186:
 458              	.LBB187:
 459              		.loc 2 531 0
 460 01de 0223     		movs	r3, #2
 461              		.syntax unified
 462              	@ 531 "../Drivers/CMSIS/Include/cmsis_gcc.h" 1
 463 01e0 93FAA3F3 		rbit r3, r3
 464              	@ 0 "" 2
 465              	.LVL33:
 466              		.thumb
 467              		.syntax unified
 468              	.LBE187:
 469              	.LBE186:
 354:../Drivers/STM32F3xx_HAL_Driver/Src/stm32f3xx_hal_rcc.c ****       {
 470              		.loc 1 354 0
 471 01e4 B3FA83F3 		clz	r3, r3
 472 01e8 03F01F03 		and	r3, r3, #31
 473 01ec 0122     		movs	r2, #1
 474 01ee 02FA03F3 		lsl	r3, r2, r3
 475 01f2 0B42     		tst	r3, r1
 476 01f4 04D0     		beq	.L29
 354:../Drivers/STM32F3xx_HAL_Driver/Src/stm32f3xx_hal_rcc.c ****       {
 477              		.loc 1 354 0 is_stmt 0 discriminator 13
 478 01f6 2369     		ldr	r3, [r4, #16]
 479 01f8 9342     		cmp	r3, r2
 480 01fa 01D0     		beq	.L29
 356:../Drivers/STM32F3xx_HAL_Driver/Src/stm32f3xx_hal_rcc.c ****       }
 481              		.loc 1 356 0 is_stmt 1
 482 01fc 0120     		movs	r0, #1
 483 01fe FCE1     		b	.L10
 484              	.L29:
 362:../Drivers/STM32F3xx_HAL_Driver/Src/stm32f3xx_hal_rcc.c ****       }
 485              		.loc 1 362 0
 486 0200 3948     		ldr	r0, .L111
 487 0202 0368     		ldr	r3, [r0]
 488 0204 23F0F803 		bic	r3, r3, #248
 489 0208 6169     		ldr	r1, [r4, #20]
 490              	.LVL34:
ARM GAS  /var/folders/k_/r2bh2pj93_jff4n9gmtn9jvr0000gn/T//cc0u2Ioj.s 			page 26


 491              	.LBB188:
 492              	.LBB189:
 493              		.loc 2 531 0
 494 020a F822     		movs	r2, #248
 495              		.syntax unified
 496              	@ 531 "../Drivers/CMSIS/Include/cmsis_gcc.h" 1
 497 020c 92FAA2F2 		rbit r2, r2
 498              	@ 0 "" 2
 499              	.LVL35:
 500              		.thumb
 501              		.syntax unified
 502              	.LBE189:
 503              	.LBE188:
 362:../Drivers/STM32F3xx_HAL_Driver/Src/stm32f3xx_hal_rcc.c ****       }
 504              		.loc 1 362 0
 505 0210 B2FA82F2 		clz	r2, r2
 506 0214 01FA02F2 		lsl	r2, r1, r2
 507 0218 1343     		orrs	r3, r3, r2
 508 021a 0360     		str	r3, [r0]
 509              	.L24:
 382:../Drivers/STM32F3xx_HAL_Driver/Src/stm32f3xx_hal_rcc.c ****           }
 383:../Drivers/STM32F3xx_HAL_Driver/Src/stm32f3xx_hal_rcc.c ****         }
 384:../Drivers/STM32F3xx_HAL_Driver/Src/stm32f3xx_hal_rcc.c ****                 
 385:../Drivers/STM32F3xx_HAL_Driver/Src/stm32f3xx_hal_rcc.c ****         /* Adjusts the Internal High Speed oscillator (HSI) calibration value.*/
 386:../Drivers/STM32F3xx_HAL_Driver/Src/stm32f3xx_hal_rcc.c ****         __HAL_RCC_HSI_CALIBRATIONVALUE_ADJUST(RCC_OscInitStruct->HSICalibrationValue);
 387:../Drivers/STM32F3xx_HAL_Driver/Src/stm32f3xx_hal_rcc.c ****       }
 388:../Drivers/STM32F3xx_HAL_Driver/Src/stm32f3xx_hal_rcc.c ****       else
 389:../Drivers/STM32F3xx_HAL_Driver/Src/stm32f3xx_hal_rcc.c ****       {
 390:../Drivers/STM32F3xx_HAL_Driver/Src/stm32f3xx_hal_rcc.c ****         /* Disable the Internal High Speed oscillator (HSI). */
 391:../Drivers/STM32F3xx_HAL_Driver/Src/stm32f3xx_hal_rcc.c ****         __HAL_RCC_HSI_DISABLE();
 392:../Drivers/STM32F3xx_HAL_Driver/Src/stm32f3xx_hal_rcc.c ****         
 393:../Drivers/STM32F3xx_HAL_Driver/Src/stm32f3xx_hal_rcc.c ****         /* Get Start Tick */
 394:../Drivers/STM32F3xx_HAL_Driver/Src/stm32f3xx_hal_rcc.c ****         tickstart = HAL_GetTick();
 395:../Drivers/STM32F3xx_HAL_Driver/Src/stm32f3xx_hal_rcc.c ****         
 396:../Drivers/STM32F3xx_HAL_Driver/Src/stm32f3xx_hal_rcc.c ****         /* Wait till HSI is disabled */
 397:../Drivers/STM32F3xx_HAL_Driver/Src/stm32f3xx_hal_rcc.c ****         while(__HAL_RCC_GET_FLAG(RCC_FLAG_HSIRDY) != RESET)
 398:../Drivers/STM32F3xx_HAL_Driver/Src/stm32f3xx_hal_rcc.c ****         {
 399:../Drivers/STM32F3xx_HAL_Driver/Src/stm32f3xx_hal_rcc.c ****           if((HAL_GetTick() - tickstart ) > HSI_TIMEOUT_VALUE)
 400:../Drivers/STM32F3xx_HAL_Driver/Src/stm32f3xx_hal_rcc.c ****           {
 401:../Drivers/STM32F3xx_HAL_Driver/Src/stm32f3xx_hal_rcc.c ****             return HAL_TIMEOUT;
 402:../Drivers/STM32F3xx_HAL_Driver/Src/stm32f3xx_hal_rcc.c ****           }
 403:../Drivers/STM32F3xx_HAL_Driver/Src/stm32f3xx_hal_rcc.c ****         }
 404:../Drivers/STM32F3xx_HAL_Driver/Src/stm32f3xx_hal_rcc.c ****       }
 405:../Drivers/STM32F3xx_HAL_Driver/Src/stm32f3xx_hal_rcc.c ****     }
 406:../Drivers/STM32F3xx_HAL_Driver/Src/stm32f3xx_hal_rcc.c ****   }
 407:../Drivers/STM32F3xx_HAL_Driver/Src/stm32f3xx_hal_rcc.c ****   /*------------------------------ LSI Configuration -------------------------*/ 
 408:../Drivers/STM32F3xx_HAL_Driver/Src/stm32f3xx_hal_rcc.c ****   if(((RCC_OscInitStruct->OscillatorType) & RCC_OSCILLATORTYPE_LSI) == RCC_OSCILLATORTYPE_LSI)
 510              		.loc 1 408 0
 511 021c 2368     		ldr	r3, [r4]
 512 021e 13F0080F 		tst	r3, #8
 513 0222 00F08D80 		beq	.L39
 409:../Drivers/STM32F3xx_HAL_Driver/Src/stm32f3xx_hal_rcc.c ****   {
 410:../Drivers/STM32F3xx_HAL_Driver/Src/stm32f3xx_hal_rcc.c ****     /* Check the parameters */
 411:../Drivers/STM32F3xx_HAL_Driver/Src/stm32f3xx_hal_rcc.c ****     assert_param(IS_RCC_LSI(RCC_OscInitStruct->LSIState));
 412:../Drivers/STM32F3xx_HAL_Driver/Src/stm32f3xx_hal_rcc.c ****     
 413:../Drivers/STM32F3xx_HAL_Driver/Src/stm32f3xx_hal_rcc.c ****     /* Check the LSI State */
 414:../Drivers/STM32F3xx_HAL_Driver/Src/stm32f3xx_hal_rcc.c ****     if(RCC_OscInitStruct->LSIState != RCC_LSI_OFF)
ARM GAS  /var/folders/k_/r2bh2pj93_jff4n9gmtn9jvr0000gn/T//cc0u2Ioj.s 			page 27


 514              		.loc 1 414 0
 515 0226 A369     		ldr	r3, [r4, #24]
 516 0228 002B     		cmp	r3, #0
 517 022a 61D0     		beq	.L40
 518              	.LVL36:
 519              	.LBB190:
 520              	.LBB191:
 521              		.loc 2 531 0
 522 022c 0121     		movs	r1, #1
 523              		.syntax unified
 524              	@ 531 "../Drivers/CMSIS/Include/cmsis_gcc.h" 1
 525 022e 91FAA1F2 		rbit r2, r1
 526              	@ 0 "" 2
 527              	.LVL37:
 528              		.thumb
 529              		.syntax unified
 530              	.LBE191:
 531              	.LBE190:
 415:../Drivers/STM32F3xx_HAL_Driver/Src/stm32f3xx_hal_rcc.c ****     {
 416:../Drivers/STM32F3xx_HAL_Driver/Src/stm32f3xx_hal_rcc.c ****       /* Enable the Internal Low Speed oscillator (LSI). */
 417:../Drivers/STM32F3xx_HAL_Driver/Src/stm32f3xx_hal_rcc.c ****       __HAL_RCC_LSI_ENABLE();
 532              		.loc 1 417 0
 533 0232 B2FA82F2 		clz	r2, r2
 534 0236 2D4B     		ldr	r3, .L111+4
 535 0238 1344     		add	r3, r3, r2
 536 023a 9B00     		lsls	r3, r3, #2
 537 023c 1960     		str	r1, [r3]
 418:../Drivers/STM32F3xx_HAL_Driver/Src/stm32f3xx_hal_rcc.c ****       
 419:../Drivers/STM32F3xx_HAL_Driver/Src/stm32f3xx_hal_rcc.c ****       /* Get Start Tick */
 420:../Drivers/STM32F3xx_HAL_Driver/Src/stm32f3xx_hal_rcc.c ****       tickstart = HAL_GetTick();
 538              		.loc 1 420 0
 539 023e FFF7FEFF 		bl	HAL_GetTick
 540              	.LVL38:
 541 0242 0546     		mov	r5, r0
 542              	.LVL39:
 543              	.L41:
 544              	.LBB192:
 545              	.LBB193:
 546              		.loc 2 531 0
 547 0244 0223     		movs	r3, #2
 548              		.syntax unified
 549              	@ 531 "../Drivers/CMSIS/Include/cmsis_gcc.h" 1
 550 0246 93FAA3F2 		rbit r2, r3
 551              	@ 0 "" 2
 552              	.LVL40:
 553              		.thumb
 554              		.syntax unified
 555              	.LBE193:
 556              	.LBE192:
 557              	.LBB194:
 558              	.LBB195:
 559              		.syntax unified
 560              	@ 531 "../Drivers/CMSIS/Include/cmsis_gcc.h" 1
 561 024a 93FAA3F2 		rbit r2, r3
 562              	@ 0 "" 2
 563              	.LVL41:
 564              		.thumb
ARM GAS  /var/folders/k_/r2bh2pj93_jff4n9gmtn9jvr0000gn/T//cc0u2Ioj.s 			page 28


 565              		.syntax unified
 566              	.LBE195:
 567              	.LBE194:
 568              	.LBB196:
 569              	.LBB197:
 570              		.syntax unified
 571              	@ 531 "../Drivers/CMSIS/Include/cmsis_gcc.h" 1
 572 024e 93FAA3F2 		rbit r2, r3
 573              	@ 0 "" 2
 574              	.LVL42:
 575              		.thumb
 576              		.syntax unified
 577              	.LBE197:
 578              	.LBE196:
 421:../Drivers/STM32F3xx_HAL_Driver/Src/stm32f3xx_hal_rcc.c ****       
 422:../Drivers/STM32F3xx_HAL_Driver/Src/stm32f3xx_hal_rcc.c ****       /* Wait till LSI is ready */  
 423:../Drivers/STM32F3xx_HAL_Driver/Src/stm32f3xx_hal_rcc.c ****       while(__HAL_RCC_GET_FLAG(RCC_FLAG_LSIRDY) == RESET)
 579              		.loc 1 423 0
 580 0252 254A     		ldr	r2, .L111
 581 0254 516A     		ldr	r1, [r2, #36]
 582              	.LVL43:
 583              	.LBB198:
 584              	.LBB199:
 585              		.loc 2 531 0
 586              		.syntax unified
 587              	@ 531 "../Drivers/CMSIS/Include/cmsis_gcc.h" 1
 588 0256 93FAA3F3 		rbit r3, r3
 589              	@ 0 "" 2
 590              	.LVL44:
 591              		.thumb
 592              		.syntax unified
 593              	.LBE199:
 594              	.LBE198:
 595              		.loc 1 423 0
 596 025a B3FA83F3 		clz	r3, r3
 597 025e 03F01F03 		and	r3, r3, #31
 598 0262 0122     		movs	r2, #1
 599 0264 02FA03F3 		lsl	r3, r2, r3
 600 0268 0B42     		tst	r3, r1
 601 026a 69D1     		bne	.L39
 424:../Drivers/STM32F3xx_HAL_Driver/Src/stm32f3xx_hal_rcc.c ****       {
 425:../Drivers/STM32F3xx_HAL_Driver/Src/stm32f3xx_hal_rcc.c ****         if((HAL_GetTick() - tickstart ) > LSI_TIMEOUT_VALUE)
 602              		.loc 1 425 0
 603 026c FFF7FEFF 		bl	HAL_GetTick
 604              	.LVL45:
 605 0270 401B     		subs	r0, r0, r5
 606 0272 0228     		cmp	r0, #2
 607 0274 E6D9     		bls	.L41
 426:../Drivers/STM32F3xx_HAL_Driver/Src/stm32f3xx_hal_rcc.c ****         {
 427:../Drivers/STM32F3xx_HAL_Driver/Src/stm32f3xx_hal_rcc.c ****           return HAL_TIMEOUT;
 608              		.loc 1 427 0
 609 0276 0320     		movs	r0, #3
 610 0278 BFE1     		b	.L10
 611              	.L99:
 386:../Drivers/STM32F3xx_HAL_Driver/Src/stm32f3xx_hal_rcc.c ****       }
 612              		.loc 1 386 0
 613 027a 1B48     		ldr	r0, .L111
ARM GAS  /var/folders/k_/r2bh2pj93_jff4n9gmtn9jvr0000gn/T//cc0u2Ioj.s 			page 29


 614 027c 0368     		ldr	r3, [r0]
 615 027e 23F0F803 		bic	r3, r3, #248
 616 0282 6169     		ldr	r1, [r4, #20]
 617              	.LVL46:
 618              	.LBB200:
 619              	.LBB201:
 620              		.loc 2 531 0
 621 0284 F822     		movs	r2, #248
 622              		.syntax unified
 623              	@ 531 "../Drivers/CMSIS/Include/cmsis_gcc.h" 1
 624 0286 92FAA2F2 		rbit r2, r2
 625              	@ 0 "" 2
 626              	.LVL47:
 627              		.thumb
 628              		.syntax unified
 629              	.LBE201:
 630              	.LBE200:
 386:../Drivers/STM32F3xx_HAL_Driver/Src/stm32f3xx_hal_rcc.c ****       }
 631              		.loc 1 386 0
 632 028a B2FA82F2 		clz	r2, r2
 633 028e 01FA02F2 		lsl	r2, r1, r2
 634 0292 1343     		orrs	r3, r3, r2
 635 0294 0360     		str	r3, [r0]
 636 0296 C1E7     		b	.L24
 637              	.LVL48:
 638              	.L30:
 639              	.LBB202:
 640              	.LBB203:
 641              		.loc 2 531 0
 642 0298 0123     		movs	r3, #1
 643              		.syntax unified
 644              	@ 531 "../Drivers/CMSIS/Include/cmsis_gcc.h" 1
 645 029a 93FAA3F3 		rbit r3, r3
 646              	@ 0 "" 2
 647              	.LVL49:
 648              		.thumb
 649              		.syntax unified
 650              	.LBE203:
 651              	.LBE202:
 391:../Drivers/STM32F3xx_HAL_Driver/Src/stm32f3xx_hal_rcc.c ****         
 652              		.loc 1 391 0
 653 029e B3FA83F3 		clz	r3, r3
 654 02a2 03F18453 		add	r3, r3, #276824064
 655 02a6 03F58413 		add	r3, r3, #1081344
 656 02aa 9B00     		lsls	r3, r3, #2
 657 02ac 0022     		movs	r2, #0
 658 02ae 1A60     		str	r2, [r3]
 394:../Drivers/STM32F3xx_HAL_Driver/Src/stm32f3xx_hal_rcc.c ****         
 659              		.loc 1 394 0
 660 02b0 FFF7FEFF 		bl	HAL_GetTick
 661              	.LVL50:
 662 02b4 0546     		mov	r5, r0
 663              	.LVL51:
 664              	.L35:
 665              	.LBB204:
 666              	.LBB205:
 667              		.loc 2 531 0
ARM GAS  /var/folders/k_/r2bh2pj93_jff4n9gmtn9jvr0000gn/T//cc0u2Ioj.s 			page 30


 668 02b6 0223     		movs	r3, #2
 669              		.syntax unified
 670              	@ 531 "../Drivers/CMSIS/Include/cmsis_gcc.h" 1
 671 02b8 93FAA3F3 		rbit r3, r3
 672              	@ 0 "" 2
 673              	.LVL52:
 674              		.thumb
 675              		.syntax unified
 676              	.LBE205:
 677              	.LBE204:
 397:../Drivers/STM32F3xx_HAL_Driver/Src/stm32f3xx_hal_rcc.c ****         {
 678              		.loc 1 397 0
 679 02bc 0A4B     		ldr	r3, .L111
 680 02be 1968     		ldr	r1, [r3]
 681              	.LVL53:
 682              	.LBB206:
 683              	.LBB207:
 684              		.loc 2 531 0
 685 02c0 0223     		movs	r3, #2
 686              		.syntax unified
 687              	@ 531 "../Drivers/CMSIS/Include/cmsis_gcc.h" 1
 688 02c2 93FAA3F3 		rbit r3, r3
 689              	@ 0 "" 2
 690              	.LVL54:
 691              		.thumb
 692              		.syntax unified
 693              	.LBE207:
 694              	.LBE206:
 397:../Drivers/STM32F3xx_HAL_Driver/Src/stm32f3xx_hal_rcc.c ****         {
 695              		.loc 1 397 0
 696 02c6 B3FA83F3 		clz	r3, r3
 697 02ca 03F01F03 		and	r3, r3, #31
 698 02ce 0122     		movs	r2, #1
 699 02d0 02FA03F3 		lsl	r3, r2, r3
 700 02d4 0B42     		tst	r3, r1
 701 02d6 A1D0     		beq	.L24
 399:../Drivers/STM32F3xx_HAL_Driver/Src/stm32f3xx_hal_rcc.c ****           {
 702              		.loc 1 399 0
 703 02d8 FFF7FEFF 		bl	HAL_GetTick
 704              	.LVL55:
 705 02dc 401B     		subs	r0, r0, r5
 706 02de 0228     		cmp	r0, #2
 707 02e0 E9D9     		bls	.L35
 401:../Drivers/STM32F3xx_HAL_Driver/Src/stm32f3xx_hal_rcc.c ****           }
 708              		.loc 1 401 0
 709 02e2 0320     		movs	r0, #3
 710 02e4 89E1     		b	.L10
 711              	.L112:
 712 02e6 00BF     		.align	2
 713              	.L111:
 714 02e8 00100240 		.word	1073876992
 715 02ec 20819010 		.word	277905696
 716              	.LVL56:
 717              	.L40:
 718              	.LBB208:
 719              	.LBB209:
 720              		.loc 2 531 0
ARM GAS  /var/folders/k_/r2bh2pj93_jff4n9gmtn9jvr0000gn/T//cc0u2Ioj.s 			page 31


 721 02f0 0122     		movs	r2, #1
 722              		.syntax unified
 723              	@ 531 "../Drivers/CMSIS/Include/cmsis_gcc.h" 1
 724 02f2 92FAA2F2 		rbit r2, r2
 725              	@ 0 "" 2
 726              	.LVL57:
 727              		.thumb
 728              		.syntax unified
 729              	.LBE209:
 730              	.LBE208:
 428:../Drivers/STM32F3xx_HAL_Driver/Src/stm32f3xx_hal_rcc.c ****         }
 429:../Drivers/STM32F3xx_HAL_Driver/Src/stm32f3xx_hal_rcc.c ****       }
 430:../Drivers/STM32F3xx_HAL_Driver/Src/stm32f3xx_hal_rcc.c ****     }
 431:../Drivers/STM32F3xx_HAL_Driver/Src/stm32f3xx_hal_rcc.c ****     else
 432:../Drivers/STM32F3xx_HAL_Driver/Src/stm32f3xx_hal_rcc.c ****     {
 433:../Drivers/STM32F3xx_HAL_Driver/Src/stm32f3xx_hal_rcc.c ****       /* Disable the Internal Low Speed oscillator (LSI). */
 434:../Drivers/STM32F3xx_HAL_Driver/Src/stm32f3xx_hal_rcc.c ****       __HAL_RCC_LSI_DISABLE();
 731              		.loc 1 434 0
 732 02f6 B2FA82F2 		clz	r2, r2
 733 02fa C14B     		ldr	r3, .L113
 734 02fc 1344     		add	r3, r3, r2
 735 02fe 9B00     		lsls	r3, r3, #2
 736 0300 0022     		movs	r2, #0
 737 0302 1A60     		str	r2, [r3]
 435:../Drivers/STM32F3xx_HAL_Driver/Src/stm32f3xx_hal_rcc.c ****       
 436:../Drivers/STM32F3xx_HAL_Driver/Src/stm32f3xx_hal_rcc.c ****       /* Get Start Tick */
 437:../Drivers/STM32F3xx_HAL_Driver/Src/stm32f3xx_hal_rcc.c ****       tickstart = HAL_GetTick();
 738              		.loc 1 437 0
 739 0304 FFF7FEFF 		bl	HAL_GetTick
 740              	.LVL58:
 741 0308 0546     		mov	r5, r0
 742              	.LVL59:
 743              	.L43:
 744              	.LBB210:
 745              	.LBB211:
 746              		.loc 2 531 0
 747 030a 0223     		movs	r3, #2
 748              		.syntax unified
 749              	@ 531 "../Drivers/CMSIS/Include/cmsis_gcc.h" 1
 750 030c 93FAA3F2 		rbit r2, r3
 751              	@ 0 "" 2
 752              	.LVL60:
 753              		.thumb
 754              		.syntax unified
 755              	.LBE211:
 756              	.LBE210:
 757              	.LBB212:
 758              	.LBB213:
 759              		.syntax unified
 760              	@ 531 "../Drivers/CMSIS/Include/cmsis_gcc.h" 1
 761 0310 93FAA3F2 		rbit r2, r3
 762              	@ 0 "" 2
 763              	.LVL61:
 764              		.thumb
 765              		.syntax unified
 766              	.LBE213:
 767              	.LBE212:
ARM GAS  /var/folders/k_/r2bh2pj93_jff4n9gmtn9jvr0000gn/T//cc0u2Ioj.s 			page 32


 768              	.LBB214:
 769              	.LBB215:
 770              		.syntax unified
 771              	@ 531 "../Drivers/CMSIS/Include/cmsis_gcc.h" 1
 772 0314 93FAA3F2 		rbit r2, r3
 773              	@ 0 "" 2
 774              	.LVL62:
 775              		.thumb
 776              		.syntax unified
 777              	.LBE215:
 778              	.LBE214:
 438:../Drivers/STM32F3xx_HAL_Driver/Src/stm32f3xx_hal_rcc.c ****       
 439:../Drivers/STM32F3xx_HAL_Driver/Src/stm32f3xx_hal_rcc.c ****       /* Wait till LSI is disabled */  
 440:../Drivers/STM32F3xx_HAL_Driver/Src/stm32f3xx_hal_rcc.c ****       while(__HAL_RCC_GET_FLAG(RCC_FLAG_LSIRDY) != RESET)
 779              		.loc 1 440 0
 780 0318 BA4A     		ldr	r2, .L113+4
 781 031a 516A     		ldr	r1, [r2, #36]
 782              	.LVL63:
 783              	.LBB216:
 784              	.LBB217:
 785              		.loc 2 531 0
 786              		.syntax unified
 787              	@ 531 "../Drivers/CMSIS/Include/cmsis_gcc.h" 1
 788 031c 93FAA3F3 		rbit r3, r3
 789              	@ 0 "" 2
 790              	.LVL64:
 791              		.thumb
 792              		.syntax unified
 793              	.LBE217:
 794              	.LBE216:
 795              		.loc 1 440 0
 796 0320 B3FA83F3 		clz	r3, r3
 797 0324 03F01F03 		and	r3, r3, #31
 798 0328 0122     		movs	r2, #1
 799 032a 02FA03F3 		lsl	r3, r2, r3
 800 032e 0B42     		tst	r3, r1
 801 0330 06D0     		beq	.L39
 441:../Drivers/STM32F3xx_HAL_Driver/Src/stm32f3xx_hal_rcc.c ****       {
 442:../Drivers/STM32F3xx_HAL_Driver/Src/stm32f3xx_hal_rcc.c ****         if((HAL_GetTick() - tickstart ) > LSI_TIMEOUT_VALUE)
 802              		.loc 1 442 0
 803 0332 FFF7FEFF 		bl	HAL_GetTick
 804              	.LVL65:
 805 0336 401B     		subs	r0, r0, r5
 806 0338 0228     		cmp	r0, #2
 807 033a E6D9     		bls	.L43
 443:../Drivers/STM32F3xx_HAL_Driver/Src/stm32f3xx_hal_rcc.c ****         {
 444:../Drivers/STM32F3xx_HAL_Driver/Src/stm32f3xx_hal_rcc.c ****           return HAL_TIMEOUT;
 808              		.loc 1 444 0
 809 033c 0320     		movs	r0, #3
 810 033e 5CE1     		b	.L10
 811              	.LVL66:
 812              	.L39:
 445:../Drivers/STM32F3xx_HAL_Driver/Src/stm32f3xx_hal_rcc.c ****         }
 446:../Drivers/STM32F3xx_HAL_Driver/Src/stm32f3xx_hal_rcc.c ****       }
 447:../Drivers/STM32F3xx_HAL_Driver/Src/stm32f3xx_hal_rcc.c ****     }
 448:../Drivers/STM32F3xx_HAL_Driver/Src/stm32f3xx_hal_rcc.c ****   }
 449:../Drivers/STM32F3xx_HAL_Driver/Src/stm32f3xx_hal_rcc.c ****   /*------------------------------ LSE Configuration -------------------------*/ 
ARM GAS  /var/folders/k_/r2bh2pj93_jff4n9gmtn9jvr0000gn/T//cc0u2Ioj.s 			page 33


 450:../Drivers/STM32F3xx_HAL_Driver/Src/stm32f3xx_hal_rcc.c ****   if(((RCC_OscInitStruct->OscillatorType) & RCC_OSCILLATORTYPE_LSE) == RCC_OSCILLATORTYPE_LSE)
 813              		.loc 1 450 0
 814 0340 2368     		ldr	r3, [r4]
 815 0342 13F0040F 		tst	r3, #4
 816 0346 00F0B380 		beq	.L45
 817              	.LVL67:
 818              	.LBB218:
 451:../Drivers/STM32F3xx_HAL_Driver/Src/stm32f3xx_hal_rcc.c ****   {
 452:../Drivers/STM32F3xx_HAL_Driver/Src/stm32f3xx_hal_rcc.c ****     FlagStatus       pwrclkchanged = RESET;
 453:../Drivers/STM32F3xx_HAL_Driver/Src/stm32f3xx_hal_rcc.c ****     
 454:../Drivers/STM32F3xx_HAL_Driver/Src/stm32f3xx_hal_rcc.c ****     /* Check the parameters */
 455:../Drivers/STM32F3xx_HAL_Driver/Src/stm32f3xx_hal_rcc.c ****     assert_param(IS_RCC_LSE(RCC_OscInitStruct->LSEState));
 456:../Drivers/STM32F3xx_HAL_Driver/Src/stm32f3xx_hal_rcc.c **** 
 457:../Drivers/STM32F3xx_HAL_Driver/Src/stm32f3xx_hal_rcc.c ****     /* Update LSE configuration in Backup Domain control register    */
 458:../Drivers/STM32F3xx_HAL_Driver/Src/stm32f3xx_hal_rcc.c ****     /* Requires to enable write access to Backup Domain of necessary */
 459:../Drivers/STM32F3xx_HAL_Driver/Src/stm32f3xx_hal_rcc.c ****     if(__HAL_RCC_PWR_IS_CLK_DISABLED())
 819              		.loc 1 459 0
 820 034a AE4B     		ldr	r3, .L113+4
 821 034c DB69     		ldr	r3, [r3, #28]
 822 034e 13F0805F 		tst	r3, #268435456
 823 0352 20D1     		bne	.L85
 824              	.LBB219:
 460:../Drivers/STM32F3xx_HAL_Driver/Src/stm32f3xx_hal_rcc.c ****     {
 461:../Drivers/STM32F3xx_HAL_Driver/Src/stm32f3xx_hal_rcc.c ****       __HAL_RCC_PWR_CLK_ENABLE();
 825              		.loc 1 461 0
 826 0354 AB4B     		ldr	r3, .L113+4
 827 0356 DA69     		ldr	r2, [r3, #28]
 828 0358 42F08052 		orr	r2, r2, #268435456
 829 035c DA61     		str	r2, [r3, #28]
 830 035e DB69     		ldr	r3, [r3, #28]
 831 0360 03F08053 		and	r3, r3, #268435456
 832 0364 0193     		str	r3, [sp, #4]
 833 0366 019B     		ldr	r3, [sp, #4]
 834              	.LVL68:
 835              	.LBE219:
 462:../Drivers/STM32F3xx_HAL_Driver/Src/stm32f3xx_hal_rcc.c ****       pwrclkchanged = SET;
 836              		.loc 1 462 0
 837 0368 0125     		movs	r5, #1
 838              	.LVL69:
 839              	.L46:
 463:../Drivers/STM32F3xx_HAL_Driver/Src/stm32f3xx_hal_rcc.c ****     }
 464:../Drivers/STM32F3xx_HAL_Driver/Src/stm32f3xx_hal_rcc.c ****     
 465:../Drivers/STM32F3xx_HAL_Driver/Src/stm32f3xx_hal_rcc.c ****     if(HAL_IS_BIT_CLR(PWR->CR, PWR_CR_DBP))
 840              		.loc 1 465 0
 841 036a A74B     		ldr	r3, .L113+8
 842 036c 1B68     		ldr	r3, [r3]
 843 036e 13F4807F 		tst	r3, #256
 844 0372 12D0     		beq	.L101
 845              	.L47:
 466:../Drivers/STM32F3xx_HAL_Driver/Src/stm32f3xx_hal_rcc.c ****     {
 467:../Drivers/STM32F3xx_HAL_Driver/Src/stm32f3xx_hal_rcc.c ****       /* Enable write access to Backup domain */
 468:../Drivers/STM32F3xx_HAL_Driver/Src/stm32f3xx_hal_rcc.c ****       SET_BIT(PWR->CR, PWR_CR_DBP);
 469:../Drivers/STM32F3xx_HAL_Driver/Src/stm32f3xx_hal_rcc.c ****       
 470:../Drivers/STM32F3xx_HAL_Driver/Src/stm32f3xx_hal_rcc.c ****       /* Wait for Backup domain Write protection disable */
 471:../Drivers/STM32F3xx_HAL_Driver/Src/stm32f3xx_hal_rcc.c ****       tickstart = HAL_GetTick();
 472:../Drivers/STM32F3xx_HAL_Driver/Src/stm32f3xx_hal_rcc.c **** 
 473:../Drivers/STM32F3xx_HAL_Driver/Src/stm32f3xx_hal_rcc.c ****       while(HAL_IS_BIT_CLR(PWR->CR, PWR_CR_DBP))
ARM GAS  /var/folders/k_/r2bh2pj93_jff4n9gmtn9jvr0000gn/T//cc0u2Ioj.s 			page 34


 474:../Drivers/STM32F3xx_HAL_Driver/Src/stm32f3xx_hal_rcc.c ****       {
 475:../Drivers/STM32F3xx_HAL_Driver/Src/stm32f3xx_hal_rcc.c ****         if((HAL_GetTick() - tickstart) > RCC_DBP_TIMEOUT_VALUE)
 476:../Drivers/STM32F3xx_HAL_Driver/Src/stm32f3xx_hal_rcc.c ****         {
 477:../Drivers/STM32F3xx_HAL_Driver/Src/stm32f3xx_hal_rcc.c ****           return HAL_TIMEOUT;
 478:../Drivers/STM32F3xx_HAL_Driver/Src/stm32f3xx_hal_rcc.c ****         }
 479:../Drivers/STM32F3xx_HAL_Driver/Src/stm32f3xx_hal_rcc.c ****       }
 480:../Drivers/STM32F3xx_HAL_Driver/Src/stm32f3xx_hal_rcc.c ****     }
 481:../Drivers/STM32F3xx_HAL_Driver/Src/stm32f3xx_hal_rcc.c **** 
 482:../Drivers/STM32F3xx_HAL_Driver/Src/stm32f3xx_hal_rcc.c ****     /* Set the new LSE configuration -----------------------------------------*/
 483:../Drivers/STM32F3xx_HAL_Driver/Src/stm32f3xx_hal_rcc.c ****     __HAL_RCC_LSE_CONFIG(RCC_OscInitStruct->LSEState);
 846              		.loc 1 483 0
 847 0374 E368     		ldr	r3, [r4, #12]
 848 0376 012B     		cmp	r3, #1
 849 0378 23D0     		beq	.L102
 850              		.loc 1 483 0 is_stmt 0 discriminator 2
 851 037a 73BB     		cbnz	r3, .L52
 852              		.loc 1 483 0 discriminator 3
 853 037c 03F18043 		add	r3, r3, #1073741824
 854 0380 03F50433 		add	r3, r3, #135168
 855 0384 1A6A     		ldr	r2, [r3, #32]
 856 0386 22F00102 		bic	r2, r2, #1
 857 038a 1A62     		str	r2, [r3, #32]
 858 038c 1A6A     		ldr	r2, [r3, #32]
 859 038e 22F00402 		bic	r2, r2, #4
 860 0392 1A62     		str	r2, [r3, #32]
 861 0394 1AE0     		b	.L51
 862              	.LVL70:
 863              	.L85:
 452:../Drivers/STM32F3xx_HAL_Driver/Src/stm32f3xx_hal_rcc.c ****     
 864              		.loc 1 452 0 is_stmt 1
 865 0396 0025     		movs	r5, #0
 866 0398 E7E7     		b	.L46
 867              	.LVL71:
 868              	.L101:
 468:../Drivers/STM32F3xx_HAL_Driver/Src/stm32f3xx_hal_rcc.c ****       
 869              		.loc 1 468 0
 870 039a 9B4A     		ldr	r2, .L113+8
 871 039c 1368     		ldr	r3, [r2]
 872 039e 43F48073 		orr	r3, r3, #256
 873 03a2 1360     		str	r3, [r2]
 471:../Drivers/STM32F3xx_HAL_Driver/Src/stm32f3xx_hal_rcc.c **** 
 874              		.loc 1 471 0
 875 03a4 FFF7FEFF 		bl	HAL_GetTick
 876              	.LVL72:
 877 03a8 0646     		mov	r6, r0
 878              	.LVL73:
 879              	.L48:
 473:../Drivers/STM32F3xx_HAL_Driver/Src/stm32f3xx_hal_rcc.c ****       {
 880              		.loc 1 473 0
 881 03aa 974B     		ldr	r3, .L113+8
 882 03ac 1B68     		ldr	r3, [r3]
 883 03ae 13F4807F 		tst	r3, #256
 884 03b2 DFD1     		bne	.L47
 475:../Drivers/STM32F3xx_HAL_Driver/Src/stm32f3xx_hal_rcc.c ****         {
 885              		.loc 1 475 0
 886 03b4 FFF7FEFF 		bl	HAL_GetTick
 887              	.LVL74:
ARM GAS  /var/folders/k_/r2bh2pj93_jff4n9gmtn9jvr0000gn/T//cc0u2Ioj.s 			page 35


 888 03b8 801B     		subs	r0, r0, r6
 889 03ba 6428     		cmp	r0, #100
 890 03bc F5D9     		bls	.L48
 477:../Drivers/STM32F3xx_HAL_Driver/Src/stm32f3xx_hal_rcc.c ****         }
 891              		.loc 1 477 0
 892 03be 0320     		movs	r0, #3
 893 03c0 1BE1     		b	.L10
 894              	.LVL75:
 895              	.L102:
 896              		.loc 1 483 0 discriminator 1
 897 03c2 904A     		ldr	r2, .L113+4
 898 03c4 136A     		ldr	r3, [r2, #32]
 899 03c6 43F00103 		orr	r3, r3, #1
 900 03ca 1362     		str	r3, [r2, #32]
 901              	.L51:
 484:../Drivers/STM32F3xx_HAL_Driver/Src/stm32f3xx_hal_rcc.c ****     /* Check the LSE State */
 485:../Drivers/STM32F3xx_HAL_Driver/Src/stm32f3xx_hal_rcc.c ****     if(RCC_OscInitStruct->LSEState != RCC_LSE_OFF)
 902              		.loc 1 485 0
 903 03cc E368     		ldr	r3, [r4, #12]
 904 03ce 002B     		cmp	r3, #0
 905 03d0 41D0     		beq	.L54
 486:../Drivers/STM32F3xx_HAL_Driver/Src/stm32f3xx_hal_rcc.c ****     {
 487:../Drivers/STM32F3xx_HAL_Driver/Src/stm32f3xx_hal_rcc.c ****       /* Get Start Tick */
 488:../Drivers/STM32F3xx_HAL_Driver/Src/stm32f3xx_hal_rcc.c ****       tickstart = HAL_GetTick();
 906              		.loc 1 488 0
 907 03d2 FFF7FEFF 		bl	HAL_GetTick
 908              	.LVL76:
 909 03d6 0646     		mov	r6, r0
 910              	.LVL77:
 489:../Drivers/STM32F3xx_HAL_Driver/Src/stm32f3xx_hal_rcc.c ****       
 490:../Drivers/STM32F3xx_HAL_Driver/Src/stm32f3xx_hal_rcc.c ****       /* Wait till LSE is ready */  
 491:../Drivers/STM32F3xx_HAL_Driver/Src/stm32f3xx_hal_rcc.c ****       while(__HAL_RCC_GET_FLAG(RCC_FLAG_LSERDY) == RESET)
 911              		.loc 1 491 0
 912 03d8 2BE0     		b	.L55
 913              	.LVL78:
 914              	.L52:
 483:../Drivers/STM32F3xx_HAL_Driver/Src/stm32f3xx_hal_rcc.c ****     /* Check the LSE State */
 915              		.loc 1 483 0 discriminator 4
 916 03da 052B     		cmp	r3, #5
 917 03dc 09D0     		beq	.L103
 483:../Drivers/STM32F3xx_HAL_Driver/Src/stm32f3xx_hal_rcc.c ****     /* Check the LSE State */
 918              		.loc 1 483 0 is_stmt 0 discriminator 6
 919 03de 894B     		ldr	r3, .L113+4
 920 03e0 1A6A     		ldr	r2, [r3, #32]
 921 03e2 22F00102 		bic	r2, r2, #1
 922 03e6 1A62     		str	r2, [r3, #32]
 923 03e8 1A6A     		ldr	r2, [r3, #32]
 924 03ea 22F00402 		bic	r2, r2, #4
 925 03ee 1A62     		str	r2, [r3, #32]
 926 03f0 ECE7     		b	.L51
 927              	.L103:
 483:../Drivers/STM32F3xx_HAL_Driver/Src/stm32f3xx_hal_rcc.c ****     /* Check the LSE State */
 928              		.loc 1 483 0 discriminator 5
 929 03f2 844B     		ldr	r3, .L113+4
 930 03f4 1A6A     		ldr	r2, [r3, #32]
 931 03f6 42F00402 		orr	r2, r2, #4
 932 03fa 1A62     		str	r2, [r3, #32]
ARM GAS  /var/folders/k_/r2bh2pj93_jff4n9gmtn9jvr0000gn/T//cc0u2Ioj.s 			page 36


 933 03fc 1A6A     		ldr	r2, [r3, #32]
 934 03fe 42F00102 		orr	r2, r2, #1
 935 0402 1A62     		str	r2, [r3, #32]
 936 0404 E2E7     		b	.L51
 937              	.LVL79:
 938              	.L104:
 939              		.loc 1 491 0 is_stmt 1 discriminator 4
 940 0406 7F4B     		ldr	r3, .L113+4
 941 0408 196A     		ldr	r1, [r3, #32]
 942              	.L57:
 943              	.LVL80:
 944              	.LBB220:
 945              	.LBB221:
 946              		.loc 2 531 0 discriminator 11
 947 040a 0223     		movs	r3, #2
 948              		.syntax unified
 949              	@ 531 "../Drivers/CMSIS/Include/cmsis_gcc.h" 1
 950 040c 93FAA3F3 		rbit r3, r3
 951              	@ 0 "" 2
 952              	.LVL81:
 953              		.thumb
 954              		.syntax unified
 955              	.LBE221:
 956              	.LBE220:
 957              		.loc 1 491 0 discriminator 11
 958 0410 B3FA83F3 		clz	r3, r3
 959 0414 03F01F03 		and	r3, r3, #31
 960 0418 0122     		movs	r2, #1
 961 041a 02FA03F3 		lsl	r3, r2, r3
 962 041e 1942     		tst	r1, r3
 963 0420 45D1     		bne	.L59
 492:../Drivers/STM32F3xx_HAL_Driver/Src/stm32f3xx_hal_rcc.c ****       {
 493:../Drivers/STM32F3xx_HAL_Driver/Src/stm32f3xx_hal_rcc.c ****         if((HAL_GetTick() - tickstart ) > RCC_LSE_TIMEOUT_VALUE)
 964              		.loc 1 493 0
 965 0422 FFF7FEFF 		bl	HAL_GetTick
 966              	.LVL82:
 967 0426 801B     		subs	r0, r0, r6
 968 0428 41F28833 		movw	r3, #5000
 969 042c 9842     		cmp	r0, r3
 970 042e 00F2DF80 		bhi	.L87
 971              	.L55:
 972              	.LVL83:
 973              	.LBB222:
 974              	.LBB223:
 975              		.loc 2 531 0
 976 0432 0223     		movs	r3, #2
 977              		.syntax unified
 978              	@ 531 "../Drivers/CMSIS/Include/cmsis_gcc.h" 1
 979 0434 93FAA3F2 		rbit r2, r3
 980              	@ 0 "" 2
 981              	.LVL84:
 982              		.thumb
 983              		.syntax unified
 984              	.LBE223:
 985              	.LBE222:
 986              	.LBB224:
 987              	.LBB225:
ARM GAS  /var/folders/k_/r2bh2pj93_jff4n9gmtn9jvr0000gn/T//cc0u2Ioj.s 			page 37


 988              		.syntax unified
 989              	@ 531 "../Drivers/CMSIS/Include/cmsis_gcc.h" 1
 990 0438 93FAA3F3 		rbit r3, r3
 991              	@ 0 "" 2
 992              	.LVL85:
 993              		.thumb
 994              		.syntax unified
 995              	.LBE225:
 996              	.LBE224:
 491:../Drivers/STM32F3xx_HAL_Driver/Src/stm32f3xx_hal_rcc.c ****       {
 997              		.loc 1 491 0
 998 043c B3FA83F3 		clz	r3, r3
 999 0440 5B09     		lsrs	r3, r3, #5
 1000 0442 43F00203 		orr	r3, r3, #2
 1001 0446 022B     		cmp	r3, #2
 1002 0448 DDD0     		beq	.L104
 1003              	.LVL86:
 1004              	.LBB226:
 1005              	.LBB227:
 1006              		.loc 2 531 0
 1007 044a 0223     		movs	r3, #2
 1008              		.syntax unified
 1009              	@ 531 "../Drivers/CMSIS/Include/cmsis_gcc.h" 1
 1010 044c 93FAA3F3 		rbit r3, r3
 1011              	@ 0 "" 2
 1012              	.LVL87:
 1013              		.thumb
 1014              		.syntax unified
 1015              	.LBE227:
 1016              	.LBE226:
 491:../Drivers/STM32F3xx_HAL_Driver/Src/stm32f3xx_hal_rcc.c ****       {
 1017              		.loc 1 491 0
 1018 0450 6C4B     		ldr	r3, .L113+4
 1019 0452 596A     		ldr	r1, [r3, #36]
 1020 0454 D9E7     		b	.L57
 1021              	.LVL88:
 1022              	.L54:
 494:../Drivers/STM32F3xx_HAL_Driver/Src/stm32f3xx_hal_rcc.c ****         {
 495:../Drivers/STM32F3xx_HAL_Driver/Src/stm32f3xx_hal_rcc.c ****           return HAL_TIMEOUT;
 496:../Drivers/STM32F3xx_HAL_Driver/Src/stm32f3xx_hal_rcc.c ****         }
 497:../Drivers/STM32F3xx_HAL_Driver/Src/stm32f3xx_hal_rcc.c ****       }
 498:../Drivers/STM32F3xx_HAL_Driver/Src/stm32f3xx_hal_rcc.c ****     }
 499:../Drivers/STM32F3xx_HAL_Driver/Src/stm32f3xx_hal_rcc.c ****     else
 500:../Drivers/STM32F3xx_HAL_Driver/Src/stm32f3xx_hal_rcc.c ****     {
 501:../Drivers/STM32F3xx_HAL_Driver/Src/stm32f3xx_hal_rcc.c ****       /* Get Start Tick */
 502:../Drivers/STM32F3xx_HAL_Driver/Src/stm32f3xx_hal_rcc.c ****       tickstart = HAL_GetTick();
 1023              		.loc 1 502 0
 1024 0456 FFF7FEFF 		bl	HAL_GetTick
 1025              	.LVL89:
 1026 045a 0646     		mov	r6, r0
 1027              	.LVL90:
 503:../Drivers/STM32F3xx_HAL_Driver/Src/stm32f3xx_hal_rcc.c ****       
 504:../Drivers/STM32F3xx_HAL_Driver/Src/stm32f3xx_hal_rcc.c ****       /* Wait till LSE is disabled */  
 505:../Drivers/STM32F3xx_HAL_Driver/Src/stm32f3xx_hal_rcc.c ****       while(__HAL_RCC_GET_FLAG(RCC_FLAG_LSERDY) != RESET)
 1028              		.loc 1 505 0
 1029 045c 15E0     		b	.L60
 1030              	.LVL91:
ARM GAS  /var/folders/k_/r2bh2pj93_jff4n9gmtn9jvr0000gn/T//cc0u2Ioj.s 			page 38


 1031              	.L105:
 1032              		.loc 1 505 0 is_stmt 0 discriminator 4
 1033 045e 694B     		ldr	r3, .L113+4
 1034 0460 196A     		ldr	r1, [r3, #32]
 1035              	.L62:
 1036              	.LVL92:
 1037              	.LBB228:
 1038              	.LBB229:
 1039              		.loc 2 531 0 is_stmt 1 discriminator 11
 1040 0462 0223     		movs	r3, #2
 1041              		.syntax unified
 1042              	@ 531 "../Drivers/CMSIS/Include/cmsis_gcc.h" 1
 1043 0464 93FAA3F3 		rbit r3, r3
 1044              	@ 0 "" 2
 1045              	.LVL93:
 1046              		.thumb
 1047              		.syntax unified
 1048              	.LBE229:
 1049              	.LBE228:
 1050              		.loc 1 505 0 discriminator 11
 1051 0468 B3FA83F3 		clz	r3, r3
 1052 046c 03F01F03 		and	r3, r3, #31
 1053 0470 0122     		movs	r2, #1
 1054 0472 02FA03F3 		lsl	r3, r2, r3
 1055 0476 1942     		tst	r1, r3
 1056 0478 19D0     		beq	.L59
 506:../Drivers/STM32F3xx_HAL_Driver/Src/stm32f3xx_hal_rcc.c ****       {
 507:../Drivers/STM32F3xx_HAL_Driver/Src/stm32f3xx_hal_rcc.c ****         if((HAL_GetTick() - tickstart ) > RCC_LSE_TIMEOUT_VALUE)
 1057              		.loc 1 507 0
 1058 047a FFF7FEFF 		bl	HAL_GetTick
 1059              	.LVL94:
 1060 047e 801B     		subs	r0, r0, r6
 1061 0480 41F28833 		movw	r3, #5000
 1062 0484 9842     		cmp	r0, r3
 1063 0486 00F2B580 		bhi	.L88
 1064              	.L60:
 1065              	.LVL95:
 1066              	.LBB230:
 1067              	.LBB231:
 1068              		.loc 2 531 0
 1069 048a 0223     		movs	r3, #2
 1070              		.syntax unified
 1071              	@ 531 "../Drivers/CMSIS/Include/cmsis_gcc.h" 1
 1072 048c 93FAA3F2 		rbit r2, r3
 1073              	@ 0 "" 2
 1074              	.LVL96:
 1075              		.thumb
 1076              		.syntax unified
 1077              	.LBE231:
 1078              	.LBE230:
 1079              	.LBB232:
 1080              	.LBB233:
 1081              		.syntax unified
 1082              	@ 531 "../Drivers/CMSIS/Include/cmsis_gcc.h" 1
 1083 0490 93FAA3F3 		rbit r3, r3
 1084              	@ 0 "" 2
 1085              	.LVL97:
ARM GAS  /var/folders/k_/r2bh2pj93_jff4n9gmtn9jvr0000gn/T//cc0u2Ioj.s 			page 39


 1086              		.thumb
 1087              		.syntax unified
 1088              	.LBE233:
 1089              	.LBE232:
 505:../Drivers/STM32F3xx_HAL_Driver/Src/stm32f3xx_hal_rcc.c ****       {
 1090              		.loc 1 505 0
 1091 0494 B3FA83F3 		clz	r3, r3
 1092 0498 5B09     		lsrs	r3, r3, #5
 1093 049a 43F00203 		orr	r3, r3, #2
 1094 049e 022B     		cmp	r3, #2
 1095 04a0 DDD0     		beq	.L105
 1096              	.LVL98:
 1097              	.LBB234:
 1098              	.LBB235:
 1099              		.loc 2 531 0
 1100 04a2 0223     		movs	r3, #2
 1101              		.syntax unified
 1102              	@ 531 "../Drivers/CMSIS/Include/cmsis_gcc.h" 1
 1103 04a4 93FAA3F3 		rbit r3, r3
 1104              	@ 0 "" 2
 1105              	.LVL99:
 1106              		.thumb
 1107              		.syntax unified
 1108              	.LBE235:
 1109              	.LBE234:
 505:../Drivers/STM32F3xx_HAL_Driver/Src/stm32f3xx_hal_rcc.c ****       {
 1110              		.loc 1 505 0
 1111 04a8 564B     		ldr	r3, .L113+4
 1112 04aa 596A     		ldr	r1, [r3, #36]
 1113 04ac D9E7     		b	.L62
 1114              	.L59:
 508:../Drivers/STM32F3xx_HAL_Driver/Src/stm32f3xx_hal_rcc.c ****         {
 509:../Drivers/STM32F3xx_HAL_Driver/Src/stm32f3xx_hal_rcc.c ****           return HAL_TIMEOUT;
 510:../Drivers/STM32F3xx_HAL_Driver/Src/stm32f3xx_hal_rcc.c ****         }
 511:../Drivers/STM32F3xx_HAL_Driver/Src/stm32f3xx_hal_rcc.c ****       }
 512:../Drivers/STM32F3xx_HAL_Driver/Src/stm32f3xx_hal_rcc.c ****     }
 513:../Drivers/STM32F3xx_HAL_Driver/Src/stm32f3xx_hal_rcc.c **** 
 514:../Drivers/STM32F3xx_HAL_Driver/Src/stm32f3xx_hal_rcc.c ****     /* Require to disable power clock if necessary */
 515:../Drivers/STM32F3xx_HAL_Driver/Src/stm32f3xx_hal_rcc.c ****     if(pwrclkchanged == SET)
 1115              		.loc 1 515 0
 1116 04ae B5BB     		cbnz	r5, .L106
 1117              	.LVL100:
 1118              	.L45:
 1119              	.LBE218:
 516:../Drivers/STM32F3xx_HAL_Driver/Src/stm32f3xx_hal_rcc.c ****     {
 517:../Drivers/STM32F3xx_HAL_Driver/Src/stm32f3xx_hal_rcc.c ****       __HAL_RCC_PWR_CLK_DISABLE();
 518:../Drivers/STM32F3xx_HAL_Driver/Src/stm32f3xx_hal_rcc.c ****     }
 519:../Drivers/STM32F3xx_HAL_Driver/Src/stm32f3xx_hal_rcc.c ****   }
 520:../Drivers/STM32F3xx_HAL_Driver/Src/stm32f3xx_hal_rcc.c **** 
 521:../Drivers/STM32F3xx_HAL_Driver/Src/stm32f3xx_hal_rcc.c ****   /*-------------------------------- PLL Configuration -----------------------*/
 522:../Drivers/STM32F3xx_HAL_Driver/Src/stm32f3xx_hal_rcc.c ****   /* Check the parameters */
 523:../Drivers/STM32F3xx_HAL_Driver/Src/stm32f3xx_hal_rcc.c ****   assert_param(IS_RCC_PLL(RCC_OscInitStruct->PLL.PLLState));
 524:../Drivers/STM32F3xx_HAL_Driver/Src/stm32f3xx_hal_rcc.c ****   if ((RCC_OscInitStruct->PLL.PLLState) != RCC_PLL_NONE)
 1120              		.loc 1 524 0
 1121 04b0 E369     		ldr	r3, [r4, #28]
 1122 04b2 002B     		cmp	r3, #0
 1123 04b4 00F0A080 		beq	.L89
ARM GAS  /var/folders/k_/r2bh2pj93_jff4n9gmtn9jvr0000gn/T//cc0u2Ioj.s 			page 40


 525:../Drivers/STM32F3xx_HAL_Driver/Src/stm32f3xx_hal_rcc.c ****   {
 526:../Drivers/STM32F3xx_HAL_Driver/Src/stm32f3xx_hal_rcc.c ****     /* Check if the PLL is used as system clock or not */
 527:../Drivers/STM32F3xx_HAL_Driver/Src/stm32f3xx_hal_rcc.c ****     if(__HAL_RCC_GET_SYSCLK_SOURCE() != RCC_SYSCLKSOURCE_STATUS_PLLCLK)
 1124              		.loc 1 527 0
 1125 04b8 524A     		ldr	r2, .L113+4
 1126 04ba 5268     		ldr	r2, [r2, #4]
 1127 04bc 02F00C02 		and	r2, r2, #12
 1128 04c0 082A     		cmp	r2, #8
 1129 04c2 00F0A380 		beq	.L90
 528:../Drivers/STM32F3xx_HAL_Driver/Src/stm32f3xx_hal_rcc.c ****     { 
 529:../Drivers/STM32F3xx_HAL_Driver/Src/stm32f3xx_hal_rcc.c ****       if((RCC_OscInitStruct->PLL.PLLState) == RCC_PLL_ON)
 1130              		.loc 1 529 0
 1131 04c6 022B     		cmp	r3, #2
 1132 04c8 2FD0     		beq	.L107
 1133              	.LVL101:
 1134              	.LBB236:
 1135              	.LBB237:
 1136              		.loc 2 531 0
 1137 04ca 4FF08073 		mov	r3, #16777216
 1138              		.syntax unified
 1139              	@ 531 "../Drivers/CMSIS/Include/cmsis_gcc.h" 1
 1140 04ce 93FAA3F3 		rbit r3, r3
 1141              	@ 0 "" 2
 1142              	.LVL102:
 1143              		.thumb
 1144              		.syntax unified
 1145              	.LBE237:
 1146              	.LBE236:
 530:../Drivers/STM32F3xx_HAL_Driver/Src/stm32f3xx_hal_rcc.c ****       {
 531:../Drivers/STM32F3xx_HAL_Driver/Src/stm32f3xx_hal_rcc.c ****         /* Check the parameters */
 532:../Drivers/STM32F3xx_HAL_Driver/Src/stm32f3xx_hal_rcc.c ****         assert_param(IS_RCC_PLLSOURCE(RCC_OscInitStruct->PLL.PLLSource));
 533:../Drivers/STM32F3xx_HAL_Driver/Src/stm32f3xx_hal_rcc.c ****         assert_param(IS_RCC_PLL_MUL(RCC_OscInitStruct->PLL.PLLMUL));
 534:../Drivers/STM32F3xx_HAL_Driver/Src/stm32f3xx_hal_rcc.c **** #if   defined(RCC_CFGR_PLLSRC_HSI_PREDIV)
 535:../Drivers/STM32F3xx_HAL_Driver/Src/stm32f3xx_hal_rcc.c ****         assert_param(IS_RCC_PREDIV(RCC_OscInitStruct->PLL.PREDIV));
 536:../Drivers/STM32F3xx_HAL_Driver/Src/stm32f3xx_hal_rcc.c **** #endif
 537:../Drivers/STM32F3xx_HAL_Driver/Src/stm32f3xx_hal_rcc.c ****   
 538:../Drivers/STM32F3xx_HAL_Driver/Src/stm32f3xx_hal_rcc.c ****         /* Disable the main PLL. */
 539:../Drivers/STM32F3xx_HAL_Driver/Src/stm32f3xx_hal_rcc.c ****         __HAL_RCC_PLL_DISABLE();
 540:../Drivers/STM32F3xx_HAL_Driver/Src/stm32f3xx_hal_rcc.c ****         
 541:../Drivers/STM32F3xx_HAL_Driver/Src/stm32f3xx_hal_rcc.c ****         /* Get Start Tick */
 542:../Drivers/STM32F3xx_HAL_Driver/Src/stm32f3xx_hal_rcc.c ****         tickstart = HAL_GetTick();
 543:../Drivers/STM32F3xx_HAL_Driver/Src/stm32f3xx_hal_rcc.c ****         
 544:../Drivers/STM32F3xx_HAL_Driver/Src/stm32f3xx_hal_rcc.c ****         /* Wait till PLL is disabled */
 545:../Drivers/STM32F3xx_HAL_Driver/Src/stm32f3xx_hal_rcc.c ****         while(__HAL_RCC_GET_FLAG(RCC_FLAG_PLLRDY)  != RESET)
 546:../Drivers/STM32F3xx_HAL_Driver/Src/stm32f3xx_hal_rcc.c ****         {
 547:../Drivers/STM32F3xx_HAL_Driver/Src/stm32f3xx_hal_rcc.c ****           if((HAL_GetTick() - tickstart ) > PLL_TIMEOUT_VALUE)
 548:../Drivers/STM32F3xx_HAL_Driver/Src/stm32f3xx_hal_rcc.c ****           {
 549:../Drivers/STM32F3xx_HAL_Driver/Src/stm32f3xx_hal_rcc.c ****             return HAL_TIMEOUT;
 550:../Drivers/STM32F3xx_HAL_Driver/Src/stm32f3xx_hal_rcc.c ****           }
 551:../Drivers/STM32F3xx_HAL_Driver/Src/stm32f3xx_hal_rcc.c ****         }
 552:../Drivers/STM32F3xx_HAL_Driver/Src/stm32f3xx_hal_rcc.c **** 
 553:../Drivers/STM32F3xx_HAL_Driver/Src/stm32f3xx_hal_rcc.c **** #if defined(RCC_CFGR_PLLSRC_HSI_PREDIV)
 554:../Drivers/STM32F3xx_HAL_Driver/Src/stm32f3xx_hal_rcc.c ****         /* Configure the main PLL clock source, predivider and multiplication factor. */
 555:../Drivers/STM32F3xx_HAL_Driver/Src/stm32f3xx_hal_rcc.c ****         __HAL_RCC_PLL_CONFIG(RCC_OscInitStruct->PLL.PLLSource,
 556:../Drivers/STM32F3xx_HAL_Driver/Src/stm32f3xx_hal_rcc.c ****                              RCC_OscInitStruct->PLL.PREDIV,
 557:../Drivers/STM32F3xx_HAL_Driver/Src/stm32f3xx_hal_rcc.c ****                              RCC_OscInitStruct->PLL.PLLMUL);
 558:../Drivers/STM32F3xx_HAL_Driver/Src/stm32f3xx_hal_rcc.c **** #else
ARM GAS  /var/folders/k_/r2bh2pj93_jff4n9gmtn9jvr0000gn/T//cc0u2Ioj.s 			page 41


 559:../Drivers/STM32F3xx_HAL_Driver/Src/stm32f3xx_hal_rcc.c ****       /* Configure the main PLL clock source and multiplication factor. */
 560:../Drivers/STM32F3xx_HAL_Driver/Src/stm32f3xx_hal_rcc.c ****       __HAL_RCC_PLL_CONFIG(RCC_OscInitStruct->PLL.PLLSource,
 561:../Drivers/STM32F3xx_HAL_Driver/Src/stm32f3xx_hal_rcc.c ****                            RCC_OscInitStruct->PLL.PLLMUL);
 562:../Drivers/STM32F3xx_HAL_Driver/Src/stm32f3xx_hal_rcc.c **** #endif /* RCC_CFGR_PLLSRC_HSI_PREDIV */
 563:../Drivers/STM32F3xx_HAL_Driver/Src/stm32f3xx_hal_rcc.c ****         /* Enable the main PLL. */
 564:../Drivers/STM32F3xx_HAL_Driver/Src/stm32f3xx_hal_rcc.c ****         __HAL_RCC_PLL_ENABLE();
 565:../Drivers/STM32F3xx_HAL_Driver/Src/stm32f3xx_hal_rcc.c ****         
 566:../Drivers/STM32F3xx_HAL_Driver/Src/stm32f3xx_hal_rcc.c ****         /* Get Start Tick */
 567:../Drivers/STM32F3xx_HAL_Driver/Src/stm32f3xx_hal_rcc.c ****         tickstart = HAL_GetTick();
 568:../Drivers/STM32F3xx_HAL_Driver/Src/stm32f3xx_hal_rcc.c ****         
 569:../Drivers/STM32F3xx_HAL_Driver/Src/stm32f3xx_hal_rcc.c ****         /* Wait till PLL is ready */
 570:../Drivers/STM32F3xx_HAL_Driver/Src/stm32f3xx_hal_rcc.c ****         while(__HAL_RCC_GET_FLAG(RCC_FLAG_PLLRDY)  == RESET)
 571:../Drivers/STM32F3xx_HAL_Driver/Src/stm32f3xx_hal_rcc.c ****         {
 572:../Drivers/STM32F3xx_HAL_Driver/Src/stm32f3xx_hal_rcc.c ****           if((HAL_GetTick() - tickstart ) > PLL_TIMEOUT_VALUE)
 573:../Drivers/STM32F3xx_HAL_Driver/Src/stm32f3xx_hal_rcc.c ****           {
 574:../Drivers/STM32F3xx_HAL_Driver/Src/stm32f3xx_hal_rcc.c ****             return HAL_TIMEOUT;
 575:../Drivers/STM32F3xx_HAL_Driver/Src/stm32f3xx_hal_rcc.c ****           }
 576:../Drivers/STM32F3xx_HAL_Driver/Src/stm32f3xx_hal_rcc.c ****         }
 577:../Drivers/STM32F3xx_HAL_Driver/Src/stm32f3xx_hal_rcc.c ****       }
 578:../Drivers/STM32F3xx_HAL_Driver/Src/stm32f3xx_hal_rcc.c ****       else
 579:../Drivers/STM32F3xx_HAL_Driver/Src/stm32f3xx_hal_rcc.c ****       {
 580:../Drivers/STM32F3xx_HAL_Driver/Src/stm32f3xx_hal_rcc.c ****         /* Disable the main PLL. */
 581:../Drivers/STM32F3xx_HAL_Driver/Src/stm32f3xx_hal_rcc.c ****         __HAL_RCC_PLL_DISABLE();
 1147              		.loc 1 581 0
 1148 04d2 B3FA83F3 		clz	r3, r3
 1149 04d6 03F18453 		add	r3, r3, #276824064
 1150 04da 03F58413 		add	r3, r3, #1081344
 1151 04de 9B00     		lsls	r3, r3, #2
 1152 04e0 0022     		movs	r2, #0
 1153 04e2 1A60     		str	r2, [r3]
 582:../Drivers/STM32F3xx_HAL_Driver/Src/stm32f3xx_hal_rcc.c ****  
 583:../Drivers/STM32F3xx_HAL_Driver/Src/stm32f3xx_hal_rcc.c ****         /* Get Start Tick */
 584:../Drivers/STM32F3xx_HAL_Driver/Src/stm32f3xx_hal_rcc.c ****         tickstart = HAL_GetTick();
 1154              		.loc 1 584 0
 1155 04e4 FFF7FEFF 		bl	HAL_GetTick
 1156              	.LVL103:
 1157 04e8 0446     		mov	r4, r0
 1158              	.LVL104:
 1159              	.L73:
 1160              	.LBB238:
 1161              	.LBB239:
 1162              		.loc 2 531 0
 1163 04ea 4FF00073 		mov	r3, #33554432
 1164              		.syntax unified
 1165              	@ 531 "../Drivers/CMSIS/Include/cmsis_gcc.h" 1
 1166 04ee 93FAA3F3 		rbit r3, r3
 1167              	@ 0 "" 2
 1168              	.LVL105:
 1169              		.thumb
 1170              		.syntax unified
 1171              	.LBE239:
 1172              	.LBE238:
 585:../Drivers/STM32F3xx_HAL_Driver/Src/stm32f3xx_hal_rcc.c ****         
 586:../Drivers/STM32F3xx_HAL_Driver/Src/stm32f3xx_hal_rcc.c ****         /* Wait till PLL is disabled */  
 587:../Drivers/STM32F3xx_HAL_Driver/Src/stm32f3xx_hal_rcc.c ****         while(__HAL_RCC_GET_FLAG(RCC_FLAG_PLLRDY)  != RESET)
 1173              		.loc 1 587 0
 1174 04f2 444B     		ldr	r3, .L113+4
ARM GAS  /var/folders/k_/r2bh2pj93_jff4n9gmtn9jvr0000gn/T//cc0u2Ioj.s 			page 42


 1175 04f4 1968     		ldr	r1, [r3]
 1176              	.LVL106:
 1177              	.LBB240:
 1178              	.LBB241:
 1179              		.loc 2 531 0
 1180 04f6 4FF00073 		mov	r3, #33554432
 1181              		.syntax unified
 1182              	@ 531 "../Drivers/CMSIS/Include/cmsis_gcc.h" 1
 1183 04fa 93FAA3F3 		rbit r3, r3
 1184              	@ 0 "" 2
 1185              	.LVL107:
 1186              		.thumb
 1187              		.syntax unified
 1188              	.LBE241:
 1189              	.LBE240:
 1190              		.loc 1 587 0
 1191 04fe B3FA83F3 		clz	r3, r3
 1192 0502 03F01F03 		and	r3, r3, #31
 1193 0506 0122     		movs	r2, #1
 1194 0508 02FA03F3 		lsl	r3, r2, r3
 1195 050c 1942     		tst	r1, r3
 1196 050e 6BD0     		beq	.L108
 588:../Drivers/STM32F3xx_HAL_Driver/Src/stm32f3xx_hal_rcc.c ****         {
 589:../Drivers/STM32F3xx_HAL_Driver/Src/stm32f3xx_hal_rcc.c ****           if((HAL_GetTick() - tickstart ) > PLL_TIMEOUT_VALUE)
 1197              		.loc 1 589 0
 1198 0510 FFF7FEFF 		bl	HAL_GetTick
 1199              	.LVL108:
 1200 0514 001B     		subs	r0, r0, r4
 1201 0516 0228     		cmp	r0, #2
 1202 0518 E7D9     		bls	.L73
 590:../Drivers/STM32F3xx_HAL_Driver/Src/stm32f3xx_hal_rcc.c ****           {
 591:../Drivers/STM32F3xx_HAL_Driver/Src/stm32f3xx_hal_rcc.c ****             return HAL_TIMEOUT;
 1203              		.loc 1 591 0
 1204 051a 0320     		movs	r0, #3
 1205 051c 6DE0     		b	.L10
 1206              	.LVL109:
 1207              	.L106:
 1208              	.LBB242:
 517:../Drivers/STM32F3xx_HAL_Driver/Src/stm32f3xx_hal_rcc.c ****     }
 1209              		.loc 1 517 0
 1210 051e 394A     		ldr	r2, .L113+4
 1211 0520 D369     		ldr	r3, [r2, #28]
 1212 0522 23F08053 		bic	r3, r3, #268435456
 1213 0526 D361     		str	r3, [r2, #28]
 1214 0528 C2E7     		b	.L45
 1215              	.LVL110:
 1216              	.L107:
 1217              	.LBE242:
 1218              	.LBB243:
 1219              	.LBB244:
 1220              		.loc 2 531 0
 1221 052a 4FF08073 		mov	r3, #16777216
 1222              		.syntax unified
 1223              	@ 531 "../Drivers/CMSIS/Include/cmsis_gcc.h" 1
 1224 052e 93FAA3F3 		rbit r3, r3
 1225              	@ 0 "" 2
 1226              	.LVL111:
ARM GAS  /var/folders/k_/r2bh2pj93_jff4n9gmtn9jvr0000gn/T//cc0u2Ioj.s 			page 43


 1227              		.thumb
 1228              		.syntax unified
 1229              	.LBE244:
 1230              	.LBE243:
 539:../Drivers/STM32F3xx_HAL_Driver/Src/stm32f3xx_hal_rcc.c ****         
 1231              		.loc 1 539 0
 1232 0532 B3FA83F3 		clz	r3, r3
 1233 0536 03F18453 		add	r3, r3, #276824064
 1234 053a 03F58413 		add	r3, r3, #1081344
 1235 053e 9B00     		lsls	r3, r3, #2
 1236 0540 0022     		movs	r2, #0
 1237 0542 1A60     		str	r2, [r3]
 542:../Drivers/STM32F3xx_HAL_Driver/Src/stm32f3xx_hal_rcc.c ****         
 1238              		.loc 1 542 0
 1239 0544 FFF7FEFF 		bl	HAL_GetTick
 1240              	.LVL112:
 1241 0548 0546     		mov	r5, r0
 1242              	.LVL113:
 1243              	.L65:
 1244              	.LBB245:
 1245              	.LBB246:
 1246              		.loc 2 531 0
 1247 054a 4FF00073 		mov	r3, #33554432
 1248              		.syntax unified
 1249              	@ 531 "../Drivers/CMSIS/Include/cmsis_gcc.h" 1
 1250 054e 93FAA3F3 		rbit r3, r3
 1251              	@ 0 "" 2
 1252              	.LVL114:
 1253              		.thumb
 1254              		.syntax unified
 1255              	.LBE246:
 1256              	.LBE245:
 545:../Drivers/STM32F3xx_HAL_Driver/Src/stm32f3xx_hal_rcc.c ****         {
 1257              		.loc 1 545 0
 1258 0552 2C4B     		ldr	r3, .L113+4
 1259 0554 1968     		ldr	r1, [r3]
 1260              	.LVL115:
 1261              	.LBB247:
 1262              	.LBB248:
 1263              		.loc 2 531 0
 1264 0556 4FF00073 		mov	r3, #33554432
 1265              		.syntax unified
 1266              	@ 531 "../Drivers/CMSIS/Include/cmsis_gcc.h" 1
 1267 055a 93FAA3F3 		rbit r3, r3
 1268              	@ 0 "" 2
 1269              	.LVL116:
 1270              		.thumb
 1271              		.syntax unified
 1272              	.LBE248:
 1273              	.LBE247:
 545:../Drivers/STM32F3xx_HAL_Driver/Src/stm32f3xx_hal_rcc.c ****         {
 1274              		.loc 1 545 0
 1275 055e B3FA83F3 		clz	r3, r3
 1276 0562 03F01F03 		and	r3, r3, #31
 1277 0566 0122     		movs	r2, #1
 1278 0568 02FA03F3 		lsl	r3, r2, r3
 1279 056c 1942     		tst	r1, r3
ARM GAS  /var/folders/k_/r2bh2pj93_jff4n9gmtn9jvr0000gn/T//cc0u2Ioj.s 			page 44


 1280 056e 06D0     		beq	.L109
 547:../Drivers/STM32F3xx_HAL_Driver/Src/stm32f3xx_hal_rcc.c ****           {
 1281              		.loc 1 547 0
 1282 0570 FFF7FEFF 		bl	HAL_GetTick
 1283              	.LVL117:
 1284 0574 401B     		subs	r0, r0, r5
 1285 0576 0228     		cmp	r0, #2
 1286 0578 E7D9     		bls	.L65
 549:../Drivers/STM32F3xx_HAL_Driver/Src/stm32f3xx_hal_rcc.c ****           }
 1287              		.loc 1 549 0
 1288 057a 0320     		movs	r0, #3
 1289 057c 3DE0     		b	.L10
 1290              	.L109:
 560:../Drivers/STM32F3xx_HAL_Driver/Src/stm32f3xx_hal_rcc.c ****                            RCC_OscInitStruct->PLL.PLLMUL);
 1291              		.loc 1 560 0
 1292 057e 2149     		ldr	r1, .L113+4
 1293 0580 4B68     		ldr	r3, [r1, #4]
 1294 0582 23F47413 		bic	r3, r3, #3997696
 1295 0586 626A     		ldr	r2, [r4, #36]
 1296 0588 206A     		ldr	r0, [r4, #32]
 1297 058a 0243     		orrs	r2, r2, r0
 1298 058c 1343     		orrs	r3, r3, r2
 1299 058e 4B60     		str	r3, [r1, #4]
 1300              	.LVL118:
 1301              	.LBB249:
 1302              	.LBB250:
 1303              		.loc 2 531 0
 1304 0590 4FF08073 		mov	r3, #16777216
 1305              		.syntax unified
 1306              	@ 531 "../Drivers/CMSIS/Include/cmsis_gcc.h" 1
 1307 0594 93FAA3F3 		rbit r3, r3
 1308              	@ 0 "" 2
 1309              	.LVL119:
 1310              		.thumb
 1311              		.syntax unified
 1312              	.LBE250:
 1313              	.LBE249:
 564:../Drivers/STM32F3xx_HAL_Driver/Src/stm32f3xx_hal_rcc.c ****         
 1314              		.loc 1 564 0
 1315 0598 B3FA83F3 		clz	r3, r3
 1316 059c 03F18453 		add	r3, r3, #276824064
 1317 05a0 03F58413 		add	r3, r3, #1081344
 1318 05a4 9B00     		lsls	r3, r3, #2
 1319 05a6 0122     		movs	r2, #1
 1320 05a8 1A60     		str	r2, [r3]
 567:../Drivers/STM32F3xx_HAL_Driver/Src/stm32f3xx_hal_rcc.c ****         
 1321              		.loc 1 567 0
 1322 05aa FFF7FEFF 		bl	HAL_GetTick
 1323              	.LVL120:
 1324 05ae 0446     		mov	r4, r0
 1325              	.LVL121:
 1326              	.L69:
 1327              	.LBB251:
 1328              	.LBB252:
 1329              		.loc 2 531 0
 1330 05b0 4FF00073 		mov	r3, #33554432
 1331              		.syntax unified
ARM GAS  /var/folders/k_/r2bh2pj93_jff4n9gmtn9jvr0000gn/T//cc0u2Ioj.s 			page 45


 1332              	@ 531 "../Drivers/CMSIS/Include/cmsis_gcc.h" 1
 1333 05b4 93FAA3F3 		rbit r3, r3
 1334              	@ 0 "" 2
 1335              	.LVL122:
 1336              		.thumb
 1337              		.syntax unified
 1338              	.LBE252:
 1339              	.LBE251:
 570:../Drivers/STM32F3xx_HAL_Driver/Src/stm32f3xx_hal_rcc.c ****         {
 1340              		.loc 1 570 0
 1341 05b8 124B     		ldr	r3, .L113+4
 1342 05ba 1968     		ldr	r1, [r3]
 1343              	.LVL123:
 1344              	.LBB253:
 1345              	.LBB254:
 1346              		.loc 2 531 0
 1347 05bc 4FF00073 		mov	r3, #33554432
 1348              		.syntax unified
 1349              	@ 531 "../Drivers/CMSIS/Include/cmsis_gcc.h" 1
 1350 05c0 93FAA3F3 		rbit r3, r3
 1351              	@ 0 "" 2
 1352              	.LVL124:
 1353              		.thumb
 1354              		.syntax unified
 1355              	.LBE254:
 1356              	.LBE253:
 570:../Drivers/STM32F3xx_HAL_Driver/Src/stm32f3xx_hal_rcc.c ****         {
 1357              		.loc 1 570 0
 1358 05c4 B3FA83F3 		clz	r3, r3
 1359 05c8 03F01F03 		and	r3, r3, #31
 1360 05cc 0122     		movs	r2, #1
 1361 05ce 02FA03F3 		lsl	r3, r2, r3
 1362 05d2 1942     		tst	r1, r3
 1363 05d4 06D1     		bne	.L110
 572:../Drivers/STM32F3xx_HAL_Driver/Src/stm32f3xx_hal_rcc.c ****           {
 1364              		.loc 1 572 0
 1365 05d6 FFF7FEFF 		bl	HAL_GetTick
 1366              	.LVL125:
 1367 05da 001B     		subs	r0, r0, r4
 1368 05dc 0228     		cmp	r0, #2
 1369 05de E7D9     		bls	.L69
 574:../Drivers/STM32F3xx_HAL_Driver/Src/stm32f3xx_hal_rcc.c ****           }
 1370              		.loc 1 574 0
 1371 05e0 0320     		movs	r0, #3
 1372 05e2 0AE0     		b	.L10
 1373              	.L110:
 592:../Drivers/STM32F3xx_HAL_Driver/Src/stm32f3xx_hal_rcc.c ****           }
 593:../Drivers/STM32F3xx_HAL_Driver/Src/stm32f3xx_hal_rcc.c ****         }
 594:../Drivers/STM32F3xx_HAL_Driver/Src/stm32f3xx_hal_rcc.c ****       }
 595:../Drivers/STM32F3xx_HAL_Driver/Src/stm32f3xx_hal_rcc.c ****     }
 596:../Drivers/STM32F3xx_HAL_Driver/Src/stm32f3xx_hal_rcc.c ****     else
 597:../Drivers/STM32F3xx_HAL_Driver/Src/stm32f3xx_hal_rcc.c ****     {
 598:../Drivers/STM32F3xx_HAL_Driver/Src/stm32f3xx_hal_rcc.c ****       return HAL_ERROR;
 599:../Drivers/STM32F3xx_HAL_Driver/Src/stm32f3xx_hal_rcc.c ****     }
 600:../Drivers/STM32F3xx_HAL_Driver/Src/stm32f3xx_hal_rcc.c ****   }
 601:../Drivers/STM32F3xx_HAL_Driver/Src/stm32f3xx_hal_rcc.c ****   
 602:../Drivers/STM32F3xx_HAL_Driver/Src/stm32f3xx_hal_rcc.c ****   return HAL_OK;
ARM GAS  /var/folders/k_/r2bh2pj93_jff4n9gmtn9jvr0000gn/T//cc0u2Ioj.s 			page 46


 1374              		.loc 1 602 0
 1375 05e4 0020     		movs	r0, #0
 1376 05e6 08E0     		b	.L10
 1377              	.L108:
 1378 05e8 0020     		movs	r0, #0
 1379 05ea 06E0     		b	.L10
 1380              	.LVL126:
 1381              	.L97:
 298:../Drivers/STM32F3xx_HAL_Driver/Src/stm32f3xx_hal_rcc.c ****       }
 1382              		.loc 1 298 0
 1383 05ec 0120     		movs	r0, #1
 1384              	.LVL127:
 1385 05ee 04E0     		b	.L10
 1386              	.LVL128:
 1387              	.L87:
 1388              	.LBB255:
 495:../Drivers/STM32F3xx_HAL_Driver/Src/stm32f3xx_hal_rcc.c ****         }
 1389              		.loc 1 495 0
 1390 05f0 0320     		movs	r0, #3
 1391 05f2 02E0     		b	.L10
 1392              	.L88:
 509:../Drivers/STM32F3xx_HAL_Driver/Src/stm32f3xx_hal_rcc.c ****         }
 1393              		.loc 1 509 0
 1394 05f4 0320     		movs	r0, #3
 1395 05f6 00E0     		b	.L10
 1396              	.LVL129:
 1397              	.L89:
 1398              	.LBE255:
 1399              		.loc 1 602 0
 1400 05f8 0020     		movs	r0, #0
 1401              	.LVL130:
 1402              	.L10:
 603:../Drivers/STM32F3xx_HAL_Driver/Src/stm32f3xx_hal_rcc.c **** }
 1403              		.loc 1 603 0
 1404 05fa 02B0     		add	sp, sp, #8
 1405              	.LCFI2:
 1406              		.cfi_remember_state
 1407              		.cfi_def_cfa_offset 16
 1408              		@ sp needed
 1409 05fc 70BD     		pop	{r4, r5, r6, pc}
 1410              	.L114:
 1411 05fe 00BF     		.align	2
 1412              	.L113:
 1413 0600 20819010 		.word	277905696
 1414 0604 00100240 		.word	1073876992
 1415 0608 00700040 		.word	1073770496
 1416              	.LVL131:
 1417              	.L90:
 1418              	.LCFI3:
 1419              		.cfi_restore_state
 598:../Drivers/STM32F3xx_HAL_Driver/Src/stm32f3xx_hal_rcc.c ****     }
 1420              		.loc 1 598 0
 1421 060c 0120     		movs	r0, #1
 1422 060e F4E7     		b	.L10
 1423              		.cfi_endproc
 1424              	.LFE127:
 1426              		.section	.text.HAL_RCC_MCOConfig,"ax",%progbits
ARM GAS  /var/folders/k_/r2bh2pj93_jff4n9gmtn9jvr0000gn/T//cc0u2Ioj.s 			page 47


 1427              		.align	1
 1428              		.global	HAL_RCC_MCOConfig
 1429              		.syntax unified
 1430              		.thumb
 1431              		.thumb_func
 1432              		.fpu fpv4-sp-d16
 1434              	HAL_RCC_MCOConfig:
 1435              	.LFB129:
 604:../Drivers/STM32F3xx_HAL_Driver/Src/stm32f3xx_hal_rcc.c **** 
 605:../Drivers/STM32F3xx_HAL_Driver/Src/stm32f3xx_hal_rcc.c **** /**
 606:../Drivers/STM32F3xx_HAL_Driver/Src/stm32f3xx_hal_rcc.c ****   * @brief  Initializes the CPU, AHB and APB buses clocks according to the specified 
 607:../Drivers/STM32F3xx_HAL_Driver/Src/stm32f3xx_hal_rcc.c ****   *         parameters in the RCC_ClkInitStruct.
 608:../Drivers/STM32F3xx_HAL_Driver/Src/stm32f3xx_hal_rcc.c ****   * @param  RCC_ClkInitStruct pointer to an RCC_OscInitTypeDef structure that
 609:../Drivers/STM32F3xx_HAL_Driver/Src/stm32f3xx_hal_rcc.c ****   *         contains the configuration information for the RCC peripheral.
 610:../Drivers/STM32F3xx_HAL_Driver/Src/stm32f3xx_hal_rcc.c ****   * @param  FLatency FLASH Latency                   
 611:../Drivers/STM32F3xx_HAL_Driver/Src/stm32f3xx_hal_rcc.c ****   *          The value of this parameter depend on device used within the same series
 612:../Drivers/STM32F3xx_HAL_Driver/Src/stm32f3xx_hal_rcc.c ****   * @note   The SystemCoreClock CMSIS variable is used to store System Clock Frequency 
 613:../Drivers/STM32F3xx_HAL_Driver/Src/stm32f3xx_hal_rcc.c ****   *         and updated by @ref HAL_RCC_GetHCLKFreq() function called within this function
 614:../Drivers/STM32F3xx_HAL_Driver/Src/stm32f3xx_hal_rcc.c ****   *
 615:../Drivers/STM32F3xx_HAL_Driver/Src/stm32f3xx_hal_rcc.c ****   * @note   The HSI is used (enabled by hardware) as system clock source after
 616:../Drivers/STM32F3xx_HAL_Driver/Src/stm32f3xx_hal_rcc.c ****   *         start-up from Reset, wake-up from STOP and STANDBY mode, or in case
 617:../Drivers/STM32F3xx_HAL_Driver/Src/stm32f3xx_hal_rcc.c ****   *         of failure of the HSE used directly or indirectly as system clock
 618:../Drivers/STM32F3xx_HAL_Driver/Src/stm32f3xx_hal_rcc.c ****   *         (if the Clock Security System CSS is enabled).
 619:../Drivers/STM32F3xx_HAL_Driver/Src/stm32f3xx_hal_rcc.c ****   *           
 620:../Drivers/STM32F3xx_HAL_Driver/Src/stm32f3xx_hal_rcc.c ****   * @note   A switch from one clock source to another occurs only if the target
 621:../Drivers/STM32F3xx_HAL_Driver/Src/stm32f3xx_hal_rcc.c ****   *         clock source is ready (clock stable after start-up delay or PLL locked). 
 622:../Drivers/STM32F3xx_HAL_Driver/Src/stm32f3xx_hal_rcc.c ****   *         If a clock source which is not yet ready is selected, the switch will
 623:../Drivers/STM32F3xx_HAL_Driver/Src/stm32f3xx_hal_rcc.c ****   *         occur when the clock source will be ready. 
 624:../Drivers/STM32F3xx_HAL_Driver/Src/stm32f3xx_hal_rcc.c ****   *         You can use @ref HAL_RCC_GetClockConfig() function to know which clock is
 625:../Drivers/STM32F3xx_HAL_Driver/Src/stm32f3xx_hal_rcc.c ****   *         currently used as system clock source.
 626:../Drivers/STM32F3xx_HAL_Driver/Src/stm32f3xx_hal_rcc.c ****   * @retval HAL status
 627:../Drivers/STM32F3xx_HAL_Driver/Src/stm32f3xx_hal_rcc.c ****   */
 628:../Drivers/STM32F3xx_HAL_Driver/Src/stm32f3xx_hal_rcc.c **** HAL_StatusTypeDef HAL_RCC_ClockConfig(RCC_ClkInitTypeDef  *RCC_ClkInitStruct, uint32_t FLatency)
 629:../Drivers/STM32F3xx_HAL_Driver/Src/stm32f3xx_hal_rcc.c **** {
 630:../Drivers/STM32F3xx_HAL_Driver/Src/stm32f3xx_hal_rcc.c ****   uint32_t tickstart = 0U;
 631:../Drivers/STM32F3xx_HAL_Driver/Src/stm32f3xx_hal_rcc.c ****   
 632:../Drivers/STM32F3xx_HAL_Driver/Src/stm32f3xx_hal_rcc.c ****   /* Check the parameters */
 633:../Drivers/STM32F3xx_HAL_Driver/Src/stm32f3xx_hal_rcc.c ****   assert_param(RCC_ClkInitStruct != NULL);
 634:../Drivers/STM32F3xx_HAL_Driver/Src/stm32f3xx_hal_rcc.c ****   assert_param(IS_RCC_CLOCKTYPE(RCC_ClkInitStruct->ClockType));
 635:../Drivers/STM32F3xx_HAL_Driver/Src/stm32f3xx_hal_rcc.c ****   assert_param(IS_FLASH_LATENCY(FLatency));
 636:../Drivers/STM32F3xx_HAL_Driver/Src/stm32f3xx_hal_rcc.c **** 
 637:../Drivers/STM32F3xx_HAL_Driver/Src/stm32f3xx_hal_rcc.c ****   /* To correctly read data from FLASH memory, the number of wait states (LATENCY) 
 638:../Drivers/STM32F3xx_HAL_Driver/Src/stm32f3xx_hal_rcc.c ****   must be correctly programmed according to the frequency of the CPU clock 
 639:../Drivers/STM32F3xx_HAL_Driver/Src/stm32f3xx_hal_rcc.c ****     (HCLK) of the device. */
 640:../Drivers/STM32F3xx_HAL_Driver/Src/stm32f3xx_hal_rcc.c **** 
 641:../Drivers/STM32F3xx_HAL_Driver/Src/stm32f3xx_hal_rcc.c ****   /* Increasing the number of wait states because of higher CPU frequency */
 642:../Drivers/STM32F3xx_HAL_Driver/Src/stm32f3xx_hal_rcc.c ****   if(FLatency > (FLASH->ACR & FLASH_ACR_LATENCY))
 643:../Drivers/STM32F3xx_HAL_Driver/Src/stm32f3xx_hal_rcc.c ****   {    
 644:../Drivers/STM32F3xx_HAL_Driver/Src/stm32f3xx_hal_rcc.c ****     /* Program the new number of wait states to the LATENCY bits in the FLASH_ACR register */
 645:../Drivers/STM32F3xx_HAL_Driver/Src/stm32f3xx_hal_rcc.c ****     __HAL_FLASH_SET_LATENCY(FLatency);
 646:../Drivers/STM32F3xx_HAL_Driver/Src/stm32f3xx_hal_rcc.c ****     
 647:../Drivers/STM32F3xx_HAL_Driver/Src/stm32f3xx_hal_rcc.c ****     /* Check that the new number of wait states is taken into account to access the Flash
 648:../Drivers/STM32F3xx_HAL_Driver/Src/stm32f3xx_hal_rcc.c ****     memory by reading the FLASH_ACR register */
 649:../Drivers/STM32F3xx_HAL_Driver/Src/stm32f3xx_hal_rcc.c ****     if((FLASH->ACR & FLASH_ACR_LATENCY) != FLatency)
 650:../Drivers/STM32F3xx_HAL_Driver/Src/stm32f3xx_hal_rcc.c ****     {
 651:../Drivers/STM32F3xx_HAL_Driver/Src/stm32f3xx_hal_rcc.c ****       return HAL_ERROR;
 652:../Drivers/STM32F3xx_HAL_Driver/Src/stm32f3xx_hal_rcc.c ****     }
ARM GAS  /var/folders/k_/r2bh2pj93_jff4n9gmtn9jvr0000gn/T//cc0u2Ioj.s 			page 48


 653:../Drivers/STM32F3xx_HAL_Driver/Src/stm32f3xx_hal_rcc.c ****   }
 654:../Drivers/STM32F3xx_HAL_Driver/Src/stm32f3xx_hal_rcc.c **** 
 655:../Drivers/STM32F3xx_HAL_Driver/Src/stm32f3xx_hal_rcc.c ****   /*-------------------------- HCLK Configuration --------------------------*/
 656:../Drivers/STM32F3xx_HAL_Driver/Src/stm32f3xx_hal_rcc.c ****   if(((RCC_ClkInitStruct->ClockType) & RCC_CLOCKTYPE_HCLK) == RCC_CLOCKTYPE_HCLK)
 657:../Drivers/STM32F3xx_HAL_Driver/Src/stm32f3xx_hal_rcc.c ****   {
 658:../Drivers/STM32F3xx_HAL_Driver/Src/stm32f3xx_hal_rcc.c ****     assert_param(IS_RCC_HCLK(RCC_ClkInitStruct->AHBCLKDivider));
 659:../Drivers/STM32F3xx_HAL_Driver/Src/stm32f3xx_hal_rcc.c ****     MODIFY_REG(RCC->CFGR, RCC_CFGR_HPRE, RCC_ClkInitStruct->AHBCLKDivider);
 660:../Drivers/STM32F3xx_HAL_Driver/Src/stm32f3xx_hal_rcc.c ****   }
 661:../Drivers/STM32F3xx_HAL_Driver/Src/stm32f3xx_hal_rcc.c **** 
 662:../Drivers/STM32F3xx_HAL_Driver/Src/stm32f3xx_hal_rcc.c ****   /*------------------------- SYSCLK Configuration ---------------------------*/ 
 663:../Drivers/STM32F3xx_HAL_Driver/Src/stm32f3xx_hal_rcc.c ****   if(((RCC_ClkInitStruct->ClockType) & RCC_CLOCKTYPE_SYSCLK) == RCC_CLOCKTYPE_SYSCLK)
 664:../Drivers/STM32F3xx_HAL_Driver/Src/stm32f3xx_hal_rcc.c ****   {    
 665:../Drivers/STM32F3xx_HAL_Driver/Src/stm32f3xx_hal_rcc.c ****     assert_param(IS_RCC_SYSCLKSOURCE(RCC_ClkInitStruct->SYSCLKSource));
 666:../Drivers/STM32F3xx_HAL_Driver/Src/stm32f3xx_hal_rcc.c ****     
 667:../Drivers/STM32F3xx_HAL_Driver/Src/stm32f3xx_hal_rcc.c ****     /* HSE is selected as System Clock Source */
 668:../Drivers/STM32F3xx_HAL_Driver/Src/stm32f3xx_hal_rcc.c ****     if(RCC_ClkInitStruct->SYSCLKSource == RCC_SYSCLKSOURCE_HSE)
 669:../Drivers/STM32F3xx_HAL_Driver/Src/stm32f3xx_hal_rcc.c ****     {
 670:../Drivers/STM32F3xx_HAL_Driver/Src/stm32f3xx_hal_rcc.c ****       /* Check the HSE ready flag */  
 671:../Drivers/STM32F3xx_HAL_Driver/Src/stm32f3xx_hal_rcc.c ****       if(__HAL_RCC_GET_FLAG(RCC_FLAG_HSERDY) == RESET)
 672:../Drivers/STM32F3xx_HAL_Driver/Src/stm32f3xx_hal_rcc.c ****       {
 673:../Drivers/STM32F3xx_HAL_Driver/Src/stm32f3xx_hal_rcc.c ****         return HAL_ERROR;
 674:../Drivers/STM32F3xx_HAL_Driver/Src/stm32f3xx_hal_rcc.c ****       }
 675:../Drivers/STM32F3xx_HAL_Driver/Src/stm32f3xx_hal_rcc.c ****     }
 676:../Drivers/STM32F3xx_HAL_Driver/Src/stm32f3xx_hal_rcc.c ****     /* PLL is selected as System Clock Source */
 677:../Drivers/STM32F3xx_HAL_Driver/Src/stm32f3xx_hal_rcc.c ****     else if(RCC_ClkInitStruct->SYSCLKSource == RCC_SYSCLKSOURCE_PLLCLK)
 678:../Drivers/STM32F3xx_HAL_Driver/Src/stm32f3xx_hal_rcc.c ****     {
 679:../Drivers/STM32F3xx_HAL_Driver/Src/stm32f3xx_hal_rcc.c ****       /* Check the PLL ready flag */  
 680:../Drivers/STM32F3xx_HAL_Driver/Src/stm32f3xx_hal_rcc.c ****       if(__HAL_RCC_GET_FLAG(RCC_FLAG_PLLRDY) == RESET)
 681:../Drivers/STM32F3xx_HAL_Driver/Src/stm32f3xx_hal_rcc.c ****       {
 682:../Drivers/STM32F3xx_HAL_Driver/Src/stm32f3xx_hal_rcc.c ****         return HAL_ERROR;
 683:../Drivers/STM32F3xx_HAL_Driver/Src/stm32f3xx_hal_rcc.c ****       }
 684:../Drivers/STM32F3xx_HAL_Driver/Src/stm32f3xx_hal_rcc.c ****     }
 685:../Drivers/STM32F3xx_HAL_Driver/Src/stm32f3xx_hal_rcc.c ****     /* HSI is selected as System Clock Source */
 686:../Drivers/STM32F3xx_HAL_Driver/Src/stm32f3xx_hal_rcc.c ****     else
 687:../Drivers/STM32F3xx_HAL_Driver/Src/stm32f3xx_hal_rcc.c ****     {
 688:../Drivers/STM32F3xx_HAL_Driver/Src/stm32f3xx_hal_rcc.c ****       /* Check the HSI ready flag */  
 689:../Drivers/STM32F3xx_HAL_Driver/Src/stm32f3xx_hal_rcc.c ****       if(__HAL_RCC_GET_FLAG(RCC_FLAG_HSIRDY) == RESET)
 690:../Drivers/STM32F3xx_HAL_Driver/Src/stm32f3xx_hal_rcc.c ****       {
 691:../Drivers/STM32F3xx_HAL_Driver/Src/stm32f3xx_hal_rcc.c ****         return HAL_ERROR;
 692:../Drivers/STM32F3xx_HAL_Driver/Src/stm32f3xx_hal_rcc.c ****       }
 693:../Drivers/STM32F3xx_HAL_Driver/Src/stm32f3xx_hal_rcc.c ****     }
 694:../Drivers/STM32F3xx_HAL_Driver/Src/stm32f3xx_hal_rcc.c ****     __HAL_RCC_SYSCLK_CONFIG(RCC_ClkInitStruct->SYSCLKSource);
 695:../Drivers/STM32F3xx_HAL_Driver/Src/stm32f3xx_hal_rcc.c **** 
 696:../Drivers/STM32F3xx_HAL_Driver/Src/stm32f3xx_hal_rcc.c ****     /* Get Start Tick */
 697:../Drivers/STM32F3xx_HAL_Driver/Src/stm32f3xx_hal_rcc.c ****     tickstart = HAL_GetTick();
 698:../Drivers/STM32F3xx_HAL_Driver/Src/stm32f3xx_hal_rcc.c ****     
 699:../Drivers/STM32F3xx_HAL_Driver/Src/stm32f3xx_hal_rcc.c ****     if(RCC_ClkInitStruct->SYSCLKSource == RCC_SYSCLKSOURCE_HSE)
 700:../Drivers/STM32F3xx_HAL_Driver/Src/stm32f3xx_hal_rcc.c ****     {
 701:../Drivers/STM32F3xx_HAL_Driver/Src/stm32f3xx_hal_rcc.c ****       while (__HAL_RCC_GET_SYSCLK_SOURCE() != RCC_SYSCLKSOURCE_STATUS_HSE)
 702:../Drivers/STM32F3xx_HAL_Driver/Src/stm32f3xx_hal_rcc.c ****       {
 703:../Drivers/STM32F3xx_HAL_Driver/Src/stm32f3xx_hal_rcc.c ****         if((HAL_GetTick() - tickstart ) > CLOCKSWITCH_TIMEOUT_VALUE)
 704:../Drivers/STM32F3xx_HAL_Driver/Src/stm32f3xx_hal_rcc.c ****         {
 705:../Drivers/STM32F3xx_HAL_Driver/Src/stm32f3xx_hal_rcc.c ****           return HAL_TIMEOUT;
 706:../Drivers/STM32F3xx_HAL_Driver/Src/stm32f3xx_hal_rcc.c ****         }
 707:../Drivers/STM32F3xx_HAL_Driver/Src/stm32f3xx_hal_rcc.c ****       }
 708:../Drivers/STM32F3xx_HAL_Driver/Src/stm32f3xx_hal_rcc.c ****     }
 709:../Drivers/STM32F3xx_HAL_Driver/Src/stm32f3xx_hal_rcc.c ****     else if(RCC_ClkInitStruct->SYSCLKSource == RCC_SYSCLKSOURCE_PLLCLK)
ARM GAS  /var/folders/k_/r2bh2pj93_jff4n9gmtn9jvr0000gn/T//cc0u2Ioj.s 			page 49


 710:../Drivers/STM32F3xx_HAL_Driver/Src/stm32f3xx_hal_rcc.c ****     {
 711:../Drivers/STM32F3xx_HAL_Driver/Src/stm32f3xx_hal_rcc.c ****       while (__HAL_RCC_GET_SYSCLK_SOURCE() != RCC_SYSCLKSOURCE_STATUS_PLLCLK)
 712:../Drivers/STM32F3xx_HAL_Driver/Src/stm32f3xx_hal_rcc.c ****       {
 713:../Drivers/STM32F3xx_HAL_Driver/Src/stm32f3xx_hal_rcc.c ****         if((HAL_GetTick() - tickstart ) > CLOCKSWITCH_TIMEOUT_VALUE)
 714:../Drivers/STM32F3xx_HAL_Driver/Src/stm32f3xx_hal_rcc.c ****         {
 715:../Drivers/STM32F3xx_HAL_Driver/Src/stm32f3xx_hal_rcc.c ****           return HAL_TIMEOUT;
 716:../Drivers/STM32F3xx_HAL_Driver/Src/stm32f3xx_hal_rcc.c ****         }
 717:../Drivers/STM32F3xx_HAL_Driver/Src/stm32f3xx_hal_rcc.c ****       }
 718:../Drivers/STM32F3xx_HAL_Driver/Src/stm32f3xx_hal_rcc.c ****     }
 719:../Drivers/STM32F3xx_HAL_Driver/Src/stm32f3xx_hal_rcc.c ****     else
 720:../Drivers/STM32F3xx_HAL_Driver/Src/stm32f3xx_hal_rcc.c ****     {
 721:../Drivers/STM32F3xx_HAL_Driver/Src/stm32f3xx_hal_rcc.c ****       while (__HAL_RCC_GET_SYSCLK_SOURCE() != RCC_SYSCLKSOURCE_STATUS_HSI)
 722:../Drivers/STM32F3xx_HAL_Driver/Src/stm32f3xx_hal_rcc.c ****       {
 723:../Drivers/STM32F3xx_HAL_Driver/Src/stm32f3xx_hal_rcc.c ****         if((HAL_GetTick() - tickstart ) > CLOCKSWITCH_TIMEOUT_VALUE)
 724:../Drivers/STM32F3xx_HAL_Driver/Src/stm32f3xx_hal_rcc.c ****         {
 725:../Drivers/STM32F3xx_HAL_Driver/Src/stm32f3xx_hal_rcc.c ****           return HAL_TIMEOUT;
 726:../Drivers/STM32F3xx_HAL_Driver/Src/stm32f3xx_hal_rcc.c ****         }
 727:../Drivers/STM32F3xx_HAL_Driver/Src/stm32f3xx_hal_rcc.c ****       }
 728:../Drivers/STM32F3xx_HAL_Driver/Src/stm32f3xx_hal_rcc.c ****     }      
 729:../Drivers/STM32F3xx_HAL_Driver/Src/stm32f3xx_hal_rcc.c ****   }    
 730:../Drivers/STM32F3xx_HAL_Driver/Src/stm32f3xx_hal_rcc.c ****   /* Decreasing the number of wait states because of lower CPU frequency */
 731:../Drivers/STM32F3xx_HAL_Driver/Src/stm32f3xx_hal_rcc.c ****   if(FLatency < (FLASH->ACR & FLASH_ACR_LATENCY))
 732:../Drivers/STM32F3xx_HAL_Driver/Src/stm32f3xx_hal_rcc.c ****   {    
 733:../Drivers/STM32F3xx_HAL_Driver/Src/stm32f3xx_hal_rcc.c ****     /* Program the new number of wait states to the LATENCY bits in the FLASH_ACR register */
 734:../Drivers/STM32F3xx_HAL_Driver/Src/stm32f3xx_hal_rcc.c ****     __HAL_FLASH_SET_LATENCY(FLatency);
 735:../Drivers/STM32F3xx_HAL_Driver/Src/stm32f3xx_hal_rcc.c ****     
 736:../Drivers/STM32F3xx_HAL_Driver/Src/stm32f3xx_hal_rcc.c ****     /* Check that the new number of wait states is taken into account to access the Flash
 737:../Drivers/STM32F3xx_HAL_Driver/Src/stm32f3xx_hal_rcc.c ****     memory by reading the FLASH_ACR register */
 738:../Drivers/STM32F3xx_HAL_Driver/Src/stm32f3xx_hal_rcc.c ****     if((FLASH->ACR & FLASH_ACR_LATENCY) != FLatency)
 739:../Drivers/STM32F3xx_HAL_Driver/Src/stm32f3xx_hal_rcc.c ****     {
 740:../Drivers/STM32F3xx_HAL_Driver/Src/stm32f3xx_hal_rcc.c ****       return HAL_ERROR;
 741:../Drivers/STM32F3xx_HAL_Driver/Src/stm32f3xx_hal_rcc.c ****     }
 742:../Drivers/STM32F3xx_HAL_Driver/Src/stm32f3xx_hal_rcc.c ****   }    
 743:../Drivers/STM32F3xx_HAL_Driver/Src/stm32f3xx_hal_rcc.c **** 
 744:../Drivers/STM32F3xx_HAL_Driver/Src/stm32f3xx_hal_rcc.c ****   /*-------------------------- PCLK1 Configuration ---------------------------*/ 
 745:../Drivers/STM32F3xx_HAL_Driver/Src/stm32f3xx_hal_rcc.c ****   if(((RCC_ClkInitStruct->ClockType) & RCC_CLOCKTYPE_PCLK1) == RCC_CLOCKTYPE_PCLK1)
 746:../Drivers/STM32F3xx_HAL_Driver/Src/stm32f3xx_hal_rcc.c ****   {
 747:../Drivers/STM32F3xx_HAL_Driver/Src/stm32f3xx_hal_rcc.c ****     assert_param(IS_RCC_PCLK(RCC_ClkInitStruct->APB1CLKDivider));
 748:../Drivers/STM32F3xx_HAL_Driver/Src/stm32f3xx_hal_rcc.c ****     MODIFY_REG(RCC->CFGR, RCC_CFGR_PPRE1, RCC_ClkInitStruct->APB1CLKDivider);
 749:../Drivers/STM32F3xx_HAL_Driver/Src/stm32f3xx_hal_rcc.c ****   }
 750:../Drivers/STM32F3xx_HAL_Driver/Src/stm32f3xx_hal_rcc.c ****   
 751:../Drivers/STM32F3xx_HAL_Driver/Src/stm32f3xx_hal_rcc.c ****   /*-------------------------- PCLK2 Configuration ---------------------------*/ 
 752:../Drivers/STM32F3xx_HAL_Driver/Src/stm32f3xx_hal_rcc.c ****   if(((RCC_ClkInitStruct->ClockType) & RCC_CLOCKTYPE_PCLK2) == RCC_CLOCKTYPE_PCLK2)
 753:../Drivers/STM32F3xx_HAL_Driver/Src/stm32f3xx_hal_rcc.c ****   {
 754:../Drivers/STM32F3xx_HAL_Driver/Src/stm32f3xx_hal_rcc.c ****     assert_param(IS_RCC_PCLK(RCC_ClkInitStruct->APB2CLKDivider));
 755:../Drivers/STM32F3xx_HAL_Driver/Src/stm32f3xx_hal_rcc.c ****     MODIFY_REG(RCC->CFGR, RCC_CFGR_PPRE2, ((RCC_ClkInitStruct->APB2CLKDivider) << 3U));
 756:../Drivers/STM32F3xx_HAL_Driver/Src/stm32f3xx_hal_rcc.c ****   }
 757:../Drivers/STM32F3xx_HAL_Driver/Src/stm32f3xx_hal_rcc.c ****  
 758:../Drivers/STM32F3xx_HAL_Driver/Src/stm32f3xx_hal_rcc.c ****   /* Update the SystemCoreClock global variable */
 759:../Drivers/STM32F3xx_HAL_Driver/Src/stm32f3xx_hal_rcc.c ****   SystemCoreClock = HAL_RCC_GetSysClockFreq() >> AHBPrescTable[(RCC->CFGR & RCC_CFGR_HPRE)>> RCC_CF
 760:../Drivers/STM32F3xx_HAL_Driver/Src/stm32f3xx_hal_rcc.c **** 
 761:../Drivers/STM32F3xx_HAL_Driver/Src/stm32f3xx_hal_rcc.c ****   /* Configure the source of time base considering new system clocks settings*/
 762:../Drivers/STM32F3xx_HAL_Driver/Src/stm32f3xx_hal_rcc.c ****   HAL_InitTick (TICK_INT_PRIORITY);
 763:../Drivers/STM32F3xx_HAL_Driver/Src/stm32f3xx_hal_rcc.c ****   
 764:../Drivers/STM32F3xx_HAL_Driver/Src/stm32f3xx_hal_rcc.c ****   return HAL_OK;
 765:../Drivers/STM32F3xx_HAL_Driver/Src/stm32f3xx_hal_rcc.c **** }
 766:../Drivers/STM32F3xx_HAL_Driver/Src/stm32f3xx_hal_rcc.c **** 
ARM GAS  /var/folders/k_/r2bh2pj93_jff4n9gmtn9jvr0000gn/T//cc0u2Ioj.s 			page 50


 767:../Drivers/STM32F3xx_HAL_Driver/Src/stm32f3xx_hal_rcc.c **** /**
 768:../Drivers/STM32F3xx_HAL_Driver/Src/stm32f3xx_hal_rcc.c ****   * @}
 769:../Drivers/STM32F3xx_HAL_Driver/Src/stm32f3xx_hal_rcc.c ****   */
 770:../Drivers/STM32F3xx_HAL_Driver/Src/stm32f3xx_hal_rcc.c **** 
 771:../Drivers/STM32F3xx_HAL_Driver/Src/stm32f3xx_hal_rcc.c **** /** @defgroup RCC_Exported_Functions_Group2 Peripheral Control functions
 772:../Drivers/STM32F3xx_HAL_Driver/Src/stm32f3xx_hal_rcc.c ****   *  @brief   RCC clocks control functions
 773:../Drivers/STM32F3xx_HAL_Driver/Src/stm32f3xx_hal_rcc.c ****   *
 774:../Drivers/STM32F3xx_HAL_Driver/Src/stm32f3xx_hal_rcc.c ****   @verbatim   
 775:../Drivers/STM32F3xx_HAL_Driver/Src/stm32f3xx_hal_rcc.c ****   ===============================================================================
 776:../Drivers/STM32F3xx_HAL_Driver/Src/stm32f3xx_hal_rcc.c ****                   ##### Peripheral Control functions #####
 777:../Drivers/STM32F3xx_HAL_Driver/Src/stm32f3xx_hal_rcc.c ****   ===============================================================================  
 778:../Drivers/STM32F3xx_HAL_Driver/Src/stm32f3xx_hal_rcc.c ****     [..]
 779:../Drivers/STM32F3xx_HAL_Driver/Src/stm32f3xx_hal_rcc.c ****     This subsection provides a set of functions allowing to control the RCC Clocks 
 780:../Drivers/STM32F3xx_HAL_Driver/Src/stm32f3xx_hal_rcc.c ****     frequencies.
 781:../Drivers/STM32F3xx_HAL_Driver/Src/stm32f3xx_hal_rcc.c **** 
 782:../Drivers/STM32F3xx_HAL_Driver/Src/stm32f3xx_hal_rcc.c ****   @endverbatim
 783:../Drivers/STM32F3xx_HAL_Driver/Src/stm32f3xx_hal_rcc.c ****   * @{
 784:../Drivers/STM32F3xx_HAL_Driver/Src/stm32f3xx_hal_rcc.c ****   */
 785:../Drivers/STM32F3xx_HAL_Driver/Src/stm32f3xx_hal_rcc.c **** 
 786:../Drivers/STM32F3xx_HAL_Driver/Src/stm32f3xx_hal_rcc.c **** #if defined(RCC_CFGR_MCOPRE)
 787:../Drivers/STM32F3xx_HAL_Driver/Src/stm32f3xx_hal_rcc.c **** /**
 788:../Drivers/STM32F3xx_HAL_Driver/Src/stm32f3xx_hal_rcc.c ****   * @brief  Selects the clock source to output on MCO pin.
 789:../Drivers/STM32F3xx_HAL_Driver/Src/stm32f3xx_hal_rcc.c ****   * @note   MCO pin should be configured in alternate function mode.
 790:../Drivers/STM32F3xx_HAL_Driver/Src/stm32f3xx_hal_rcc.c ****   * @param  RCC_MCOx specifies the output direction for the clock source.
 791:../Drivers/STM32F3xx_HAL_Driver/Src/stm32f3xx_hal_rcc.c ****   *          This parameter can be one of the following values:
 792:../Drivers/STM32F3xx_HAL_Driver/Src/stm32f3xx_hal_rcc.c ****   *            @arg @ref RCC_MCO1 Clock source to output on MCO1 pin(PA8).
 793:../Drivers/STM32F3xx_HAL_Driver/Src/stm32f3xx_hal_rcc.c ****   * @param  RCC_MCOSource specifies the clock source to output.
 794:../Drivers/STM32F3xx_HAL_Driver/Src/stm32f3xx_hal_rcc.c ****   *          This parameter can be one of the following values:
 795:../Drivers/STM32F3xx_HAL_Driver/Src/stm32f3xx_hal_rcc.c ****   *            @arg @ref RCC_MCO1SOURCE_NOCLOCK     No clock selected
 796:../Drivers/STM32F3xx_HAL_Driver/Src/stm32f3xx_hal_rcc.c ****   *            @arg @ref RCC_MCO1SOURCE_SYSCLK      System Clock selected as MCO clock
 797:../Drivers/STM32F3xx_HAL_Driver/Src/stm32f3xx_hal_rcc.c ****   *            @arg @ref RCC_MCO1SOURCE_HSI         HSI selected as MCO clock
 798:../Drivers/STM32F3xx_HAL_Driver/Src/stm32f3xx_hal_rcc.c ****   *            @arg @ref RCC_MCO1SOURCE_HSE         HSE selected as MCO clock
 799:../Drivers/STM32F3xx_HAL_Driver/Src/stm32f3xx_hal_rcc.c ****   *            @arg @ref RCC_MCO1SOURCE_LSI         LSI selected as MCO clock
 800:../Drivers/STM32F3xx_HAL_Driver/Src/stm32f3xx_hal_rcc.c ****   *            @arg @ref RCC_MCO1SOURCE_LSE         LSE selected as MCO clock
 801:../Drivers/STM32F3xx_HAL_Driver/Src/stm32f3xx_hal_rcc.c ****   *            @arg @ref RCC_MCO1SOURCE_PLLCLK      PLLCLK selected as MCO clock
 802:../Drivers/STM32F3xx_HAL_Driver/Src/stm32f3xx_hal_rcc.c ****   *            @arg @ref RCC_MCO1SOURCE_PLLCLK_DIV2 PLLCLK Divided by 2 selected as MCO clock
 803:../Drivers/STM32F3xx_HAL_Driver/Src/stm32f3xx_hal_rcc.c ****   * @param  RCC_MCODiv specifies the MCO DIV.
 804:../Drivers/STM32F3xx_HAL_Driver/Src/stm32f3xx_hal_rcc.c ****   *          This parameter can be one of the following values:
 805:../Drivers/STM32F3xx_HAL_Driver/Src/stm32f3xx_hal_rcc.c ****   *            @arg @ref RCC_MCODIV_1   no division applied to MCO clock
 806:../Drivers/STM32F3xx_HAL_Driver/Src/stm32f3xx_hal_rcc.c ****   *            @arg @ref RCC_MCODIV_2   division by 2 applied to MCO clock
 807:../Drivers/STM32F3xx_HAL_Driver/Src/stm32f3xx_hal_rcc.c ****   *            @arg @ref RCC_MCODIV_4   division by 4 applied to MCO clock
 808:../Drivers/STM32F3xx_HAL_Driver/Src/stm32f3xx_hal_rcc.c ****   *            @arg @ref RCC_MCODIV_8   division by 8 applied to MCO clock
 809:../Drivers/STM32F3xx_HAL_Driver/Src/stm32f3xx_hal_rcc.c ****   *            @arg @ref RCC_MCODIV_16  division by 16 applied to MCO clock
 810:../Drivers/STM32F3xx_HAL_Driver/Src/stm32f3xx_hal_rcc.c ****   *            @arg @ref RCC_MCODIV_32  division by 32 applied to MCO clock
 811:../Drivers/STM32F3xx_HAL_Driver/Src/stm32f3xx_hal_rcc.c ****   *            @arg @ref RCC_MCODIV_64  division by 64 applied to MCO clock
 812:../Drivers/STM32F3xx_HAL_Driver/Src/stm32f3xx_hal_rcc.c ****   *            @arg @ref RCC_MCODIV_128 division by 128 applied to MCO clock
 813:../Drivers/STM32F3xx_HAL_Driver/Src/stm32f3xx_hal_rcc.c ****   * @retval None
 814:../Drivers/STM32F3xx_HAL_Driver/Src/stm32f3xx_hal_rcc.c ****   */
 815:../Drivers/STM32F3xx_HAL_Driver/Src/stm32f3xx_hal_rcc.c **** #else
 816:../Drivers/STM32F3xx_HAL_Driver/Src/stm32f3xx_hal_rcc.c **** /**
 817:../Drivers/STM32F3xx_HAL_Driver/Src/stm32f3xx_hal_rcc.c ****   * @brief  Selects the clock source to output on MCO pin.
 818:../Drivers/STM32F3xx_HAL_Driver/Src/stm32f3xx_hal_rcc.c ****   * @note   MCO pin should be configured in alternate function mode.
 819:../Drivers/STM32F3xx_HAL_Driver/Src/stm32f3xx_hal_rcc.c ****   * @param  RCC_MCOx specifies the output direction for the clock source.
 820:../Drivers/STM32F3xx_HAL_Driver/Src/stm32f3xx_hal_rcc.c ****   *          This parameter can be one of the following values:
 821:../Drivers/STM32F3xx_HAL_Driver/Src/stm32f3xx_hal_rcc.c ****   *            @arg @ref RCC_MCO1 Clock source to output on MCO1 pin(PA8).
 822:../Drivers/STM32F3xx_HAL_Driver/Src/stm32f3xx_hal_rcc.c ****   * @param  RCC_MCOSource specifies the clock source to output.
 823:../Drivers/STM32F3xx_HAL_Driver/Src/stm32f3xx_hal_rcc.c ****   *          This parameter can be one of the following values:
ARM GAS  /var/folders/k_/r2bh2pj93_jff4n9gmtn9jvr0000gn/T//cc0u2Ioj.s 			page 51


 824:../Drivers/STM32F3xx_HAL_Driver/Src/stm32f3xx_hal_rcc.c ****   *            @arg @ref RCC_MCO1SOURCE_NOCLOCK     No clock selected as MCO clock
 825:../Drivers/STM32F3xx_HAL_Driver/Src/stm32f3xx_hal_rcc.c ****   *            @arg @ref RCC_MCO1SOURCE_SYSCLK      System clock selected as MCO clock
 826:../Drivers/STM32F3xx_HAL_Driver/Src/stm32f3xx_hal_rcc.c ****   *            @arg @ref RCC_MCO1SOURCE_HSI         HSI selected as MCO clock
 827:../Drivers/STM32F3xx_HAL_Driver/Src/stm32f3xx_hal_rcc.c ****   *            @arg @ref RCC_MCO1SOURCE_HSE         HSE selected as MCO clock
 828:../Drivers/STM32F3xx_HAL_Driver/Src/stm32f3xx_hal_rcc.c ****   *            @arg @ref RCC_MCO1SOURCE_LSI         LSI selected as MCO clock
 829:../Drivers/STM32F3xx_HAL_Driver/Src/stm32f3xx_hal_rcc.c ****   *            @arg @ref RCC_MCO1SOURCE_LSE         LSE selected as MCO clock
 830:../Drivers/STM32F3xx_HAL_Driver/Src/stm32f3xx_hal_rcc.c ****   *            @arg @ref RCC_MCO1SOURCE_PLLCLK_DIV2 PLLCLK Divided by 2 selected as MCO clock
 831:../Drivers/STM32F3xx_HAL_Driver/Src/stm32f3xx_hal_rcc.c ****   * @param  RCC_MCODiv specifies the MCO DIV.
 832:../Drivers/STM32F3xx_HAL_Driver/Src/stm32f3xx_hal_rcc.c ****   *          This parameter can be one of the following values:
 833:../Drivers/STM32F3xx_HAL_Driver/Src/stm32f3xx_hal_rcc.c ****   *            @arg @ref RCC_MCODIV_1 no division applied to MCO clock
 834:../Drivers/STM32F3xx_HAL_Driver/Src/stm32f3xx_hal_rcc.c ****   * @retval None
 835:../Drivers/STM32F3xx_HAL_Driver/Src/stm32f3xx_hal_rcc.c ****   */
 836:../Drivers/STM32F3xx_HAL_Driver/Src/stm32f3xx_hal_rcc.c **** #endif
 837:../Drivers/STM32F3xx_HAL_Driver/Src/stm32f3xx_hal_rcc.c **** void HAL_RCC_MCOConfig(uint32_t RCC_MCOx, uint32_t RCC_MCOSource, uint32_t RCC_MCODiv)
 838:../Drivers/STM32F3xx_HAL_Driver/Src/stm32f3xx_hal_rcc.c **** {
 1436              		.loc 1 838 0
 1437              		.cfi_startproc
 1438              		@ args = 0, pretend = 0, frame = 24
 1439              		@ frame_needed = 0, uses_anonymous_args = 0
 1440              	.LVL132:
 1441 0000 30B5     		push	{r4, r5, lr}
 1442              	.LCFI4:
 1443              		.cfi_def_cfa_offset 12
 1444              		.cfi_offset 4, -12
 1445              		.cfi_offset 5, -8
 1446              		.cfi_offset 14, -4
 1447 0002 87B0     		sub	sp, sp, #28
 1448              	.LCFI5:
 1449              		.cfi_def_cfa_offset 40
 1450 0004 0D46     		mov	r5, r1
 839:../Drivers/STM32F3xx_HAL_Driver/Src/stm32f3xx_hal_rcc.c ****   GPIO_InitTypeDef gpio = {0};
 1451              		.loc 1 839 0
 1452 0006 0023     		movs	r3, #0
 1453 0008 0393     		str	r3, [sp, #12]
 1454 000a 0593     		str	r3, [sp, #20]
 840:../Drivers/STM32F3xx_HAL_Driver/Src/stm32f3xx_hal_rcc.c **** 
 841:../Drivers/STM32F3xx_HAL_Driver/Src/stm32f3xx_hal_rcc.c ****   /* Check the parameters */
 842:../Drivers/STM32F3xx_HAL_Driver/Src/stm32f3xx_hal_rcc.c ****   assert_param(IS_RCC_MCO(RCC_MCOx));
 843:../Drivers/STM32F3xx_HAL_Driver/Src/stm32f3xx_hal_rcc.c ****   assert_param(IS_RCC_MCODIV(RCC_MCODiv));
 844:../Drivers/STM32F3xx_HAL_Driver/Src/stm32f3xx_hal_rcc.c ****   assert_param(IS_RCC_MCO1SOURCE(RCC_MCOSource));
 845:../Drivers/STM32F3xx_HAL_Driver/Src/stm32f3xx_hal_rcc.c ****   
 846:../Drivers/STM32F3xx_HAL_Driver/Src/stm32f3xx_hal_rcc.c ****   /* Configure the MCO1 pin in alternate function mode */
 847:../Drivers/STM32F3xx_HAL_Driver/Src/stm32f3xx_hal_rcc.c ****   gpio.Mode      = GPIO_MODE_AF_PP;
 1455              		.loc 1 847 0
 1456 000c 0223     		movs	r3, #2
 1457 000e 0293     		str	r3, [sp, #8]
 848:../Drivers/STM32F3xx_HAL_Driver/Src/stm32f3xx_hal_rcc.c ****   gpio.Speed     = GPIO_SPEED_FREQ_HIGH;
 1458              		.loc 1 848 0
 1459 0010 0323     		movs	r3, #3
 1460 0012 0493     		str	r3, [sp, #16]
 849:../Drivers/STM32F3xx_HAL_Driver/Src/stm32f3xx_hal_rcc.c ****   gpio.Pull      = GPIO_NOPULL;
 850:../Drivers/STM32F3xx_HAL_Driver/Src/stm32f3xx_hal_rcc.c ****   gpio.Pin       = MCO1_PIN;
 1461              		.loc 1 850 0
 1462 0014 4FF48073 		mov	r3, #256
 1463 0018 0193     		str	r3, [sp, #4]
 1464              	.LBB256:
 851:../Drivers/STM32F3xx_HAL_Driver/Src/stm32f3xx_hal_rcc.c ****   gpio.Alternate = GPIO_AF0_MCO;
ARM GAS  /var/folders/k_/r2bh2pj93_jff4n9gmtn9jvr0000gn/T//cc0u2Ioj.s 			page 52


 852:../Drivers/STM32F3xx_HAL_Driver/Src/stm32f3xx_hal_rcc.c **** 
 853:../Drivers/STM32F3xx_HAL_Driver/Src/stm32f3xx_hal_rcc.c ****   /* MCO1 Clock Enable */
 854:../Drivers/STM32F3xx_HAL_Driver/Src/stm32f3xx_hal_rcc.c ****   MCO1_CLK_ENABLE();
 1465              		.loc 1 854 0
 1466 001a 0B4C     		ldr	r4, .L117
 1467 001c 6369     		ldr	r3, [r4, #20]
 1468 001e 43F40033 		orr	r3, r3, #131072
 1469 0022 6361     		str	r3, [r4, #20]
 1470 0024 6369     		ldr	r3, [r4, #20]
 1471 0026 03F40033 		and	r3, r3, #131072
 1472 002a 0093     		str	r3, [sp]
 1473 002c 009B     		ldr	r3, [sp]
 1474              	.LBE256:
 855:../Drivers/STM32F3xx_HAL_Driver/Src/stm32f3xx_hal_rcc.c ****   
 856:../Drivers/STM32F3xx_HAL_Driver/Src/stm32f3xx_hal_rcc.c ****   HAL_GPIO_Init(MCO1_GPIO_PORT, &gpio);
 1475              		.loc 1 856 0
 1476 002e 01A9     		add	r1, sp, #4
 1477              	.LVL133:
 1478 0030 4FF09040 		mov	r0, #1207959552
 1479              	.LVL134:
 1480 0034 FFF7FEFF 		bl	HAL_GPIO_Init
 1481              	.LVL135:
 857:../Drivers/STM32F3xx_HAL_Driver/Src/stm32f3xx_hal_rcc.c ****   
 858:../Drivers/STM32F3xx_HAL_Driver/Src/stm32f3xx_hal_rcc.c ****   /* Configure the MCO clock source */
 859:../Drivers/STM32F3xx_HAL_Driver/Src/stm32f3xx_hal_rcc.c ****   __HAL_RCC_MCO1_CONFIG(RCC_MCOSource, RCC_MCODiv);
 1482              		.loc 1 859 0
 1483 0038 6168     		ldr	r1, [r4, #4]
 1484 003a 21F0E061 		bic	r1, r1, #117440512
 1485 003e 2943     		orrs	r1, r1, r5
 1486 0040 6160     		str	r1, [r4, #4]
 860:../Drivers/STM32F3xx_HAL_Driver/Src/stm32f3xx_hal_rcc.c **** }
 1487              		.loc 1 860 0
 1488 0042 07B0     		add	sp, sp, #28
 1489              	.LCFI6:
 1490              		.cfi_def_cfa_offset 12
 1491              		@ sp needed
 1492 0044 30BD     		pop	{r4, r5, pc}
 1493              	.LVL136:
 1494              	.L118:
 1495 0046 00BF     		.align	2
 1496              	.L117:
 1497 0048 00100240 		.word	1073876992
 1498              		.cfi_endproc
 1499              	.LFE129:
 1501              		.section	.text.HAL_RCC_EnableCSS,"ax",%progbits
 1502              		.align	1
 1503              		.global	HAL_RCC_EnableCSS
 1504              		.syntax unified
 1505              		.thumb
 1506              		.thumb_func
 1507              		.fpu fpv4-sp-d16
 1509              	HAL_RCC_EnableCSS:
 1510              	.LFB130:
 861:../Drivers/STM32F3xx_HAL_Driver/Src/stm32f3xx_hal_rcc.c **** 
 862:../Drivers/STM32F3xx_HAL_Driver/Src/stm32f3xx_hal_rcc.c **** /**
 863:../Drivers/STM32F3xx_HAL_Driver/Src/stm32f3xx_hal_rcc.c ****   * @brief  Enables the Clock Security System.
 864:../Drivers/STM32F3xx_HAL_Driver/Src/stm32f3xx_hal_rcc.c ****   * @note   If a failure is detected on the HSE oscillator clock, this oscillator
ARM GAS  /var/folders/k_/r2bh2pj93_jff4n9gmtn9jvr0000gn/T//cc0u2Ioj.s 			page 53


 865:../Drivers/STM32F3xx_HAL_Driver/Src/stm32f3xx_hal_rcc.c ****   *         is automatically disabled and an interrupt is generated to inform the
 866:../Drivers/STM32F3xx_HAL_Driver/Src/stm32f3xx_hal_rcc.c ****   *         software about the failure (Clock Security System Interrupt, CSSI),
 867:../Drivers/STM32F3xx_HAL_Driver/Src/stm32f3xx_hal_rcc.c ****   *         allowing the MCU to perform rescue operations. The CSSI is linked to 
 868:../Drivers/STM32F3xx_HAL_Driver/Src/stm32f3xx_hal_rcc.c ****   *         the Cortex-M4 NMI (Non-Maskable Interrupt) exception vector.  
 869:../Drivers/STM32F3xx_HAL_Driver/Src/stm32f3xx_hal_rcc.c ****   * @retval None
 870:../Drivers/STM32F3xx_HAL_Driver/Src/stm32f3xx_hal_rcc.c ****   */
 871:../Drivers/STM32F3xx_HAL_Driver/Src/stm32f3xx_hal_rcc.c **** void HAL_RCC_EnableCSS(void)
 872:../Drivers/STM32F3xx_HAL_Driver/Src/stm32f3xx_hal_rcc.c **** {
 1511              		.loc 1 872 0
 1512              		.cfi_startproc
 1513              		@ args = 0, pretend = 0, frame = 0
 1514              		@ frame_needed = 0, uses_anonymous_args = 0
 1515              		@ link register save eliminated.
 1516              	.LVL137:
 1517              	.LBB257:
 1518              	.LBB258:
 1519              		.loc 2 531 0
 1520 0000 4FF40023 		mov	r3, #524288
 1521              		.syntax unified
 1522              	@ 531 "../Drivers/CMSIS/Include/cmsis_gcc.h" 1
 1523 0004 93FAA3F3 		rbit r3, r3
 1524              	@ 0 "" 2
 1525              	.LVL138:
 1526              		.thumb
 1527              		.syntax unified
 1528              	.LBE258:
 1529              	.LBE257:
 873:../Drivers/STM32F3xx_HAL_Driver/Src/stm32f3xx_hal_rcc.c ****   *(__IO uint32_t *) RCC_CR_CSSON_BB = (uint32_t)ENABLE;
 1530              		.loc 1 873 0
 1531 0008 B3FA83F3 		clz	r3, r3
 1532 000c 03F18453 		add	r3, r3, #276824064
 1533 0010 03F58413 		add	r3, r3, #1081344
 1534 0014 9B00     		lsls	r3, r3, #2
 1535 0016 0122     		movs	r2, #1
 1536 0018 1A60     		str	r2, [r3]
 874:../Drivers/STM32F3xx_HAL_Driver/Src/stm32f3xx_hal_rcc.c **** }
 1537              		.loc 1 874 0
 1538 001a 7047     		bx	lr
 1539              		.cfi_endproc
 1540              	.LFE130:
 1542              		.section	.text.HAL_RCC_DisableCSS,"ax",%progbits
 1543              		.align	1
 1544              		.global	HAL_RCC_DisableCSS
 1545              		.syntax unified
 1546              		.thumb
 1547              		.thumb_func
 1548              		.fpu fpv4-sp-d16
 1550              	HAL_RCC_DisableCSS:
 1551              	.LFB131:
 875:../Drivers/STM32F3xx_HAL_Driver/Src/stm32f3xx_hal_rcc.c **** 
 876:../Drivers/STM32F3xx_HAL_Driver/Src/stm32f3xx_hal_rcc.c **** /**
 877:../Drivers/STM32F3xx_HAL_Driver/Src/stm32f3xx_hal_rcc.c ****   * @brief  Disables the Clock Security System.
 878:../Drivers/STM32F3xx_HAL_Driver/Src/stm32f3xx_hal_rcc.c ****   * @retval None
 879:../Drivers/STM32F3xx_HAL_Driver/Src/stm32f3xx_hal_rcc.c ****   */
 880:../Drivers/STM32F3xx_HAL_Driver/Src/stm32f3xx_hal_rcc.c **** void HAL_RCC_DisableCSS(void)
 881:../Drivers/STM32F3xx_HAL_Driver/Src/stm32f3xx_hal_rcc.c **** {
 1552              		.loc 1 881 0
ARM GAS  /var/folders/k_/r2bh2pj93_jff4n9gmtn9jvr0000gn/T//cc0u2Ioj.s 			page 54


 1553              		.cfi_startproc
 1554              		@ args = 0, pretend = 0, frame = 0
 1555              		@ frame_needed = 0, uses_anonymous_args = 0
 1556              		@ link register save eliminated.
 1557              	.LVL139:
 1558              	.LBB259:
 1559              	.LBB260:
 1560              		.loc 2 531 0
 1561 0000 4FF40023 		mov	r3, #524288
 1562              		.syntax unified
 1563              	@ 531 "../Drivers/CMSIS/Include/cmsis_gcc.h" 1
 1564 0004 93FAA3F3 		rbit r3, r3
 1565              	@ 0 "" 2
 1566              	.LVL140:
 1567              		.thumb
 1568              		.syntax unified
 1569              	.LBE260:
 1570              	.LBE259:
 882:../Drivers/STM32F3xx_HAL_Driver/Src/stm32f3xx_hal_rcc.c ****   *(__IO uint32_t *) RCC_CR_CSSON_BB = (uint32_t)DISABLE;
 1571              		.loc 1 882 0
 1572 0008 B3FA83F3 		clz	r3, r3
 1573 000c 03F18453 		add	r3, r3, #276824064
 1574 0010 03F58413 		add	r3, r3, #1081344
 1575 0014 9B00     		lsls	r3, r3, #2
 1576 0016 0022     		movs	r2, #0
 1577 0018 1A60     		str	r2, [r3]
 883:../Drivers/STM32F3xx_HAL_Driver/Src/stm32f3xx_hal_rcc.c **** }
 1578              		.loc 1 883 0
 1579 001a 7047     		bx	lr
 1580              		.cfi_endproc
 1581              	.LFE131:
 1583              		.section	.text.HAL_RCC_GetSysClockFreq,"ax",%progbits
 1584              		.align	1
 1585              		.global	HAL_RCC_GetSysClockFreq
 1586              		.syntax unified
 1587              		.thumb
 1588              		.thumb_func
 1589              		.fpu fpv4-sp-d16
 1591              	HAL_RCC_GetSysClockFreq:
 1592              	.LFB132:
 884:../Drivers/STM32F3xx_HAL_Driver/Src/stm32f3xx_hal_rcc.c **** 
 885:../Drivers/STM32F3xx_HAL_Driver/Src/stm32f3xx_hal_rcc.c **** /**
 886:../Drivers/STM32F3xx_HAL_Driver/Src/stm32f3xx_hal_rcc.c ****   * @brief  Returns the SYSCLK frequency     
 887:../Drivers/STM32F3xx_HAL_Driver/Src/stm32f3xx_hal_rcc.c ****   * @note   The system frequency computed by this function is not the real 
 888:../Drivers/STM32F3xx_HAL_Driver/Src/stm32f3xx_hal_rcc.c ****   *         frequency in the chip. It is calculated based on the predefined 
 889:../Drivers/STM32F3xx_HAL_Driver/Src/stm32f3xx_hal_rcc.c ****   *         constant and the selected clock source:
 890:../Drivers/STM32F3xx_HAL_Driver/Src/stm32f3xx_hal_rcc.c ****   * @note     If SYSCLK source is HSI, function returns values based on HSI_VALUE(*)
 891:../Drivers/STM32F3xx_HAL_Driver/Src/stm32f3xx_hal_rcc.c ****   * @note     If SYSCLK source is HSE, function returns a value based on HSE_VALUE
 892:../Drivers/STM32F3xx_HAL_Driver/Src/stm32f3xx_hal_rcc.c ****   *           divided by PREDIV factor(**)
 893:../Drivers/STM32F3xx_HAL_Driver/Src/stm32f3xx_hal_rcc.c ****   * @note     If SYSCLK source is PLL, function returns a value based on HSE_VALUE
 894:../Drivers/STM32F3xx_HAL_Driver/Src/stm32f3xx_hal_rcc.c ****   *           divided by PREDIV factor(**) or HSI_VALUE(*) multiplied by the PLL factor.
 895:../Drivers/STM32F3xx_HAL_Driver/Src/stm32f3xx_hal_rcc.c ****   * @note     (*) HSI_VALUE is a constant defined in stm32f3xx_hal_conf.h file (default value
 896:../Drivers/STM32F3xx_HAL_Driver/Src/stm32f3xx_hal_rcc.c ****   *               8 MHz) but the real value may vary depending on the variations
 897:../Drivers/STM32F3xx_HAL_Driver/Src/stm32f3xx_hal_rcc.c ****   *               in voltage and temperature.
 898:../Drivers/STM32F3xx_HAL_Driver/Src/stm32f3xx_hal_rcc.c ****   * @note     (**) HSE_VALUE is a constant defined in stm32f3xx_hal_conf.h file (default value
 899:../Drivers/STM32F3xx_HAL_Driver/Src/stm32f3xx_hal_rcc.c ****   *                8 MHz), user has to ensure that HSE_VALUE is same as the real
 900:../Drivers/STM32F3xx_HAL_Driver/Src/stm32f3xx_hal_rcc.c ****   *                frequency of the crystal used. Otherwise, this function may
ARM GAS  /var/folders/k_/r2bh2pj93_jff4n9gmtn9jvr0000gn/T//cc0u2Ioj.s 			page 55


 901:../Drivers/STM32F3xx_HAL_Driver/Src/stm32f3xx_hal_rcc.c ****   *                have wrong result.
 902:../Drivers/STM32F3xx_HAL_Driver/Src/stm32f3xx_hal_rcc.c ****   *                  
 903:../Drivers/STM32F3xx_HAL_Driver/Src/stm32f3xx_hal_rcc.c ****   * @note   The result of this function could be not correct when using fractional
 904:../Drivers/STM32F3xx_HAL_Driver/Src/stm32f3xx_hal_rcc.c ****   *         value for HSE crystal.
 905:../Drivers/STM32F3xx_HAL_Driver/Src/stm32f3xx_hal_rcc.c ****   *           
 906:../Drivers/STM32F3xx_HAL_Driver/Src/stm32f3xx_hal_rcc.c ****   * @note   This function can be used by the user application to compute the 
 907:../Drivers/STM32F3xx_HAL_Driver/Src/stm32f3xx_hal_rcc.c ****   *         baud-rate for the communication peripherals or configure other parameters.
 908:../Drivers/STM32F3xx_HAL_Driver/Src/stm32f3xx_hal_rcc.c ****   *           
 909:../Drivers/STM32F3xx_HAL_Driver/Src/stm32f3xx_hal_rcc.c ****   * @note   Each time SYSCLK changes, this function must be called to update the
 910:../Drivers/STM32F3xx_HAL_Driver/Src/stm32f3xx_hal_rcc.c ****   *         right SYSCLK value. Otherwise, any configuration based on this function will be incorre
 911:../Drivers/STM32F3xx_HAL_Driver/Src/stm32f3xx_hal_rcc.c ****   *         
 912:../Drivers/STM32F3xx_HAL_Driver/Src/stm32f3xx_hal_rcc.c ****   * @retval SYSCLK frequency
 913:../Drivers/STM32F3xx_HAL_Driver/Src/stm32f3xx_hal_rcc.c ****   */
 914:../Drivers/STM32F3xx_HAL_Driver/Src/stm32f3xx_hal_rcc.c **** uint32_t HAL_RCC_GetSysClockFreq(void)
 915:../Drivers/STM32F3xx_HAL_Driver/Src/stm32f3xx_hal_rcc.c **** {
 1593              		.loc 1 915 0
 1594              		.cfi_startproc
 1595              		@ args = 0, pretend = 0, frame = 0
 1596              		@ frame_needed = 0, uses_anonymous_args = 0
 1597              		@ link register save eliminated.
 1598              	.LVL141:
 916:../Drivers/STM32F3xx_HAL_Driver/Src/stm32f3xx_hal_rcc.c ****   uint32_t tmpreg = 0U, prediv = 0U, pllclk = 0U, pllmul = 0U;
 917:../Drivers/STM32F3xx_HAL_Driver/Src/stm32f3xx_hal_rcc.c ****   uint32_t sysclockfreq = 0U;
 918:../Drivers/STM32F3xx_HAL_Driver/Src/stm32f3xx_hal_rcc.c ****   
 919:../Drivers/STM32F3xx_HAL_Driver/Src/stm32f3xx_hal_rcc.c ****   tmpreg = RCC->CFGR;
 1599              		.loc 1 919 0
 1600 0000 164B     		ldr	r3, .L128
 1601 0002 5968     		ldr	r1, [r3, #4]
 1602              	.LVL142:
 920:../Drivers/STM32F3xx_HAL_Driver/Src/stm32f3xx_hal_rcc.c ****   
 921:../Drivers/STM32F3xx_HAL_Driver/Src/stm32f3xx_hal_rcc.c ****   /* Get SYSCLK source -------------------------------------------------------*/
 922:../Drivers/STM32F3xx_HAL_Driver/Src/stm32f3xx_hal_rcc.c ****   switch (tmpreg & RCC_CFGR_SWS)
 1603              		.loc 1 922 0
 1604 0004 01F00C03 		and	r3, r1, #12
 1605 0008 082B     		cmp	r3, #8
 1606 000a 24D1     		bne	.L126
 923:../Drivers/STM32F3xx_HAL_Driver/Src/stm32f3xx_hal_rcc.c ****   {
 924:../Drivers/STM32F3xx_HAL_Driver/Src/stm32f3xx_hal_rcc.c ****     case RCC_SYSCLKSOURCE_STATUS_HSE:  /* HSE used as system clock */
 925:../Drivers/STM32F3xx_HAL_Driver/Src/stm32f3xx_hal_rcc.c ****     {
 926:../Drivers/STM32F3xx_HAL_Driver/Src/stm32f3xx_hal_rcc.c ****       sysclockfreq = HSE_VALUE;
 927:../Drivers/STM32F3xx_HAL_Driver/Src/stm32f3xx_hal_rcc.c ****       break;
 928:../Drivers/STM32F3xx_HAL_Driver/Src/stm32f3xx_hal_rcc.c ****     }
 929:../Drivers/STM32F3xx_HAL_Driver/Src/stm32f3xx_hal_rcc.c ****     case RCC_SYSCLKSOURCE_STATUS_PLLCLK:  /* PLL used as system clock */
 930:../Drivers/STM32F3xx_HAL_Driver/Src/stm32f3xx_hal_rcc.c ****     {
 931:../Drivers/STM32F3xx_HAL_Driver/Src/stm32f3xx_hal_rcc.c ****       pllmul = aPLLMULFactorTable[(uint32_t)(tmpreg & RCC_CFGR_PLLMUL) >> POSITION_VAL(RCC_CFGR_PLL
 1607              		.loc 1 931 0
 1608 000c 01F47012 		and	r2, r1, #3932160
 1609              	.LVL143:
 1610              	.LBB261:
 1611              	.LBB262:
 1612              		.loc 2 531 0
 1613 0010 4FF47013 		mov	r3, #3932160
 1614              		.syntax unified
 1615              	@ 531 "../Drivers/CMSIS/Include/cmsis_gcc.h" 1
 1616 0014 93FAA3F3 		rbit r3, r3
 1617              	@ 0 "" 2
 1618              	.LVL144:
ARM GAS  /var/folders/k_/r2bh2pj93_jff4n9gmtn9jvr0000gn/T//cc0u2Ioj.s 			page 56


 1619              		.thumb
 1620              		.syntax unified
 1621              	.LBE262:
 1622              	.LBE261:
 1623              		.loc 1 931 0
 1624 0018 B3FA83F3 		clz	r3, r3
 1625 001c 22FA03F3 		lsr	r3, r2, r3
 1626 0020 0F4A     		ldr	r2, .L128+4
 1627 0022 D05C     		ldrb	r0, [r2, r3]	@ zero_extendqisi2
 1628              	.LVL145:
 932:../Drivers/STM32F3xx_HAL_Driver/Src/stm32f3xx_hal_rcc.c ****       prediv = aPredivFactorTable[(uint32_t)(RCC->CFGR2 & RCC_CFGR2_PREDIV) >> POSITION_VAL(RCC_CFG
 1629              		.loc 1 932 0
 1630 0024 0D4B     		ldr	r3, .L128
 1631 0026 DB6A     		ldr	r3, [r3, #44]
 1632 0028 03F00F03 		and	r3, r3, #15
 1633              	.LVL146:
 1634              	.LBB263:
 1635              	.LBB264:
 1636              		.loc 2 531 0
 1637 002c 0F22     		movs	r2, #15
 1638              		.syntax unified
 1639              	@ 531 "../Drivers/CMSIS/Include/cmsis_gcc.h" 1
 1640 002e 92FAA2F2 		rbit r2, r2
 1641              	@ 0 "" 2
 1642              	.LVL147:
 1643              		.thumb
 1644              		.syntax unified
 1645              	.LBE264:
 1646              	.LBE263:
 1647              		.loc 1 932 0
 1648 0032 B2FA82F2 		clz	r2, r2
 1649 0036 D340     		lsrs	r3, r3, r2
 1650 0038 0A4A     		ldr	r2, .L128+8
 1651 003a D25C     		ldrb	r2, [r2, r3]	@ zero_extendqisi2
 1652              	.LVL148:
 933:../Drivers/STM32F3xx_HAL_Driver/Src/stm32f3xx_hal_rcc.c **** #if defined(RCC_CFGR_PLLSRC_HSI_DIV2)
 934:../Drivers/STM32F3xx_HAL_Driver/Src/stm32f3xx_hal_rcc.c ****       if ((tmpreg & RCC_CFGR_PLLSRC) != RCC_PLLSOURCE_HSI)
 1653              		.loc 1 934 0
 1654 003c 11F4803F 		tst	r1, #65536
 1655 0040 03D1     		bne	.L127
 935:../Drivers/STM32F3xx_HAL_Driver/Src/stm32f3xx_hal_rcc.c ****       {
 936:../Drivers/STM32F3xx_HAL_Driver/Src/stm32f3xx_hal_rcc.c ****         /* HSE used as PLL clock source : PLLCLK = HSE/PREDIV * PLLMUL */
 937:../Drivers/STM32F3xx_HAL_Driver/Src/stm32f3xx_hal_rcc.c ****         pllclk = (HSE_VALUE / prediv) * pllmul;
 938:../Drivers/STM32F3xx_HAL_Driver/Src/stm32f3xx_hal_rcc.c ****       }
 939:../Drivers/STM32F3xx_HAL_Driver/Src/stm32f3xx_hal_rcc.c ****       else
 940:../Drivers/STM32F3xx_HAL_Driver/Src/stm32f3xx_hal_rcc.c ****       {
 941:../Drivers/STM32F3xx_HAL_Driver/Src/stm32f3xx_hal_rcc.c ****         /* HSI used as PLL clock source : PLLCLK = HSI/2 * PLLMUL */
 942:../Drivers/STM32F3xx_HAL_Driver/Src/stm32f3xx_hal_rcc.c ****         pllclk = (HSI_VALUE >> 1U) * pllmul;
 1656              		.loc 1 942 0
 1657 0042 094B     		ldr	r3, .L128+12
 1658 0044 03FB00F0 		mul	r0, r3, r0
 1659              	.LVL149:
 1660 0048 7047     		bx	lr
 1661              	.LVL150:
 1662              	.L127:
 937:../Drivers/STM32F3xx_HAL_Driver/Src/stm32f3xx_hal_rcc.c ****       }
 1663              		.loc 1 937 0
ARM GAS  /var/folders/k_/r2bh2pj93_jff4n9gmtn9jvr0000gn/T//cc0u2Ioj.s 			page 57


 1664 004a 084B     		ldr	r3, .L128+16
 1665 004c B3FBF2F3 		udiv	r3, r3, r2
 1666 0050 00FB03F0 		mul	r0, r0, r3
 1667              	.LVL151:
 1668 0054 7047     		bx	lr
 1669              	.LVL152:
 1670              	.L126:
 926:../Drivers/STM32F3xx_HAL_Driver/Src/stm32f3xx_hal_rcc.c ****       break;
 1671              		.loc 1 926 0
 1672 0056 0548     		ldr	r0, .L128+16
 1673              	.LVL153:
 943:../Drivers/STM32F3xx_HAL_Driver/Src/stm32f3xx_hal_rcc.c ****       }
 944:../Drivers/STM32F3xx_HAL_Driver/Src/stm32f3xx_hal_rcc.c **** #else
 945:../Drivers/STM32F3xx_HAL_Driver/Src/stm32f3xx_hal_rcc.c ****       if ((tmpreg & RCC_CFGR_PLLSRC_HSE_PREDIV) == RCC_CFGR_PLLSRC_HSE_PREDIV)
 946:../Drivers/STM32F3xx_HAL_Driver/Src/stm32f3xx_hal_rcc.c ****       {
 947:../Drivers/STM32F3xx_HAL_Driver/Src/stm32f3xx_hal_rcc.c ****         /* HSE used as PLL clock source : PLLCLK = HSE/PREDIV * PLLMUL */
 948:../Drivers/STM32F3xx_HAL_Driver/Src/stm32f3xx_hal_rcc.c ****         pllclk = (HSE_VALUE / prediv) * pllmul;
 949:../Drivers/STM32F3xx_HAL_Driver/Src/stm32f3xx_hal_rcc.c ****       }
 950:../Drivers/STM32F3xx_HAL_Driver/Src/stm32f3xx_hal_rcc.c ****       else
 951:../Drivers/STM32F3xx_HAL_Driver/Src/stm32f3xx_hal_rcc.c ****       {
 952:../Drivers/STM32F3xx_HAL_Driver/Src/stm32f3xx_hal_rcc.c ****         /* HSI used as PLL clock source : PLLCLK = HSI/PREDIV * PLLMUL */
 953:../Drivers/STM32F3xx_HAL_Driver/Src/stm32f3xx_hal_rcc.c ****         pllclk = (HSI_VALUE / prediv) * pllmul;
 954:../Drivers/STM32F3xx_HAL_Driver/Src/stm32f3xx_hal_rcc.c ****       }
 955:../Drivers/STM32F3xx_HAL_Driver/Src/stm32f3xx_hal_rcc.c **** #endif /* RCC_CFGR_PLLSRC_HSI_DIV2 */
 956:../Drivers/STM32F3xx_HAL_Driver/Src/stm32f3xx_hal_rcc.c ****       sysclockfreq = pllclk;
 957:../Drivers/STM32F3xx_HAL_Driver/Src/stm32f3xx_hal_rcc.c ****       break;
 958:../Drivers/STM32F3xx_HAL_Driver/Src/stm32f3xx_hal_rcc.c ****     }
 959:../Drivers/STM32F3xx_HAL_Driver/Src/stm32f3xx_hal_rcc.c ****     case RCC_SYSCLKSOURCE_STATUS_HSI:  /* HSI used as system clock source */
 960:../Drivers/STM32F3xx_HAL_Driver/Src/stm32f3xx_hal_rcc.c ****     default: /* HSI used as system clock */
 961:../Drivers/STM32F3xx_HAL_Driver/Src/stm32f3xx_hal_rcc.c ****     {
 962:../Drivers/STM32F3xx_HAL_Driver/Src/stm32f3xx_hal_rcc.c ****       sysclockfreq = HSI_VALUE;
 963:../Drivers/STM32F3xx_HAL_Driver/Src/stm32f3xx_hal_rcc.c ****       break;
 964:../Drivers/STM32F3xx_HAL_Driver/Src/stm32f3xx_hal_rcc.c ****     }
 965:../Drivers/STM32F3xx_HAL_Driver/Src/stm32f3xx_hal_rcc.c ****   }
 966:../Drivers/STM32F3xx_HAL_Driver/Src/stm32f3xx_hal_rcc.c ****   return sysclockfreq;
 967:../Drivers/STM32F3xx_HAL_Driver/Src/stm32f3xx_hal_rcc.c **** }
 1674              		.loc 1 967 0
 1675 0058 7047     		bx	lr
 1676              	.L129:
 1677 005a 00BF     		.align	2
 1678              	.L128:
 1679 005c 00100240 		.word	1073876992
 1680 0060 00000000 		.word	.LANCHOR0
 1681 0064 00000000 		.word	.LANCHOR1
 1682 0068 00093D00 		.word	4000000
 1683 006c 00127A00 		.word	8000000
 1684              		.cfi_endproc
 1685              	.LFE132:
 1687              		.section	.text.HAL_RCC_ClockConfig,"ax",%progbits
 1688              		.align	1
 1689              		.global	HAL_RCC_ClockConfig
 1690              		.syntax unified
 1691              		.thumb
 1692              		.thumb_func
 1693              		.fpu fpv4-sp-d16
 1695              	HAL_RCC_ClockConfig:
 1696              	.LFB128:
ARM GAS  /var/folders/k_/r2bh2pj93_jff4n9gmtn9jvr0000gn/T//cc0u2Ioj.s 			page 58


 629:../Drivers/STM32F3xx_HAL_Driver/Src/stm32f3xx_hal_rcc.c ****   uint32_t tickstart = 0U;
 1697              		.loc 1 629 0
 1698              		.cfi_startproc
 1699              		@ args = 0, pretend = 0, frame = 0
 1700              		@ frame_needed = 0, uses_anonymous_args = 0
 1701              	.LVL154:
 642:../Drivers/STM32F3xx_HAL_Driver/Src/stm32f3xx_hal_rcc.c ****   {    
 1702              		.loc 1 642 0
 1703 0000 704B     		ldr	r3, .L168
 1704 0002 1B68     		ldr	r3, [r3]
 1705 0004 03F00703 		and	r3, r3, #7
 1706 0008 8B42     		cmp	r3, r1
 1707 000a 0CD2     		bcs	.L131
 645:../Drivers/STM32F3xx_HAL_Driver/Src/stm32f3xx_hal_rcc.c ****     
 1708              		.loc 1 645 0
 1709 000c 6D4A     		ldr	r2, .L168
 1710 000e 1368     		ldr	r3, [r2]
 1711 0010 23F00703 		bic	r3, r3, #7
 1712 0014 0B43     		orrs	r3, r3, r1
 1713 0016 1360     		str	r3, [r2]
 649:../Drivers/STM32F3xx_HAL_Driver/Src/stm32f3xx_hal_rcc.c ****     {
 1714              		.loc 1 649 0
 1715 0018 1368     		ldr	r3, [r2]
 1716 001a 03F00703 		and	r3, r3, #7
 1717 001e 8B42     		cmp	r3, r1
 1718 0020 01D0     		beq	.L131
 651:../Drivers/STM32F3xx_HAL_Driver/Src/stm32f3xx_hal_rcc.c ****     }
 1719              		.loc 1 651 0
 1720 0022 0120     		movs	r0, #1
 1721              	.LVL155:
 765:../Drivers/STM32F3xx_HAL_Driver/Src/stm32f3xx_hal_rcc.c **** 
 1722              		.loc 1 765 0
 1723 0024 7047     		bx	lr
 1724              	.LVL156:
 1725              	.L131:
 629:../Drivers/STM32F3xx_HAL_Driver/Src/stm32f3xx_hal_rcc.c ****   uint32_t tickstart = 0U;
 1726              		.loc 1 629 0
 1727 0026 70B5     		push	{r4, r5, r6, lr}
 1728              	.LCFI7:
 1729              		.cfi_def_cfa_offset 16
 1730              		.cfi_offset 4, -16
 1731              		.cfi_offset 5, -12
 1732              		.cfi_offset 6, -8
 1733              		.cfi_offset 14, -4
 656:../Drivers/STM32F3xx_HAL_Driver/Src/stm32f3xx_hal_rcc.c ****   {
 1734              		.loc 1 656 0
 1735 0028 0368     		ldr	r3, [r0]
 1736 002a 13F0020F 		tst	r3, #2
 1737 002e 06D0     		beq	.L133
 659:../Drivers/STM32F3xx_HAL_Driver/Src/stm32f3xx_hal_rcc.c ****   }
 1738              		.loc 1 659 0
 1739 0030 654A     		ldr	r2, .L168+4
 1740 0032 5368     		ldr	r3, [r2, #4]
 1741 0034 23F0F003 		bic	r3, r3, #240
 1742 0038 8468     		ldr	r4, [r0, #8]
 1743 003a 2343     		orrs	r3, r3, r4
 1744 003c 5360     		str	r3, [r2, #4]
ARM GAS  /var/folders/k_/r2bh2pj93_jff4n9gmtn9jvr0000gn/T//cc0u2Ioj.s 			page 59


 1745              	.L133:
 1746 003e 0C46     		mov	r4, r1
 1747 0040 0546     		mov	r5, r0
 663:../Drivers/STM32F3xx_HAL_Driver/Src/stm32f3xx_hal_rcc.c ****   {    
 1748              		.loc 1 663 0
 1749 0042 0368     		ldr	r3, [r0]
 1750 0044 13F0010F 		tst	r3, #1
 1751 0048 7AD0     		beq	.L134
 668:../Drivers/STM32F3xx_HAL_Driver/Src/stm32f3xx_hal_rcc.c ****     {
 1752              		.loc 1 668 0
 1753 004a 4368     		ldr	r3, [r0, #4]
 1754 004c 012B     		cmp	r3, #1
 1755 004e 2FD0     		beq	.L166
 677:../Drivers/STM32F3xx_HAL_Driver/Src/stm32f3xx_hal_rcc.c ****     {
 1756              		.loc 1 677 0
 1757 0050 022B     		cmp	r3, #2
 1758 0052 42D0     		beq	.L167
 1759              	.LVL157:
 1760              	.LBB265:
 1761              	.LBB266:
 1762              		.loc 2 531 0
 1763 0054 0222     		movs	r2, #2
 1764              		.syntax unified
 1765              	@ 531 "../Drivers/CMSIS/Include/cmsis_gcc.h" 1
 1766 0056 92FAA2F2 		rbit r2, r2
 1767              	@ 0 "" 2
 1768              	.LVL158:
 1769              		.thumb
 1770              		.syntax unified
 1771              	.LBE266:
 1772              	.LBE265:
 689:../Drivers/STM32F3xx_HAL_Driver/Src/stm32f3xx_hal_rcc.c ****       {
 1773              		.loc 1 689 0
 1774 005a 5B4A     		ldr	r2, .L168+4
 1775 005c 1068     		ldr	r0, [r2]
 1776              	.LVL159:
 1777              	.LBB267:
 1778              	.LBB268:
 1779              		.loc 2 531 0
 1780 005e 0222     		movs	r2, #2
 1781              		.syntax unified
 1782              	@ 531 "../Drivers/CMSIS/Include/cmsis_gcc.h" 1
 1783 0060 92FAA2F2 		rbit r2, r2
 1784              	@ 0 "" 2
 1785              	.LVL160:
 1786              		.thumb
 1787              		.syntax unified
 1788              	.LBE268:
 1789              	.LBE267:
 689:../Drivers/STM32F3xx_HAL_Driver/Src/stm32f3xx_hal_rcc.c ****       {
 1790              		.loc 1 689 0
 1791 0064 B2FA82F2 		clz	r2, r2
 1792 0068 02F01F02 		and	r2, r2, #31
 1793 006c 0121     		movs	r1, #1
 1794              	.LVL161:
 1795 006e 01FA02F2 		lsl	r2, r1, r2
 1796 0072 1042     		tst	r0, r2
ARM GAS  /var/folders/k_/r2bh2pj93_jff4n9gmtn9jvr0000gn/T//cc0u2Ioj.s 			page 60


 1797 0074 00F0A480 		beq	.L157
 1798              	.L138:
 694:../Drivers/STM32F3xx_HAL_Driver/Src/stm32f3xx_hal_rcc.c **** 
 1799              		.loc 1 694 0
 1800 0078 5349     		ldr	r1, .L168+4
 1801 007a 4A68     		ldr	r2, [r1, #4]
 1802 007c 22F00302 		bic	r2, r2, #3
 1803 0080 1343     		orrs	r3, r3, r2
 1804 0082 4B60     		str	r3, [r1, #4]
 697:../Drivers/STM32F3xx_HAL_Driver/Src/stm32f3xx_hal_rcc.c ****     
 1805              		.loc 1 697 0
 1806 0084 FFF7FEFF 		bl	HAL_GetTick
 1807              	.LVL162:
 1808 0088 0646     		mov	r6, r0
 1809              	.LVL163:
 699:../Drivers/STM32F3xx_HAL_Driver/Src/stm32f3xx_hal_rcc.c ****     {
 1810              		.loc 1 699 0
 1811 008a 6B68     		ldr	r3, [r5, #4]
 1812 008c 012B     		cmp	r3, #1
 1813 008e 39D0     		beq	.L144
 709:../Drivers/STM32F3xx_HAL_Driver/Src/stm32f3xx_hal_rcc.c ****     {
 1814              		.loc 1 709 0
 1815 0090 022B     		cmp	r3, #2
 1816 0092 46D0     		beq	.L147
 1817              	.LVL164:
 1818              	.L148:
 721:../Drivers/STM32F3xx_HAL_Driver/Src/stm32f3xx_hal_rcc.c ****       {
 1819              		.loc 1 721 0
 1820 0094 4C4B     		ldr	r3, .L168+4
 1821 0096 5B68     		ldr	r3, [r3, #4]
 1822 0098 13F00C0F 		tst	r3, #12
 1823 009c 50D0     		beq	.L134
 723:../Drivers/STM32F3xx_HAL_Driver/Src/stm32f3xx_hal_rcc.c ****         {
 1824              		.loc 1 723 0
 1825 009e FFF7FEFF 		bl	HAL_GetTick
 1826              	.LVL165:
 1827 00a2 801B     		subs	r0, r0, r6
 1828 00a4 41F28833 		movw	r3, #5000
 1829 00a8 9842     		cmp	r0, r3
 1830 00aa F3D9     		bls	.L148
 725:../Drivers/STM32F3xx_HAL_Driver/Src/stm32f3xx_hal_rcc.c ****         }
 1831              		.loc 1 725 0
 1832 00ac 0320     		movs	r0, #3
 1833 00ae 86E0     		b	.L132
 1834              	.LVL166:
 1835              	.L166:
 1836              	.LBB269:
 1837              	.LBB270:
 1838              		.loc 2 531 0
 1839 00b0 4FF40032 		mov	r2, #131072
 1840              		.syntax unified
 1841              	@ 531 "../Drivers/CMSIS/Include/cmsis_gcc.h" 1
 1842 00b4 92FAA2F2 		rbit r2, r2
 1843              	@ 0 "" 2
 1844              	.LVL167:
 1845              		.thumb
 1846              		.syntax unified
ARM GAS  /var/folders/k_/r2bh2pj93_jff4n9gmtn9jvr0000gn/T//cc0u2Ioj.s 			page 61


 1847              	.LBE270:
 1848              	.LBE269:
 671:../Drivers/STM32F3xx_HAL_Driver/Src/stm32f3xx_hal_rcc.c ****       {
 1849              		.loc 1 671 0
 1850 00b8 434A     		ldr	r2, .L168+4
 1851 00ba 1068     		ldr	r0, [r2]
 1852              	.LVL168:
 1853              	.LBB271:
 1854              	.LBB272:
 1855              		.loc 2 531 0
 1856 00bc 4FF40032 		mov	r2, #131072
 1857              		.syntax unified
 1858              	@ 531 "../Drivers/CMSIS/Include/cmsis_gcc.h" 1
 1859 00c0 92FAA2F2 		rbit r2, r2
 1860              	@ 0 "" 2
 1861              	.LVL169:
 1862              		.thumb
 1863              		.syntax unified
 1864              	.LBE272:
 1865              	.LBE271:
 671:../Drivers/STM32F3xx_HAL_Driver/Src/stm32f3xx_hal_rcc.c ****       {
 1866              		.loc 1 671 0
 1867 00c4 B2FA82F2 		clz	r2, r2
 1868 00c8 02F01F02 		and	r2, r2, #31
 1869 00cc 0121     		movs	r1, #1
 1870              	.LVL170:
 1871 00ce 01FA02F2 		lsl	r2, r1, r2
 1872 00d2 0242     		tst	r2, r0
 1873 00d4 D0D1     		bne	.L138
 673:../Drivers/STM32F3xx_HAL_Driver/Src/stm32f3xx_hal_rcc.c ****       }
 1874              		.loc 1 673 0
 1875 00d6 0120     		movs	r0, #1
 1876 00d8 71E0     		b	.L132
 1877              	.LVL171:
 1878              	.L167:
 1879              	.LBB273:
 1880              	.LBB274:
 1881              		.loc 2 531 0
 1882 00da 4FF00072 		mov	r2, #33554432
 1883              		.syntax unified
 1884              	@ 531 "../Drivers/CMSIS/Include/cmsis_gcc.h" 1
 1885 00de 92FAA2F2 		rbit r2, r2
 1886              	@ 0 "" 2
 1887              	.LVL172:
 1888              		.thumb
 1889              		.syntax unified
 1890              	.LBE274:
 1891              	.LBE273:
 680:../Drivers/STM32F3xx_HAL_Driver/Src/stm32f3xx_hal_rcc.c ****       {
 1892              		.loc 1 680 0
 1893 00e2 394A     		ldr	r2, .L168+4
 1894 00e4 1068     		ldr	r0, [r2]
 1895              	.LVL173:
 1896              	.LBB275:
 1897              	.LBB276:
 1898              		.loc 2 531 0
 1899 00e6 4FF00072 		mov	r2, #33554432
ARM GAS  /var/folders/k_/r2bh2pj93_jff4n9gmtn9jvr0000gn/T//cc0u2Ioj.s 			page 62


 1900              		.syntax unified
 1901              	@ 531 "../Drivers/CMSIS/Include/cmsis_gcc.h" 1
 1902 00ea 92FAA2F2 		rbit r2, r2
 1903              	@ 0 "" 2
 1904              	.LVL174:
 1905              		.thumb
 1906              		.syntax unified
 1907              	.LBE276:
 1908              	.LBE275:
 680:../Drivers/STM32F3xx_HAL_Driver/Src/stm32f3xx_hal_rcc.c ****       {
 1909              		.loc 1 680 0
 1910 00ee B2FA82F2 		clz	r2, r2
 1911 00f2 02F01F02 		and	r2, r2, #31
 1912 00f6 0121     		movs	r1, #1
 1913              	.LVL175:
 1914 00f8 01FA02F2 		lsl	r2, r1, r2
 1915 00fc 1042     		tst	r0, r2
 1916 00fe BBD1     		bne	.L138
 682:../Drivers/STM32F3xx_HAL_Driver/Src/stm32f3xx_hal_rcc.c ****       }
 1917              		.loc 1 682 0
 1918 0100 0120     		movs	r0, #1
 1919 0102 5CE0     		b	.L132
 1920              	.LVL176:
 1921              	.L144:
 701:../Drivers/STM32F3xx_HAL_Driver/Src/stm32f3xx_hal_rcc.c ****       {
 1922              		.loc 1 701 0
 1923 0104 304B     		ldr	r3, .L168+4
 1924 0106 5B68     		ldr	r3, [r3, #4]
 1925 0108 03F00C03 		and	r3, r3, #12
 1926 010c 042B     		cmp	r3, #4
 1927 010e 17D0     		beq	.L134
 703:../Drivers/STM32F3xx_HAL_Driver/Src/stm32f3xx_hal_rcc.c ****         {
 1928              		.loc 1 703 0
 1929 0110 FFF7FEFF 		bl	HAL_GetTick
 1930              	.LVL177:
 1931 0114 801B     		subs	r0, r0, r6
 1932 0116 41F28833 		movw	r3, #5000
 1933 011a 9842     		cmp	r0, r3
 1934 011c F2D9     		bls	.L144
 705:../Drivers/STM32F3xx_HAL_Driver/Src/stm32f3xx_hal_rcc.c ****         }
 1935              		.loc 1 705 0
 1936 011e 0320     		movs	r0, #3
 1937 0120 4DE0     		b	.L132
 1938              	.L147:
 711:../Drivers/STM32F3xx_HAL_Driver/Src/stm32f3xx_hal_rcc.c ****       {
 1939              		.loc 1 711 0
 1940 0122 294B     		ldr	r3, .L168+4
 1941 0124 5B68     		ldr	r3, [r3, #4]
 1942 0126 03F00C03 		and	r3, r3, #12
 1943 012a 082B     		cmp	r3, #8
 1944 012c 08D0     		beq	.L134
 713:../Drivers/STM32F3xx_HAL_Driver/Src/stm32f3xx_hal_rcc.c ****         {
 1945              		.loc 1 713 0
 1946 012e FFF7FEFF 		bl	HAL_GetTick
 1947              	.LVL178:
 1948 0132 801B     		subs	r0, r0, r6
 1949 0134 41F28833 		movw	r3, #5000
ARM GAS  /var/folders/k_/r2bh2pj93_jff4n9gmtn9jvr0000gn/T//cc0u2Ioj.s 			page 63


 1950 0138 9842     		cmp	r0, r3
 1951 013a F2D9     		bls	.L147
 715:../Drivers/STM32F3xx_HAL_Driver/Src/stm32f3xx_hal_rcc.c ****         }
 1952              		.loc 1 715 0
 1953 013c 0320     		movs	r0, #3
 1954 013e 3EE0     		b	.L132
 1955              	.LVL179:
 1956              	.L134:
 731:../Drivers/STM32F3xx_HAL_Driver/Src/stm32f3xx_hal_rcc.c ****   {    
 1957              		.loc 1 731 0
 1958 0140 204B     		ldr	r3, .L168
 1959 0142 1B68     		ldr	r3, [r3]
 1960 0144 03F00703 		and	r3, r3, #7
 1961 0148 A342     		cmp	r3, r4
 1962 014a 0CD9     		bls	.L151
 734:../Drivers/STM32F3xx_HAL_Driver/Src/stm32f3xx_hal_rcc.c ****     
 1963              		.loc 1 734 0
 1964 014c 1D4A     		ldr	r2, .L168
 1965 014e 1368     		ldr	r3, [r2]
 1966 0150 23F00703 		bic	r3, r3, #7
 1967 0154 2343     		orrs	r3, r3, r4
 1968 0156 1360     		str	r3, [r2]
 738:../Drivers/STM32F3xx_HAL_Driver/Src/stm32f3xx_hal_rcc.c ****     {
 1969              		.loc 1 738 0
 1970 0158 1368     		ldr	r3, [r2]
 1971 015a 03F00703 		and	r3, r3, #7
 1972 015e A342     		cmp	r3, r4
 1973 0160 01D0     		beq	.L151
 740:../Drivers/STM32F3xx_HAL_Driver/Src/stm32f3xx_hal_rcc.c ****     }
 1974              		.loc 1 740 0
 1975 0162 0120     		movs	r0, #1
 1976 0164 2BE0     		b	.L132
 1977              	.L151:
 745:../Drivers/STM32F3xx_HAL_Driver/Src/stm32f3xx_hal_rcc.c ****   {
 1978              		.loc 1 745 0
 1979 0166 2B68     		ldr	r3, [r5]
 1980 0168 13F0040F 		tst	r3, #4
 1981 016c 06D0     		beq	.L152
 748:../Drivers/STM32F3xx_HAL_Driver/Src/stm32f3xx_hal_rcc.c ****   }
 1982              		.loc 1 748 0
 1983 016e 164A     		ldr	r2, .L168+4
 1984 0170 5368     		ldr	r3, [r2, #4]
 1985 0172 23F4E063 		bic	r3, r3, #1792
 1986 0176 E968     		ldr	r1, [r5, #12]
 1987 0178 0B43     		orrs	r3, r3, r1
 1988 017a 5360     		str	r3, [r2, #4]
 1989              	.L152:
 752:../Drivers/STM32F3xx_HAL_Driver/Src/stm32f3xx_hal_rcc.c ****   {
 1990              		.loc 1 752 0
 1991 017c 2B68     		ldr	r3, [r5]
 1992 017e 13F0080F 		tst	r3, #8
 1993 0182 07D0     		beq	.L153
 755:../Drivers/STM32F3xx_HAL_Driver/Src/stm32f3xx_hal_rcc.c ****   }
 1994              		.loc 1 755 0
 1995 0184 104A     		ldr	r2, .L168+4
 1996 0186 5368     		ldr	r3, [r2, #4]
 1997 0188 23F46053 		bic	r3, r3, #14336
ARM GAS  /var/folders/k_/r2bh2pj93_jff4n9gmtn9jvr0000gn/T//cc0u2Ioj.s 			page 64


 1998 018c 2969     		ldr	r1, [r5, #16]
 1999 018e 43EAC103 		orr	r3, r3, r1, lsl #3
 2000 0192 5360     		str	r3, [r2, #4]
 2001              	.L153:
 759:../Drivers/STM32F3xx_HAL_Driver/Src/stm32f3xx_hal_rcc.c **** 
 2002              		.loc 1 759 0
 2003 0194 FFF7FEFF 		bl	HAL_RCC_GetSysClockFreq
 2004              	.LVL180:
 2005 0198 0B4B     		ldr	r3, .L168+4
 2006 019a 5B68     		ldr	r3, [r3, #4]
 2007 019c 03F0F003 		and	r3, r3, #240
 2008              	.LVL181:
 2009              	.LBB277:
 2010              	.LBB278:
 2011              		.loc 2 531 0
 2012 01a0 F022     		movs	r2, #240
 2013              		.syntax unified
 2014              	@ 531 "../Drivers/CMSIS/Include/cmsis_gcc.h" 1
 2015 01a2 92FAA2F2 		rbit r2, r2
 2016              	@ 0 "" 2
 2017              	.LVL182:
 2018              		.thumb
 2019              		.syntax unified
 2020              	.LBE278:
 2021              	.LBE277:
 759:../Drivers/STM32F3xx_HAL_Driver/Src/stm32f3xx_hal_rcc.c **** 
 2022              		.loc 1 759 0
 2023 01a6 B2FA82F2 		clz	r2, r2
 2024 01aa D340     		lsrs	r3, r3, r2
 2025 01ac 074A     		ldr	r2, .L168+8
 2026 01ae D35C     		ldrb	r3, [r2, r3]	@ zero_extendqisi2
 2027 01b0 D840     		lsrs	r0, r0, r3
 2028 01b2 074B     		ldr	r3, .L168+12
 2029 01b4 1860     		str	r0, [r3]
 762:../Drivers/STM32F3xx_HAL_Driver/Src/stm32f3xx_hal_rcc.c ****   
 2030              		.loc 1 762 0
 2031 01b6 0020     		movs	r0, #0
 2032 01b8 FFF7FEFF 		bl	HAL_InitTick
 2033              	.LVL183:
 764:../Drivers/STM32F3xx_HAL_Driver/Src/stm32f3xx_hal_rcc.c **** }
 2034              		.loc 1 764 0
 2035 01bc 0020     		movs	r0, #0
 2036              	.L132:
 765:../Drivers/STM32F3xx_HAL_Driver/Src/stm32f3xx_hal_rcc.c **** 
 2037              		.loc 1 765 0
 2038 01be 70BD     		pop	{r4, r5, r6, pc}
 2039              	.LVL184:
 2040              	.L157:
 691:../Drivers/STM32F3xx_HAL_Driver/Src/stm32f3xx_hal_rcc.c ****       }
 2041              		.loc 1 691 0
 2042 01c0 0120     		movs	r0, #1
 2043 01c2 FCE7     		b	.L132
 2044              	.L169:
 2045              		.align	2
 2046              	.L168:
 2047 01c4 00200240 		.word	1073881088
 2048 01c8 00100240 		.word	1073876992
ARM GAS  /var/folders/k_/r2bh2pj93_jff4n9gmtn9jvr0000gn/T//cc0u2Ioj.s 			page 65


 2049 01cc 00000000 		.word	AHBPrescTable
 2050 01d0 00000000 		.word	SystemCoreClock
 2051              		.cfi_endproc
 2052              	.LFE128:
 2054              		.section	.text.HAL_RCC_GetHCLKFreq,"ax",%progbits
 2055              		.align	1
 2056              		.global	HAL_RCC_GetHCLKFreq
 2057              		.syntax unified
 2058              		.thumb
 2059              		.thumb_func
 2060              		.fpu fpv4-sp-d16
 2062              	HAL_RCC_GetHCLKFreq:
 2063              	.LFB133:
 968:../Drivers/STM32F3xx_HAL_Driver/Src/stm32f3xx_hal_rcc.c **** 
 969:../Drivers/STM32F3xx_HAL_Driver/Src/stm32f3xx_hal_rcc.c **** /**
 970:../Drivers/STM32F3xx_HAL_Driver/Src/stm32f3xx_hal_rcc.c ****   * @brief  Returns the HCLK frequency     
 971:../Drivers/STM32F3xx_HAL_Driver/Src/stm32f3xx_hal_rcc.c ****   * @note   Each time HCLK changes, this function must be called to update the
 972:../Drivers/STM32F3xx_HAL_Driver/Src/stm32f3xx_hal_rcc.c ****   *         right HCLK value. Otherwise, any configuration based on this function will be incorrect
 973:../Drivers/STM32F3xx_HAL_Driver/Src/stm32f3xx_hal_rcc.c ****   * 
 974:../Drivers/STM32F3xx_HAL_Driver/Src/stm32f3xx_hal_rcc.c ****   * @note   The SystemCoreClock CMSIS variable is used to store System Clock Frequency 
 975:../Drivers/STM32F3xx_HAL_Driver/Src/stm32f3xx_hal_rcc.c ****   *         and updated within this function
 976:../Drivers/STM32F3xx_HAL_Driver/Src/stm32f3xx_hal_rcc.c ****   * @retval HCLK frequency
 977:../Drivers/STM32F3xx_HAL_Driver/Src/stm32f3xx_hal_rcc.c ****   */
 978:../Drivers/STM32F3xx_HAL_Driver/Src/stm32f3xx_hal_rcc.c **** uint32_t HAL_RCC_GetHCLKFreq(void)
 979:../Drivers/STM32F3xx_HAL_Driver/Src/stm32f3xx_hal_rcc.c **** {
 2064              		.loc 1 979 0
 2065              		.cfi_startproc
 2066              		@ args = 0, pretend = 0, frame = 0
 2067              		@ frame_needed = 0, uses_anonymous_args = 0
 2068              		@ link register save eliminated.
 980:../Drivers/STM32F3xx_HAL_Driver/Src/stm32f3xx_hal_rcc.c ****   return SystemCoreClock;
 981:../Drivers/STM32F3xx_HAL_Driver/Src/stm32f3xx_hal_rcc.c **** }
 2069              		.loc 1 981 0
 2070 0000 014B     		ldr	r3, .L171
 2071 0002 1868     		ldr	r0, [r3]
 2072 0004 7047     		bx	lr
 2073              	.L172:
 2074 0006 00BF     		.align	2
 2075              	.L171:
 2076 0008 00000000 		.word	SystemCoreClock
 2077              		.cfi_endproc
 2078              	.LFE133:
 2080              		.section	.text.HAL_RCC_GetPCLK1Freq,"ax",%progbits
 2081              		.align	1
 2082              		.global	HAL_RCC_GetPCLK1Freq
 2083              		.syntax unified
 2084              		.thumb
 2085              		.thumb_func
 2086              		.fpu fpv4-sp-d16
 2088              	HAL_RCC_GetPCLK1Freq:
 2089              	.LFB134:
 982:../Drivers/STM32F3xx_HAL_Driver/Src/stm32f3xx_hal_rcc.c **** 
 983:../Drivers/STM32F3xx_HAL_Driver/Src/stm32f3xx_hal_rcc.c **** /**
 984:../Drivers/STM32F3xx_HAL_Driver/Src/stm32f3xx_hal_rcc.c ****   * @brief  Returns the PCLK1 frequency     
 985:../Drivers/STM32F3xx_HAL_Driver/Src/stm32f3xx_hal_rcc.c ****   * @note   Each time PCLK1 changes, this function must be called to update the
 986:../Drivers/STM32F3xx_HAL_Driver/Src/stm32f3xx_hal_rcc.c ****   *         right PCLK1 value. Otherwise, any configuration based on this function will be incorrec
 987:../Drivers/STM32F3xx_HAL_Driver/Src/stm32f3xx_hal_rcc.c ****   * @retval PCLK1 frequency
ARM GAS  /var/folders/k_/r2bh2pj93_jff4n9gmtn9jvr0000gn/T//cc0u2Ioj.s 			page 66


 988:../Drivers/STM32F3xx_HAL_Driver/Src/stm32f3xx_hal_rcc.c ****   */
 989:../Drivers/STM32F3xx_HAL_Driver/Src/stm32f3xx_hal_rcc.c **** uint32_t HAL_RCC_GetPCLK1Freq(void)
 990:../Drivers/STM32F3xx_HAL_Driver/Src/stm32f3xx_hal_rcc.c **** {
 2090              		.loc 1 990 0
 2091              		.cfi_startproc
 2092              		@ args = 0, pretend = 0, frame = 0
 2093              		@ frame_needed = 0, uses_anonymous_args = 0
 2094 0000 08B5     		push	{r3, lr}
 2095              	.LCFI8:
 2096              		.cfi_def_cfa_offset 8
 2097              		.cfi_offset 3, -8
 2098              		.cfi_offset 14, -4
 991:../Drivers/STM32F3xx_HAL_Driver/Src/stm32f3xx_hal_rcc.c ****   /* Get HCLK source and Compute PCLK1 frequency ---------------------------*/
 992:../Drivers/STM32F3xx_HAL_Driver/Src/stm32f3xx_hal_rcc.c ****   return (HAL_RCC_GetHCLKFreq() >> APBPrescTable[(RCC->CFGR & RCC_CFGR_PPRE1) >> RCC_CFGR_PPRE1_BIT
 2099              		.loc 1 992 0
 2100 0002 FFF7FEFF 		bl	HAL_RCC_GetHCLKFreq
 2101              	.LVL185:
 2102 0006 074B     		ldr	r3, .L175
 2103 0008 5B68     		ldr	r3, [r3, #4]
 2104 000a 03F4E063 		and	r3, r3, #1792
 2105              	.LVL186:
 2106              	.LBB279:
 2107              	.LBB280:
 2108              		.loc 2 531 0
 2109 000e 4FF4E062 		mov	r2, #1792
 2110              		.syntax unified
 2111              	@ 531 "../Drivers/CMSIS/Include/cmsis_gcc.h" 1
 2112 0012 92FAA2F2 		rbit r2, r2
 2113              	@ 0 "" 2
 2114              	.LVL187:
 2115              		.thumb
 2116              		.syntax unified
 2117              	.LBE280:
 2118              	.LBE279:
 2119              		.loc 1 992 0
 2120 0016 B2FA82F2 		clz	r2, r2
 2121 001a D340     		lsrs	r3, r3, r2
 2122 001c 024A     		ldr	r2, .L175+4
 2123 001e D35C     		ldrb	r3, [r2, r3]	@ zero_extendqisi2
 993:../Drivers/STM32F3xx_HAL_Driver/Src/stm32f3xx_hal_rcc.c **** }    
 2124              		.loc 1 993 0
 2125 0020 D840     		lsrs	r0, r0, r3
 2126 0022 08BD     		pop	{r3, pc}
 2127              	.L176:
 2128              		.align	2
 2129              	.L175:
 2130 0024 00100240 		.word	1073876992
 2131 0028 00000000 		.word	APBPrescTable
 2132              		.cfi_endproc
 2133              	.LFE134:
 2135              		.section	.text.HAL_RCC_GetPCLK2Freq,"ax",%progbits
 2136              		.align	1
 2137              		.global	HAL_RCC_GetPCLK2Freq
 2138              		.syntax unified
 2139              		.thumb
 2140              		.thumb_func
 2141              		.fpu fpv4-sp-d16
ARM GAS  /var/folders/k_/r2bh2pj93_jff4n9gmtn9jvr0000gn/T//cc0u2Ioj.s 			page 67


 2143              	HAL_RCC_GetPCLK2Freq:
 2144              	.LFB135:
 994:../Drivers/STM32F3xx_HAL_Driver/Src/stm32f3xx_hal_rcc.c **** 
 995:../Drivers/STM32F3xx_HAL_Driver/Src/stm32f3xx_hal_rcc.c **** /**
 996:../Drivers/STM32F3xx_HAL_Driver/Src/stm32f3xx_hal_rcc.c ****   * @brief  Returns the PCLK2 frequency     
 997:../Drivers/STM32F3xx_HAL_Driver/Src/stm32f3xx_hal_rcc.c ****   * @note   Each time PCLK2 changes, this function must be called to update the
 998:../Drivers/STM32F3xx_HAL_Driver/Src/stm32f3xx_hal_rcc.c ****   *         right PCLK2 value. Otherwise, any configuration based on this function will be incorrec
 999:../Drivers/STM32F3xx_HAL_Driver/Src/stm32f3xx_hal_rcc.c ****   * @retval PCLK2 frequency
1000:../Drivers/STM32F3xx_HAL_Driver/Src/stm32f3xx_hal_rcc.c ****   */
1001:../Drivers/STM32F3xx_HAL_Driver/Src/stm32f3xx_hal_rcc.c **** uint32_t HAL_RCC_GetPCLK2Freq(void)
1002:../Drivers/STM32F3xx_HAL_Driver/Src/stm32f3xx_hal_rcc.c **** {
 2145              		.loc 1 1002 0
 2146              		.cfi_startproc
 2147              		@ args = 0, pretend = 0, frame = 0
 2148              		@ frame_needed = 0, uses_anonymous_args = 0
 2149 0000 08B5     		push	{r3, lr}
 2150              	.LCFI9:
 2151              		.cfi_def_cfa_offset 8
 2152              		.cfi_offset 3, -8
 2153              		.cfi_offset 14, -4
1003:../Drivers/STM32F3xx_HAL_Driver/Src/stm32f3xx_hal_rcc.c ****   /* Get HCLK source and Compute PCLK2 frequency ---------------------------*/
1004:../Drivers/STM32F3xx_HAL_Driver/Src/stm32f3xx_hal_rcc.c ****   return (HAL_RCC_GetHCLKFreq()>> APBPrescTable[(RCC->CFGR & RCC_CFGR_PPRE2) >> RCC_CFGR_PPRE2_BITN
 2154              		.loc 1 1004 0
 2155 0002 FFF7FEFF 		bl	HAL_RCC_GetHCLKFreq
 2156              	.LVL188:
 2157 0006 074B     		ldr	r3, .L179
 2158 0008 5B68     		ldr	r3, [r3, #4]
 2159 000a 03F46053 		and	r3, r3, #14336
 2160              	.LVL189:
 2161              	.LBB281:
 2162              	.LBB282:
 2163              		.loc 2 531 0
 2164 000e 4FF46052 		mov	r2, #14336
 2165              		.syntax unified
 2166              	@ 531 "../Drivers/CMSIS/Include/cmsis_gcc.h" 1
 2167 0012 92FAA2F2 		rbit r2, r2
 2168              	@ 0 "" 2
 2169              	.LVL190:
 2170              		.thumb
 2171              		.syntax unified
 2172              	.LBE282:
 2173              	.LBE281:
 2174              		.loc 1 1004 0
 2175 0016 B2FA82F2 		clz	r2, r2
 2176 001a D340     		lsrs	r3, r3, r2
 2177 001c 024A     		ldr	r2, .L179+4
 2178 001e D35C     		ldrb	r3, [r2, r3]	@ zero_extendqisi2
1005:../Drivers/STM32F3xx_HAL_Driver/Src/stm32f3xx_hal_rcc.c **** } 
 2179              		.loc 1 1005 0
 2180 0020 D840     		lsrs	r0, r0, r3
 2181 0022 08BD     		pop	{r3, pc}
 2182              	.L180:
 2183              		.align	2
 2184              	.L179:
 2185 0024 00100240 		.word	1073876992
 2186 0028 00000000 		.word	APBPrescTable
 2187              		.cfi_endproc
ARM GAS  /var/folders/k_/r2bh2pj93_jff4n9gmtn9jvr0000gn/T//cc0u2Ioj.s 			page 68


 2188              	.LFE135:
 2190              		.section	.text.HAL_RCC_GetOscConfig,"ax",%progbits
 2191              		.align	1
 2192              		.global	HAL_RCC_GetOscConfig
 2193              		.syntax unified
 2194              		.thumb
 2195              		.thumb_func
 2196              		.fpu fpv4-sp-d16
 2198              	HAL_RCC_GetOscConfig:
 2199              	.LFB136:
1006:../Drivers/STM32F3xx_HAL_Driver/Src/stm32f3xx_hal_rcc.c **** 
1007:../Drivers/STM32F3xx_HAL_Driver/Src/stm32f3xx_hal_rcc.c **** /**
1008:../Drivers/STM32F3xx_HAL_Driver/Src/stm32f3xx_hal_rcc.c ****   * @brief  Configures the RCC_OscInitStruct according to the internal 
1009:../Drivers/STM32F3xx_HAL_Driver/Src/stm32f3xx_hal_rcc.c ****   * RCC configuration registers.
1010:../Drivers/STM32F3xx_HAL_Driver/Src/stm32f3xx_hal_rcc.c ****   * @param  RCC_OscInitStruct pointer to an RCC_OscInitTypeDef structure that 
1011:../Drivers/STM32F3xx_HAL_Driver/Src/stm32f3xx_hal_rcc.c ****   * will be configured.
1012:../Drivers/STM32F3xx_HAL_Driver/Src/stm32f3xx_hal_rcc.c ****   * @retval None
1013:../Drivers/STM32F3xx_HAL_Driver/Src/stm32f3xx_hal_rcc.c ****   */
1014:../Drivers/STM32F3xx_HAL_Driver/Src/stm32f3xx_hal_rcc.c **** void HAL_RCC_GetOscConfig(RCC_OscInitTypeDef  *RCC_OscInitStruct)
1015:../Drivers/STM32F3xx_HAL_Driver/Src/stm32f3xx_hal_rcc.c **** {
 2200              		.loc 1 1015 0
 2201              		.cfi_startproc
 2202              		@ args = 0, pretend = 0, frame = 0
 2203              		@ frame_needed = 0, uses_anonymous_args = 0
 2204              		@ link register save eliminated.
 2205              	.LVL191:
1016:../Drivers/STM32F3xx_HAL_Driver/Src/stm32f3xx_hal_rcc.c ****   /* Check the parameters */
1017:../Drivers/STM32F3xx_HAL_Driver/Src/stm32f3xx_hal_rcc.c ****   assert_param(RCC_OscInitStruct != NULL);
1018:../Drivers/STM32F3xx_HAL_Driver/Src/stm32f3xx_hal_rcc.c **** 
1019:../Drivers/STM32F3xx_HAL_Driver/Src/stm32f3xx_hal_rcc.c ****   /* Set all possible values for the Oscillator type parameter ---------------*/
1020:../Drivers/STM32F3xx_HAL_Driver/Src/stm32f3xx_hal_rcc.c ****   RCC_OscInitStruct->OscillatorType = RCC_OSCILLATORTYPE_HSE | RCC_OSCILLATORTYPE_HSI  \
 2206              		.loc 1 1020 0
 2207 0000 0F23     		movs	r3, #15
 2208 0002 0360     		str	r3, [r0]
1021:../Drivers/STM32F3xx_HAL_Driver/Src/stm32f3xx_hal_rcc.c ****                   | RCC_OSCILLATORTYPE_LSE | RCC_OSCILLATORTYPE_LSI;
1022:../Drivers/STM32F3xx_HAL_Driver/Src/stm32f3xx_hal_rcc.c **** 
1023:../Drivers/STM32F3xx_HAL_Driver/Src/stm32f3xx_hal_rcc.c **** 
1024:../Drivers/STM32F3xx_HAL_Driver/Src/stm32f3xx_hal_rcc.c ****   /* Get the HSE configuration -----------------------------------------------*/
1025:../Drivers/STM32F3xx_HAL_Driver/Src/stm32f3xx_hal_rcc.c ****   if((RCC->CR &RCC_CR_HSEBYP) == RCC_CR_HSEBYP)
 2209              		.loc 1 1025 0
 2210 0004 2D4B     		ldr	r3, .L195
 2211 0006 1B68     		ldr	r3, [r3]
 2212 0008 13F4802F 		tst	r3, #262144
 2213 000c 36D0     		beq	.L182
1026:../Drivers/STM32F3xx_HAL_Driver/Src/stm32f3xx_hal_rcc.c ****   {
1027:../Drivers/STM32F3xx_HAL_Driver/Src/stm32f3xx_hal_rcc.c ****     RCC_OscInitStruct->HSEState = RCC_HSE_BYPASS;
 2214              		.loc 1 1027 0
 2215 000e 4FF4A023 		mov	r3, #327680
 2216 0012 4360     		str	r3, [r0, #4]
 2217              	.L183:
1028:../Drivers/STM32F3xx_HAL_Driver/Src/stm32f3xx_hal_rcc.c ****   }
1029:../Drivers/STM32F3xx_HAL_Driver/Src/stm32f3xx_hal_rcc.c ****   else if((RCC->CR &RCC_CR_HSEON) == RCC_CR_HSEON)
1030:../Drivers/STM32F3xx_HAL_Driver/Src/stm32f3xx_hal_rcc.c ****   {
1031:../Drivers/STM32F3xx_HAL_Driver/Src/stm32f3xx_hal_rcc.c ****     RCC_OscInitStruct->HSEState = RCC_HSE_ON;
1032:../Drivers/STM32F3xx_HAL_Driver/Src/stm32f3xx_hal_rcc.c ****   }
1033:../Drivers/STM32F3xx_HAL_Driver/Src/stm32f3xx_hal_rcc.c ****   else
1034:../Drivers/STM32F3xx_HAL_Driver/Src/stm32f3xx_hal_rcc.c ****   {
ARM GAS  /var/folders/k_/r2bh2pj93_jff4n9gmtn9jvr0000gn/T//cc0u2Ioj.s 			page 69


1035:../Drivers/STM32F3xx_HAL_Driver/Src/stm32f3xx_hal_rcc.c ****     RCC_OscInitStruct->HSEState = RCC_HSE_OFF;
1036:../Drivers/STM32F3xx_HAL_Driver/Src/stm32f3xx_hal_rcc.c ****   }
1037:../Drivers/STM32F3xx_HAL_Driver/Src/stm32f3xx_hal_rcc.c **** #if defined(RCC_CFGR_PLLSRC_HSI_DIV2)
1038:../Drivers/STM32F3xx_HAL_Driver/Src/stm32f3xx_hal_rcc.c ****   RCC_OscInitStruct->HSEPredivValue = __HAL_RCC_HSE_GET_PREDIV();
 2218              		.loc 1 1038 0
 2219 0014 294A     		ldr	r2, .L195
 2220 0016 D36A     		ldr	r3, [r2, #44]
 2221 0018 03F00F03 		and	r3, r3, #15
 2222 001c 8360     		str	r3, [r0, #8]
1039:../Drivers/STM32F3xx_HAL_Driver/Src/stm32f3xx_hal_rcc.c **** #endif
1040:../Drivers/STM32F3xx_HAL_Driver/Src/stm32f3xx_hal_rcc.c **** 
1041:../Drivers/STM32F3xx_HAL_Driver/Src/stm32f3xx_hal_rcc.c ****   /* Get the HSI configuration -----------------------------------------------*/
1042:../Drivers/STM32F3xx_HAL_Driver/Src/stm32f3xx_hal_rcc.c ****   if((RCC->CR &RCC_CR_HSION) == RCC_CR_HSION)
 2223              		.loc 1 1042 0
 2224 001e 1368     		ldr	r3, [r2]
 2225 0020 13F0010F 		tst	r3, #1
 2226 0024 36D0     		beq	.L185
1043:../Drivers/STM32F3xx_HAL_Driver/Src/stm32f3xx_hal_rcc.c ****   {
1044:../Drivers/STM32F3xx_HAL_Driver/Src/stm32f3xx_hal_rcc.c ****     RCC_OscInitStruct->HSIState = RCC_HSI_ON;
 2227              		.loc 1 1044 0
 2228 0026 0123     		movs	r3, #1
 2229 0028 0361     		str	r3, [r0, #16]
 2230              	.L186:
1045:../Drivers/STM32F3xx_HAL_Driver/Src/stm32f3xx_hal_rcc.c ****   }
1046:../Drivers/STM32F3xx_HAL_Driver/Src/stm32f3xx_hal_rcc.c ****   else
1047:../Drivers/STM32F3xx_HAL_Driver/Src/stm32f3xx_hal_rcc.c ****   {
1048:../Drivers/STM32F3xx_HAL_Driver/Src/stm32f3xx_hal_rcc.c ****     RCC_OscInitStruct->HSIState = RCC_HSI_OFF;
1049:../Drivers/STM32F3xx_HAL_Driver/Src/stm32f3xx_hal_rcc.c ****   }
1050:../Drivers/STM32F3xx_HAL_Driver/Src/stm32f3xx_hal_rcc.c ****   
1051:../Drivers/STM32F3xx_HAL_Driver/Src/stm32f3xx_hal_rcc.c ****   RCC_OscInitStruct->HSICalibrationValue = (uint32_t)((RCC->CR & RCC_CR_HSITRIM) >> POSITION_VAL(RC
 2231              		.loc 1 1051 0
 2232 002a 2449     		ldr	r1, .L195
 2233 002c 0B68     		ldr	r3, [r1]
 2234 002e 03F0F803 		and	r3, r3, #248
 2235              	.LVL192:
 2236              	.LBB283:
 2237              	.LBB284:
 2238              		.loc 2 531 0
 2239 0032 F822     		movs	r2, #248
 2240              		.syntax unified
 2241              	@ 531 "../Drivers/CMSIS/Include/cmsis_gcc.h" 1
 2242 0034 92FAA2F2 		rbit r2, r2
 2243              	@ 0 "" 2
 2244              	.LVL193:
 2245              		.thumb
 2246              		.syntax unified
 2247              	.LBE284:
 2248              	.LBE283:
 2249              		.loc 1 1051 0
 2250 0038 B2FA82F2 		clz	r2, r2
 2251 003c D340     		lsrs	r3, r3, r2
 2252 003e 4361     		str	r3, [r0, #20]
1052:../Drivers/STM32F3xx_HAL_Driver/Src/stm32f3xx_hal_rcc.c ****   
1053:../Drivers/STM32F3xx_HAL_Driver/Src/stm32f3xx_hal_rcc.c ****   /* Get the LSE configuration -----------------------------------------------*/
1054:../Drivers/STM32F3xx_HAL_Driver/Src/stm32f3xx_hal_rcc.c ****   if((RCC->BDCR &RCC_BDCR_LSEBYP) == RCC_BDCR_LSEBYP)
 2253              		.loc 1 1054 0
 2254 0040 0B6A     		ldr	r3, [r1, #32]
ARM GAS  /var/folders/k_/r2bh2pj93_jff4n9gmtn9jvr0000gn/T//cc0u2Ioj.s 			page 70


 2255 0042 13F0040F 		tst	r3, #4
 2256 0046 28D0     		beq	.L187
1055:../Drivers/STM32F3xx_HAL_Driver/Src/stm32f3xx_hal_rcc.c ****   {
1056:../Drivers/STM32F3xx_HAL_Driver/Src/stm32f3xx_hal_rcc.c ****     RCC_OscInitStruct->LSEState = RCC_LSE_BYPASS;
 2257              		.loc 1 1056 0
 2258 0048 0523     		movs	r3, #5
 2259 004a C360     		str	r3, [r0, #12]
 2260              	.L188:
1057:../Drivers/STM32F3xx_HAL_Driver/Src/stm32f3xx_hal_rcc.c ****   }
1058:../Drivers/STM32F3xx_HAL_Driver/Src/stm32f3xx_hal_rcc.c ****   else if((RCC->BDCR &RCC_BDCR_LSEON) == RCC_BDCR_LSEON)
1059:../Drivers/STM32F3xx_HAL_Driver/Src/stm32f3xx_hal_rcc.c ****   {
1060:../Drivers/STM32F3xx_HAL_Driver/Src/stm32f3xx_hal_rcc.c ****     RCC_OscInitStruct->LSEState = RCC_LSE_ON;
1061:../Drivers/STM32F3xx_HAL_Driver/Src/stm32f3xx_hal_rcc.c ****   }
1062:../Drivers/STM32F3xx_HAL_Driver/Src/stm32f3xx_hal_rcc.c ****   else
1063:../Drivers/STM32F3xx_HAL_Driver/Src/stm32f3xx_hal_rcc.c ****   {
1064:../Drivers/STM32F3xx_HAL_Driver/Src/stm32f3xx_hal_rcc.c ****     RCC_OscInitStruct->LSEState = RCC_LSE_OFF;
1065:../Drivers/STM32F3xx_HAL_Driver/Src/stm32f3xx_hal_rcc.c ****   }
1066:../Drivers/STM32F3xx_HAL_Driver/Src/stm32f3xx_hal_rcc.c ****   
1067:../Drivers/STM32F3xx_HAL_Driver/Src/stm32f3xx_hal_rcc.c ****   /* Get the LSI configuration -----------------------------------------------*/
1068:../Drivers/STM32F3xx_HAL_Driver/Src/stm32f3xx_hal_rcc.c ****   if((RCC->CSR &RCC_CSR_LSION) == RCC_CSR_LSION)
 2261              		.loc 1 1068 0
 2262 004c 1B4B     		ldr	r3, .L195
 2263 004e 5B6A     		ldr	r3, [r3, #36]
 2264 0050 13F0010F 		tst	r3, #1
 2265 0054 2CD0     		beq	.L190
1069:../Drivers/STM32F3xx_HAL_Driver/Src/stm32f3xx_hal_rcc.c ****   {
1070:../Drivers/STM32F3xx_HAL_Driver/Src/stm32f3xx_hal_rcc.c ****     RCC_OscInitStruct->LSIState = RCC_LSI_ON;
 2266              		.loc 1 1070 0
 2267 0056 0123     		movs	r3, #1
 2268 0058 8361     		str	r3, [r0, #24]
 2269              	.L191:
1071:../Drivers/STM32F3xx_HAL_Driver/Src/stm32f3xx_hal_rcc.c ****   }
1072:../Drivers/STM32F3xx_HAL_Driver/Src/stm32f3xx_hal_rcc.c ****   else
1073:../Drivers/STM32F3xx_HAL_Driver/Src/stm32f3xx_hal_rcc.c ****   {
1074:../Drivers/STM32F3xx_HAL_Driver/Src/stm32f3xx_hal_rcc.c ****     RCC_OscInitStruct->LSIState = RCC_LSI_OFF;
1075:../Drivers/STM32F3xx_HAL_Driver/Src/stm32f3xx_hal_rcc.c ****   }
1076:../Drivers/STM32F3xx_HAL_Driver/Src/stm32f3xx_hal_rcc.c ****   
1077:../Drivers/STM32F3xx_HAL_Driver/Src/stm32f3xx_hal_rcc.c **** 
1078:../Drivers/STM32F3xx_HAL_Driver/Src/stm32f3xx_hal_rcc.c ****   /* Get the PLL configuration -----------------------------------------------*/
1079:../Drivers/STM32F3xx_HAL_Driver/Src/stm32f3xx_hal_rcc.c ****   if((RCC->CR &RCC_CR_PLLON) == RCC_CR_PLLON)
 2270              		.loc 1 1079 0
 2271 005a 184B     		ldr	r3, .L195
 2272 005c 1B68     		ldr	r3, [r3]
 2273 005e 13F0807F 		tst	r3, #16777216
 2274 0062 28D1     		bne	.L194
1080:../Drivers/STM32F3xx_HAL_Driver/Src/stm32f3xx_hal_rcc.c ****   {
1081:../Drivers/STM32F3xx_HAL_Driver/Src/stm32f3xx_hal_rcc.c ****     RCC_OscInitStruct->PLL.PLLState = RCC_PLL_ON;
1082:../Drivers/STM32F3xx_HAL_Driver/Src/stm32f3xx_hal_rcc.c ****   }
1083:../Drivers/STM32F3xx_HAL_Driver/Src/stm32f3xx_hal_rcc.c ****   else
1084:../Drivers/STM32F3xx_HAL_Driver/Src/stm32f3xx_hal_rcc.c ****   {
1085:../Drivers/STM32F3xx_HAL_Driver/Src/stm32f3xx_hal_rcc.c ****     RCC_OscInitStruct->PLL.PLLState = RCC_PLL_OFF;
 2275              		.loc 1 1085 0
 2276 0064 0123     		movs	r3, #1
 2277 0066 C361     		str	r3, [r0, #28]
 2278              	.L193:
1086:../Drivers/STM32F3xx_HAL_Driver/Src/stm32f3xx_hal_rcc.c ****   }
1087:../Drivers/STM32F3xx_HAL_Driver/Src/stm32f3xx_hal_rcc.c ****   RCC_OscInitStruct->PLL.PLLSource = (uint32_t)(RCC->CFGR & RCC_CFGR_PLLSRC);
ARM GAS  /var/folders/k_/r2bh2pj93_jff4n9gmtn9jvr0000gn/T//cc0u2Ioj.s 			page 71


 2279              		.loc 1 1087 0
 2280 0068 144A     		ldr	r2, .L195
 2281 006a 5368     		ldr	r3, [r2, #4]
 2282 006c 03F48033 		and	r3, r3, #65536
 2283 0070 0362     		str	r3, [r0, #32]
1088:../Drivers/STM32F3xx_HAL_Driver/Src/stm32f3xx_hal_rcc.c ****   RCC_OscInitStruct->PLL.PLLMUL = (uint32_t)(RCC->CFGR & RCC_CFGR_PLLMUL);
 2284              		.loc 1 1088 0
 2285 0072 5368     		ldr	r3, [r2, #4]
 2286 0074 03F47013 		and	r3, r3, #3932160
 2287 0078 4362     		str	r3, [r0, #36]
1089:../Drivers/STM32F3xx_HAL_Driver/Src/stm32f3xx_hal_rcc.c **** #if defined(RCC_CFGR_PLLSRC_HSI_PREDIV)
1090:../Drivers/STM32F3xx_HAL_Driver/Src/stm32f3xx_hal_rcc.c ****   RCC_OscInitStruct->PLL.PREDIV = (uint32_t)(RCC->CFGR2 & RCC_CFGR2_PREDIV);
1091:../Drivers/STM32F3xx_HAL_Driver/Src/stm32f3xx_hal_rcc.c **** #endif /* RCC_CFGR_PLLSRC_HSI_PREDIV */
1092:../Drivers/STM32F3xx_HAL_Driver/Src/stm32f3xx_hal_rcc.c **** }
 2288              		.loc 1 1092 0
 2289 007a 7047     		bx	lr
 2290              	.L182:
1029:../Drivers/STM32F3xx_HAL_Driver/Src/stm32f3xx_hal_rcc.c ****   {
 2291              		.loc 1 1029 0
 2292 007c 0F4B     		ldr	r3, .L195
 2293 007e 1B68     		ldr	r3, [r3]
 2294 0080 13F4803F 		tst	r3, #65536
 2295 0084 03D0     		beq	.L184
1031:../Drivers/STM32F3xx_HAL_Driver/Src/stm32f3xx_hal_rcc.c ****   }
 2296              		.loc 1 1031 0
 2297 0086 4FF48033 		mov	r3, #65536
 2298 008a 4360     		str	r3, [r0, #4]
 2299 008c C2E7     		b	.L183
 2300              	.L184:
1035:../Drivers/STM32F3xx_HAL_Driver/Src/stm32f3xx_hal_rcc.c ****   }
 2301              		.loc 1 1035 0
 2302 008e 0023     		movs	r3, #0
 2303 0090 4360     		str	r3, [r0, #4]
 2304 0092 BFE7     		b	.L183
 2305              	.L185:
1048:../Drivers/STM32F3xx_HAL_Driver/Src/stm32f3xx_hal_rcc.c ****   }
 2306              		.loc 1 1048 0
 2307 0094 0023     		movs	r3, #0
 2308 0096 0361     		str	r3, [r0, #16]
 2309 0098 C7E7     		b	.L186
 2310              	.L187:
1058:../Drivers/STM32F3xx_HAL_Driver/Src/stm32f3xx_hal_rcc.c ****   {
 2311              		.loc 1 1058 0
 2312 009a 084B     		ldr	r3, .L195
 2313 009c 1B6A     		ldr	r3, [r3, #32]
 2314 009e 13F0010F 		tst	r3, #1
 2315 00a2 02D0     		beq	.L189
1060:../Drivers/STM32F3xx_HAL_Driver/Src/stm32f3xx_hal_rcc.c ****   }
 2316              		.loc 1 1060 0
 2317 00a4 0123     		movs	r3, #1
 2318 00a6 C360     		str	r3, [r0, #12]
 2319 00a8 D0E7     		b	.L188
 2320              	.L189:
1064:../Drivers/STM32F3xx_HAL_Driver/Src/stm32f3xx_hal_rcc.c ****   }
 2321              		.loc 1 1064 0
 2322 00aa 0023     		movs	r3, #0
 2323 00ac C360     		str	r3, [r0, #12]
ARM GAS  /var/folders/k_/r2bh2pj93_jff4n9gmtn9jvr0000gn/T//cc0u2Ioj.s 			page 72


 2324 00ae CDE7     		b	.L188
 2325              	.L190:
1074:../Drivers/STM32F3xx_HAL_Driver/Src/stm32f3xx_hal_rcc.c ****   }
 2326              		.loc 1 1074 0
 2327 00b0 0023     		movs	r3, #0
 2328 00b2 8361     		str	r3, [r0, #24]
 2329 00b4 D1E7     		b	.L191
 2330              	.L194:
1081:../Drivers/STM32F3xx_HAL_Driver/Src/stm32f3xx_hal_rcc.c ****   }
 2331              		.loc 1 1081 0
 2332 00b6 0223     		movs	r3, #2
 2333 00b8 C361     		str	r3, [r0, #28]
 2334 00ba D5E7     		b	.L193
 2335              	.L196:
 2336              		.align	2
 2337              	.L195:
 2338 00bc 00100240 		.word	1073876992
 2339              		.cfi_endproc
 2340              	.LFE136:
 2342              		.section	.text.HAL_RCC_GetClockConfig,"ax",%progbits
 2343              		.align	1
 2344              		.global	HAL_RCC_GetClockConfig
 2345              		.syntax unified
 2346              		.thumb
 2347              		.thumb_func
 2348              		.fpu fpv4-sp-d16
 2350              	HAL_RCC_GetClockConfig:
 2351              	.LFB137:
1093:../Drivers/STM32F3xx_HAL_Driver/Src/stm32f3xx_hal_rcc.c **** 
1094:../Drivers/STM32F3xx_HAL_Driver/Src/stm32f3xx_hal_rcc.c **** /**
1095:../Drivers/STM32F3xx_HAL_Driver/Src/stm32f3xx_hal_rcc.c ****   * @brief  Get the RCC_ClkInitStruct according to the internal 
1096:../Drivers/STM32F3xx_HAL_Driver/Src/stm32f3xx_hal_rcc.c ****   * RCC configuration registers.
1097:../Drivers/STM32F3xx_HAL_Driver/Src/stm32f3xx_hal_rcc.c ****   * @param  RCC_ClkInitStruct pointer to an RCC_ClkInitTypeDef structure that 
1098:../Drivers/STM32F3xx_HAL_Driver/Src/stm32f3xx_hal_rcc.c ****   * contains the current clock configuration.
1099:../Drivers/STM32F3xx_HAL_Driver/Src/stm32f3xx_hal_rcc.c ****   * @param  pFLatency Pointer on the Flash Latency.
1100:../Drivers/STM32F3xx_HAL_Driver/Src/stm32f3xx_hal_rcc.c ****   * @retval None
1101:../Drivers/STM32F3xx_HAL_Driver/Src/stm32f3xx_hal_rcc.c ****   */
1102:../Drivers/STM32F3xx_HAL_Driver/Src/stm32f3xx_hal_rcc.c **** void HAL_RCC_GetClockConfig(RCC_ClkInitTypeDef  *RCC_ClkInitStruct, uint32_t *pFLatency)
1103:../Drivers/STM32F3xx_HAL_Driver/Src/stm32f3xx_hal_rcc.c **** {
 2352              		.loc 1 1103 0
 2353              		.cfi_startproc
 2354              		@ args = 0, pretend = 0, frame = 0
 2355              		@ frame_needed = 0, uses_anonymous_args = 0
 2356              		@ link register save eliminated.
 2357              	.LVL194:
1104:../Drivers/STM32F3xx_HAL_Driver/Src/stm32f3xx_hal_rcc.c ****   /* Check the parameters */
1105:../Drivers/STM32F3xx_HAL_Driver/Src/stm32f3xx_hal_rcc.c ****   assert_param(RCC_ClkInitStruct != NULL);
1106:../Drivers/STM32F3xx_HAL_Driver/Src/stm32f3xx_hal_rcc.c ****   assert_param(pFLatency != NULL);
1107:../Drivers/STM32F3xx_HAL_Driver/Src/stm32f3xx_hal_rcc.c **** 
1108:../Drivers/STM32F3xx_HAL_Driver/Src/stm32f3xx_hal_rcc.c ****   /* Set all possible values for the Clock type parameter --------------------*/
1109:../Drivers/STM32F3xx_HAL_Driver/Src/stm32f3xx_hal_rcc.c ****   RCC_ClkInitStruct->ClockType = RCC_CLOCKTYPE_SYSCLK | RCC_CLOCKTYPE_HCLK | RCC_CLOCKTYPE_PCLK1 | 
 2358              		.loc 1 1109 0
 2359 0000 0F23     		movs	r3, #15
 2360 0002 0360     		str	r3, [r0]
1110:../Drivers/STM32F3xx_HAL_Driver/Src/stm32f3xx_hal_rcc.c ****   
1111:../Drivers/STM32F3xx_HAL_Driver/Src/stm32f3xx_hal_rcc.c ****   /* Get the SYSCLK configuration --------------------------------------------*/ 
1112:../Drivers/STM32F3xx_HAL_Driver/Src/stm32f3xx_hal_rcc.c ****   RCC_ClkInitStruct->SYSCLKSource = (uint32_t)(RCC->CFGR & RCC_CFGR_SW);
ARM GAS  /var/folders/k_/r2bh2pj93_jff4n9gmtn9jvr0000gn/T//cc0u2Ioj.s 			page 73


 2361              		.loc 1 1112 0
 2362 0004 0B4B     		ldr	r3, .L198
 2363 0006 5A68     		ldr	r2, [r3, #4]
 2364 0008 02F00302 		and	r2, r2, #3
 2365 000c 4260     		str	r2, [r0, #4]
1113:../Drivers/STM32F3xx_HAL_Driver/Src/stm32f3xx_hal_rcc.c ****   
1114:../Drivers/STM32F3xx_HAL_Driver/Src/stm32f3xx_hal_rcc.c ****   /* Get the HCLK configuration ----------------------------------------------*/ 
1115:../Drivers/STM32F3xx_HAL_Driver/Src/stm32f3xx_hal_rcc.c ****   RCC_ClkInitStruct->AHBCLKDivider = (uint32_t)(RCC->CFGR & RCC_CFGR_HPRE); 
 2366              		.loc 1 1115 0
 2367 000e 5A68     		ldr	r2, [r3, #4]
 2368 0010 02F0F002 		and	r2, r2, #240
 2369 0014 8260     		str	r2, [r0, #8]
1116:../Drivers/STM32F3xx_HAL_Driver/Src/stm32f3xx_hal_rcc.c ****   
1117:../Drivers/STM32F3xx_HAL_Driver/Src/stm32f3xx_hal_rcc.c ****   /* Get the APB1 configuration ----------------------------------------------*/ 
1118:../Drivers/STM32F3xx_HAL_Driver/Src/stm32f3xx_hal_rcc.c ****   RCC_ClkInitStruct->APB1CLKDivider = (uint32_t)(RCC->CFGR & RCC_CFGR_PPRE1);   
 2370              		.loc 1 1118 0
 2371 0016 5A68     		ldr	r2, [r3, #4]
 2372 0018 02F4E062 		and	r2, r2, #1792
 2373 001c C260     		str	r2, [r0, #12]
1119:../Drivers/STM32F3xx_HAL_Driver/Src/stm32f3xx_hal_rcc.c ****   
1120:../Drivers/STM32F3xx_HAL_Driver/Src/stm32f3xx_hal_rcc.c ****   /* Get the APB2 configuration ----------------------------------------------*/ 
1121:../Drivers/STM32F3xx_HAL_Driver/Src/stm32f3xx_hal_rcc.c ****   RCC_ClkInitStruct->APB2CLKDivider = (uint32_t)((RCC->CFGR & RCC_CFGR_PPRE2) >> 3U);
 2374              		.loc 1 1121 0
 2375 001e 5B68     		ldr	r3, [r3, #4]
 2376 0020 DB08     		lsrs	r3, r3, #3
 2377 0022 03F4E063 		and	r3, r3, #1792
 2378 0026 0361     		str	r3, [r0, #16]
1122:../Drivers/STM32F3xx_HAL_Driver/Src/stm32f3xx_hal_rcc.c ****   
1123:../Drivers/STM32F3xx_HAL_Driver/Src/stm32f3xx_hal_rcc.c ****   /* Get the Flash Wait State (Latency) configuration ------------------------*/   
1124:../Drivers/STM32F3xx_HAL_Driver/Src/stm32f3xx_hal_rcc.c ****   *pFLatency = (uint32_t)(FLASH->ACR & FLASH_ACR_LATENCY); 
 2379              		.loc 1 1124 0
 2380 0028 034B     		ldr	r3, .L198+4
 2381 002a 1B68     		ldr	r3, [r3]
 2382 002c 03F00703 		and	r3, r3, #7
 2383 0030 0B60     		str	r3, [r1]
1125:../Drivers/STM32F3xx_HAL_Driver/Src/stm32f3xx_hal_rcc.c **** }
 2384              		.loc 1 1125 0
 2385 0032 7047     		bx	lr
 2386              	.L199:
 2387              		.align	2
 2388              	.L198:
 2389 0034 00100240 		.word	1073876992
 2390 0038 00200240 		.word	1073881088
 2391              		.cfi_endproc
 2392              	.LFE137:
 2394              		.section	.text.HAL_RCC_CSSCallback,"ax",%progbits
 2395              		.align	1
 2396              		.weak	HAL_RCC_CSSCallback
 2397              		.syntax unified
 2398              		.thumb
 2399              		.thumb_func
 2400              		.fpu fpv4-sp-d16
 2402              	HAL_RCC_CSSCallback:
 2403              	.LFB139:
1126:../Drivers/STM32F3xx_HAL_Driver/Src/stm32f3xx_hal_rcc.c **** 
1127:../Drivers/STM32F3xx_HAL_Driver/Src/stm32f3xx_hal_rcc.c **** /**
1128:../Drivers/STM32F3xx_HAL_Driver/Src/stm32f3xx_hal_rcc.c ****   * @brief This function handles the RCC CSS interrupt request.
ARM GAS  /var/folders/k_/r2bh2pj93_jff4n9gmtn9jvr0000gn/T//cc0u2Ioj.s 			page 74


1129:../Drivers/STM32F3xx_HAL_Driver/Src/stm32f3xx_hal_rcc.c ****   * @note This API should be called under the NMI_Handler().
1130:../Drivers/STM32F3xx_HAL_Driver/Src/stm32f3xx_hal_rcc.c ****   * @retval None
1131:../Drivers/STM32F3xx_HAL_Driver/Src/stm32f3xx_hal_rcc.c ****   */
1132:../Drivers/STM32F3xx_HAL_Driver/Src/stm32f3xx_hal_rcc.c **** void HAL_RCC_NMI_IRQHandler(void)
1133:../Drivers/STM32F3xx_HAL_Driver/Src/stm32f3xx_hal_rcc.c **** {
1134:../Drivers/STM32F3xx_HAL_Driver/Src/stm32f3xx_hal_rcc.c ****   /* Check RCC CSSF flag  */
1135:../Drivers/STM32F3xx_HAL_Driver/Src/stm32f3xx_hal_rcc.c ****   if(__HAL_RCC_GET_IT(RCC_IT_CSS))
1136:../Drivers/STM32F3xx_HAL_Driver/Src/stm32f3xx_hal_rcc.c ****   {
1137:../Drivers/STM32F3xx_HAL_Driver/Src/stm32f3xx_hal_rcc.c ****     /* RCC Clock Security System interrupt user callback */
1138:../Drivers/STM32F3xx_HAL_Driver/Src/stm32f3xx_hal_rcc.c ****     HAL_RCC_CSSCallback();
1139:../Drivers/STM32F3xx_HAL_Driver/Src/stm32f3xx_hal_rcc.c ****     
1140:../Drivers/STM32F3xx_HAL_Driver/Src/stm32f3xx_hal_rcc.c ****     /* Clear RCC CSS pending bit */
1141:../Drivers/STM32F3xx_HAL_Driver/Src/stm32f3xx_hal_rcc.c ****     __HAL_RCC_CLEAR_IT(RCC_IT_CSS);
1142:../Drivers/STM32F3xx_HAL_Driver/Src/stm32f3xx_hal_rcc.c ****   }
1143:../Drivers/STM32F3xx_HAL_Driver/Src/stm32f3xx_hal_rcc.c **** }
1144:../Drivers/STM32F3xx_HAL_Driver/Src/stm32f3xx_hal_rcc.c **** 
1145:../Drivers/STM32F3xx_HAL_Driver/Src/stm32f3xx_hal_rcc.c **** /**
1146:../Drivers/STM32F3xx_HAL_Driver/Src/stm32f3xx_hal_rcc.c ****   * @brief  RCC Clock Security System interrupt callback
1147:../Drivers/STM32F3xx_HAL_Driver/Src/stm32f3xx_hal_rcc.c ****   * @retval none
1148:../Drivers/STM32F3xx_HAL_Driver/Src/stm32f3xx_hal_rcc.c ****   */
1149:../Drivers/STM32F3xx_HAL_Driver/Src/stm32f3xx_hal_rcc.c **** __weak void HAL_RCC_CSSCallback(void)
1150:../Drivers/STM32F3xx_HAL_Driver/Src/stm32f3xx_hal_rcc.c **** {
 2404              		.loc 1 1150 0
 2405              		.cfi_startproc
 2406              		@ args = 0, pretend = 0, frame = 0
 2407              		@ frame_needed = 0, uses_anonymous_args = 0
 2408              		@ link register save eliminated.
1151:../Drivers/STM32F3xx_HAL_Driver/Src/stm32f3xx_hal_rcc.c ****   /* NOTE : This function Should not be modified, when the callback is needed,
1152:../Drivers/STM32F3xx_HAL_Driver/Src/stm32f3xx_hal_rcc.c ****     the HAL_RCC_CSSCallback could be implemented in the user file
1153:../Drivers/STM32F3xx_HAL_Driver/Src/stm32f3xx_hal_rcc.c ****     */ 
1154:../Drivers/STM32F3xx_HAL_Driver/Src/stm32f3xx_hal_rcc.c **** }
 2409              		.loc 1 1154 0
 2410 0000 7047     		bx	lr
 2411              		.cfi_endproc
 2412              	.LFE139:
 2414              		.section	.text.HAL_RCC_NMI_IRQHandler,"ax",%progbits
 2415              		.align	1
 2416              		.global	HAL_RCC_NMI_IRQHandler
 2417              		.syntax unified
 2418              		.thumb
 2419              		.thumb_func
 2420              		.fpu fpv4-sp-d16
 2422              	HAL_RCC_NMI_IRQHandler:
 2423              	.LFB138:
1133:../Drivers/STM32F3xx_HAL_Driver/Src/stm32f3xx_hal_rcc.c ****   /* Check RCC CSSF flag  */
 2424              		.loc 1 1133 0
 2425              		.cfi_startproc
 2426              		@ args = 0, pretend = 0, frame = 0
 2427              		@ frame_needed = 0, uses_anonymous_args = 0
 2428 0000 08B5     		push	{r3, lr}
 2429              	.LCFI10:
 2430              		.cfi_def_cfa_offset 8
 2431              		.cfi_offset 3, -8
 2432              		.cfi_offset 14, -4
1135:../Drivers/STM32F3xx_HAL_Driver/Src/stm32f3xx_hal_rcc.c ****   {
 2433              		.loc 1 1135 0
 2434 0002 064B     		ldr	r3, .L205
ARM GAS  /var/folders/k_/r2bh2pj93_jff4n9gmtn9jvr0000gn/T//cc0u2Ioj.s 			page 75


 2435 0004 9B68     		ldr	r3, [r3, #8]
 2436 0006 13F0800F 		tst	r3, #128
 2437 000a 00D1     		bne	.L204
 2438              	.L201:
1143:../Drivers/STM32F3xx_HAL_Driver/Src/stm32f3xx_hal_rcc.c **** 
 2439              		.loc 1 1143 0
 2440 000c 08BD     		pop	{r3, pc}
 2441              	.L204:
1138:../Drivers/STM32F3xx_HAL_Driver/Src/stm32f3xx_hal_rcc.c ****     
 2442              		.loc 1 1138 0
 2443 000e FFF7FEFF 		bl	HAL_RCC_CSSCallback
 2444              	.LVL195:
1141:../Drivers/STM32F3xx_HAL_Driver/Src/stm32f3xx_hal_rcc.c ****   }
 2445              		.loc 1 1141 0
 2446 0012 034B     		ldr	r3, .L205+4
 2447 0014 8022     		movs	r2, #128
 2448 0016 1A70     		strb	r2, [r3]
1143:../Drivers/STM32F3xx_HAL_Driver/Src/stm32f3xx_hal_rcc.c **** 
 2449              		.loc 1 1143 0
 2450 0018 F8E7     		b	.L201
 2451              	.L206:
 2452 001a 00BF     		.align	2
 2453              	.L205:
 2454 001c 00100240 		.word	1073876992
 2455 0020 0A100240 		.word	1073877002
 2456              		.cfi_endproc
 2457              	.LFE138:
 2459              		.global	aPredivFactorTable
 2460              		.global	aPLLMULFactorTable
 2461              		.section	.rodata.aPLLMULFactorTable,"a",%progbits
 2462              		.align	2
 2463              		.set	.LANCHOR0,. + 0
 2466              	aPLLMULFactorTable:
 2467 0000 02       		.byte	2
 2468 0001 03       		.byte	3
 2469 0002 04       		.byte	4
 2470 0003 05       		.byte	5
 2471 0004 06       		.byte	6
 2472 0005 07       		.byte	7
 2473 0006 08       		.byte	8
 2474 0007 09       		.byte	9
 2475 0008 0A       		.byte	10
 2476 0009 0B       		.byte	11
 2477 000a 0C       		.byte	12
 2478 000b 0D       		.byte	13
 2479 000c 0E       		.byte	14
 2480 000d 0F       		.byte	15
 2481 000e 10       		.byte	16
 2482 000f 10       		.byte	16
 2483              		.section	.rodata.aPredivFactorTable,"a",%progbits
 2484              		.align	2
 2485              		.set	.LANCHOR1,. + 0
 2488              	aPredivFactorTable:
 2489 0000 01       		.byte	1
 2490 0001 02       		.byte	2
 2491 0002 03       		.byte	3
 2492 0003 04       		.byte	4
ARM GAS  /var/folders/k_/r2bh2pj93_jff4n9gmtn9jvr0000gn/T//cc0u2Ioj.s 			page 76


 2493 0004 05       		.byte	5
 2494 0005 06       		.byte	6
 2495 0006 07       		.byte	7
 2496 0007 08       		.byte	8
 2497 0008 09       		.byte	9
 2498 0009 0A       		.byte	10
 2499 000a 0B       		.byte	11
 2500 000b 0C       		.byte	12
 2501 000c 0D       		.byte	13
 2502 000d 0E       		.byte	14
 2503 000e 0F       		.byte	15
 2504 000f 10       		.byte	16
 2505              		.text
 2506              	.Letext0:
 2507              		.file 3 "/usr/local/Cellar/arm-none-eabi-gcc/7-2018-q2-update/gcc/arm-none-eabi/include/machine/_d
 2508              		.file 4 "/usr/local/Cellar/arm-none-eabi-gcc/7-2018-q2-update/gcc/arm-none-eabi/include/sys/_stdin
 2509              		.file 5 "../Drivers/CMSIS/Include/core_cm4.h"
 2510              		.file 6 "../Drivers/CMSIS/Device/ST/STM32F3xx/Include/system_stm32f3xx.h"
 2511              		.file 7 "../Drivers/CMSIS/Device/ST/STM32F3xx/Include/stm32f373xc.h"
 2512              		.file 8 "../Drivers/CMSIS/Device/ST/STM32F3xx/Include/stm32f3xx.h"
 2513              		.file 9 "/usr/local/Cellar/arm-none-eabi-gcc/7-2018-q2-update/gcc/arm-none-eabi/include/sys/lock.h
 2514              		.file 10 "/usr/local/Cellar/arm-none-eabi-gcc/7-2018-q2-update/gcc/arm-none-eabi/include/sys/_type
 2515              		.file 11 "/usr/local/Cellar/arm-none-eabi-gcc/7-2018-q2-update/gcc/lib/gcc/arm-none-eabi/7.3.1/inc
 2516              		.file 12 "/usr/local/Cellar/arm-none-eabi-gcc/7-2018-q2-update/gcc/arm-none-eabi/include/sys/reent
 2517              		.file 13 "../Drivers/STM32F3xx_HAL_Driver/Inc/stm32f3xx_hal_def.h"
 2518              		.file 14 "../Drivers/STM32F3xx_HAL_Driver/Inc/stm32f3xx_hal_rcc.h"
 2519              		.file 15 "../Drivers/STM32F3xx_HAL_Driver/Inc/stm32f3xx_hal_gpio.h"
 2520              		.file 16 "../Drivers/STM32F3xx_HAL_Driver/Inc/stm32f3xx_hal.h"
ARM GAS  /var/folders/k_/r2bh2pj93_jff4n9gmtn9jvr0000gn/T//cc0u2Ioj.s 			page 77


DEFINED SYMBOLS
                            *ABS*:0000000000000000 stm32f3xx_hal_rcc.c
/var/folders/k_/r2bh2pj93_jff4n9gmtn9jvr0000gn/T//cc0u2Ioj.s:18     .text.HAL_RCC_DeInit:0000000000000000 $t
/var/folders/k_/r2bh2pj93_jff4n9gmtn9jvr0000gn/T//cc0u2Ioj.s:25     .text.HAL_RCC_DeInit:0000000000000000 HAL_RCC_DeInit
/var/folders/k_/r2bh2pj93_jff4n9gmtn9jvr0000gn/T//cc0u2Ioj.s:70     .text.HAL_RCC_DeInit:0000000000000038 $d
/var/folders/k_/r2bh2pj93_jff4n9gmtn9jvr0000gn/T//cc0u2Ioj.s:78     .text.HAL_RCC_OscConfig:0000000000000000 $t
/var/folders/k_/r2bh2pj93_jff4n9gmtn9jvr0000gn/T//cc0u2Ioj.s:85     .text.HAL_RCC_OscConfig:0000000000000000 HAL_RCC_OscConfig
/var/folders/k_/r2bh2pj93_jff4n9gmtn9jvr0000gn/T//cc0u2Ioj.s:714    .text.HAL_RCC_OscConfig:00000000000002e8 $d
/var/folders/k_/r2bh2pj93_jff4n9gmtn9jvr0000gn/T//cc0u2Ioj.s:721    .text.HAL_RCC_OscConfig:00000000000002f0 $t
/var/folders/k_/r2bh2pj93_jff4n9gmtn9jvr0000gn/T//cc0u2Ioj.s:1413   .text.HAL_RCC_OscConfig:0000000000000600 $d
/var/folders/k_/r2bh2pj93_jff4n9gmtn9jvr0000gn/T//cc0u2Ioj.s:1421   .text.HAL_RCC_OscConfig:000000000000060c $t
/var/folders/k_/r2bh2pj93_jff4n9gmtn9jvr0000gn/T//cc0u2Ioj.s:1427   .text.HAL_RCC_MCOConfig:0000000000000000 $t
/var/folders/k_/r2bh2pj93_jff4n9gmtn9jvr0000gn/T//cc0u2Ioj.s:1434   .text.HAL_RCC_MCOConfig:0000000000000000 HAL_RCC_MCOConfig
/var/folders/k_/r2bh2pj93_jff4n9gmtn9jvr0000gn/T//cc0u2Ioj.s:1497   .text.HAL_RCC_MCOConfig:0000000000000048 $d
/var/folders/k_/r2bh2pj93_jff4n9gmtn9jvr0000gn/T//cc0u2Ioj.s:1502   .text.HAL_RCC_EnableCSS:0000000000000000 $t
/var/folders/k_/r2bh2pj93_jff4n9gmtn9jvr0000gn/T//cc0u2Ioj.s:1509   .text.HAL_RCC_EnableCSS:0000000000000000 HAL_RCC_EnableCSS
/var/folders/k_/r2bh2pj93_jff4n9gmtn9jvr0000gn/T//cc0u2Ioj.s:1543   .text.HAL_RCC_DisableCSS:0000000000000000 $t
/var/folders/k_/r2bh2pj93_jff4n9gmtn9jvr0000gn/T//cc0u2Ioj.s:1550   .text.HAL_RCC_DisableCSS:0000000000000000 HAL_RCC_DisableCSS
/var/folders/k_/r2bh2pj93_jff4n9gmtn9jvr0000gn/T//cc0u2Ioj.s:1584   .text.HAL_RCC_GetSysClockFreq:0000000000000000 $t
/var/folders/k_/r2bh2pj93_jff4n9gmtn9jvr0000gn/T//cc0u2Ioj.s:1591   .text.HAL_RCC_GetSysClockFreq:0000000000000000 HAL_RCC_GetSysClockFreq
/var/folders/k_/r2bh2pj93_jff4n9gmtn9jvr0000gn/T//cc0u2Ioj.s:1679   .text.HAL_RCC_GetSysClockFreq:000000000000005c $d
/var/folders/k_/r2bh2pj93_jff4n9gmtn9jvr0000gn/T//cc0u2Ioj.s:1688   .text.HAL_RCC_ClockConfig:0000000000000000 $t
/var/folders/k_/r2bh2pj93_jff4n9gmtn9jvr0000gn/T//cc0u2Ioj.s:1695   .text.HAL_RCC_ClockConfig:0000000000000000 HAL_RCC_ClockConfig
/var/folders/k_/r2bh2pj93_jff4n9gmtn9jvr0000gn/T//cc0u2Ioj.s:2047   .text.HAL_RCC_ClockConfig:00000000000001c4 $d
/var/folders/k_/r2bh2pj93_jff4n9gmtn9jvr0000gn/T//cc0u2Ioj.s:2055   .text.HAL_RCC_GetHCLKFreq:0000000000000000 $t
/var/folders/k_/r2bh2pj93_jff4n9gmtn9jvr0000gn/T//cc0u2Ioj.s:2062   .text.HAL_RCC_GetHCLKFreq:0000000000000000 HAL_RCC_GetHCLKFreq
/var/folders/k_/r2bh2pj93_jff4n9gmtn9jvr0000gn/T//cc0u2Ioj.s:2076   .text.HAL_RCC_GetHCLKFreq:0000000000000008 $d
/var/folders/k_/r2bh2pj93_jff4n9gmtn9jvr0000gn/T//cc0u2Ioj.s:2081   .text.HAL_RCC_GetPCLK1Freq:0000000000000000 $t
/var/folders/k_/r2bh2pj93_jff4n9gmtn9jvr0000gn/T//cc0u2Ioj.s:2088   .text.HAL_RCC_GetPCLK1Freq:0000000000000000 HAL_RCC_GetPCLK1Freq
/var/folders/k_/r2bh2pj93_jff4n9gmtn9jvr0000gn/T//cc0u2Ioj.s:2130   .text.HAL_RCC_GetPCLK1Freq:0000000000000024 $d
/var/folders/k_/r2bh2pj93_jff4n9gmtn9jvr0000gn/T//cc0u2Ioj.s:2136   .text.HAL_RCC_GetPCLK2Freq:0000000000000000 $t
/var/folders/k_/r2bh2pj93_jff4n9gmtn9jvr0000gn/T//cc0u2Ioj.s:2143   .text.HAL_RCC_GetPCLK2Freq:0000000000000000 HAL_RCC_GetPCLK2Freq
/var/folders/k_/r2bh2pj93_jff4n9gmtn9jvr0000gn/T//cc0u2Ioj.s:2185   .text.HAL_RCC_GetPCLK2Freq:0000000000000024 $d
/var/folders/k_/r2bh2pj93_jff4n9gmtn9jvr0000gn/T//cc0u2Ioj.s:2191   .text.HAL_RCC_GetOscConfig:0000000000000000 $t
/var/folders/k_/r2bh2pj93_jff4n9gmtn9jvr0000gn/T//cc0u2Ioj.s:2198   .text.HAL_RCC_GetOscConfig:0000000000000000 HAL_RCC_GetOscConfig
/var/folders/k_/r2bh2pj93_jff4n9gmtn9jvr0000gn/T//cc0u2Ioj.s:2338   .text.HAL_RCC_GetOscConfig:00000000000000bc $d
/var/folders/k_/r2bh2pj93_jff4n9gmtn9jvr0000gn/T//cc0u2Ioj.s:2343   .text.HAL_RCC_GetClockConfig:0000000000000000 $t
/var/folders/k_/r2bh2pj93_jff4n9gmtn9jvr0000gn/T//cc0u2Ioj.s:2350   .text.HAL_RCC_GetClockConfig:0000000000000000 HAL_RCC_GetClockConfig
/var/folders/k_/r2bh2pj93_jff4n9gmtn9jvr0000gn/T//cc0u2Ioj.s:2389   .text.HAL_RCC_GetClockConfig:0000000000000034 $d
/var/folders/k_/r2bh2pj93_jff4n9gmtn9jvr0000gn/T//cc0u2Ioj.s:2395   .text.HAL_RCC_CSSCallback:0000000000000000 $t
/var/folders/k_/r2bh2pj93_jff4n9gmtn9jvr0000gn/T//cc0u2Ioj.s:2402   .text.HAL_RCC_CSSCallback:0000000000000000 HAL_RCC_CSSCallback
/var/folders/k_/r2bh2pj93_jff4n9gmtn9jvr0000gn/T//cc0u2Ioj.s:2415   .text.HAL_RCC_NMI_IRQHandler:0000000000000000 $t
/var/folders/k_/r2bh2pj93_jff4n9gmtn9jvr0000gn/T//cc0u2Ioj.s:2422   .text.HAL_RCC_NMI_IRQHandler:0000000000000000 HAL_RCC_NMI_IRQHandler
/var/folders/k_/r2bh2pj93_jff4n9gmtn9jvr0000gn/T//cc0u2Ioj.s:2454   .text.HAL_RCC_NMI_IRQHandler:000000000000001c $d
/var/folders/k_/r2bh2pj93_jff4n9gmtn9jvr0000gn/T//cc0u2Ioj.s:2488   .rodata.aPredivFactorTable:0000000000000000 aPredivFactorTable
/var/folders/k_/r2bh2pj93_jff4n9gmtn9jvr0000gn/T//cc0u2Ioj.s:2466   .rodata.aPLLMULFactorTable:0000000000000000 aPLLMULFactorTable
/var/folders/k_/r2bh2pj93_jff4n9gmtn9jvr0000gn/T//cc0u2Ioj.s:2462   .rodata.aPLLMULFactorTable:0000000000000000 $d
/var/folders/k_/r2bh2pj93_jff4n9gmtn9jvr0000gn/T//cc0u2Ioj.s:2484   .rodata.aPredivFactorTable:0000000000000000 $d

UNDEFINED SYMBOLS
SystemCoreClock
HAL_GetTick
HAL_GPIO_Init
HAL_InitTick
AHBPrescTable
APBPrescTable
