ARM GAS  /var/folders/k_/r2bh2pj93_jff4n9gmtn9jvr0000gn/T//cczaBqE3.s 			page 1


   1              		.cpu cortex-m4
   2              		.eabi_attribute 27, 1
   3              		.eabi_attribute 28, 1
   4              		.eabi_attribute 20, 1
   5              		.eabi_attribute 21, 1
   6              		.eabi_attribute 23, 3
   7              		.eabi_attribute 24, 1
   8              		.eabi_attribute 25, 1
   9              		.eabi_attribute 26, 1
  10              		.eabi_attribute 30, 1
  11              		.eabi_attribute 34, 1
  12              		.eabi_attribute 18, 4
  13              		.file	"stm32f3xx_it.c"
  14              		.text
  15              	.Ltext0:
  16              		.cfi_sections	.debug_frame
  17              		.section	.text.NMI_Handler,"ax",%progbits
  18              		.align	1
  19              		.global	NMI_Handler
  20              		.syntax unified
  21              		.thumb
  22              		.thumb_func
  23              		.fpu fpv4-sp-d16
  25              	NMI_Handler:
  26              	.LFB126:
  27              		.file 1 "stm32f3xx_it.c"
   1:stm32f3xx_it.c **** /* USER CODE BEGIN Header */
   2:stm32f3xx_it.c **** /**
   3:stm32f3xx_it.c ****   ******************************************************************************
   4:stm32f3xx_it.c ****   * @file    stm32f3xx_it.c
   5:stm32f3xx_it.c ****   * @brief   Interrupt Service Routines.
   6:stm32f3xx_it.c ****   ******************************************************************************
   7:stm32f3xx_it.c ****   *
   8:stm32f3xx_it.c ****   * COPYRIGHT(c) 2020 STMicroelectronics
   9:stm32f3xx_it.c ****   *
  10:stm32f3xx_it.c ****   * Redistribution and use in source and binary forms, with or without modification,
  11:stm32f3xx_it.c ****   * are permitted provided that the following conditions are met:
  12:stm32f3xx_it.c ****   *   1. Redistributions of source code must retain the above copyright notice,
  13:stm32f3xx_it.c ****   *      this list of conditions and the following disclaimer.
  14:stm32f3xx_it.c ****   *   2. Redistributions in binary form must reproduce the above copyright notice,
  15:stm32f3xx_it.c ****   *      this list of conditions and the following disclaimer in the documentation
  16:stm32f3xx_it.c ****   *      and/or other materials provided with the distribution.
  17:stm32f3xx_it.c ****   *   3. Neither the name of STMicroelectronics nor the names of its contributors
  18:stm32f3xx_it.c ****   *      may be used to endorse or promote products derived from this software
  19:stm32f3xx_it.c ****   *      without specific prior written permission.
  20:stm32f3xx_it.c ****   *
  21:stm32f3xx_it.c ****   * THIS SOFTWARE IS PROVIDED BY THE COPYRIGHT HOLDERS AND CONTRIBUTORS "AS IS"
  22:stm32f3xx_it.c ****   * AND ANY EXPRESS OR IMPLIED WARRANTIES, INCLUDING, BUT NOT LIMITED TO, THE
  23:stm32f3xx_it.c ****   * IMPLIED WARRANTIES OF MERCHANTABILITY AND FITNESS FOR A PARTICULAR PURPOSE ARE
  24:stm32f3xx_it.c ****   * DISCLAIMED. IN NO EVENT SHALL THE COPYRIGHT HOLDER OR CONTRIBUTORS BE LIABLE
  25:stm32f3xx_it.c ****   * FOR ANY DIRECT, INDIRECT, INCIDENTAL, SPECIAL, EXEMPLARY, OR CONSEQUENTIAL
  26:stm32f3xx_it.c ****   * DAMAGES (INCLUDING, BUT NOT LIMITED TO, PROCUREMENT OF SUBSTITUTE GOODS OR
  27:stm32f3xx_it.c ****   * SERVICES; LOSS OF USE, DATA, OR PROFITS; OR BUSINESS INTERRUPTION) HOWEVER
  28:stm32f3xx_it.c ****   * CAUSED AND ON ANY THEORY OF LIABILITY, WHETHER IN CONTRACT, STRICT LIABILITY,
  29:stm32f3xx_it.c ****   * OR TORT (INCLUDING NEGLIGENCE OR OTHERWISE) ARISING IN ANY WAY OUT OF THE USE
  30:stm32f3xx_it.c ****   * OF THIS SOFTWARE, EVEN IF ADVISED OF THE POSSIBILITY OF SUCH DAMAGE.
  31:stm32f3xx_it.c ****   *
ARM GAS  /var/folders/k_/r2bh2pj93_jff4n9gmtn9jvr0000gn/T//cczaBqE3.s 			page 2


  32:stm32f3xx_it.c ****   ******************************************************************************
  33:stm32f3xx_it.c ****   */
  34:stm32f3xx_it.c **** /* USER CODE END Header */
  35:stm32f3xx_it.c **** 
  36:stm32f3xx_it.c **** /* Includes ------------------------------------------------------------------*/
  37:stm32f3xx_it.c **** #include "main.h"
  38:stm32f3xx_it.c **** #include "stm32f3xx_it.h"
  39:stm32f3xx_it.c **** /* Private includes ----------------------------------------------------------*/
  40:stm32f3xx_it.c **** /* USER CODE BEGIN Includes */
  41:stm32f3xx_it.c **** /* USER CODE END Includes */
  42:stm32f3xx_it.c **** 
  43:stm32f3xx_it.c **** /* Private typedef -----------------------------------------------------------*/
  44:stm32f3xx_it.c **** /* USER CODE BEGIN TD */
  45:stm32f3xx_it.c **** 
  46:stm32f3xx_it.c **** /* USER CODE END TD */
  47:stm32f3xx_it.c **** 
  48:stm32f3xx_it.c **** /* Private define ------------------------------------------------------------*/
  49:stm32f3xx_it.c **** /* USER CODE BEGIN PD */
  50:stm32f3xx_it.c ****  
  51:stm32f3xx_it.c **** /* USER CODE END PD */
  52:stm32f3xx_it.c **** 
  53:stm32f3xx_it.c **** /* Private macro -------------------------------------------------------------*/
  54:stm32f3xx_it.c **** /* USER CODE BEGIN PM */
  55:stm32f3xx_it.c **** 
  56:stm32f3xx_it.c **** /* USER CODE END PM */
  57:stm32f3xx_it.c **** 
  58:stm32f3xx_it.c **** /* Private variables ---------------------------------------------------------*/
  59:stm32f3xx_it.c **** /* USER CODE BEGIN PV */
  60:stm32f3xx_it.c **** 
  61:stm32f3xx_it.c **** /* USER CODE END PV */
  62:stm32f3xx_it.c **** 
  63:stm32f3xx_it.c **** /* Private function prototypes -----------------------------------------------*/
  64:stm32f3xx_it.c **** /* USER CODE BEGIN PFP */
  65:stm32f3xx_it.c **** 
  66:stm32f3xx_it.c **** /* USER CODE END PFP */
  67:stm32f3xx_it.c **** 
  68:stm32f3xx_it.c **** /* Private user code ---------------------------------------------------------*/
  69:stm32f3xx_it.c **** /* USER CODE BEGIN 0 */
  70:stm32f3xx_it.c **** 
  71:stm32f3xx_it.c **** /* USER CODE END 0 */
  72:stm32f3xx_it.c **** 
  73:stm32f3xx_it.c **** /* External variables --------------------------------------------------------*/
  74:stm32f3xx_it.c **** extern PCD_HandleTypeDef hpcd_USB_FS;
  75:stm32f3xx_it.c **** extern DMA_HandleTypeDef hdma_spi2_tx;
  76:stm32f3xx_it.c **** extern TIM_HandleTypeDef htim6;
  77:stm32f3xx_it.c **** /* USER CODE BEGIN EV */
  78:stm32f3xx_it.c **** 
  79:stm32f3xx_it.c **** /* USER CODE END EV */
  80:stm32f3xx_it.c **** 
  81:stm32f3xx_it.c **** /******************************************************************************/
  82:stm32f3xx_it.c **** /*           Cortex-M4 Processor Interruption and Exception Handlers          */ 
  83:stm32f3xx_it.c **** /******************************************************************************/
  84:stm32f3xx_it.c **** /**
  85:stm32f3xx_it.c ****   * @brief This function handles Non maskable interrupt.
  86:stm32f3xx_it.c ****   */
  87:stm32f3xx_it.c **** void NMI_Handler(void)
  88:stm32f3xx_it.c **** {
ARM GAS  /var/folders/k_/r2bh2pj93_jff4n9gmtn9jvr0000gn/T//cczaBqE3.s 			page 3


  28              		.loc 1 88 0
  29              		.cfi_startproc
  30              		@ args = 0, pretend = 0, frame = 0
  31              		@ frame_needed = 0, uses_anonymous_args = 0
  32              		@ link register save eliminated.
  89:stm32f3xx_it.c ****   /* USER CODE BEGIN NonMaskableInt_IRQn 0 */
  90:stm32f3xx_it.c **** 
  91:stm32f3xx_it.c ****   /* USER CODE END NonMaskableInt_IRQn 0 */
  92:stm32f3xx_it.c ****   /* USER CODE BEGIN NonMaskableInt_IRQn 1 */
  93:stm32f3xx_it.c **** 
  94:stm32f3xx_it.c ****   /* USER CODE END NonMaskableInt_IRQn 1 */
  95:stm32f3xx_it.c **** }
  33              		.loc 1 95 0
  34 0000 7047     		bx	lr
  35              		.cfi_endproc
  36              	.LFE126:
  38              		.section	.text.HardFault_Handler,"ax",%progbits
  39              		.align	1
  40              		.global	HardFault_Handler
  41              		.syntax unified
  42              		.thumb
  43              		.thumb_func
  44              		.fpu fpv4-sp-d16
  46              	HardFault_Handler:
  47              	.LFB127:
  96:stm32f3xx_it.c **** 
  97:stm32f3xx_it.c **** /**
  98:stm32f3xx_it.c ****   * @brief This function handles Hard fault interrupt.
  99:stm32f3xx_it.c ****   */
 100:stm32f3xx_it.c **** void HardFault_Handler(void)
 101:stm32f3xx_it.c **** {
  48              		.loc 1 101 0
  49              		.cfi_startproc
  50              		@ Volatile: function does not return.
  51              		@ args = 0, pretend = 0, frame = 0
  52              		@ frame_needed = 0, uses_anonymous_args = 0
  53              		@ link register save eliminated.
  54              	.L3:
  55 0000 FEE7     		b	.L3
  56              		.cfi_endproc
  57              	.LFE127:
  59              		.section	.text.MemManage_Handler,"ax",%progbits
  60              		.align	1
  61              		.global	MemManage_Handler
  62              		.syntax unified
  63              		.thumb
  64              		.thumb_func
  65              		.fpu fpv4-sp-d16
  67              	MemManage_Handler:
  68              	.LFB128:
 102:stm32f3xx_it.c ****   /* USER CODE BEGIN HardFault_IRQn 0 */
 103:stm32f3xx_it.c **** 
 104:stm32f3xx_it.c ****   /* USER CODE END HardFault_IRQn 0 */
 105:stm32f3xx_it.c ****   while (1)
 106:stm32f3xx_it.c ****   {
 107:stm32f3xx_it.c ****     /* USER CODE BEGIN W1_HardFault_IRQn 0 */
 108:stm32f3xx_it.c ****     /* USER CODE END W1_HardFault_IRQn 0 */
ARM GAS  /var/folders/k_/r2bh2pj93_jff4n9gmtn9jvr0000gn/T//cczaBqE3.s 			page 4


 109:stm32f3xx_it.c ****   }
 110:stm32f3xx_it.c **** }
 111:stm32f3xx_it.c **** 
 112:stm32f3xx_it.c **** /**
 113:stm32f3xx_it.c ****   * @brief This function handles Memory management fault.
 114:stm32f3xx_it.c ****   */
 115:stm32f3xx_it.c **** void MemManage_Handler(void)
 116:stm32f3xx_it.c **** {
  69              		.loc 1 116 0
  70              		.cfi_startproc
  71              		@ Volatile: function does not return.
  72              		@ args = 0, pretend = 0, frame = 0
  73              		@ frame_needed = 0, uses_anonymous_args = 0
  74              		@ link register save eliminated.
  75              	.L5:
  76 0000 FEE7     		b	.L5
  77              		.cfi_endproc
  78              	.LFE128:
  80              		.section	.text.BusFault_Handler,"ax",%progbits
  81              		.align	1
  82              		.global	BusFault_Handler
  83              		.syntax unified
  84              		.thumb
  85              		.thumb_func
  86              		.fpu fpv4-sp-d16
  88              	BusFault_Handler:
  89              	.LFB129:
 117:stm32f3xx_it.c ****   /* USER CODE BEGIN MemoryManagement_IRQn 0 */
 118:stm32f3xx_it.c **** 
 119:stm32f3xx_it.c ****   /* USER CODE END MemoryManagement_IRQn 0 */
 120:stm32f3xx_it.c ****   while (1)
 121:stm32f3xx_it.c ****   {
 122:stm32f3xx_it.c ****     /* USER CODE BEGIN W1_MemoryManagement_IRQn 0 */
 123:stm32f3xx_it.c ****     /* USER CODE END W1_MemoryManagement_IRQn 0 */
 124:stm32f3xx_it.c ****   }
 125:stm32f3xx_it.c **** }
 126:stm32f3xx_it.c **** 
 127:stm32f3xx_it.c **** /**
 128:stm32f3xx_it.c ****   * @brief This function handles Prefetch fault, memory access fault.
 129:stm32f3xx_it.c ****   */
 130:stm32f3xx_it.c **** void BusFault_Handler(void)
 131:stm32f3xx_it.c **** {
  90              		.loc 1 131 0
  91              		.cfi_startproc
  92              		@ Volatile: function does not return.
  93              		@ args = 0, pretend = 0, frame = 0
  94              		@ frame_needed = 0, uses_anonymous_args = 0
  95              		@ link register save eliminated.
  96              	.L7:
  97 0000 FEE7     		b	.L7
  98              		.cfi_endproc
  99              	.LFE129:
 101              		.section	.text.UsageFault_Handler,"ax",%progbits
 102              		.align	1
 103              		.global	UsageFault_Handler
 104              		.syntax unified
 105              		.thumb
ARM GAS  /var/folders/k_/r2bh2pj93_jff4n9gmtn9jvr0000gn/T//cczaBqE3.s 			page 5


 106              		.thumb_func
 107              		.fpu fpv4-sp-d16
 109              	UsageFault_Handler:
 110              	.LFB130:
 132:stm32f3xx_it.c ****   /* USER CODE BEGIN BusFault_IRQn 0 */
 133:stm32f3xx_it.c **** 
 134:stm32f3xx_it.c ****   /* USER CODE END BusFault_IRQn 0 */
 135:stm32f3xx_it.c ****   while (1)
 136:stm32f3xx_it.c ****   {
 137:stm32f3xx_it.c ****     /* USER CODE BEGIN W1_BusFault_IRQn 0 */
 138:stm32f3xx_it.c ****     /* USER CODE END W1_BusFault_IRQn 0 */
 139:stm32f3xx_it.c ****   }
 140:stm32f3xx_it.c **** }
 141:stm32f3xx_it.c **** 
 142:stm32f3xx_it.c **** /**
 143:stm32f3xx_it.c ****   * @brief This function handles Undefined instruction or illegal state.
 144:stm32f3xx_it.c ****   */
 145:stm32f3xx_it.c **** void UsageFault_Handler(void)
 146:stm32f3xx_it.c **** {
 111              		.loc 1 146 0
 112              		.cfi_startproc
 113              		@ Volatile: function does not return.
 114              		@ args = 0, pretend = 0, frame = 0
 115              		@ frame_needed = 0, uses_anonymous_args = 0
 116              		@ link register save eliminated.
 117              	.L9:
 118 0000 FEE7     		b	.L9
 119              		.cfi_endproc
 120              	.LFE130:
 122              		.section	.text.SVC_Handler,"ax",%progbits
 123              		.align	1
 124              		.global	SVC_Handler
 125              		.syntax unified
 126              		.thumb
 127              		.thumb_func
 128              		.fpu fpv4-sp-d16
 130              	SVC_Handler:
 131              	.LFB131:
 147:stm32f3xx_it.c ****   /* USER CODE BEGIN UsageFault_IRQn 0 */
 148:stm32f3xx_it.c **** 
 149:stm32f3xx_it.c ****   /* USER CODE END UsageFault_IRQn 0 */
 150:stm32f3xx_it.c ****   while (1)
 151:stm32f3xx_it.c ****   {
 152:stm32f3xx_it.c ****     /* USER CODE BEGIN W1_UsageFault_IRQn 0 */
 153:stm32f3xx_it.c ****     /* USER CODE END W1_UsageFault_IRQn 0 */
 154:stm32f3xx_it.c ****   }
 155:stm32f3xx_it.c **** }
 156:stm32f3xx_it.c **** 
 157:stm32f3xx_it.c **** /**
 158:stm32f3xx_it.c ****   * @brief This function handles System service call via SWI instruction.
 159:stm32f3xx_it.c ****   */
 160:stm32f3xx_it.c **** void SVC_Handler(void)
 161:stm32f3xx_it.c **** {
 132              		.loc 1 161 0
 133              		.cfi_startproc
 134              		@ args = 0, pretend = 0, frame = 0
 135              		@ frame_needed = 0, uses_anonymous_args = 0
ARM GAS  /var/folders/k_/r2bh2pj93_jff4n9gmtn9jvr0000gn/T//cczaBqE3.s 			page 6


 136              		@ link register save eliminated.
 162:stm32f3xx_it.c ****   /* USER CODE BEGIN SVCall_IRQn 0 */
 163:stm32f3xx_it.c **** 
 164:stm32f3xx_it.c ****   /* USER CODE END SVCall_IRQn 0 */
 165:stm32f3xx_it.c ****   /* USER CODE BEGIN SVCall_IRQn 1 */
 166:stm32f3xx_it.c **** 
 167:stm32f3xx_it.c ****   /* USER CODE END SVCall_IRQn 1 */
 168:stm32f3xx_it.c **** }
 137              		.loc 1 168 0
 138 0000 7047     		bx	lr
 139              		.cfi_endproc
 140              	.LFE131:
 142              		.section	.text.DebugMon_Handler,"ax",%progbits
 143              		.align	1
 144              		.global	DebugMon_Handler
 145              		.syntax unified
 146              		.thumb
 147              		.thumb_func
 148              		.fpu fpv4-sp-d16
 150              	DebugMon_Handler:
 151              	.LFB132:
 169:stm32f3xx_it.c **** 
 170:stm32f3xx_it.c **** /**
 171:stm32f3xx_it.c ****   * @brief This function handles Debug monitor.
 172:stm32f3xx_it.c ****   */
 173:stm32f3xx_it.c **** void DebugMon_Handler(void)
 174:stm32f3xx_it.c **** {
 152              		.loc 1 174 0
 153              		.cfi_startproc
 154              		@ args = 0, pretend = 0, frame = 0
 155              		@ frame_needed = 0, uses_anonymous_args = 0
 156              		@ link register save eliminated.
 175:stm32f3xx_it.c ****   /* USER CODE BEGIN DebugMonitor_IRQn 0 */
 176:stm32f3xx_it.c **** 
 177:stm32f3xx_it.c ****   /* USER CODE END DebugMonitor_IRQn 0 */
 178:stm32f3xx_it.c ****   /* USER CODE BEGIN DebugMonitor_IRQn 1 */
 179:stm32f3xx_it.c **** 
 180:stm32f3xx_it.c ****   /* USER CODE END DebugMonitor_IRQn 1 */
 181:stm32f3xx_it.c **** }
 157              		.loc 1 181 0
 158 0000 7047     		bx	lr
 159              		.cfi_endproc
 160              	.LFE132:
 162              		.section	.text.PendSV_Handler,"ax",%progbits
 163              		.align	1
 164              		.global	PendSV_Handler
 165              		.syntax unified
 166              		.thumb
 167              		.thumb_func
 168              		.fpu fpv4-sp-d16
 170              	PendSV_Handler:
 171              	.LFB133:
 182:stm32f3xx_it.c **** 
 183:stm32f3xx_it.c **** /**
 184:stm32f3xx_it.c ****   * @brief This function handles Pendable request for system service.
 185:stm32f3xx_it.c ****   */
 186:stm32f3xx_it.c **** void PendSV_Handler(void)
ARM GAS  /var/folders/k_/r2bh2pj93_jff4n9gmtn9jvr0000gn/T//cczaBqE3.s 			page 7


 187:stm32f3xx_it.c **** {
 172              		.loc 1 187 0
 173              		.cfi_startproc
 174              		@ args = 0, pretend = 0, frame = 0
 175              		@ frame_needed = 0, uses_anonymous_args = 0
 176              		@ link register save eliminated.
 188:stm32f3xx_it.c ****   /* USER CODE BEGIN PendSV_IRQn 0 */
 189:stm32f3xx_it.c **** 
 190:stm32f3xx_it.c ****   /* USER CODE END PendSV_IRQn 0 */
 191:stm32f3xx_it.c ****   /* USER CODE BEGIN PendSV_IRQn 1 */
 192:stm32f3xx_it.c **** 
 193:stm32f3xx_it.c ****   /* USER CODE END PendSV_IRQn 1 */
 194:stm32f3xx_it.c **** }
 177              		.loc 1 194 0
 178 0000 7047     		bx	lr
 179              		.cfi_endproc
 180              	.LFE133:
 182              		.section	.text.SysTick_Handler,"ax",%progbits
 183              		.align	1
 184              		.global	SysTick_Handler
 185              		.syntax unified
 186              		.thumb
 187              		.thumb_func
 188              		.fpu fpv4-sp-d16
 190              	SysTick_Handler:
 191              	.LFB134:
 195:stm32f3xx_it.c **** 
 196:stm32f3xx_it.c **** void SysTick_Handler(void)
 197:stm32f3xx_it.c **** {
 192              		.loc 1 197 0
 193              		.cfi_startproc
 194              		@ args = 0, pretend = 0, frame = 0
 195              		@ frame_needed = 0, uses_anonymous_args = 0
 196 0000 08B5     		push	{r3, lr}
 197              	.LCFI0:
 198              		.cfi_def_cfa_offset 8
 199              		.cfi_offset 3, -8
 200              		.cfi_offset 14, -4
 198:stm32f3xx_it.c ****   /* USER CODE BEGIN SysTick_IRQn 0 */
 199:stm32f3xx_it.c ****   
 200:stm32f3xx_it.c ****   /* USER CODE END SysTick_IRQn 0 */
 201:stm32f3xx_it.c ****   HAL_IncTick();
 201              		.loc 1 201 0
 202 0002 FFF7FEFF 		bl	HAL_IncTick
 203              	.LVL0:
 202:stm32f3xx_it.c ****   /* USER CODE BEGIN SysTick_IRQn 1 */
 203:stm32f3xx_it.c **** 
 204:stm32f3xx_it.c ****   /* USER CODE END SysTick_IRQn 1 */
 205:stm32f3xx_it.c **** }
 204              		.loc 1 205 0
 205 0006 08BD     		pop	{r3, pc}
 206              		.cfi_endproc
 207              	.LFE134:
 209              		.text
 210              	.Letext0:
 211              		.file 2 "/usr/local/Cellar/arm-none-eabi-gcc/7-2018-q2-update/gcc/arm-none-eabi/include/machine/_d
 212              		.file 3 "/usr/local/Cellar/arm-none-eabi-gcc/7-2018-q2-update/gcc/arm-none-eabi/include/sys/_stdin
ARM GAS  /var/folders/k_/r2bh2pj93_jff4n9gmtn9jvr0000gn/T//cczaBqE3.s 			page 8


 213              		.file 4 "../Drivers/CMSIS/Include/core_cm4.h"
 214              		.file 5 "../Drivers/CMSIS/Device/ST/STM32F3xx/Include/system_stm32f3xx.h"
 215              		.file 6 "../Drivers/CMSIS/Device/ST/STM32F3xx/Include/stm32f373xc.h"
 216              		.file 7 "/usr/local/Cellar/arm-none-eabi-gcc/7-2018-q2-update/gcc/arm-none-eabi/include/sys/lock.h
 217              		.file 8 "/usr/local/Cellar/arm-none-eabi-gcc/7-2018-q2-update/gcc/arm-none-eabi/include/sys/_types
 218              		.file 9 "/usr/local/Cellar/arm-none-eabi-gcc/7-2018-q2-update/gcc/lib/gcc/arm-none-eabi/7.3.1/incl
 219              		.file 10 "/usr/local/Cellar/arm-none-eabi-gcc/7-2018-q2-update/gcc/arm-none-eabi/include/sys/reent
 220              		.file 11 "../Drivers/STM32F3xx_HAL_Driver/Inc/stm32f3xx_hal_def.h"
 221              		.file 12 "../Drivers/STM32F3xx_HAL_Driver/Inc/stm32f3xx_hal_dma.h"
 222              		.file 13 "../Drivers/STM32F3xx_HAL_Driver/Inc/stm32f3xx_hal_pcd.h"
 223              		.file 14 "../Drivers/STM32F3xx_HAL_Driver/Inc/stm32f3xx_hal_tim.h"
 224              		.file 15 "../Drivers/STM32F3xx_HAL_Driver/Inc/stm32f3xx_hal.h"
ARM GAS  /var/folders/k_/r2bh2pj93_jff4n9gmtn9jvr0000gn/T//cczaBqE3.s 			page 9

