ARM GAS  /var/folders/80/65lm4rm97rv_n74c85vt01040000gn/T//cclmiKWr.s 			page 1


   1              		.cpu cortex-m4
   2              		.eabi_attribute 27, 1
   3              		.eabi_attribute 28, 1
   4              		.eabi_attribute 20, 1
   5              		.eabi_attribute 21, 1
   6              		.eabi_attribute 23, 3
   7              		.eabi_attribute 24, 1
   8              		.eabi_attribute 25, 1
   9              		.eabi_attribute 26, 1
  10              		.eabi_attribute 30, 1
  11              		.eabi_attribute 34, 1
  12              		.eabi_attribute 18, 4
  13              		.file	"i2c.c"
  14              		.text
  15              	.Ltext0:
  16              		.cfi_sections	.debug_frame
  17              		.section	.text.MX_I2C1_Init,"ax",%progbits
  18              		.align	1
  19              		.global	MX_I2C1_Init
  20              		.arch armv7e-m
  21              		.syntax unified
  22              		.thumb
  23              		.thumb_func
  24              		.fpu fpv4-sp-d16
  26              	MX_I2C1_Init:
  27              	.LFB126:
  28              		.file 1 "Src/i2c.c"
   1:Src/i2c.c     **** /**
   2:Src/i2c.c     ****   ******************************************************************************
   3:Src/i2c.c     ****   * File Name          : I2C.c
   4:Src/i2c.c     ****   * Description        : This file provides code for the configuration
   5:Src/i2c.c     ****   *                      of the I2C instances.
   6:Src/i2c.c     ****   ******************************************************************************
   7:Src/i2c.c     ****   ** This notice applies to any and all portions of this file
   8:Src/i2c.c     ****   * that are not between comment pairs USER CODE BEGIN and
   9:Src/i2c.c     ****   * USER CODE END. Other portions of this file, whether 
  10:Src/i2c.c     ****   * inserted by the user or by software development tools
  11:Src/i2c.c     ****   * are owned by their respective copyright owners.
  12:Src/i2c.c     ****   *
  13:Src/i2c.c     ****   * COPYRIGHT(c) 2020 STMicroelectronics
  14:Src/i2c.c     ****   *
  15:Src/i2c.c     ****   * Redistribution and use in source and binary forms, with or without modification,
  16:Src/i2c.c     ****   * are permitted provided that the following conditions are met:
  17:Src/i2c.c     ****   *   1. Redistributions of source code must retain the above copyright notice,
  18:Src/i2c.c     ****   *      this list of conditions and the following disclaimer.
  19:Src/i2c.c     ****   *   2. Redistributions in binary form must reproduce the above copyright notice,
  20:Src/i2c.c     ****   *      this list of conditions and the following disclaimer in the documentation
  21:Src/i2c.c     ****   *      and/or other materials provided with the distribution.
  22:Src/i2c.c     ****   *   3. Neither the name of STMicroelectronics nor the names of its contributors
  23:Src/i2c.c     ****   *      may be used to endorse or promote products derived from this software
  24:Src/i2c.c     ****   *      without specific prior written permission.
  25:Src/i2c.c     ****   *
  26:Src/i2c.c     ****   * THIS SOFTWARE IS PROVIDED BY THE COPYRIGHT HOLDERS AND CONTRIBUTORS "AS IS"
  27:Src/i2c.c     ****   * AND ANY EXPRESS OR IMPLIED WARRANTIES, INCLUDING, BUT NOT LIMITED TO, THE
  28:Src/i2c.c     ****   * IMPLIED WARRANTIES OF MERCHANTABILITY AND FITNESS FOR A PARTICULAR PURPOSE ARE
  29:Src/i2c.c     ****   * DISCLAIMED. IN NO EVENT SHALL THE COPYRIGHT HOLDER OR CONTRIBUTORS BE LIABLE
  30:Src/i2c.c     ****   * FOR ANY DIRECT, INDIRECT, INCIDENTAL, SPECIAL, EXEMPLARY, OR CONSEQUENTIAL
ARM GAS  /var/folders/80/65lm4rm97rv_n74c85vt01040000gn/T//cclmiKWr.s 			page 2


  31:Src/i2c.c     ****   * DAMAGES (INCLUDING, BUT NOT LIMITED TO, PROCUREMENT OF SUBSTITUTE GOODS OR
  32:Src/i2c.c     ****   * SERVICES; LOSS OF USE, DATA, OR PROFITS; OR BUSINESS INTERRUPTION) HOWEVER
  33:Src/i2c.c     ****   * CAUSED AND ON ANY THEORY OF LIABILITY, WHETHER IN CONTRACT, STRICT LIABILITY,
  34:Src/i2c.c     ****   * OR TORT (INCLUDING NEGLIGENCE OR OTHERWISE) ARISING IN ANY WAY OUT OF THE USE
  35:Src/i2c.c     ****   * OF THIS SOFTWARE, EVEN IF ADVISED OF THE POSSIBILITY OF SUCH DAMAGE.
  36:Src/i2c.c     ****   *
  37:Src/i2c.c     ****   ******************************************************************************
  38:Src/i2c.c     ****   */
  39:Src/i2c.c     **** 
  40:Src/i2c.c     **** /* Includes ------------------------------------------------------------------*/
  41:Src/i2c.c     **** #include "i2c.h"
  42:Src/i2c.c     **** 
  43:Src/i2c.c     **** /* USER CODE BEGIN 0 */
  44:Src/i2c.c     **** 
  45:Src/i2c.c     **** /* USER CODE END 0 */
  46:Src/i2c.c     **** 
  47:Src/i2c.c     **** I2C_HandleTypeDef hi2c1;
  48:Src/i2c.c     **** 
  49:Src/i2c.c     **** /* I2C1 init function */
  50:Src/i2c.c     **** void MX_I2C1_Init(void)
  51:Src/i2c.c     **** {
  29              		.loc 1 51 1 view -0
  30              		.cfi_startproc
  31              		@ args = 0, pretend = 0, frame = 0
  32              		@ frame_needed = 0, uses_anonymous_args = 0
  33 0000 08B5     		push	{r3, lr}
  34              	.LCFI0:
  35              		.cfi_def_cfa_offset 8
  36              		.cfi_offset 3, -8
  37              		.cfi_offset 14, -4
  52:Src/i2c.c     **** 
  53:Src/i2c.c     ****   hi2c1.Instance = I2C1;
  38              		.loc 1 53 3 view .LVU1
  39              		.loc 1 53 18 is_stmt 0 view .LVU2
  40 0002 1548     		ldr	r0, .L9
  41 0004 154B     		ldr	r3, .L9+4
  42 0006 0360     		str	r3, [r0]
  54:Src/i2c.c     ****   hi2c1.Init.Timing = 0x00000002;
  43              		.loc 1 54 3 is_stmt 1 view .LVU3
  44              		.loc 1 54 21 is_stmt 0 view .LVU4
  45 0008 0223     		movs	r3, #2
  46 000a 4360     		str	r3, [r0, #4]
  55:Src/i2c.c     ****   hi2c1.Init.OwnAddress1 = 0;
  47              		.loc 1 55 3 is_stmt 1 view .LVU5
  48              		.loc 1 55 26 is_stmt 0 view .LVU6
  49 000c 0023     		movs	r3, #0
  50 000e 8360     		str	r3, [r0, #8]
  56:Src/i2c.c     ****   hi2c1.Init.AddressingMode = I2C_ADDRESSINGMODE_7BIT;
  51              		.loc 1 56 3 is_stmt 1 view .LVU7
  52              		.loc 1 56 29 is_stmt 0 view .LVU8
  53 0010 0122     		movs	r2, #1
  54 0012 C260     		str	r2, [r0, #12]
  57:Src/i2c.c     ****   hi2c1.Init.DualAddressMode = I2C_DUALADDRESS_DISABLE;
  55              		.loc 1 57 3 is_stmt 1 view .LVU9
  56              		.loc 1 57 30 is_stmt 0 view .LVU10
  57 0014 0361     		str	r3, [r0, #16]
  58:Src/i2c.c     ****   hi2c1.Init.OwnAddress2 = 0;
ARM GAS  /var/folders/80/65lm4rm97rv_n74c85vt01040000gn/T//cclmiKWr.s 			page 3


  58              		.loc 1 58 3 is_stmt 1 view .LVU11
  59              		.loc 1 58 26 is_stmt 0 view .LVU12
  60 0016 4361     		str	r3, [r0, #20]
  59:Src/i2c.c     ****   hi2c1.Init.OwnAddress2Masks = I2C_OA2_NOMASK;
  61              		.loc 1 59 3 is_stmt 1 view .LVU13
  62              		.loc 1 59 31 is_stmt 0 view .LVU14
  63 0018 8361     		str	r3, [r0, #24]
  60:Src/i2c.c     ****   hi2c1.Init.GeneralCallMode = I2C_GENERALCALL_DISABLE;
  64              		.loc 1 60 3 is_stmt 1 view .LVU15
  65              		.loc 1 60 30 is_stmt 0 view .LVU16
  66 001a C361     		str	r3, [r0, #28]
  61:Src/i2c.c     ****   hi2c1.Init.NoStretchMode = I2C_NOSTRETCH_DISABLE;
  67              		.loc 1 61 3 is_stmt 1 view .LVU17
  68              		.loc 1 61 28 is_stmt 0 view .LVU18
  69 001c 0362     		str	r3, [r0, #32]
  62:Src/i2c.c     ****   if (HAL_I2C_Init(&hi2c1) != HAL_OK)
  70              		.loc 1 62 3 is_stmt 1 view .LVU19
  71              		.loc 1 62 7 is_stmt 0 view .LVU20
  72 001e FFF7FEFF 		bl	HAL_I2C_Init
  73              	.LVL0:
  74              		.loc 1 62 6 view .LVU21
  75 0022 80B9     		cbnz	r0, .L6
  76              	.L2:
  63:Src/i2c.c     ****   {
  64:Src/i2c.c     ****     Error_Handler();
  65:Src/i2c.c     ****   }
  66:Src/i2c.c     ****   /**Configure Analogue filter 
  67:Src/i2c.c     ****   */
  68:Src/i2c.c     ****   if (HAL_I2CEx_ConfigAnalogFilter(&hi2c1, I2C_ANALOGFILTER_DISABLE) != HAL_OK)
  77              		.loc 1 68 3 is_stmt 1 view .LVU22
  78              		.loc 1 68 7 is_stmt 0 view .LVU23
  79 0024 4FF48051 		mov	r1, #4096
  80 0028 0B48     		ldr	r0, .L9
  81 002a FFF7FEFF 		bl	HAL_I2CEx_ConfigAnalogFilter
  82              	.LVL1:
  83              		.loc 1 68 6 view .LVU24
  84 002e 68B9     		cbnz	r0, .L7
  85              	.L3:
  69:Src/i2c.c     ****   {
  70:Src/i2c.c     ****     Error_Handler();
  71:Src/i2c.c     ****   }
  72:Src/i2c.c     ****   /**Configure Digital filter 
  73:Src/i2c.c     ****   */
  74:Src/i2c.c     ****   if (HAL_I2CEx_ConfigDigitalFilter(&hi2c1, 0) != HAL_OK)
  86              		.loc 1 74 3 is_stmt 1 view .LVU25
  87              		.loc 1 74 7 is_stmt 0 view .LVU26
  88 0030 0021     		movs	r1, #0
  89 0032 0948     		ldr	r0, .L9
  90 0034 FFF7FEFF 		bl	HAL_I2CEx_ConfigDigitalFilter
  91              	.LVL2:
  92              		.loc 1 74 6 view .LVU27
  93 0038 58B9     		cbnz	r0, .L8
  94              	.L4:
  75:Src/i2c.c     ****   {
  76:Src/i2c.c     ****     Error_Handler();
  77:Src/i2c.c     ****   }
  78:Src/i2c.c     ****   /**I2C Fast mode Plus enable 
ARM GAS  /var/folders/80/65lm4rm97rv_n74c85vt01040000gn/T//cclmiKWr.s 			page 4


  79:Src/i2c.c     ****   */
  80:Src/i2c.c     ****   __HAL_SYSCFG_FASTMODEPLUS_ENABLE(I2C_FASTMODEPLUS_I2C1);
  95              		.loc 1 80 3 is_stmt 1 view .LVU28
  96              		.loc 1 80 3 view .LVU29
  97              		.loc 1 80 3 view .LVU30
  98 003a 094A     		ldr	r2, .L9+8
  99 003c 1368     		ldr	r3, [r2]
 100 003e 43F48013 		orr	r3, r3, #1048576
 101 0042 1360     		str	r3, [r2]
 102              		.loc 1 80 3 view .LVU31
  81:Src/i2c.c     **** 
  82:Src/i2c.c     **** }
 103              		.loc 1 82 1 is_stmt 0 view .LVU32
 104 0044 08BD     		pop	{r3, pc}
 105              	.L6:
  64:Src/i2c.c     ****   }
 106              		.loc 1 64 5 is_stmt 1 view .LVU33
 107 0046 FFF7FEFF 		bl	Error_Handler
 108              	.LVL3:
 109 004a EBE7     		b	.L2
 110              	.L7:
  70:Src/i2c.c     ****   }
 111              		.loc 1 70 5 view .LVU34
 112 004c FFF7FEFF 		bl	Error_Handler
 113              	.LVL4:
 114 0050 EEE7     		b	.L3
 115              	.L8:
  76:Src/i2c.c     ****   }
 116              		.loc 1 76 5 view .LVU35
 117 0052 FFF7FEFF 		bl	Error_Handler
 118              	.LVL5:
 119 0056 F0E7     		b	.L4
 120              	.L10:
 121              		.align	2
 122              	.L9:
 123 0058 00000000 		.word	.LANCHOR0
 124 005c 00540040 		.word	1073763328
 125 0060 00000140 		.word	1073807360
 126              		.cfi_endproc
 127              	.LFE126:
 129              		.section	.text.HAL_I2C_MspInit,"ax",%progbits
 130              		.align	1
 131              		.global	HAL_I2C_MspInit
 132              		.syntax unified
 133              		.thumb
 134              		.thumb_func
 135              		.fpu fpv4-sp-d16
 137              	HAL_I2C_MspInit:
 138              	.LVL6:
 139              	.LFB127:
  83:Src/i2c.c     **** 
  84:Src/i2c.c     **** void HAL_I2C_MspInit(I2C_HandleTypeDef* i2cHandle)
  85:Src/i2c.c     **** {
 140              		.loc 1 85 1 view -0
 141              		.cfi_startproc
 142              		@ args = 0, pretend = 0, frame = 32
 143              		@ frame_needed = 0, uses_anonymous_args = 0
ARM GAS  /var/folders/80/65lm4rm97rv_n74c85vt01040000gn/T//cclmiKWr.s 			page 5


 144              		.loc 1 85 1 is_stmt 0 view .LVU37
 145 0000 10B5     		push	{r4, lr}
 146              	.LCFI1:
 147              		.cfi_def_cfa_offset 8
 148              		.cfi_offset 4, -8
 149              		.cfi_offset 14, -4
 150 0002 88B0     		sub	sp, sp, #32
 151              	.LCFI2:
 152              		.cfi_def_cfa_offset 40
  86:Src/i2c.c     **** 
  87:Src/i2c.c     ****   GPIO_InitTypeDef GPIO_InitStruct = {0};
 153              		.loc 1 87 3 is_stmt 1 view .LVU38
 154              		.loc 1 87 20 is_stmt 0 view .LVU39
 155 0004 0023     		movs	r3, #0
 156 0006 0393     		str	r3, [sp, #12]
 157 0008 0493     		str	r3, [sp, #16]
 158 000a 0593     		str	r3, [sp, #20]
 159 000c 0693     		str	r3, [sp, #24]
 160 000e 0793     		str	r3, [sp, #28]
  88:Src/i2c.c     ****   if(i2cHandle->Instance==I2C1)
 161              		.loc 1 88 3 is_stmt 1 view .LVU40
 162              		.loc 1 88 15 is_stmt 0 view .LVU41
 163 0010 0268     		ldr	r2, [r0]
 164              		.loc 1 88 5 view .LVU42
 165 0012 134B     		ldr	r3, .L15
 166 0014 9A42     		cmp	r2, r3
 167 0016 01D0     		beq	.L14
 168              	.LVL7:
 169              	.L11:
  89:Src/i2c.c     ****   {
  90:Src/i2c.c     ****   /* USER CODE BEGIN I2C1_MspInit 0 */
  91:Src/i2c.c     **** 
  92:Src/i2c.c     ****   /* USER CODE END I2C1_MspInit 0 */
  93:Src/i2c.c     ****   
  94:Src/i2c.c     ****     __HAL_RCC_GPIOB_CLK_ENABLE();
  95:Src/i2c.c     ****     /**I2C1 GPIO Configuration    
  96:Src/i2c.c     ****     PB6     ------> I2C1_SCL
  97:Src/i2c.c     ****     PB7     ------> I2C1_SDA 
  98:Src/i2c.c     ****     */
  99:Src/i2c.c     ****     GPIO_InitStruct.Pin = GPIO_PIN_6|GPIO_PIN_7;
 100:Src/i2c.c     ****     GPIO_InitStruct.Mode = GPIO_MODE_AF_OD;
 101:Src/i2c.c     ****     GPIO_InitStruct.Pull = GPIO_PULLUP;
 102:Src/i2c.c     ****     GPIO_InitStruct.Speed = GPIO_SPEED_FREQ_HIGH;
 103:Src/i2c.c     ****     GPIO_InitStruct.Alternate = GPIO_AF4_I2C1;
 104:Src/i2c.c     ****     HAL_GPIO_Init(GPIOB, &GPIO_InitStruct);
 105:Src/i2c.c     **** 
 106:Src/i2c.c     ****     /* I2C1 clock enable */
 107:Src/i2c.c     ****     __HAL_RCC_I2C1_CLK_ENABLE();
 108:Src/i2c.c     ****   /* USER CODE BEGIN I2C1_MspInit 1 */
 109:Src/i2c.c     **** 
 110:Src/i2c.c     ****   /* USER CODE END I2C1_MspInit 1 */
 111:Src/i2c.c     ****   }
 112:Src/i2c.c     **** }
 170              		.loc 1 112 1 view .LVU43
 171 0018 08B0     		add	sp, sp, #32
 172              	.LCFI3:
 173              		.cfi_remember_state
ARM GAS  /var/folders/80/65lm4rm97rv_n74c85vt01040000gn/T//cclmiKWr.s 			page 6


 174              		.cfi_def_cfa_offset 8
 175              		@ sp needed
 176 001a 10BD     		pop	{r4, pc}
 177              	.LVL8:
 178              	.L14:
 179              	.LCFI4:
 180              		.cfi_restore_state
  94:Src/i2c.c     ****     /**I2C1 GPIO Configuration    
 181              		.loc 1 94 5 is_stmt 1 view .LVU44
 182              	.LBB2:
  94:Src/i2c.c     ****     /**I2C1 GPIO Configuration    
 183              		.loc 1 94 5 view .LVU45
  94:Src/i2c.c     ****     /**I2C1 GPIO Configuration    
 184              		.loc 1 94 5 view .LVU46
 185 001c 114C     		ldr	r4, .L15+4
 186 001e 6369     		ldr	r3, [r4, #20]
 187 0020 43F48023 		orr	r3, r3, #262144
 188 0024 6361     		str	r3, [r4, #20]
  94:Src/i2c.c     ****     /**I2C1 GPIO Configuration    
 189              		.loc 1 94 5 view .LVU47
 190 0026 6369     		ldr	r3, [r4, #20]
 191 0028 03F48023 		and	r3, r3, #262144
 192 002c 0193     		str	r3, [sp, #4]
  94:Src/i2c.c     ****     /**I2C1 GPIO Configuration    
 193              		.loc 1 94 5 view .LVU48
 194 002e 019B     		ldr	r3, [sp, #4]
 195              	.LBE2:
  94:Src/i2c.c     ****     /**I2C1 GPIO Configuration    
 196              		.loc 1 94 5 view .LVU49
  99:Src/i2c.c     ****     GPIO_InitStruct.Mode = GPIO_MODE_AF_OD;
 197              		.loc 1 99 5 view .LVU50
  99:Src/i2c.c     ****     GPIO_InitStruct.Mode = GPIO_MODE_AF_OD;
 198              		.loc 1 99 25 is_stmt 0 view .LVU51
 199 0030 C023     		movs	r3, #192
 200 0032 0393     		str	r3, [sp, #12]
 100:Src/i2c.c     ****     GPIO_InitStruct.Pull = GPIO_PULLUP;
 201              		.loc 1 100 5 is_stmt 1 view .LVU52
 100:Src/i2c.c     ****     GPIO_InitStruct.Pull = GPIO_PULLUP;
 202              		.loc 1 100 26 is_stmt 0 view .LVU53
 203 0034 1223     		movs	r3, #18
 204 0036 0493     		str	r3, [sp, #16]
 101:Src/i2c.c     ****     GPIO_InitStruct.Speed = GPIO_SPEED_FREQ_HIGH;
 205              		.loc 1 101 5 is_stmt 1 view .LVU54
 101:Src/i2c.c     ****     GPIO_InitStruct.Speed = GPIO_SPEED_FREQ_HIGH;
 206              		.loc 1 101 26 is_stmt 0 view .LVU55
 207 0038 0123     		movs	r3, #1
 208 003a 0593     		str	r3, [sp, #20]
 102:Src/i2c.c     ****     GPIO_InitStruct.Alternate = GPIO_AF4_I2C1;
 209              		.loc 1 102 5 is_stmt 1 view .LVU56
 102:Src/i2c.c     ****     GPIO_InitStruct.Alternate = GPIO_AF4_I2C1;
 210              		.loc 1 102 27 is_stmt 0 view .LVU57
 211 003c 0323     		movs	r3, #3
 212 003e 0693     		str	r3, [sp, #24]
 103:Src/i2c.c     ****     HAL_GPIO_Init(GPIOB, &GPIO_InitStruct);
 213              		.loc 1 103 5 is_stmt 1 view .LVU58
 103:Src/i2c.c     ****     HAL_GPIO_Init(GPIOB, &GPIO_InitStruct);
 214              		.loc 1 103 31 is_stmt 0 view .LVU59
ARM GAS  /var/folders/80/65lm4rm97rv_n74c85vt01040000gn/T//cclmiKWr.s 			page 7


 215 0040 0423     		movs	r3, #4
 216 0042 0793     		str	r3, [sp, #28]
 104:Src/i2c.c     **** 
 217              		.loc 1 104 5 is_stmt 1 view .LVU60
 218 0044 03A9     		add	r1, sp, #12
 219 0046 0848     		ldr	r0, .L15+8
 220              	.LVL9:
 104:Src/i2c.c     **** 
 221              		.loc 1 104 5 is_stmt 0 view .LVU61
 222 0048 FFF7FEFF 		bl	HAL_GPIO_Init
 223              	.LVL10:
 107:Src/i2c.c     ****   /* USER CODE BEGIN I2C1_MspInit 1 */
 224              		.loc 1 107 5 is_stmt 1 view .LVU62
 225              	.LBB3:
 107:Src/i2c.c     ****   /* USER CODE BEGIN I2C1_MspInit 1 */
 226              		.loc 1 107 5 view .LVU63
 107:Src/i2c.c     ****   /* USER CODE BEGIN I2C1_MspInit 1 */
 227              		.loc 1 107 5 view .LVU64
 228 004c E369     		ldr	r3, [r4, #28]
 229 004e 43F40013 		orr	r3, r3, #2097152
 230 0052 E361     		str	r3, [r4, #28]
 107:Src/i2c.c     ****   /* USER CODE BEGIN I2C1_MspInit 1 */
 231              		.loc 1 107 5 view .LVU65
 232 0054 E369     		ldr	r3, [r4, #28]
 233 0056 03F40013 		and	r3, r3, #2097152
 234 005a 0293     		str	r3, [sp, #8]
 107:Src/i2c.c     ****   /* USER CODE BEGIN I2C1_MspInit 1 */
 235              		.loc 1 107 5 view .LVU66
 236 005c 029B     		ldr	r3, [sp, #8]
 237              	.LBE3:
 107:Src/i2c.c     ****   /* USER CODE BEGIN I2C1_MspInit 1 */
 238              		.loc 1 107 5 view .LVU67
 239              		.loc 1 112 1 is_stmt 0 view .LVU68
 240 005e DBE7     		b	.L11
 241              	.L16:
 242              		.align	2
 243              	.L15:
 244 0060 00540040 		.word	1073763328
 245 0064 00100240 		.word	1073876992
 246 0068 00040048 		.word	1207960576
 247              		.cfi_endproc
 248              	.LFE127:
 250              		.section	.text.HAL_I2C_MspDeInit,"ax",%progbits
 251              		.align	1
 252              		.global	HAL_I2C_MspDeInit
 253              		.syntax unified
 254              		.thumb
 255              		.thumb_func
 256              		.fpu fpv4-sp-d16
 258              	HAL_I2C_MspDeInit:
 259              	.LVL11:
 260              	.LFB128:
 113:Src/i2c.c     **** 
 114:Src/i2c.c     **** void HAL_I2C_MspDeInit(I2C_HandleTypeDef* i2cHandle)
 115:Src/i2c.c     **** {
 261              		.loc 1 115 1 is_stmt 1 view -0
 262              		.cfi_startproc
ARM GAS  /var/folders/80/65lm4rm97rv_n74c85vt01040000gn/T//cclmiKWr.s 			page 8


 263              		@ args = 0, pretend = 0, frame = 0
 264              		@ frame_needed = 0, uses_anonymous_args = 0
 265              		.loc 1 115 1 is_stmt 0 view .LVU70
 266 0000 08B5     		push	{r3, lr}
 267              	.LCFI5:
 268              		.cfi_def_cfa_offset 8
 269              		.cfi_offset 3, -8
 270              		.cfi_offset 14, -4
 116:Src/i2c.c     **** 
 117:Src/i2c.c     ****   if(i2cHandle->Instance==I2C1)
 271              		.loc 1 117 3 is_stmt 1 view .LVU71
 272              		.loc 1 117 15 is_stmt 0 view .LVU72
 273 0002 0268     		ldr	r2, [r0]
 274              		.loc 1 117 5 view .LVU73
 275 0004 064B     		ldr	r3, .L21
 276 0006 9A42     		cmp	r2, r3
 277 0008 00D0     		beq	.L20
 278              	.LVL12:
 279              	.L17:
 118:Src/i2c.c     ****   {
 119:Src/i2c.c     ****   /* USER CODE BEGIN I2C1_MspDeInit 0 */
 120:Src/i2c.c     **** 
 121:Src/i2c.c     ****   /* USER CODE END I2C1_MspDeInit 0 */
 122:Src/i2c.c     ****     /* Peripheral clock disable */
 123:Src/i2c.c     ****     __HAL_RCC_I2C1_CLK_DISABLE();
 124:Src/i2c.c     ****   
 125:Src/i2c.c     ****     /**I2C1 GPIO Configuration    
 126:Src/i2c.c     ****     PB6     ------> I2C1_SCL
 127:Src/i2c.c     ****     PB7     ------> I2C1_SDA 
 128:Src/i2c.c     ****     */
 129:Src/i2c.c     ****     HAL_GPIO_DeInit(GPIOB, GPIO_PIN_6|GPIO_PIN_7);
 130:Src/i2c.c     **** 
 131:Src/i2c.c     ****   /* USER CODE BEGIN I2C1_MspDeInit 1 */
 132:Src/i2c.c     **** 
 133:Src/i2c.c     ****   /* USER CODE END I2C1_MspDeInit 1 */
 134:Src/i2c.c     ****   }
 135:Src/i2c.c     **** } 
 280              		.loc 1 135 1 view .LVU74
 281 000a 08BD     		pop	{r3, pc}
 282              	.LVL13:
 283              	.L20:
 123:Src/i2c.c     ****   
 284              		.loc 1 123 5 is_stmt 1 view .LVU75
 285 000c 054A     		ldr	r2, .L21+4
 286 000e D369     		ldr	r3, [r2, #28]
 287 0010 23F40013 		bic	r3, r3, #2097152
 288 0014 D361     		str	r3, [r2, #28]
 129:Src/i2c.c     **** 
 289              		.loc 1 129 5 view .LVU76
 290 0016 C021     		movs	r1, #192
 291 0018 0348     		ldr	r0, .L21+8
 292              	.LVL14:
 129:Src/i2c.c     **** 
 293              		.loc 1 129 5 is_stmt 0 view .LVU77
 294 001a FFF7FEFF 		bl	HAL_GPIO_DeInit
 295              	.LVL15:
 296              		.loc 1 135 1 view .LVU78
ARM GAS  /var/folders/80/65lm4rm97rv_n74c85vt01040000gn/T//cclmiKWr.s 			page 9


 297 001e F4E7     		b	.L17
 298              	.L22:
 299              		.align	2
 300              	.L21:
 301 0020 00540040 		.word	1073763328
 302 0024 00100240 		.word	1073876992
 303 0028 00040048 		.word	1207960576
 304              		.cfi_endproc
 305              	.LFE128:
 307              		.global	hi2c1
 308              		.section	.bss.hi2c1,"aw",%nobits
 309              		.align	2
 310              		.set	.LANCHOR0,. + 0
 313              	hi2c1:
 314 0000 00000000 		.space	76
 314      00000000 
 314      00000000 
 314      00000000 
 314      00000000 
 315              		.text
 316              	.Letext0:
 317              		.file 2 "/usr/local/Caskroom/gcc-arm-embedded/10-2020-q4-major/gcc-arm-none-eabi-10-2020-q4-major/
 318              		.file 3 "/usr/local/Caskroom/gcc-arm-embedded/10-2020-q4-major/gcc-arm-none-eabi-10-2020-q4-major/
 319              		.file 4 "Drivers/CMSIS/Device/ST/STM32F3xx/Include/stm32f373xc.h"
 320              		.file 5 "Drivers/STM32F3xx_HAL_Driver/Inc/stm32f3xx_hal_def.h"
 321              		.file 6 "Drivers/STM32F3xx_HAL_Driver/Inc/stm32f3xx_hal_gpio.h"
 322              		.file 7 "Drivers/STM32F3xx_HAL_Driver/Inc/stm32f3xx_hal_dma.h"
 323              		.file 8 "Drivers/STM32F3xx_HAL_Driver/Inc/stm32f3xx_hal_i2c.h"
 324              		.file 9 "Drivers/STM32F3xx_HAL_Driver/Inc/stm32f3xx_hal_i2c_ex.h"
 325              		.file 10 "Inc/main.h"
 326              		.file 11 "Inc/i2c.h"
ARM GAS  /var/folders/80/65lm4rm97rv_n74c85vt01040000gn/T//cclmiKWr.s 			page 10


DEFINED SYMBOLS
                            *ABS*:0000000000000000 i2c.c
/var/folders/80/65lm4rm97rv_n74c85vt01040000gn/T//cclmiKWr.s:18     .text.MX_I2C1_Init:0000000000000000 $t
/var/folders/80/65lm4rm97rv_n74c85vt01040000gn/T//cclmiKWr.s:26     .text.MX_I2C1_Init:0000000000000000 MX_I2C1_Init
/var/folders/80/65lm4rm97rv_n74c85vt01040000gn/T//cclmiKWr.s:123    .text.MX_I2C1_Init:0000000000000058 $d
/var/folders/80/65lm4rm97rv_n74c85vt01040000gn/T//cclmiKWr.s:130    .text.HAL_I2C_MspInit:0000000000000000 $t
/var/folders/80/65lm4rm97rv_n74c85vt01040000gn/T//cclmiKWr.s:137    .text.HAL_I2C_MspInit:0000000000000000 HAL_I2C_MspInit
/var/folders/80/65lm4rm97rv_n74c85vt01040000gn/T//cclmiKWr.s:244    .text.HAL_I2C_MspInit:0000000000000060 $d
/var/folders/80/65lm4rm97rv_n74c85vt01040000gn/T//cclmiKWr.s:251    .text.HAL_I2C_MspDeInit:0000000000000000 $t
/var/folders/80/65lm4rm97rv_n74c85vt01040000gn/T//cclmiKWr.s:258    .text.HAL_I2C_MspDeInit:0000000000000000 HAL_I2C_MspDeInit
/var/folders/80/65lm4rm97rv_n74c85vt01040000gn/T//cclmiKWr.s:301    .text.HAL_I2C_MspDeInit:0000000000000020 $d
/var/folders/80/65lm4rm97rv_n74c85vt01040000gn/T//cclmiKWr.s:313    .bss.hi2c1:0000000000000000 hi2c1
/var/folders/80/65lm4rm97rv_n74c85vt01040000gn/T//cclmiKWr.s:309    .bss.hi2c1:0000000000000000 $d

UNDEFINED SYMBOLS
HAL_I2C_Init
HAL_I2CEx_ConfigAnalogFilter
HAL_I2CEx_ConfigDigitalFilter
Error_Handler
HAL_GPIO_Init
HAL_GPIO_DeInit
