ARM GAS  /var/folders/k_/r2bh2pj93_jff4n9gmtn9jvr0000gn/T//ccAUK7QQ.s 			page 1


   1              		.cpu cortex-m4
   2              		.eabi_attribute 27, 1
   3              		.eabi_attribute 28, 1
   4              		.eabi_attribute 20, 1
   5              		.eabi_attribute 21, 1
   6              		.eabi_attribute 23, 3
   7              		.eabi_attribute 24, 1
   8              		.eabi_attribute 25, 1
   9              		.eabi_attribute 26, 1
  10              		.eabi_attribute 30, 2
  11              		.eabi_attribute 34, 1
  12              		.eabi_attribute 18, 4
  13              		.file	"kiss_fft.c"
  14              		.text
  15              	.Ltext0:
  16              		.cfi_sections	.debug_frame
  17              		.section	.text.kf_bfly4,"ax",%progbits
  18              		.align	1
  19              		.p2align 2,,3
  20              		.syntax unified
  21              		.thumb
  22              		.thumb_func
  23              		.fpu fpv4-sp-d16
  25              	kf_bfly4:
  26              	.LFB4:
  27              		.file 1 "Src/kiss_fft.c"
   1:Src/kiss_fft.c **** /*
   2:Src/kiss_fft.c ****  *  Copyright (c) 2003-2010, Mark Borgerding. All rights reserved.
   3:Src/kiss_fft.c ****  *  This file is part of KISS FFT - https://github.com/mborgerding/kissfft
   4:Src/kiss_fft.c ****  *
   5:Src/kiss_fft.c ****  *  SPDX-License-Identifier: BSD-3-Clause
   6:Src/kiss_fft.c ****  *  See COPYING file for more information.
   7:Src/kiss_fft.c ****  */
   8:Src/kiss_fft.c **** 
   9:Src/kiss_fft.c **** 
  10:Src/kiss_fft.c **** #include "_kiss_fft_guts.h"
  11:Src/kiss_fft.c **** /* The guts header contains all the multiplication and addition macros that are defined for
  12:Src/kiss_fft.c ****  fixed or floating point complex numbers.  It also delares the kf_ internal functions.
  13:Src/kiss_fft.c ****  */
  14:Src/kiss_fft.c **** 
  15:Src/kiss_fft.c **** static void kf_bfly2(
  16:Src/kiss_fft.c ****         kiss_fft_cpx * Fout,
  17:Src/kiss_fft.c ****         const size_t fstride,
  18:Src/kiss_fft.c ****         const kiss_fft_cfg st,
  19:Src/kiss_fft.c ****         int m
  20:Src/kiss_fft.c ****         )
  21:Src/kiss_fft.c **** {
  22:Src/kiss_fft.c ****     kiss_fft_cpx * Fout2;
  23:Src/kiss_fft.c ****     kiss_fft_cpx * tw1 = st->twiddles;
  24:Src/kiss_fft.c ****     kiss_fft_cpx t;
  25:Src/kiss_fft.c ****     Fout2 = Fout + m;
  26:Src/kiss_fft.c ****     do{
  27:Src/kiss_fft.c ****         C_FIXDIV(*Fout,2); C_FIXDIV(*Fout2,2);
  28:Src/kiss_fft.c **** 
  29:Src/kiss_fft.c ****         C_MUL (t,  *Fout2 , *tw1);
  30:Src/kiss_fft.c ****         tw1 += fstride;
  31:Src/kiss_fft.c ****         C_SUB( *Fout2 ,  *Fout , t );
ARM GAS  /var/folders/k_/r2bh2pj93_jff4n9gmtn9jvr0000gn/T//ccAUK7QQ.s 			page 2


  32:Src/kiss_fft.c ****         C_ADDTO( *Fout ,  t );
  33:Src/kiss_fft.c ****         ++Fout2;
  34:Src/kiss_fft.c ****         ++Fout;
  35:Src/kiss_fft.c ****     }while (--m);
  36:Src/kiss_fft.c **** }
  37:Src/kiss_fft.c **** 
  38:Src/kiss_fft.c **** static void kf_bfly4(
  39:Src/kiss_fft.c ****         kiss_fft_cpx * Fout,
  40:Src/kiss_fft.c ****         const size_t fstride,
  41:Src/kiss_fft.c ****         const kiss_fft_cfg st,
  42:Src/kiss_fft.c ****         const size_t m
  43:Src/kiss_fft.c ****         )
  44:Src/kiss_fft.c **** {
  28              		.loc 1 44 0
  29              		.cfi_startproc
  30              		@ args = 0, pretend = 0, frame = 0
  31              		@ frame_needed = 0, uses_anonymous_args = 0
  32              	.LVL0:
  33 0000 2DE9F043 		push	{r4, r5, r6, r7, r8, r9, lr}
  34              	.LCFI0:
  35              		.cfi_def_cfa_offset 28
  36              		.cfi_offset 4, -28
  37              		.cfi_offset 5, -24
  38              		.cfi_offset 6, -20
  39              		.cfi_offset 7, -16
  40              		.cfi_offset 8, -12
  41              		.cfi_offset 9, -8
  42              		.cfi_offset 14, -4
  45:Src/kiss_fft.c ****     kiss_fft_cpx *tw1,*tw2,*tw3;
  46:Src/kiss_fft.c ****     kiss_fft_cpx scratch[6];
  47:Src/kiss_fft.c ****     size_t k=m;
  48:Src/kiss_fft.c ****     const size_t m2=2*m;
  49:Src/kiss_fft.c ****     const size_t m3=3*m;
  50:Src/kiss_fft.c **** 
  51:Src/kiss_fft.c **** 
  52:Src/kiss_fft.c ****     tw3 = tw2 = tw1 = st->twiddles;
  53:Src/kiss_fft.c **** 
  54:Src/kiss_fft.c ****     do {
  55:Src/kiss_fft.c ****         C_FIXDIV(*Fout,4); C_FIXDIV(Fout[m],4); C_FIXDIV(Fout[m2],4); C_FIXDIV(Fout[m3],4);
  56:Src/kiss_fft.c **** 
  57:Src/kiss_fft.c ****         C_MUL(scratch[0],Fout[m] , *tw1 );
  43              		.loc 1 57 0
  44 0004 DF00     		lsls	r7, r3, #3
  52:Src/kiss_fft.c **** 
  45              		.loc 1 52 0
  46 0006 02F58476 		add	r6, r2, #264
  47              	.LVL1:
  48 000a 3C1D     		adds	r4, r7, #4
  49 000c 00EB0315 		add	r5, r0, r3, lsl #4
  58:Src/kiss_fft.c ****         C_MUL(scratch[1],Fout[m2] , *tw2 );
  59:Src/kiss_fft.c ****         C_MUL(scratch[2],Fout[m3] , *tw3 );
  60:Src/kiss_fft.c **** 
  61:Src/kiss_fft.c ****         C_SUB( scratch[5] , *Fout, scratch[1] );
  62:Src/kiss_fft.c ****         C_ADDTO(*Fout, scratch[1]);
  63:Src/kiss_fft.c ****         C_ADD( scratch[3] , scratch[0] , scratch[2] );
  64:Src/kiss_fft.c ****         C_SUB( scratch[4] , scratch[0] , scratch[2] );
  65:Src/kiss_fft.c ****         C_SUB( Fout[m2], *Fout, scratch[3] );
ARM GAS  /var/folders/k_/r2bh2pj93_jff4n9gmtn9jvr0000gn/T//ccAUK7QQ.s 			page 3


  66:Src/kiss_fft.c ****         tw1 += fstride;
  67:Src/kiss_fft.c ****         tw2 += fstride*2;
  68:Src/kiss_fft.c ****         tw3 += fstride*3;
  50              		.loc 1 68 0
  51 0010 01EB410E 		add	lr, r1, r1, lsl #1
  69:Src/kiss_fft.c ****         C_ADDTO( *Fout , scratch[3] );
  70:Src/kiss_fft.c **** 
  71:Src/kiss_fft.c ****         if(st->inverse) {
  52              		.loc 1 71 0
  53 0014 D2F80480 		ldr	r8, [r2, #4]
  54 0018 0444     		add	r4, r4, r0
  55 001a EA19     		adds	r2, r5, r7
  56              	.LVL2:
  66:Src/kiss_fft.c ****         tw2 += fstride*2;
  57              		.loc 1 66 0
  58 001c 4FEAC109 		lsl	r9, r1, #3
  44:Src/kiss_fft.c ****     kiss_fft_cpx *tw1,*tw2,*tw3;
  59              		.loc 1 44 0
  60 0020 2DED028B 		vpush.64	{d8}
  61              	.LCFI1:
  62              		.cfi_def_cfa_offset 36
  63              		.cfi_offset 80, -36
  64              		.cfi_offset 81, -32
  65 0024 0830     		adds	r0, r0, #8
  66              	.LVL3:
  52:Src/kiss_fft.c **** 
  67              		.loc 1 52 0
  68 0026 B446     		mov	ip, r6
  69 0028 3746     		mov	r7, r6
  68:Src/kiss_fft.c ****         C_ADDTO( *Fout , scratch[3] );
  70              		.loc 1 68 0
  71 002a 4FEACE0E 		lsl	lr, lr, #3
  67:Src/kiss_fft.c ****         tw3 += fstride*3;
  72              		.loc 1 67 0
  73 002e 0901     		lsls	r1, r1, #4
  74              	.LVL4:
  75 0030 11E0     		b	.L4
  76              	.LVL5:
  77              	.L9:
  72:Src/kiss_fft.c ****             Fout[m].r = scratch[5].r - scratch[4].i;
  78              		.loc 1 72 0
  79 0032 04ED017A 		vstr.32	s14, [r4, #-4]
  73:Src/kiss_fft.c ****             Fout[m].i = scratch[5].i + scratch[4].r;
  80              		.loc 1 73 0
  81 0036 C4ED007A 		vstr.32	s15, [r4]
  74:Src/kiss_fft.c ****             Fout[m3].r = scratch[5].r + scratch[4].i;
  82              		.loc 1 74 0
  83 003a 82ED006A 		vstr.32	s12, [r2]
  75:Src/kiss_fft.c ****             Fout[m3].i = scratch[5].i - scratch[4].r;
  84              		.loc 1 75 0
  85 003e C2ED016A 		vstr.32	s13, [r2, #4]
  86              	.L3:
  87              	.LVL6:
  76:Src/kiss_fft.c ****         }else{
  77:Src/kiss_fft.c ****             Fout[m].r = scratch[5].r + scratch[4].i;
  78:Src/kiss_fft.c ****             Fout[m].i = scratch[5].i - scratch[4].r;
  79:Src/kiss_fft.c ****             Fout[m3].r = scratch[5].r - scratch[4].i;
ARM GAS  /var/folders/k_/r2bh2pj93_jff4n9gmtn9jvr0000gn/T//ccAUK7QQ.s 			page 4


  80:Src/kiss_fft.c ****             Fout[m3].i = scratch[5].i + scratch[4].r;
  81:Src/kiss_fft.c ****         }
  82:Src/kiss_fft.c ****         ++Fout;
  83:Src/kiss_fft.c ****     }while(--k);
  88              		.loc 1 83 0
  89 0042 013B     		subs	r3, r3, #1
  90              	.LVL7:
  91 0044 00F10800 		add	r0, r0, #8
  92 0048 05F10805 		add	r5, r5, #8
  93 004c 02F10802 		add	r2, r2, #8
  94 0050 04F10804 		add	r4, r4, #8
  95              	.LVL8:
  96 0054 72D0     		beq	.L8
  97              	.LVL9:
  98              	.L4:
  59:Src/kiss_fft.c **** 
  99              		.loc 1 59 0
 100 0056 9CED001A 		vldr.32	s2, [ip]
 101 005a DCED011A 		vldr.32	s3, [ip, #4]
  58:Src/kiss_fft.c ****         C_MUL(scratch[2],Fout[m3] , *tw3 );
 102              		.loc 1 58 0
 103 005e D7ED002A 		vldr.32	s5, [r7]
 104 0062 97ED013A 		vldr.32	s6, [r7, #4]
  57:Src/kiss_fft.c ****         C_MUL(scratch[1],Fout[m2] , *tw2 );
 105              		.loc 1 57 0
 106 0066 96ED008A 		vldr.32	s16, [r6]
 107 006a D4ED007A 		vldr.32	s15, [r4]
 108 006e 96ED010A 		vldr.32	s0, [r6, #4]
  59:Src/kiss_fft.c **** 
 109              		.loc 1 59 0
 110 0072 D2ED015A 		vldr.32	s11, [r2, #4]
  58:Src/kiss_fft.c ****         C_MUL(scratch[2],Fout[m3] , *tw3 );
 111              		.loc 1 58 0
 112 0076 95ED015A 		vldr.32	s10, [r5, #4]
  59:Src/kiss_fft.c **** 
 113              		.loc 1 59 0
 114 007a 92ED002A 		vldr.32	s4, [r2]
  57:Src/kiss_fft.c ****         C_MUL(scratch[1],Fout[m2] , *tw2 );
 115              		.loc 1 57 0
 116 007e 54ED010A 		vldr.32	s1, [r4, #-4]
  58:Src/kiss_fft.c ****         C_MUL(scratch[2],Fout[m3] , *tw3 );
 117              		.loc 1 58 0
 118 0082 D5ED003A 		vldr.32	s7, [r5]
  61:Src/kiss_fft.c ****         C_ADDTO(*Fout, scratch[1]);
 119              		.loc 1 61 0
 120 0086 50ED026A 		vldr.32	s13, [r0, #-8]
 121 008a 50ED014A 		vldr.32	s9, [r0, #-4]
  58:Src/kiss_fft.c ****         C_MUL(scratch[2],Fout[m3] , *tw3 );
 122              		.loc 1 58 0
 123 008e 25EE434A 		vnmul.f32	s8, s10, s6
  57:Src/kiss_fft.c ****         C_MUL(scratch[1],Fout[m2] , *tw2 );
 124              		.loc 1 57 0
 125 0092 27EE886A 		vmul.f32	s12, s15, s16
 126 0096 27EEC07A 		vnmul.f32	s14, s15, s0
  58:Src/kiss_fft.c ****         C_MUL(scratch[2],Fout[m3] , *tw3 );
 127              		.loc 1 58 0
 128 009a 25EE225A 		vmul.f32	s10, s10, s5
ARM GAS  /var/folders/k_/r2bh2pj93_jff4n9gmtn9jvr0000gn/T//ccAUK7QQ.s 			page 5


  59:Src/kiss_fft.c **** 
 129              		.loc 1 59 0
 130 009e 65EEE17A 		vnmul.f32	s15, s11, s3
 131 00a2 65EE815A 		vmul.f32	s11, s11, s2
  58:Src/kiss_fft.c ****         C_MUL(scratch[2],Fout[m3] , *tw3 );
 132              		.loc 1 58 0
 133 00a6 A2EEA34A 		vfma.f32	s8, s5, s7
  66:Src/kiss_fft.c ****         tw2 += fstride*2;
 134              		.loc 1 66 0
 135 00aa 4E44     		add	r6, r6, r9
 136              	.LVL10:
  68:Src/kiss_fft.c ****         C_ADDTO( *Fout , scratch[3] );
 137              		.loc 1 68 0
 138 00ac F444     		add	ip, ip, lr
 139              	.LVL11:
  59:Src/kiss_fft.c **** 
 140              		.loc 1 59 0
 141 00ae E1EE825A 		vfma.f32	s11, s3, s4
  67:Src/kiss_fft.c ****         tw3 += fstride*3;
 142              		.loc 1 67 0
 143 00b2 0F44     		add	r7, r7, r1
 144              	.LVL12:
  57:Src/kiss_fft.c ****         C_MUL(scratch[1],Fout[m2] , *tw2 );
 145              		.loc 1 57 0
 146 00b4 A8EE207A 		vfma.f32	s14, s16, s1
 147              	.LVL13:
 148 00b8 A0EE206A 		vfma.f32	s12, s0, s1
 149              	.LVL14:
  59:Src/kiss_fft.c **** 
 150              		.loc 1 59 0
 151 00bc E1EE027A 		vfma.f32	s15, s2, s4
  58:Src/kiss_fft.c ****         C_MUL(scratch[2],Fout[m3] , *tw3 );
 152              		.loc 1 58 0
 153 00c0 A3EE235A 		vfma.f32	s10, s6, s7
 154              	.LVL15:
  63:Src/kiss_fft.c ****         C_SUB( scratch[4] , scratch[0] , scratch[2] );
 155              		.loc 1 63 0
 156 00c4 37EE872A 		vadd.f32	s4, s15, s14
  62:Src/kiss_fft.c ****         C_ADD( scratch[3] , scratch[0] , scratch[2] );
 157              		.loc 1 62 0
 158 00c8 36EE843A 		vadd.f32	s6, s13, s8
 159 00cc 74EE853A 		vadd.f32	s7, s9, s10
  63:Src/kiss_fft.c ****         C_SUB( scratch[4] , scratch[0] , scratch[2] );
 160              		.loc 1 63 0
 161 00d0 75EE862A 		vadd.f32	s5, s11, s12
  65:Src/kiss_fft.c ****         tw1 += fstride;
 162              		.loc 1 65 0
 163 00d4 33EE421A 		vsub.f32	s2, s6, s4
 164 00d8 73EEE21A 		vsub.f32	s3, s7, s5
  62:Src/kiss_fft.c ****         C_ADD( scratch[3] , scratch[0] , scratch[2] );
 165              		.loc 1 62 0
 166 00dc 00ED023A 		vstr.32	s6, [r0, #-8]
 167 00e0 40ED013A 		vstr.32	s7, [r0, #-4]
  65:Src/kiss_fft.c ****         tw1 += fstride;
 168              		.loc 1 65 0
 169 00e4 85ED001A 		vstr.32	s2, [r5]
 170 00e8 C5ED011A 		vstr.32	s3, [r5, #4]
ARM GAS  /var/folders/k_/r2bh2pj93_jff4n9gmtn9jvr0000gn/T//ccAUK7QQ.s 			page 6


  69:Src/kiss_fft.c **** 
 171              		.loc 1 69 0
 172 00ec 10ED023A 		vldr.32	s6, [r0, #-8]
 173 00f0 50ED013A 		vldr.32	s7, [r0, #-4]
  64:Src/kiss_fft.c ****         C_SUB( Fout[m2], *Fout, scratch[3] );
 174              		.loc 1 64 0
 175 00f4 77EE677A 		vsub.f32	s15, s14, s15
 176              	.LVL16:
  61:Src/kiss_fft.c ****         C_ADDTO(*Fout, scratch[1]);
 177              		.loc 1 61 0
 178 00f8 34EEC55A 		vsub.f32	s10, s9, s10
 179              	.LVL17:
 180 00fc 36EEC47A 		vsub.f32	s14, s13, s8
 181              	.LVL18:
  64:Src/kiss_fft.c ****         C_SUB( Fout[m2], *Fout, scratch[3] );
 182              		.loc 1 64 0
 183 0100 76EE656A 		vsub.f32	s13, s12, s11
 184              	.LVL19:
  69:Src/kiss_fft.c **** 
 185              		.loc 1 69 0
 186 0104 33EEA26A 		vadd.f32	s12, s7, s5
 187              	.LVL20:
 188 0108 73EE025A 		vadd.f32	s11, s6, s4
 189              	.LVL21:
 190 010c 00ED016A 		vstr.32	s12, [r0, #-4]
 191 0110 40ED025A 		vstr.32	s11, [r0, #-8]
 192 0114 36EE876A 		vadd.f32	s12, s13, s14
 193 0118 37EE667A 		vsub.f32	s14, s14, s13
 194 011c 75EE676A 		vsub.f32	s13, s10, s15
 195 0120 77EE857A 		vadd.f32	s15, s15, s10
  71:Src/kiss_fft.c ****             Fout[m].r = scratch[5].r - scratch[4].i;
 196              		.loc 1 71 0
 197 0124 B8F1000F 		cmp	r8, #0
 198 0128 83D1     		bne	.L9
  77:Src/kiss_fft.c ****             Fout[m].i = scratch[5].i - scratch[4].r;
 199              		.loc 1 77 0
 200 012a 04ED016A 		vstr.32	s12, [r4, #-4]
  78:Src/kiss_fft.c ****             Fout[m3].r = scratch[5].r - scratch[4].i;
 201              		.loc 1 78 0
 202 012e C4ED006A 		vstr.32	s13, [r4]
  79:Src/kiss_fft.c ****             Fout[m3].i = scratch[5].i + scratch[4].r;
 203              		.loc 1 79 0
 204 0132 82ED007A 		vstr.32	s14, [r2]
  80:Src/kiss_fft.c ****         }
 205              		.loc 1 80 0
 206 0136 C2ED017A 		vstr.32	s15, [r2, #4]
 207 013a 82E7     		b	.L3
 208              	.L8:
  84:Src/kiss_fft.c **** }
 209              		.loc 1 84 0
 210 013c BDEC028B 		vldm	sp!, {d8}
 211              	.LCFI2:
 212              		.cfi_restore 80
 213              		.cfi_restore 81
 214              		.cfi_def_cfa_offset 28
 215 0140 BDE8F083 		pop	{r4, r5, r6, r7, r8, r9, pc}
 216              		.cfi_endproc
ARM GAS  /var/folders/k_/r2bh2pj93_jff4n9gmtn9jvr0000gn/T//ccAUK7QQ.s 			page 7


 217              	.LFE4:
 219              		.global	__aeabi_f2d
 220              		.global	__aeabi_dmul
 221              		.global	__aeabi_dsub
 222              		.global	__aeabi_d2f
 223              		.section	.text.kf_bfly3,"ax",%progbits
 224              		.align	1
 225              		.p2align 2,,3
 226              		.syntax unified
 227              		.thumb
 228              		.thumb_func
 229              		.fpu fpv4-sp-d16
 231              	kf_bfly3:
 232              	.LFB5:
  85:Src/kiss_fft.c **** 
  86:Src/kiss_fft.c **** static void kf_bfly3(
  87:Src/kiss_fft.c ****          kiss_fft_cpx * Fout,
  88:Src/kiss_fft.c ****          const size_t fstride,
  89:Src/kiss_fft.c ****          const kiss_fft_cfg st,
  90:Src/kiss_fft.c ****          size_t m
  91:Src/kiss_fft.c ****          )
  92:Src/kiss_fft.c **** {
 233              		.loc 1 92 0
 234              		.cfi_startproc
 235              		@ args = 0, pretend = 0, frame = 16
 236              		@ frame_needed = 0, uses_anonymous_args = 0
 237              	.LVL22:
 238 0000 2DE9F04F 		push	{r4, r5, r6, r7, r8, r9, r10, fp, lr}
 239              	.LCFI3:
 240              		.cfi_def_cfa_offset 36
 241              		.cfi_offset 4, -36
 242              		.cfi_offset 5, -32
 243              		.cfi_offset 6, -28
 244              		.cfi_offset 7, -24
 245              		.cfi_offset 8, -20
 246              		.cfi_offset 9, -16
 247              		.cfi_offset 10, -12
 248              		.cfi_offset 11, -8
 249              		.cfi_offset 14, -4
 250 0004 2DED068B 		vpush.64	{d8, d9, d10}
 251              	.LCFI4:
 252              		.cfi_def_cfa_offset 60
 253              		.cfi_offset 80, -60
 254              		.cfi_offset 81, -56
 255              		.cfi_offset 82, -52
 256              		.cfi_offset 83, -48
 257              		.cfi_offset 84, -44
 258              		.cfi_offset 85, -40
 259 0008 9946     		mov	r9, r3
 260              	.LVL23:
  93:Src/kiss_fft.c ****      size_t k=m;
  94:Src/kiss_fft.c ****      const size_t m2 = 2*m;
  95:Src/kiss_fft.c ****      kiss_fft_cpx *tw1,*tw2;
  96:Src/kiss_fft.c ****      kiss_fft_cpx scratch[5];
  97:Src/kiss_fft.c ****      kiss_fft_cpx epi3;
  98:Src/kiss_fft.c ****      epi3 = st->twiddles[fstride*m];
 261              		.loc 1 98 0
ARM GAS  /var/folders/k_/r2bh2pj93_jff4n9gmtn9jvr0000gn/T//ccAUK7QQ.s 			page 8


 262 000a 01FB03F3 		mul	r3, r1, r3
 263              	.LVL24:
  92:Src/kiss_fft.c ****      size_t k=m;
 264              		.loc 1 92 0
 265 000e 85B0     		sub	sp, sp, #20
 266              	.LCFI5:
 267              		.cfi_def_cfa_offset 80
 268              		.loc 1 98 0
 269 0010 02EBC303 		add	r3, r2, r3, lsl #3
  99:Src/kiss_fft.c **** 
 100:Src/kiss_fft.c ****      tw1=tw2=st->twiddles;
 101:Src/kiss_fft.c **** 
 102:Src/kiss_fft.c ****      do{
 103:Src/kiss_fft.c ****          C_FIXDIV(*Fout,3); C_FIXDIV(Fout[m],3); C_FIXDIV(Fout[m2],3);
 104:Src/kiss_fft.c **** 
 105:Src/kiss_fft.c ****          C_MUL(scratch[1],Fout[m] , *tw1);
 270              		.loc 1 105 0
 271 0014 4FEAC90A 		lsl	r10, r9, #3
  98:Src/kiss_fft.c **** 
 272              		.loc 1 98 0
 273 0018 93ED43AA 		vldr.32	s20, [r3, #268]
 274              	.LVL25:
 106:Src/kiss_fft.c ****          C_MUL(scratch[2],Fout[m2] , *tw2);
 107:Src/kiss_fft.c **** 
 108:Src/kiss_fft.c ****          C_ADD(scratch[3],scratch[1],scratch[2]);
 109:Src/kiss_fft.c ****          C_SUB(scratch[0],scratch[1],scratch[2]);
 110:Src/kiss_fft.c ****          tw1 += fstride;
 275              		.loc 1 110 0
 276 001c CB00     		lsls	r3, r1, #3
 277 001e 0AF10405 		add	r5, r10, #4
 100:Src/kiss_fft.c **** 
 278              		.loc 1 100 0
 279 0022 02F58477 		add	r7, r2, #264
 280              	.LVL26:
 281 0026 00EB0A06 		add	r6, r0, r10
 282 002a 00EB091B 		add	fp, r0, r9, lsl #4
 283              		.loc 1 110 0
 284 002e 0293     		str	r3, [sp, #8]
 111:Src/kiss_fft.c ****          tw2 += fstride*2;
 285              		.loc 1 111 0
 286 0030 0B01     		lsls	r3, r1, #4
 287 0032 B244     		add	r10, r10, r6
 288 0034 0544     		add	r5, r5, r0
 100:Src/kiss_fft.c **** 
 289              		.loc 1 100 0
 290 0036 B846     		mov	r8, r7
 291 0038 0BF1040B 		add	fp, fp, #4
 292 003c 00F10804 		add	r4, r0, #8
 293              		.loc 1 111 0
 294 0040 0393     		str	r3, [sp, #12]
 295              	.LVL27:
 296              	.L11:
 105:Src/kiss_fft.c ****          C_MUL(scratch[2],Fout[m2] , *tw2);
 297              		.loc 1 105 0 discriminator 1
 298 0042 97ED017A 		vldr.32	s14, [r7, #4]
 106:Src/kiss_fft.c **** 
 299              		.loc 1 106 0 discriminator 1
ARM GAS  /var/folders/k_/r2bh2pj93_jff4n9gmtn9jvr0000gn/T//ccAUK7QQ.s 			page 9


 300 0046 D8ED015A 		vldr.32	s11, [r8, #4]
 105:Src/kiss_fft.c ****          C_MUL(scratch[2],Fout[m2] , *tw2);
 301              		.loc 1 105 0 discriminator 1
 302 004a 97ED006A 		vldr.32	s12, [r7]
 106:Src/kiss_fft.c **** 
 303              		.loc 1 106 0 discriminator 1
 304 004e 98ED004A 		vldr.32	s8, [r8]
 105:Src/kiss_fft.c ****          C_MUL(scratch[2],Fout[m2] , *tw2);
 305              		.loc 1 105 0 discriminator 1
 306 0052 96ED018A 		vldr.32	s16, [r6, #4]
 106:Src/kiss_fft.c **** 
 307              		.loc 1 106 0 discriminator 1
 308 0056 DAED017A 		vldr.32	s15, [r10, #4]
 105:Src/kiss_fft.c ****          C_MUL(scratch[2],Fout[m2] , *tw2);
 309              		.loc 1 105 0 discriminator 1
 310 005a 55ED014A 		vldr.32	s9, [r5, #-4]
 106:Src/kiss_fft.c **** 
 311              		.loc 1 106 0 discriminator 1
 312 005e 1BED015A 		vldr.32	s10, [fp, #-4]
 110:Src/kiss_fft.c ****          tw2 += fstride*2;
 313              		.loc 1 110 0 discriminator 1
 314 0062 029B     		ldr	r3, [sp, #8]
 112:Src/kiss_fft.c **** 
 113:Src/kiss_fft.c ****          Fout[m].r = Fout->r - HALF_OF(scratch[3].r);
 315              		.loc 1 113 0 discriminator 1
 316 0064 54F8080C 		ldr	r0, [r4, #-8]	@ float
 105:Src/kiss_fft.c ****          C_MUL(scratch[2],Fout[m2] , *tw2);
 317              		.loc 1 105 0 discriminator 1
 318 0068 67EE488A 		vnmul.f32	s17, s14, s16
 106:Src/kiss_fft.c **** 
 319              		.loc 1 106 0 discriminator 1
 320 006c 65EEE76A 		vnmul.f32	s13, s11, s15
 105:Src/kiss_fft.c ****          C_MUL(scratch[2],Fout[m2] , *tw2);
 321              		.loc 1 105 0 discriminator 1
 322 0070 26EE088A 		vmul.f32	s16, s12, s16
 106:Src/kiss_fft.c **** 
 323              		.loc 1 106 0 discriminator 1
 324 0074 64EE277A 		vmul.f32	s15, s8, s15
 105:Src/kiss_fft.c ****          C_MUL(scratch[2],Fout[m2] , *tw2);
 325              		.loc 1 105 0 discriminator 1
 326 0078 A4EE878A 		vfma.f32	s16, s9, s14
 110:Src/kiss_fft.c ****          tw2 += fstride*2;
 327              		.loc 1 110 0 discriminator 1
 328 007c 1F44     		add	r7, r7, r3
 329              	.LVL28:
 111:Src/kiss_fft.c **** 
 330              		.loc 1 111 0 discriminator 1
 331 007e 039B     		ldr	r3, [sp, #12]
 106:Src/kiss_fft.c **** 
 332              		.loc 1 106 0 discriminator 1
 333 0080 E5EE257A 		vfma.f32	s15, s10, s11
 111:Src/kiss_fft.c **** 
 334              		.loc 1 111 0 discriminator 1
 335 0084 9844     		add	r8, r8, r3
 336              	.LVL29:
 337 0086 0834     		adds	r4, r4, #8
 105:Src/kiss_fft.c ****          C_MUL(scratch[2],Fout[m2] , *tw2);
ARM GAS  /var/folders/k_/r2bh2pj93_jff4n9gmtn9jvr0000gn/T//ccAUK7QQ.s 			page 10


 338              		.loc 1 105 0 discriminator 1
 339 0088 E4EE868A 		vfma.f32	s17, s9, s12
 340              	.LVL30:
 341 008c 0BF1080B 		add	fp, fp, #8
 342 0090 0AF1080A 		add	r10, r10, #8
 106:Src/kiss_fft.c **** 
 343              		.loc 1 106 0 discriminator 1
 344 0094 E5EE046A 		vfma.f32	s13, s10, s8
 345              	.LVL31:
 346 0098 0835     		adds	r5, r5, #8
 347              	.LVL32:
 348 009a 0836     		adds	r6, r6, #8
 108:Src/kiss_fft.c ****          C_SUB(scratch[0],scratch[1],scratch[2]);
 349              		.loc 1 108 0 discriminator 1
 350 009c 38EE279A 		vadd.f32	s18, s16, s15
 351 00a0 78EEA69A 		vadd.f32	s19, s17, s13
 352              	.LVL33:
 109:Src/kiss_fft.c ****          tw1 += fstride;
 353              		.loc 1 109 0 discriminator 1
 354 00a4 38EE678A 		vsub.f32	s16, s16, s15
 355              	.LVL34:
 356 00a8 78EEE68A 		vsub.f32	s17, s17, s13
 357              	.LVL35:
 358              		.loc 1 113 0 discriminator 1
 359 00ac FFF7FEFF 		bl	__aeabi_f2d
 360              	.LVL36:
 361 00b0 CDE90001 		strd	r0, [sp]
 362 00b4 19EE900A 		vmov	r0, s19
 363 00b8 FFF7FEFF 		bl	__aeabi_f2d
 364              	.LVL37:
 365 00bc 0022     		movs	r2, #0
 366 00be 294B     		ldr	r3, .L14
 367 00c0 FFF7FEFF 		bl	__aeabi_dmul
 368              	.LVL38:
 369 00c4 0246     		mov	r2, r0
 370 00c6 0B46     		mov	r3, r1
 371 00c8 DDE90001 		ldrd	r0, [sp]
 372 00cc FFF7FEFF 		bl	__aeabi_dsub
 373              	.LVL39:
 374 00d0 FFF7FEFF 		bl	__aeabi_d2f
 375              	.LVL40:
 376 00d4 45F80C0C 		str	r0, [r5, #-12]	@ float
 114:Src/kiss_fft.c ****          Fout[m].i = Fout->i - HALF_OF(scratch[3].i);
 377              		.loc 1 114 0 discriminator 1
 378 00d8 54F80C0C 		ldr	r0, [r4, #-12]	@ float
 379 00dc FFF7FEFF 		bl	__aeabi_f2d
 380              	.LVL41:
 381 00e0 CDE90001 		strd	r0, [sp]
 382 00e4 19EE100A 		vmov	r0, s18
 383 00e8 FFF7FEFF 		bl	__aeabi_f2d
 384              	.LVL42:
 385 00ec 0022     		movs	r2, #0
 386 00ee 1D4B     		ldr	r3, .L14
 387 00f0 FFF7FEFF 		bl	__aeabi_dmul
 388              	.LVL43:
 389 00f4 0246     		mov	r2, r0
 390 00f6 0B46     		mov	r3, r1
ARM GAS  /var/folders/k_/r2bh2pj93_jff4n9gmtn9jvr0000gn/T//ccAUK7QQ.s 			page 11


 391 00f8 DDE90001 		ldrd	r0, [sp]
 392 00fc FFF7FEFF 		bl	__aeabi_dsub
 393              	.LVL44:
 394 0100 FFF7FEFF 		bl	__aeabi_d2f
 395              	.LVL45:
 396 0104 46F8040C 		str	r0, [r6, #-4]	@ float
 397              	.LVL46:
 115:Src/kiss_fft.c **** 
 116:Src/kiss_fft.c ****          C_MULBYSCALAR( scratch[0] , epi3.i );
 117:Src/kiss_fft.c **** 
 118:Src/kiss_fft.c ****          C_ADDTO(*Fout,scratch[3]);
 398              		.loc 1 118 0 discriminator 1
 399 0108 54ED037A 		vldr.32	s15, [r4, #-12]
 400 010c 14ED047A 		vldr.32	s14, [r4, #-16]
 401 0110 37EE899A 		vadd.f32	s18, s15, s18
 402              	.LVL47:
 403 0114 77EE299A 		vadd.f32	s19, s14, s19
 404              	.LVL48:
 405 0118 04ED039A 		vstr.32	s18, [r4, #-12]
 406 011c 44ED049A 		vstr.32	s19, [r4, #-16]
 119:Src/kiss_fft.c **** 
 120:Src/kiss_fft.c ****          Fout[m2].r = Fout[m].r + scratch[0].i;
 407              		.loc 1 120 0 discriminator 1
 408 0120 55ED037A 		vldr.32	s15, [r5, #-12]
 409 0124 E8EE0A7A 		vfma.f32	s15, s16, s20
 121:Src/kiss_fft.c ****          Fout[m2].i = Fout[m].i - scratch[0].r;
 122:Src/kiss_fft.c **** 
 123:Src/kiss_fft.c ****          Fout[m].r -= scratch[0].i;
 124:Src/kiss_fft.c ****          Fout[m].i += scratch[0].r;
 125:Src/kiss_fft.c **** 
 126:Src/kiss_fft.c ****          ++Fout;
 127:Src/kiss_fft.c ****      }while(--k);
 410              		.loc 1 127 0 discriminator 1
 411 0128 B9F10109 		subs	r9, r9, #1
 412              	.LVL49:
 120:Src/kiss_fft.c ****          Fout[m2].i = Fout[m].i - scratch[0].r;
 413              		.loc 1 120 0 discriminator 1
 414 012c 4BED037A 		vstr.32	s15, [fp, #-12]
 121:Src/kiss_fft.c ****          Fout[m2].i = Fout[m].i - scratch[0].r;
 415              		.loc 1 121 0 discriminator 1
 416 0130 56ED017A 		vldr.32	s15, [r6, #-4]
 417 0134 E8EECA7A 		vfms.f32	s15, s17, s20
 418 0138 4AED017A 		vstr.32	s15, [r10, #-4]
 123:Src/kiss_fft.c ****          Fout[m].i += scratch[0].r;
 419              		.loc 1 123 0 discriminator 1
 420 013c 55ED037A 		vldr.32	s15, [r5, #-12]
 421 0140 E8EE4A7A 		vfms.f32	s15, s16, s20
 422 0144 45ED037A 		vstr.32	s15, [r5, #-12]
 124:Src/kiss_fft.c **** 
 423              		.loc 1 124 0 discriminator 1
 424 0148 56ED017A 		vldr.32	s15, [r6, #-4]
 425 014c E8EE8A7A 		vfma.f32	s15, s17, s20
 426 0150 46ED017A 		vstr.32	s15, [r6, #-4]
 427              	.LVL50:
 428              		.loc 1 127 0 discriminator 1
 429 0154 7FF475AF 		bne	.L11
 128:Src/kiss_fft.c **** }
ARM GAS  /var/folders/k_/r2bh2pj93_jff4n9gmtn9jvr0000gn/T//ccAUK7QQ.s 			page 12


 430              		.loc 1 128 0
 431 0158 05B0     		add	sp, sp, #20
 432              	.LCFI6:
 433              		.cfi_def_cfa_offset 60
 434              		@ sp needed
 435 015a BDEC068B 		vldm	sp!, {d8-d10}
 436              	.LCFI7:
 437              		.cfi_restore 84
 438              		.cfi_restore 85
 439              		.cfi_restore 82
 440              		.cfi_restore 83
 441              		.cfi_restore 80
 442              		.cfi_restore 81
 443              		.cfi_def_cfa_offset 36
 444              	.LVL51:
 445 015e BDE8F08F 		pop	{r4, r5, r6, r7, r8, r9, r10, fp, pc}
 446              	.LVL52:
 447              	.L15:
 448 0162 00BF     		.align	2
 449              	.L14:
 450 0164 0000E03F 		.word	1071644672
 451              		.cfi_endproc
 452              	.LFE5:
 454              		.section	.text.kf_bfly5,"ax",%progbits
 455              		.align	1
 456              		.p2align 2,,3
 457              		.syntax unified
 458              		.thumb
 459              		.thumb_func
 460              		.fpu fpv4-sp-d16
 462              	kf_bfly5:
 463              	.LFB6:
 129:Src/kiss_fft.c **** 
 130:Src/kiss_fft.c **** static void kf_bfly5(
 131:Src/kiss_fft.c ****         kiss_fft_cpx * Fout,
 132:Src/kiss_fft.c ****         const size_t fstride,
 133:Src/kiss_fft.c ****         const kiss_fft_cfg st,
 134:Src/kiss_fft.c ****         int m
 135:Src/kiss_fft.c ****         )
 136:Src/kiss_fft.c **** {
 464              		.loc 1 136 0
 465              		.cfi_startproc
 466              		@ args = 0, pretend = 0, frame = 8
 467              		@ frame_needed = 0, uses_anonymous_args = 0
 468              	.LVL53:
 469 0000 2DE9F04F 		push	{r4, r5, r6, r7, r8, r9, r10, fp, lr}
 470              	.LCFI8:
 471              		.cfi_def_cfa_offset 36
 472              		.cfi_offset 4, -36
 473              		.cfi_offset 5, -32
 474              		.cfi_offset 6, -28
 475              		.cfi_offset 7, -24
 476              		.cfi_offset 8, -20
 477              		.cfi_offset 9, -16
 478              		.cfi_offset 10, -12
 479              		.cfi_offset 11, -8
 480              		.cfi_offset 14, -4
ARM GAS  /var/folders/k_/r2bh2pj93_jff4n9gmtn9jvr0000gn/T//ccAUK7QQ.s 			page 13


 137:Src/kiss_fft.c ****     kiss_fft_cpx *Fout0,*Fout1,*Fout2,*Fout3,*Fout4;
 138:Src/kiss_fft.c ****     int u;
 139:Src/kiss_fft.c ****     kiss_fft_cpx scratch[13];
 140:Src/kiss_fft.c ****     kiss_fft_cpx * twiddles = st->twiddles;
 141:Src/kiss_fft.c ****     kiss_fft_cpx *tw;
 142:Src/kiss_fft.c ****     kiss_fft_cpx ya,yb;
 143:Src/kiss_fft.c ****     ya = twiddles[fstride*m];
 481              		.loc 1 143 0
 482 0004 01FB03F7 		mul	r7, r1, r3
 144:Src/kiss_fft.c ****     yb = twiddles[fstride*2*m];
 145:Src/kiss_fft.c **** 
 146:Src/kiss_fft.c ****     Fout0=Fout;
 147:Src/kiss_fft.c ****     Fout1=Fout0+m;
 483              		.loc 1 147 0
 484 0008 DC00     		lsls	r4, r3, #3
 143:Src/kiss_fft.c ****     yb = twiddles[fstride*2*m];
 485              		.loc 1 143 0
 486 000a FF00     		lsls	r7, r7, #3
 136:Src/kiss_fft.c ****     kiss_fft_cpx *Fout0,*Fout1,*Fout2,*Fout3,*Fout4;
 487              		.loc 1 136 0
 488 000c 2DED088B 		vpush.64	{d8, d9, d10, d11}
 489              	.LCFI9:
 490              		.cfi_def_cfa_offset 68
 491              		.cfi_offset 80, -68
 492              		.cfi_offset 81, -64
 493              		.cfi_offset 82, -60
 494              		.cfi_offset 83, -56
 495              		.cfi_offset 84, -52
 496              		.cfi_offset 85, -48
 497              		.cfi_offset 86, -44
 498              		.cfi_offset 87, -40
 140:Src/kiss_fft.c ****     kiss_fft_cpx *tw;
 499              		.loc 1 140 0
 500 0010 02F5847C 		add	ip, r2, #264
 501              	.LVL54:
 143:Src/kiss_fft.c ****     yb = twiddles[fstride*2*m];
 502              		.loc 1 143 0
 503 0014 BC44     		add	ip, ip, r7
 504              	.LVL55:
 505              		.loc 1 147 0
 506 0016 0619     		adds	r6, r0, r4
 144:Src/kiss_fft.c **** 
 507              		.loc 1 144 0
 508 0018 6744     		add	r7, r7, ip
 148:Src/kiss_fft.c ****     Fout2=Fout0+2*m;
 509              		.loc 1 148 0
 510 001a 3519     		adds	r5, r6, r4
 149:Src/kiss_fft.c ****     Fout3=Fout0+3*m;
 150:Src/kiss_fft.c ****     Fout4=Fout0+4*m;
 151:Src/kiss_fft.c **** 
 152:Src/kiss_fft.c ****     tw=st->twiddles;
 153:Src/kiss_fft.c ****     for ( u=0; u<m; ++u ) {
 511              		.loc 1 153 0
 512 001c 002B     		cmp	r3, #0
 144:Src/kiss_fft.c **** 
 513              		.loc 1 144 0
 514 001e D7ED001A 		vldr.32	s3, [r7]
ARM GAS  /var/folders/k_/r2bh2pj93_jff4n9gmtn9jvr0000gn/T//ccAUK7QQ.s 			page 14


 515 0022 97ED011A 		vldr.32	s2, [r7, #4]
 143:Src/kiss_fft.c ****     yb = twiddles[fstride*2*m];
 516              		.loc 1 143 0
 517 0026 DCED002A 		vldr.32	s5, [ip]
 518              	.LVL56:
 519 002a 9CED012A 		vldr.32	s4, [ip, #4]
 520              	.LVL57:
 136:Src/kiss_fft.c ****     kiss_fft_cpx *Fout0,*Fout1,*Fout2,*Fout3,*Fout4;
 521              		.loc 1 136 0
 522 002e 83B0     		sub	sp, sp, #12
 523              	.LCFI10:
 524              		.cfi_def_cfa_offset 80
 149:Src/kiss_fft.c ****     Fout4=Fout0+4*m;
 525              		.loc 1 149 0
 526 0030 05EB0407 		add	r7, r5, r4
 527              	.LVL58:
 528              		.loc 1 153 0
 529 0034 40F3DC80 		ble	.L16
 530 0038 0830     		adds	r0, r0, #8
 531              	.LVL59:
 532 003a 02F58672 		add	r2, r2, #268
 533              	.LVL60:
 534 003e 0190     		str	r0, [sp, #4]
 535 0040 01EB410A 		add	r10, r1, r1, lsl #1
 536 0044 0801     		lsls	r0, r1, #4
 537              	.LVL61:
 538 0046 0834     		adds	r4, r4, #8
 539              	.LVL62:
 540 0048 3C44     		add	r4, r4, r7
 541              	.LVL63:
 542 004a 4FEAC10B 		lsl	fp, r1, #3
 543 004e 0090     		str	r0, [sp]
 544 0050 0836     		adds	r6, r6, #8
 545              	.LVL64:
 546 0052 0198     		ldr	r0, [sp, #4]
 547 0054 0193     		str	r3, [sp, #4]
 548              	.LVL65:
 549 0056 0835     		adds	r5, r5, #8
 550 0058 0837     		adds	r7, r7, #8
 551 005a 9046     		mov	r8, r2
 552 005c 9646     		mov	lr, r2
 553 005e 9446     		mov	ip, r2
 554 0060 4FEACA0A 		lsl	r10, r10, #3
 555 0064 4901     		lsls	r1, r1, #5
 556              	.LVL66:
 557 0066 4FF00009 		mov	r9, #0
 558              	.LVL67:
 559              	.L18:
 154:Src/kiss_fft.c ****         C_FIXDIV( *Fout0,5); C_FIXDIV( *Fout1,5); C_FIXDIV( *Fout2,5); C_FIXDIV( *Fout3,5); C_FIXDI
 155:Src/kiss_fft.c ****         scratch[0] = *Fout0;
 156:Src/kiss_fft.c **** 
 157:Src/kiss_fft.c ****         C_MUL(scratch[1] ,*Fout1, tw[u*fstride]);
 560              		.loc 1 157 0 discriminator 3
 561 006a 12ED018A 		vldr.32	s16, [r2, #-4]
 562 006e 92ED00BA 		vldr.32	s22, [r2]
 563 0072 16ED016A 		vldr.32	s12, [r6, #-4]
 564 0076 56ED02BA 		vldr.32	s23, [r6, #-8]
ARM GAS  /var/folders/k_/r2bh2pj93_jff4n9gmtn9jvr0000gn/T//ccAUK7QQ.s 			page 15


 158:Src/kiss_fft.c ****         C_MUL(scratch[2] ,*Fout2, tw[2*u*fstride]);
 159:Src/kiss_fft.c ****         C_MUL(scratch[3] ,*Fout3, tw[3*u*fstride]);
 160:Src/kiss_fft.c ****         C_MUL(scratch[4] ,*Fout4, tw[4*u*fstride]);
 565              		.loc 1 160 0 discriminator 3
 566 007a 58ED01AA 		vldr.32	s21, [r8, #-4]
 567 007e 98ED005A 		vldr.32	s10, [r8]
 568 0082 14ED014A 		vldr.32	s8, [r4, #-4]
 158:Src/kiss_fft.c ****         C_MUL(scratch[2] ,*Fout2, tw[2*u*fstride]);
 569              		.loc 1 158 0 discriminator 3
 570 0086 5CED019A 		vldr.32	s19, [ip, #-4]
 571 008a DCED008A 		vldr.32	s17, [ip]
 159:Src/kiss_fft.c ****         C_MUL(scratch[4] ,*Fout4, tw[4*u*fstride]);
 572              		.loc 1 159 0 discriminator 3
 573 008e 1EED010A 		vldr.32	s0, [lr, #-4]
 574 0092 DEED004A 		vldr.32	s9, [lr]
 575              		.loc 1 160 0 discriminator 3
 576 0096 54ED020A 		vldr.32	s1, [r4, #-8]
 158:Src/kiss_fft.c ****         C_MUL(scratch[2] ,*Fout2, tw[2*u*fstride]);
 577              		.loc 1 158 0 discriminator 3
 578 009a 15ED017A 		vldr.32	s14, [r5, #-4]
 159:Src/kiss_fft.c ****         C_MUL(scratch[4] ,*Fout4, tw[4*u*fstride]);
 579              		.loc 1 159 0 discriminator 3
 580 009e 57ED016A 		vldr.32	s13, [r7, #-4]
 158:Src/kiss_fft.c ****         C_MUL(scratch[2] ,*Fout2, tw[2*u*fstride]);
 581              		.loc 1 158 0 discriminator 3
 582 00a2 15ED029A 		vldr.32	s18, [r5, #-8]
 159:Src/kiss_fft.c ****         C_MUL(scratch[4] ,*Fout4, tw[4*u*fstride]);
 583              		.loc 1 159 0 discriminator 3
 584 00a6 57ED023A 		vldr.32	s7, [r7, #-8]
 155:Src/kiss_fft.c **** 
 585              		.loc 1 155 0 discriminator 3
 586 00aa 50ED017A 		vldr.32	s15, [r0, #-4]
 587 00ae 50ED025A 		vldr.32	s11, [r0, #-8]
 588              	.LVL68:
 589 00b2 009B     		ldr	r3, [sp]
 157:Src/kiss_fft.c ****         C_MUL(scratch[2] ,*Fout2, tw[2*u*fstride]);
 590              		.loc 1 157 0 discriminator 3
 591 00b4 28EE063A 		vmul.f32	s6, s16, s12
 592 00b8 2BEE466A 		vnmul.f32	s12, s22, s12
 593              		.loc 1 160 0 discriminator 3
 594 00bc 25EE44AA 		vnmul.f32	s20, s10, s8
 157:Src/kiss_fft.c ****         C_MUL(scratch[2] ,*Fout2, tw[2*u*fstride]);
 595              		.loc 1 157 0 discriminator 3
 596 00c0 ABEE886A 		vfma.f32	s12, s23, s16
 597 00c4 9C44     		add	ip, ip, r3
 153:Src/kiss_fft.c ****         C_FIXDIV( *Fout0,5); C_FIXDIV( *Fout1,5); C_FIXDIV( *Fout2,5); C_FIXDIV( *Fout3,5); C_FIXDI
 598              		.loc 1 153 0 discriminator 3
 599 00c6 019B     		ldr	r3, [sp, #4]
 600              		.loc 1 160 0 discriminator 3
 601 00c8 2AEE844A 		vmul.f32	s8, s21, s8
 157:Src/kiss_fft.c ****         C_MUL(scratch[2] ,*Fout2, tw[2*u*fstride]);
 602              		.loc 1 157 0 discriminator 3
 603 00cc B0EE468A 		vmov.f32	s16, s12
 604              	.LVL69:
 605              		.loc 1 160 0 discriminator 3
 606 00d0 A0EE854A 		vfma.f32	s8, s1, s10
 153:Src/kiss_fft.c ****         C_FIXDIV( *Fout0,5); C_FIXDIV( *Fout1,5); C_FIXDIV( *Fout2,5); C_FIXDIV( *Fout3,5); C_FIXDI
ARM GAS  /var/folders/k_/r2bh2pj93_jff4n9gmtn9jvr0000gn/T//ccAUK7QQ.s 			page 16


 607              		.loc 1 153 0 discriminator 3
 608 00d4 09F10109 		add	r9, r9, #1
 609              	.LVL70:
 610 00d8 4B45     		cmp	r3, r9
 611              		.loc 1 160 0 discriminator 3
 612 00da A0EEAAAA 		vfma.f32	s20, s1, s21
 613 00de 5A44     		add	r2, r2, fp
 614 00e0 8844     		add	r8, r8, r1
 158:Src/kiss_fft.c ****         C_MUL(scratch[3] ,*Fout3, tw[3*u*fstride]);
 615              		.loc 1 158 0 discriminator 3
 616 00e2 68EEC70A 		vnmul.f32	s1, s17, s14
 617 00e6 29EE876A 		vmul.f32	s12, s19, s14
 618              	.LVL71:
 159:Src/kiss_fft.c ****         C_MUL(scratch[4] ,*Fout4, tw[4*u*fstride]);
 619              		.loc 1 159 0 discriminator 3
 620 00ea 24EEE65A 		vnmul.f32	s10, s9, s13
 621 00ee 20EE267A 		vmul.f32	s14, s0, s13
 157:Src/kiss_fft.c ****         C_MUL(scratch[2] ,*Fout2, tw[2*u*fstride]);
 622              		.loc 1 157 0 discriminator 3
 623 00f2 ABEE8B3A 		vfma.f32	s6, s23, s22
 624              	.LVL72:
 625 00f6 D644     		add	lr, lr, r10
 626 00f8 00F10800 		add	r0, r0, #8
 627              	.LVL73:
 158:Src/kiss_fft.c ****         C_MUL(scratch[3] ,*Fout3, tw[3*u*fstride]);
 628              		.loc 1 158 0 discriminator 3
 629 00fc E9EE290A 		vfma.f32	s1, s18, s19
 630              	.LVL74:
 631 0100 06F10806 		add	r6, r6, #8
 632 0104 04F10804 		add	r4, r4, #8
 633 0108 A9EE286A 		vfma.f32	s12, s18, s17
 634              	.LVL75:
 635 010c 05F10805 		add	r5, r5, #8
 636 0110 07F10807 		add	r7, r7, #8
 159:Src/kiss_fft.c ****         C_MUL(scratch[4] ,*Fout4, tw[4*u*fstride]);
 637              		.loc 1 159 0 discriminator 3
 638 0114 A3EEA47A 		vfma.f32	s14, s7, s9
 639 0118 A3EE805A 		vfma.f32	s10, s7, s0
 640              	.LVL76:
 161:Src/kiss_fft.c **** 
 162:Src/kiss_fft.c ****         C_ADD( scratch[7],scratch[1],scratch[4]);
 641              		.loc 1 162 0 discriminator 3
 642 011c 73EE046A 		vadd.f32	s13, s6, s8
 643 0120 78EE0A4A 		vadd.f32	s9, s16, s20
 163:Src/kiss_fft.c ****         C_SUB( scratch[10],scratch[1],scratch[4]);
 164:Src/kiss_fft.c ****         C_ADD( scratch[8],scratch[2],scratch[3]);
 165:Src/kiss_fft.c ****         C_SUB( scratch[9],scratch[2],scratch[3]);
 166:Src/kiss_fft.c **** 
 167:Src/kiss_fft.c ****         Fout0->r += scratch[7].r + scratch[8].r;
 168:Src/kiss_fft.c ****         Fout0->i += scratch[7].i + scratch[8].i;
 169:Src/kiss_fft.c **** 
 170:Src/kiss_fft.c ****         scratch[5].r = scratch[0].r + S_MUL(scratch[7].r,ya.r) + S_MUL(scratch[8].r,yb.r);
 171:Src/kiss_fft.c ****         scratch[5].i = scratch[0].i + S_MUL(scratch[7].i,ya.r) + S_MUL(scratch[8].i,yb.r);
 644              		.loc 1 171 0 discriminator 3
 645 0124 B0EE670A 		vmov.f32	s0, s15
 165:Src/kiss_fft.c **** 
 646              		.loc 1 165 0 discriminator 3
ARM GAS  /var/folders/k_/r2bh2pj93_jff4n9gmtn9jvr0000gn/T//ccAUK7QQ.s 			page 17


 647 0128 70EEC53A 		vsub.f32	s7, s1, s10
 648 012c 76EE47AA 		vsub.f32	s21, s12, s14
 163:Src/kiss_fft.c ****         C_SUB( scratch[10],scratch[1],scratch[4]);
 649              		.loc 1 163 0 discriminator 3
 650 0130 33EE443A 		vsub.f32	s6, s6, s8
 651              	.LVL77:
 170:Src/kiss_fft.c ****         scratch[5].i = scratch[0].i + S_MUL(scratch[7].i,ya.r) + S_MUL(scratch[8].i,yb.r);
 652              		.loc 1 170 0 discriminator 3
 653 0134 F0EE658A 		vmov.f32	s17, s11
 172:Src/kiss_fft.c **** 
 173:Src/kiss_fft.c ****         scratch[6].r =  S_MUL(scratch[10].i,ya.i) + S_MUL(scratch[9].i,yb.i);
 174:Src/kiss_fft.c ****         scratch[6].i = -S_MUL(scratch[10].r,ya.i) - S_MUL(scratch[9].r,yb.i);
 175:Src/kiss_fft.c **** 
 176:Src/kiss_fft.c ****         C_SUB(*Fout1,scratch[5],scratch[6]);
 177:Src/kiss_fft.c ****         C_ADD(*Fout4,scratch[5],scratch[6]);
 178:Src/kiss_fft.c **** 
 179:Src/kiss_fft.c ****         scratch[11].r = scratch[0].r + S_MUL(scratch[7].r,yb.r) + S_MUL(scratch[8].r,ya.r);
 654              		.loc 1 179 0 discriminator 3
 655 0138 B0EE659A 		vmov.f32	s18, s11
 171:Src/kiss_fft.c **** 
 656              		.loc 1 171 0 discriminator 3
 657 013c A6EEA20A 		vfma.f32	s0, s13, s5
 180:Src/kiss_fft.c ****         scratch[11].i = scratch[0].i + S_MUL(scratch[7].i,yb.r) + S_MUL(scratch[8].i,ya.r);
 658              		.loc 1 180 0 discriminator 3
 659 0140 B0EE674A 		vmov.f32	s8, s15
 170:Src/kiss_fft.c ****         scratch[5].i = scratch[0].i + S_MUL(scratch[7].i,ya.r) + S_MUL(scratch[8].i,yb.r);
 660              		.loc 1 170 0 discriminator 3
 661 0144 E4EEA28A 		vfma.f32	s17, s9, s5
 179:Src/kiss_fft.c ****         scratch[11].i = scratch[0].i + S_MUL(scratch[7].i,yb.r) + S_MUL(scratch[8].i,ya.r);
 662              		.loc 1 179 0 discriminator 3
 663 0148 A4EEA19A 		vfma.f32	s18, s9, s3
 664              		.loc 1 180 0 discriminator 3
 665 014c A6EEA14A 		vfma.f32	s8, s13, s3
 164:Src/kiss_fft.c ****         C_SUB( scratch[9],scratch[2],scratch[3]);
 666              		.loc 1 164 0 discriminator 3
 667 0150 30EE855A 		vadd.f32	s10, s1, s10
 668              	.LVL78:
 163:Src/kiss_fft.c ****         C_ADD( scratch[8],scratch[2],scratch[3]);
 669              		.loc 1 163 0 discriminator 3
 670 0154 38EE4AAA 		vsub.f32	s20, s16, s20
 174:Src/kiss_fft.c **** 
 671              		.loc 1 174 0 discriminator 3
 672 0158 61EE630A 		vnmul.f32	s1, s2, s7
 673              	.LVL79:
 173:Src/kiss_fft.c ****         scratch[6].i = -S_MUL(scratch[10].r,ya.i) - S_MUL(scratch[9].r,yb.i);
 674              		.loc 1 173 0 discriminator 3
 675 015c 2AEE818A 		vmul.f32	s16, s21, s2
 676              	.LVL80:
 164:Src/kiss_fft.c ****         C_SUB( scratch[9],scratch[2],scratch[3]);
 677              		.loc 1 164 0 discriminator 3
 678 0160 36EE077A 		vadd.f32	s14, s12, s14
 679              	.LVL81:
 181:Src/kiss_fft.c ****         scratch[12].r = - S_MUL(scratch[10].i,yb.i) + S_MUL(scratch[9].i,ya.i);
 680              		.loc 1 181 0 discriminator 3
 681 0164 61EE439A 		vnmul.f32	s19, s2, s6
 182:Src/kiss_fft.c ****         scratch[12].i = S_MUL(scratch[10].r,yb.i) - S_MUL(scratch[9].r,ya.i);
 682              		.loc 1 182 0 discriminator 3
ARM GAS  /var/folders/k_/r2bh2pj93_jff4n9gmtn9jvr0000gn/T//ccAUK7QQ.s 			page 18


 683 0168 22EE636A 		vnmul.f32	s12, s4, s7
 684              	.LVL82:
 173:Src/kiss_fft.c ****         scratch[6].i = -S_MUL(scratch[10].r,ya.i) - S_MUL(scratch[9].r,yb.i);
 685              		.loc 1 173 0 discriminator 3
 686 016c A3EE028A 		vfma.f32	s16, s6, s4
 174:Src/kiss_fft.c **** 
 687              		.loc 1 174 0 discriminator 3
 688 0170 F0EE603A 		vmov.f32	s7, s1
 171:Src/kiss_fft.c **** 
 689              		.loc 1 171 0 discriminator 3
 690 0174 B0EE403A 		vmov.f32	s6, s0
 170:Src/kiss_fft.c ****         scratch[5].i = scratch[0].i + S_MUL(scratch[7].i,ya.r) + S_MUL(scratch[8].i,yb.r);
 691              		.loc 1 170 0 discriminator 3
 692 0178 E5EE218A 		vfma.f32	s17, s10, s3
 179:Src/kiss_fft.c ****         scratch[11].i = scratch[0].i + S_MUL(scratch[7].i,yb.r) + S_MUL(scratch[8].i,ya.r);
 693              		.loc 1 179 0 discriminator 3
 694 017c A5EE229A 		vfma.f32	s18, s10, s5
 171:Src/kiss_fft.c **** 
 695              		.loc 1 171 0 discriminator 3
 696 0180 A7EE213A 		vfma.f32	s6, s14, s3
 180:Src/kiss_fft.c ****         scratch[12].r = - S_MUL(scratch[10].i,yb.i) + S_MUL(scratch[9].i,ya.i);
 697              		.loc 1 180 0 discriminator 3
 698 0184 A7EE224A 		vfma.f32	s8, s14, s5
 181:Src/kiss_fft.c ****         scratch[12].i = S_MUL(scratch[10].r,yb.i) - S_MUL(scratch[9].r,ya.i);
 699              		.loc 1 181 0 discriminator 3
 700 0188 EAEE829A 		vfma.f32	s19, s21, s4
 174:Src/kiss_fft.c **** 
 701              		.loc 1 174 0 discriminator 3
 702 018c EAEE423A 		vfms.f32	s7, s20, s4
 703              		.loc 1 182 0 discriminator 3
 704 0190 AAEE016A 		vfma.f32	s12, s20, s2
 168:Src/kiss_fft.c **** 
 705              		.loc 1 168 0 discriminator 3
 706 0194 36EE877A 		vadd.f32	s14, s13, s14
 167:Src/kiss_fft.c ****         Fout0->i += scratch[7].i + scratch[8].i;
 707              		.loc 1 167 0 discriminator 3
 708 0198 34EE855A 		vadd.f32	s10, s9, s10
 168:Src/kiss_fft.c **** 
 709              		.loc 1 168 0 discriminator 3
 710 019c 77EE277A 		vadd.f32	s15, s14, s15
 711              	.LVL83:
 176:Src/kiss_fft.c ****         C_ADD(*Fout4,scratch[5],scratch[6]);
 712              		.loc 1 176 0 discriminator 3
 713 01a0 78EEC84A 		vsub.f32	s9, s17, s16
 167:Src/kiss_fft.c ****         Fout0->i += scratch[7].i + scratch[8].i;
 714              		.loc 1 167 0 discriminator 3
 715 01a4 75EE255A 		vadd.f32	s11, s10, s11
 716              	.LVL84:
 183:Src/kiss_fft.c **** 
 184:Src/kiss_fft.c ****         C_ADD(*Fout2,scratch[11],scratch[12]);
 717              		.loc 1 184 0 discriminator 3
 718 01a8 79EE296A 		vadd.f32	s13, s18, s19
 176:Src/kiss_fft.c ****         C_ADD(*Fout4,scratch[5],scratch[6]);
 719              		.loc 1 176 0 discriminator 3
 720 01ac 33EE635A 		vsub.f32	s10, s6, s7
 721              		.loc 1 184 0 discriminator 3
 722 01b0 34EE067A 		vadd.f32	s14, s8, s12
ARM GAS  /var/folders/k_/r2bh2pj93_jff4n9gmtn9jvr0000gn/T//ccAUK7QQ.s 			page 19


 177:Src/kiss_fft.c **** 
 723              		.loc 1 177 0 discriminator 3
 724 01b4 38EE888A 		vadd.f32	s16, s17, s16
 725 01b8 73EE233A 		vadd.f32	s7, s6, s7
 185:Src/kiss_fft.c ****         C_SUB(*Fout3,scratch[11],scratch[12]);
 726              		.loc 1 185 0 discriminator 3
 727 01bc 39EE699A 		vsub.f32	s18, s18, s19
 728 01c0 34EE466A 		vsub.f32	s12, s8, s12
 168:Src/kiss_fft.c **** 
 729              		.loc 1 168 0 discriminator 3
 730 01c4 40ED037A 		vstr.32	s15, [r0, #-12]
 731              	.LVL85:
 167:Src/kiss_fft.c ****         Fout0->i += scratch[7].i + scratch[8].i;
 732              		.loc 1 167 0 discriminator 3
 733 01c8 40ED045A 		vstr.32	s11, [r0, #-16]
 734              	.LVL86:
 176:Src/kiss_fft.c ****         C_ADD(*Fout4,scratch[5],scratch[6]);
 735              		.loc 1 176 0 discriminator 3
 736 01cc 46ED044A 		vstr.32	s9, [r6, #-16]
 737 01d0 06ED035A 		vstr.32	s10, [r6, #-12]
 177:Src/kiss_fft.c **** 
 738              		.loc 1 177 0 discriminator 3
 739 01d4 04ED048A 		vstr.32	s16, [r4, #-16]
 740 01d8 44ED033A 		vstr.32	s7, [r4, #-12]
 184:Src/kiss_fft.c ****         C_SUB(*Fout3,scratch[11],scratch[12]);
 741              		.loc 1 184 0 discriminator 3
 742 01dc 45ED046A 		vstr.32	s13, [r5, #-16]
 743 01e0 05ED037A 		vstr.32	s14, [r5, #-12]
 744              		.loc 1 185 0 discriminator 3
 745 01e4 07ED049A 		vstr.32	s18, [r7, #-16]
 746 01e8 07ED036A 		vstr.32	s12, [r7, #-12]
 747              	.LVL87:
 153:Src/kiss_fft.c ****         C_FIXDIV( *Fout0,5); C_FIXDIV( *Fout1,5); C_FIXDIV( *Fout2,5); C_FIXDIV( *Fout3,5); C_FIXDI
 748              		.loc 1 153 0 discriminator 3
 749 01ec 7FF43DAF 		bne	.L18
 750              	.LVL88:
 751              	.L16:
 186:Src/kiss_fft.c **** 
 187:Src/kiss_fft.c ****         ++Fout0;++Fout1;++Fout2;++Fout3;++Fout4;
 188:Src/kiss_fft.c ****     }
 189:Src/kiss_fft.c **** }
 752              		.loc 1 189 0
 753 01f0 03B0     		add	sp, sp, #12
 754              	.LCFI11:
 755              		.cfi_def_cfa_offset 68
 756              		@ sp needed
 757 01f2 BDEC088B 		vldm	sp!, {d8-d11}
 758              	.LCFI12:
 759              		.cfi_restore 86
 760              		.cfi_restore 87
 761              		.cfi_restore 84
 762              		.cfi_restore 85
 763              		.cfi_restore 82
 764              		.cfi_restore 83
 765              		.cfi_restore 80
 766              		.cfi_restore 81
 767              		.cfi_def_cfa_offset 36
ARM GAS  /var/folders/k_/r2bh2pj93_jff4n9gmtn9jvr0000gn/T//ccAUK7QQ.s 			page 20


 768 01f6 BDE8F08F 		pop	{r4, r5, r6, r7, r8, r9, r10, fp, pc}
 769              		.cfi_endproc
 770              	.LFE6:
 772 01fa 00BF     		.section	.text.kf_bfly_generic,"ax",%progbits
 773              		.align	1
 774              		.p2align 2,,3
 775              		.syntax unified
 776              		.thumb
 777              		.thumb_func
 778              		.fpu fpv4-sp-d16
 780              	kf_bfly_generic:
 781              	.LFB7:
 190:Src/kiss_fft.c **** 
 191:Src/kiss_fft.c **** /* perform the butterfly for one stage of a mixed radix FFT */
 192:Src/kiss_fft.c **** static void kf_bfly_generic(
 193:Src/kiss_fft.c ****         kiss_fft_cpx * Fout,
 194:Src/kiss_fft.c ****         const size_t fstride,
 195:Src/kiss_fft.c ****         const kiss_fft_cfg st,
 196:Src/kiss_fft.c ****         int m,
 197:Src/kiss_fft.c ****         int p
 198:Src/kiss_fft.c ****         )
 199:Src/kiss_fft.c **** {
 782              		.loc 1 199 0
 783              		.cfi_startproc
 784              		@ args = 4, pretend = 0, frame = 32
 785              		@ frame_needed = 0, uses_anonymous_args = 0
 786              	.LVL89:
 787 0000 2DE9F04F 		push	{r4, r5, r6, r7, r8, r9, r10, fp, lr}
 788              	.LCFI13:
 789              		.cfi_def_cfa_offset 36
 790              		.cfi_offset 4, -36
 791              		.cfi_offset 5, -32
 792              		.cfi_offset 6, -28
 793              		.cfi_offset 7, -24
 794              		.cfi_offset 8, -20
 795              		.cfi_offset 9, -16
 796              		.cfi_offset 10, -12
 797              		.cfi_offset 11, -8
 798              		.cfi_offset 14, -4
 799 0004 89B0     		sub	sp, sp, #36
 800              	.LCFI14:
 801              		.cfi_def_cfa_offset 72
 802              		.loc 1 199 0
 803 0006 0446     		mov	r4, r0
 804 0008 DDF84880 		ldr	r8, [sp, #72]
 805 000c 0693     		str	r3, [sp, #24]
 200:Src/kiss_fft.c ****     int u,k,q1,q;
 201:Src/kiss_fft.c ****     kiss_fft_cpx * twiddles = st->twiddles;
 202:Src/kiss_fft.c ****     kiss_fft_cpx t;
 203:Src/kiss_fft.c ****     int Norig = st->nfft;
 204:Src/kiss_fft.c **** 
 205:Src/kiss_fft.c ****     kiss_fft_cpx * scratch = (kiss_fft_cpx*)KISS_FFT_TMP_ALLOC(sizeof(kiss_fft_cpx)*p);
 806              		.loc 1 205 0
 807 000e 4FEAC806 		lsl	r6, r8, #3
 808 0012 3046     		mov	r0, r6
 809              	.LVL90:
 199:Src/kiss_fft.c ****     int u,k,q1,q;
ARM GAS  /var/folders/k_/r2bh2pj93_jff4n9gmtn9jvr0000gn/T//ccAUK7QQ.s 			page 21


 810              		.loc 1 199 0
 811 0014 9A46     		mov	r10, r3
 812 0016 0F46     		mov	r7, r1
 813 0018 0591     		str	r1, [sp, #20]
 201:Src/kiss_fft.c ****     kiss_fft_cpx t;
 814              		.loc 1 201 0
 815 001a 02F58479 		add	r9, r2, #264
 816              	.LVL91:
 203:Src/kiss_fft.c **** 
 817              		.loc 1 203 0
 818 001e 1568     		ldr	r5, [r2]
 819              	.LVL92:
 820              		.loc 1 205 0
 821 0020 FFF7FEFF 		bl	malloc
 822              	.LVL93:
 206:Src/kiss_fft.c **** 
 207:Src/kiss_fft.c ****     for ( u=0; u<m; ++u ) {
 823              		.loc 1 207 0
 824 0024 5346     		mov	r3, r10
 825 0026 002B     		cmp	r3, #0
 205:Src/kiss_fft.c **** 
 826              		.loc 1 205 0
 827 0028 8646     		mov	lr, r0
 828              	.LVL94:
 829              		.loc 1 207 0
 830 002a 67DD     		ble	.L22
 831 002c 0022     		movs	r2, #0
 832 002e 083E     		subs	r6, r6, #8
 833 0030 03FB07F3 		mul	r3, r3, r7
 834 0034 0292     		str	r2, [sp, #8]
 835 0036 06EB000C 		add	ip, r6, r0
 836 003a 0194     		str	r4, [sp, #4]
 837 003c 0392     		str	r2, [sp, #12]
 838 003e 4FEACA0B 		lsl	fp, r10, #3
 839 0042 0793     		str	r3, [sp, #28]
 840              	.LVL95:
 841              	.L23:
 208:Src/kiss_fft.c ****         k=u;
 209:Src/kiss_fft.c ****         for ( q1=0 ; q1<p ; ++q1 ) {
 842              		.loc 1 209 0
 843 0044 B8F1000F 		cmp	r8, #0
 844 0048 4BDD     		ble	.L29
 845 004a 019B     		ldr	r3, [sp, #4]
 846 004c 0027     		movs	r7, #0
 847              	.LVL96:
 848              	.L24:
 210:Src/kiss_fft.c ****             scratch[q1] = Fout[ k  ];
 849              		.loc 1 210 0 discriminator 3
 850 004e 93E80300 		ldm	r3, {r0, r1}
 851 0052 0EEBC702 		add	r2, lr, r7, lsl #3
 209:Src/kiss_fft.c ****             scratch[q1] = Fout[ k  ];
 852              		.loc 1 209 0 discriminator 3
 853 0056 0137     		adds	r7, r7, #1
 854              	.LVL97:
 855 0058 B845     		cmp	r8, r7
 856 005a 5B44     		add	r3, r3, fp
 857              		.loc 1 210 0 discriminator 3
ARM GAS  /var/folders/k_/r2bh2pj93_jff4n9gmtn9jvr0000gn/T//ccAUK7QQ.s 			page 22


 858 005c 82E80300 		stm	r2, {r0, r1}
 859              	.LVL98:
 209:Src/kiss_fft.c ****             scratch[q1] = Fout[ k  ];
 860              		.loc 1 209 0 discriminator 3
 861 0060 F5D1     		bne	.L24
 862 0062 019C     		ldr	r4, [sp, #4]
 211:Src/kiss_fft.c ****             C_FIXDIV(scratch[q1],p);
 212:Src/kiss_fft.c ****             k += m;
 213:Src/kiss_fft.c ****         }
 214:Src/kiss_fft.c **** 
 215:Src/kiss_fft.c ****         k=u;
 216:Src/kiss_fft.c ****         for ( q1=0 ; q1<p ; ++q1 ) {
 863              		.loc 1 216 0
 864 0064 CDF81080 		str	r8, [sp, #16]
 209:Src/kiss_fft.c ****             scratch[q1] = Fout[ k  ];
 865              		.loc 1 209 0
 866 0068 029E     		ldr	r6, [sp, #8]
 867              		.loc 1 216 0
 868 006a DDF81C80 		ldr	r8, [sp, #28]
 869 006e 221D     		adds	r2, r4, #4
 870 0070 4FF0000A 		mov	r10, #0
 871              	.LVL99:
 872              	.L28:
 873              	.LBB3:
 217:Src/kiss_fft.c ****             int twidx=0;
 218:Src/kiss_fft.c ****             Fout[ k ] = scratch[0];
 874              		.loc 1 218 0
 875 0074 9EE80300 		ldm	lr, {r0, r1}
 876 0078 131F     		subs	r3, r2, #4
 219:Src/kiss_fft.c ****             for (q=1;q<p;++q ) {
 877              		.loc 1 219 0
 878 007a 012F     		cmp	r7, #1
 218:Src/kiss_fft.c ****             for (q=1;q<p;++q ) {
 879              		.loc 1 218 0
 880 007c 83E80300 		stm	r3, {r0, r1}
 881              	.LVL100:
 882              		.loc 1 219 0
 883 0080 26D0     		beq	.L25
 884 0082 12ED016A 		vldr.32	s12, [r2, #-4]
 885 0086 D4ED016A 		vldr.32	s13, [r4, #4]
 886 008a 7146     		mov	r1, lr
 217:Src/kiss_fft.c ****             int twidx=0;
 887              		.loc 1 217 0
 888 008c 0023     		movs	r3, #0
 889              	.LVL101:
 890              	.L27:
 220:Src/kiss_fft.c ****                 twidx += fstride * k;
 891              		.loc 1 220 0
 892 008e 3344     		add	r3, r3, r6
 893              	.LVL102:
 221:Src/kiss_fft.c ****                 if (twidx>=Norig) twidx-=Norig;
 894              		.loc 1 221 0
 895 0090 9D42     		cmp	r5, r3
 896 0092 D8BF     		it	le
 897 0094 5B1B     		suble	r3, r3, r5
 898              	.LVL103:
 222:Src/kiss_fft.c ****                 C_MUL(t,scratch[q] , twiddles[twidx] );
ARM GAS  /var/folders/k_/r2bh2pj93_jff4n9gmtn9jvr0000gn/T//ccAUK7QQ.s 			page 23


 899              		.loc 1 222 0
 900 0096 09EBC300 		add	r0, r9, r3, lsl #3
 901 009a 90ED015A 		vldr.32	s10, [r0, #4]
 902 009e D1ED037A 		vldr.32	s15, [r1, #12]
 903 00a2 D0ED004A 		vldr.32	s9, [r0]
 904 00a6 D1ED025A 		vldr.32	s11, [r1, #8]
 905              	.LVL104:
 906 00aa 27EEC57A 		vnmul.f32	s14, s15, s10
 907 00ae 67EEA47A 		vmul.f32	s15, s15, s9
 908              	.LVL105:
 909 00b2 A4EEA57A 		vfma.f32	s14, s9, s11
 910              	.LVL106:
 911 00b6 0831     		adds	r1, r1, #8
 912              	.LVL107:
 219:Src/kiss_fft.c ****                 twidx += fstride * k;
 913              		.loc 1 219 0
 914 00b8 6145     		cmp	r1, ip
 915              		.loc 1 222 0
 916 00ba E5EE257A 		vfma.f32	s15, s10, s11
 917              	.LVL108:
 223:Src/kiss_fft.c ****                 C_ADDTO( Fout[ k ] ,t);
 918              		.loc 1 223 0
 919 00be 36EE076A 		vadd.f32	s12, s12, s14
 920 00c2 76EEA76A 		vadd.f32	s13, s13, s15
 921 00c6 02ED016A 		vstr.32	s12, [r2, #-4]
 922 00ca C4ED016A 		vstr.32	s13, [r4, #4]
 219:Src/kiss_fft.c ****                 twidx += fstride * k;
 923              		.loc 1 219 0
 924 00ce DED1     		bne	.L27
 925              	.LVL109:
 926              	.L25:
 927              	.LBE3:
 216:Src/kiss_fft.c ****             int twidx=0;
 928              		.loc 1 216 0
 929 00d0 0AF1010A 		add	r10, r10, #1
 930              	.LVL110:
 931 00d4 BA45     		cmp	r10, r7
 932 00d6 5C44     		add	r4, r4, fp
 933 00d8 4644     		add	r6, r6, r8
 934 00da 5A44     		add	r2, r2, fp
 935 00dc CAD1     		bne	.L28
 936 00de DDF81080 		ldr	r8, [sp, #16]
 937              	.LVL111:
 938              	.L29:
 939 00e2 019A     		ldr	r2, [sp, #4]
 940 00e4 0599     		ldr	r1, [sp, #20]
 207:Src/kiss_fft.c ****         k=u;
 941              		.loc 1 207 0
 942 00e6 039B     		ldr	r3, [sp, #12]
 943 00e8 0832     		adds	r2, r2, #8
 944 00ea 0192     		str	r2, [sp, #4]
 945 00ec 029A     		ldr	r2, [sp, #8]
 946 00ee 0A44     		add	r2, r2, r1
 947 00f0 0292     		str	r2, [sp, #8]
 948 00f2 069A     		ldr	r2, [sp, #24]
 949 00f4 0133     		adds	r3, r3, #1
 950 00f6 9A42     		cmp	r2, r3
ARM GAS  /var/folders/k_/r2bh2pj93_jff4n9gmtn9jvr0000gn/T//ccAUK7QQ.s 			page 24


 951 00f8 0393     		str	r3, [sp, #12]
 952              	.LVL112:
 953 00fa A3D1     		bne	.L23
 954              	.LVL113:
 955              	.L22:
 224:Src/kiss_fft.c ****             }
 225:Src/kiss_fft.c ****             k += m;
 226:Src/kiss_fft.c ****         }
 227:Src/kiss_fft.c ****     }
 228:Src/kiss_fft.c ****     KISS_FFT_TMP_FREE(scratch);
 956              		.loc 1 228 0
 957 00fc 7046     		mov	r0, lr
 229:Src/kiss_fft.c **** }
 958              		.loc 1 229 0
 959 00fe 09B0     		add	sp, sp, #36
 960              	.LCFI15:
 961              		.cfi_def_cfa_offset 36
 962              		@ sp needed
 963 0100 BDE8F04F 		pop	{r4, r5, r6, r7, r8, r9, r10, fp, lr}
 964              	.LCFI16:
 965              		.cfi_restore 14
 966              		.cfi_restore 11
 967              		.cfi_restore 10
 968              		.cfi_restore 9
 969              		.cfi_restore 8
 970              		.cfi_restore 7
 971              		.cfi_restore 6
 972              		.cfi_restore 5
 973              		.cfi_restore 4
 974              		.cfi_def_cfa_offset 0
 975              	.LVL114:
 228:Src/kiss_fft.c **** }
 976              		.loc 1 228 0
 977 0104 FFF7FEBF 		b	free
 978              	.LVL115:
 979              		.cfi_endproc
 980              	.LFE7:
 982              		.section	.text.kf_work,"ax",%progbits
 983              		.align	1
 984              		.p2align 2,,3
 985              		.syntax unified
 986              		.thumb
 987              		.thumb_func
 988              		.fpu fpv4-sp-d16
 990              	kf_work:
 991              	.LFB8:
 230:Src/kiss_fft.c **** 
 231:Src/kiss_fft.c **** static
 232:Src/kiss_fft.c **** void kf_work(
 233:Src/kiss_fft.c ****         kiss_fft_cpx * Fout,
 234:Src/kiss_fft.c ****         const kiss_fft_cpx * f,
 235:Src/kiss_fft.c ****         const size_t fstride,
 236:Src/kiss_fft.c ****         int in_stride,
 237:Src/kiss_fft.c ****         int * factors,
 238:Src/kiss_fft.c ****         const kiss_fft_cfg st
 239:Src/kiss_fft.c ****         )
 240:Src/kiss_fft.c **** {
ARM GAS  /var/folders/k_/r2bh2pj93_jff4n9gmtn9jvr0000gn/T//ccAUK7QQ.s 			page 25


 992              		.loc 1 240 0
 993              		.cfi_startproc
 994              		@ args = 8, pretend = 0, frame = 176
 995              		@ frame_needed = 0, uses_anonymous_args = 0
 996              	.LVL116:
 997 0000 2DE9F04F 		push	{r4, r5, r6, r7, r8, r9, r10, fp, lr}
 998              	.LCFI17:
 999              		.cfi_def_cfa_offset 36
 1000              		.cfi_offset 4, -36
 1001              		.cfi_offset 5, -32
 1002              		.cfi_offset 6, -28
 1003              		.cfi_offset 7, -24
 1004              		.cfi_offset 8, -20
 1005              		.cfi_offset 9, -16
 1006              		.cfi_offset 10, -12
 1007              		.cfi_offset 11, -8
 1008              		.cfi_offset 14, -4
 1009 0004 AFB0     		sub	sp, sp, #188
 1010              	.LCFI18:
 1011              		.cfi_def_cfa_offset 224
 1012              		.loc 1 240 0
 1013 0006 DDE938B4 		ldrd	fp, r4, [sp, #224]
 241:Src/kiss_fft.c ****     kiss_fft_cpx * Fout_beg=Fout;
 242:Src/kiss_fft.c ****     const int p=*factors++; /* the radix  */
 1014              		.loc 1 242 0
 1015 000a DBF80050 		ldr	r5, [fp]
 243:Src/kiss_fft.c ****     const int m=*factors++; /* stage's fft length/p */
 1016              		.loc 1 243 0
 1017 000e DBF80460 		ldr	r6, [fp, #4]
 240:Src/kiss_fft.c ****     kiss_fft_cpx * Fout_beg=Fout;
 1018              		.loc 1 240 0
 1019 0012 2592     		str	r2, [sp, #148]
 1020 0014 1746     		mov	r7, r2
 244:Src/kiss_fft.c ****     const kiss_fft_cpx * Fout_end = Fout + p*m;
 1021              		.loc 1 244 0
 1022 0016 06FB05F2 		mul	r2, r6, r5
 1023              	.LVL117:
 1024 001a D200     		lsls	r2, r2, #3
 242:Src/kiss_fft.c ****     const int m=*factors++; /* stage's fft length/p */
 1025              		.loc 1 242 0
 1026 001c 1F95     		str	r5, [sp, #124]
 1027              	.LVL118:
 240:Src/kiss_fft.c ****     kiss_fft_cpx * Fout_beg=Fout;
 1028              		.loc 1 240 0
 1029 001e 0893     		str	r3, [sp, #32]
 1030              		.loc 1 244 0
 1031 0020 8518     		adds	r5, r0, r2
 1032              	.LVL119:
 1033 0022 03FB07F3 		mul	r3, r3, r7
 1034              	.LVL120:
 1035 0026 2195     		str	r5, [sp, #132]
 245:Src/kiss_fft.c **** 
 246:Src/kiss_fft.c **** #ifdef _OPENMP
 247:Src/kiss_fft.c ****     // use openmp extensions at the 
 248:Src/kiss_fft.c ****     // top-level (not recursive)
 249:Src/kiss_fft.c ****     if (fstride==1 && p<=5 && m!=1)
 250:Src/kiss_fft.c ****     {
ARM GAS  /var/folders/k_/r2bh2pj93_jff4n9gmtn9jvr0000gn/T//ccAUK7QQ.s 			page 26


 251:Src/kiss_fft.c ****         int k;
 252:Src/kiss_fft.c **** 
 253:Src/kiss_fft.c ****         // execute the p different work units in different threads
 254:Src/kiss_fft.c **** #       pragma omp parallel for
 255:Src/kiss_fft.c ****         for (k=0;k<p;++k) 
 256:Src/kiss_fft.c ****             kf_work( Fout +k*m, f+ fstride*in_stride*k,fstride*p,in_stride,factors,st);
 257:Src/kiss_fft.c ****         // all threads have joined by this point
 258:Src/kiss_fft.c **** 
 259:Src/kiss_fft.c ****         switch (p) {
 260:Src/kiss_fft.c ****             case 2: kf_bfly2(Fout,fstride,st,m); break;
 261:Src/kiss_fft.c ****             case 3: kf_bfly3(Fout,fstride,st,m); break; 
 262:Src/kiss_fft.c ****             case 4: kf_bfly4(Fout,fstride,st,m); break;
 263:Src/kiss_fft.c ****             case 5: kf_bfly5(Fout,fstride,st,m); break; 
 264:Src/kiss_fft.c ****             default: kf_bfly_generic(Fout,fstride,st,m,p); break;
 265:Src/kiss_fft.c ****         }
 266:Src/kiss_fft.c ****         return;
 267:Src/kiss_fft.c ****     }
 268:Src/kiss_fft.c **** #endif
 269:Src/kiss_fft.c **** 
 270:Src/kiss_fft.c ****     if (m==1) {
 1036              		.loc 1 270 0
 1037 0028 012E     		cmp	r6, #1
 1038 002a 4FEAC305 		lsl	r5, r3, #3
 240:Src/kiss_fft.c ****     kiss_fft_cpx * Fout_beg=Fout;
 1039              		.loc 1 240 0
 1040 002e 0394     		str	r4, [sp, #12]
 243:Src/kiss_fft.c ****     const kiss_fft_cpx * Fout_end = Fout + p*m;
 1041              		.loc 1 243 0
 1042 0030 2396     		str	r6, [sp, #140]
 1043              	.LVL121:
 240:Src/kiss_fft.c ****     kiss_fft_cpx * Fout_beg=Fout;
 1044              		.loc 1 240 0
 1045 0032 2490     		str	r0, [sp, #144]
 1046 0034 0F91     		str	r1, [sp, #60]
 1047 0036 2295     		str	r5, [sp, #136]
 1048              		.loc 1 270 0
 1049 0038 6DD1     		bne	.L40
 1050 003a 0244     		add	r2, r2, r0
 1051 003c 0832     		adds	r2, r2, #8
 1052 003e 00F10803 		add	r3, r0, #8
 1053 0042 0C46     		mov	r4, r1
 1054              	.LVL122:
 1055              	.L41:
 271:Src/kiss_fft.c ****         do{
 272:Src/kiss_fft.c ****             *Fout = *f;
 1056              		.loc 1 272 0 discriminator 1
 1057 0044 94E80300 		ldm	r4, {r0, r1}
 1058 0048 03E90300 		stmdb	r3, {r0, r1}
 1059 004c 0833     		adds	r3, r3, #8
 1060              	.LVL123:
 273:Src/kiss_fft.c ****             f += fstride*in_stride;
 274:Src/kiss_fft.c ****         }while(++Fout != Fout_end );
 1061              		.loc 1 274 0 discriminator 1
 1062 004e 9A42     		cmp	r2, r3
 273:Src/kiss_fft.c ****             f += fstride*in_stride;
 1063              		.loc 1 273 0 discriminator 1
 1064 0050 2C44     		add	r4, r4, r5
ARM GAS  /var/folders/k_/r2bh2pj93_jff4n9gmtn9jvr0000gn/T//ccAUK7QQ.s 			page 27


 1065              	.LVL124:
 1066              		.loc 1 274 0 discriminator 1
 1067 0052 F7D1     		bne	.L41
 1068              	.LVL125:
 1069              	.L42:
 275:Src/kiss_fft.c ****     }else{
 276:Src/kiss_fft.c ****         do{
 277:Src/kiss_fft.c ****             // recursive call:
 278:Src/kiss_fft.c ****             // DFT of size m*p performed by doing
 279:Src/kiss_fft.c ****             // p instances of smaller DFTs of size m, 
 280:Src/kiss_fft.c ****             // each one takes a decimated version of the input
 281:Src/kiss_fft.c ****             kf_work( Fout , f, fstride*p, in_stride, factors,st);
 282:Src/kiss_fft.c ****             f += fstride*in_stride;
 283:Src/kiss_fft.c ****         }while( (Fout += m) != Fout_end );
 284:Src/kiss_fft.c ****     }
 285:Src/kiss_fft.c **** 
 286:Src/kiss_fft.c ****     Fout=Fout_beg;
 287:Src/kiss_fft.c **** 
 288:Src/kiss_fft.c ****     // recombine the p smaller DFTs 
 289:Src/kiss_fft.c ****     switch (p) {
 1070              		.loc 1 289 0
 1071 0054 1F9B     		ldr	r3, [sp, #124]
 1072 0056 023B     		subs	r3, r3, #2
 1073 0058 032B     		cmp	r3, #3
 1074 005a 00F2E382 		bhi	.L92
 1075 005e DFE803F0 		tbb	[pc, r3]
 1076              	.L94:
 1077 0062 1D       		.byte	(.L93-.L94)/2
 1078 0063 14       		.byte	(.L95-.L94)/2
 1079 0064 0B       		.byte	(.L96-.L94)/2
 1080 0065 02       		.byte	(.L97-.L94)/2
 1081              		.p2align 1
 1082              	.L97:
 290:Src/kiss_fft.c ****         case 2: kf_bfly2(Fout,fstride,st,m); break;
 291:Src/kiss_fft.c ****         case 3: kf_bfly3(Fout,fstride,st,m); break; 
 292:Src/kiss_fft.c ****         case 4: kf_bfly4(Fout,fstride,st,m); break;
 293:Src/kiss_fft.c ****         case 5: kf_bfly5(Fout,fstride,st,m); break; 
 1083              		.loc 1 293 0
 1084 0066 DDE92401 		ldrd	r0, r1, [sp, #144]
 1085 006a 239B     		ldr	r3, [sp, #140]
 1086 006c 039A     		ldr	r2, [sp, #12]
 294:Src/kiss_fft.c ****         default: kf_bfly_generic(Fout,fstride,st,m,p); break;
 295:Src/kiss_fft.c ****     }
 296:Src/kiss_fft.c **** }
 1087              		.loc 1 296 0
 1088 006e 2FB0     		add	sp, sp, #188
 1089              	.LCFI19:
 1090              		.cfi_remember_state
 1091              		.cfi_def_cfa_offset 36
 1092              		@ sp needed
 1093 0070 BDE8F04F 		pop	{r4, r5, r6, r7, r8, r9, r10, fp, lr}
 1094              	.LCFI20:
 1095              		.cfi_restore 14
 1096              		.cfi_restore 11
 1097              		.cfi_restore 10
 1098              		.cfi_restore 9
 1099              		.cfi_restore 8
ARM GAS  /var/folders/k_/r2bh2pj93_jff4n9gmtn9jvr0000gn/T//ccAUK7QQ.s 			page 28


 1100              		.cfi_restore 7
 1101              		.cfi_restore 6
 1102              		.cfi_restore 5
 1103              		.cfi_restore 4
 1104              		.cfi_def_cfa_offset 0
 1105              	.LVL126:
 293:Src/kiss_fft.c ****         default: kf_bfly_generic(Fout,fstride,st,m,p); break;
 1106              		.loc 1 293 0
 1107 0074 FFF7FEBF 		b	kf_bfly5
 1108              	.LVL127:
 1109              	.L96:
 1110              	.LCFI21:
 1111              		.cfi_restore_state
 292:Src/kiss_fft.c ****         case 5: kf_bfly5(Fout,fstride,st,m); break; 
 1112              		.loc 1 292 0
 1113 0078 DDE92401 		ldrd	r0, r1, [sp, #144]
 1114 007c 239B     		ldr	r3, [sp, #140]
 1115 007e 039A     		ldr	r2, [sp, #12]
 1116              		.loc 1 296 0
 1117 0080 2FB0     		add	sp, sp, #188
 1118              	.LCFI22:
 1119              		.cfi_remember_state
 1120              		.cfi_def_cfa_offset 36
 1121              		@ sp needed
 1122 0082 BDE8F04F 		pop	{r4, r5, r6, r7, r8, r9, r10, fp, lr}
 1123              	.LCFI23:
 1124              		.cfi_restore 14
 1125              		.cfi_restore 11
 1126              		.cfi_restore 10
 1127              		.cfi_restore 9
 1128              		.cfi_restore 8
 1129              		.cfi_restore 7
 1130              		.cfi_restore 6
 1131              		.cfi_restore 5
 1132              		.cfi_restore 4
 1133              		.cfi_def_cfa_offset 0
 1134              	.LVL128:
 292:Src/kiss_fft.c ****         case 5: kf_bfly5(Fout,fstride,st,m); break; 
 1135              		.loc 1 292 0
 1136 0086 FFF7FEBF 		b	kf_bfly4
 1137              	.LVL129:
 1138              	.L95:
 1139              	.LCFI24:
 1140              		.cfi_restore_state
 291:Src/kiss_fft.c ****         case 4: kf_bfly4(Fout,fstride,st,m); break;
 1141              		.loc 1 291 0
 1142 008a DDE92401 		ldrd	r0, r1, [sp, #144]
 1143 008e 239B     		ldr	r3, [sp, #140]
 1144 0090 039A     		ldr	r2, [sp, #12]
 1145              		.loc 1 296 0
 1146 0092 2FB0     		add	sp, sp, #188
 1147              	.LCFI25:
 1148              		.cfi_remember_state
 1149              		.cfi_def_cfa_offset 36
 1150              		@ sp needed
 1151 0094 BDE8F04F 		pop	{r4, r5, r6, r7, r8, r9, r10, fp, lr}
 1152              	.LCFI26:
ARM GAS  /var/folders/k_/r2bh2pj93_jff4n9gmtn9jvr0000gn/T//ccAUK7QQ.s 			page 29


 1153              		.cfi_restore 14
 1154              		.cfi_restore 11
 1155              		.cfi_restore 10
 1156              		.cfi_restore 9
 1157              		.cfi_restore 8
 1158              		.cfi_restore 7
 1159              		.cfi_restore 6
 1160              		.cfi_restore 5
 1161              		.cfi_restore 4
 1162              		.cfi_def_cfa_offset 0
 1163              	.LVL130:
 291:Src/kiss_fft.c ****         case 4: kf_bfly4(Fout,fstride,st,m); break;
 1164              		.loc 1 291 0
 1165 0098 FFF7FEBF 		b	kf_bfly3
 1166              	.LVL131:
 1167              	.L93:
 1168              	.LCFI27:
 1169              		.cfi_restore_state
 1170 009c 249B     		ldr	r3, [sp, #144]
 1171 009e 239C     		ldr	r4, [sp, #140]
 1172              	.LBB22:
 1173              	.LBB23:
  23:Src/kiss_fft.c ****     kiss_fft_cpx t;
 1174              		.loc 1 23 0
 1175 00a0 0399     		ldr	r1, [sp, #12]
  30:Src/kiss_fft.c ****         C_SUB( *Fout2 ,  *Fout , t );
 1176              		.loc 1 30 0
 1177 00a2 2598     		ldr	r0, [sp, #148]
 1178 00a4 03EBC402 		add	r2, r3, r4, lsl #3
  23:Src/kiss_fft.c ****     kiss_fft_cpx t;
 1179              		.loc 1 23 0
 1180 00a8 01F58471 		add	r1, r1, #264
 1181              	.LVL132:
  30:Src/kiss_fft.c ****         C_SUB( *Fout2 ,  *Fout , t );
 1182              		.loc 1 30 0
 1183 00ac C000     		lsls	r0, r0, #3
 1184 00ae 0832     		adds	r2, r2, #8
 1185 00b0 0833     		adds	r3, r3, #8
 1186              	.LVL133:
 1187              	.L98:
  29:Src/kiss_fft.c ****         tw1 += fstride;
 1188              		.loc 1 29 0
 1189 00b2 91ED016A 		vldr.32	s12, [r1, #4]
 1190 00b6 52ED017A 		vldr.32	s15, [r2, #-4]
 1191 00ba 91ED005A 		vldr.32	s10, [r1]
 1192 00be 52ED025A 		vldr.32	s11, [r2, #-8]
  31:Src/kiss_fft.c ****         C_ADDTO( *Fout ,  t );
 1193              		.loc 1 31 0
 1194 00c2 13ED027A 		vldr.32	s14, [r3, #-8]
  29:Src/kiss_fft.c ****         tw1 += fstride;
 1195              		.loc 1 29 0
 1196 00c6 66EE676A 		vnmul.f32	s13, s12, s15
 1197 00ca 65EE277A 		vmul.f32	s15, s10, s15
 1198 00ce E5EE856A 		vfma.f32	s13, s11, s10
 1199              	.LVL134:
  35:Src/kiss_fft.c **** }
 1200              		.loc 1 35 0
ARM GAS  /var/folders/k_/r2bh2pj93_jff4n9gmtn9jvr0000gn/T//ccAUK7QQ.s 			page 30


 1201 00d2 013C     		subs	r4, r4, #1
 1202              	.LVL135:
  30:Src/kiss_fft.c ****         C_SUB( *Fout2 ,  *Fout , t );
 1203              		.loc 1 30 0
 1204 00d4 0144     		add	r1, r1, r0
 1205              	.LVL136:
  29:Src/kiss_fft.c ****         tw1 += fstride;
 1206              		.loc 1 29 0
 1207 00d6 E5EE867A 		vfma.f32	s15, s11, s12
 1208              	.LVL137:
 1209 00da 02F10802 		add	r2, r2, #8
 1210              	.LVL138:
 1211 00de 03F10803 		add	r3, r3, #8
  31:Src/kiss_fft.c ****         C_ADDTO( *Fout ,  t );
 1212              		.loc 1 31 0
 1213 00e2 37EE667A 		vsub.f32	s14, s14, s13
 1214 00e6 02ED047A 		vstr.32	s14, [r2, #-16]
 1215 00ea 13ED037A 		vldr.32	s14, [r3, #-12]
 1216 00ee 37EE677A 		vsub.f32	s14, s14, s15
 1217 00f2 02ED037A 		vstr.32	s14, [r2, #-12]
  32:Src/kiss_fft.c ****         ++Fout2;
 1218              		.loc 1 32 0
 1219 00f6 13ED046A 		vldr.32	s12, [r3, #-16]
 1220 00fa 13ED037A 		vldr.32	s14, [r3, #-12]
 1221 00fe 76EE266A 		vadd.f32	s13, s12, s13
 1222              	.LVL139:
 1223 0102 77EE277A 		vadd.f32	s15, s14, s15
 1224              	.LVL140:
 1225 0106 43ED046A 		vstr.32	s13, [r3, #-16]
 1226 010a 43ED037A 		vstr.32	s15, [r3, #-12]
 1227              	.LVL141:
  35:Src/kiss_fft.c **** }
 1228              		.loc 1 35 0
 1229 010e D0D1     		bne	.L98
 1230              	.LBE23:
 1231              	.LBE22:
 1232              		.loc 1 296 0
 1233 0110 2FB0     		add	sp, sp, #188
 1234              	.LCFI28:
 1235              		.cfi_remember_state
 1236              		.cfi_def_cfa_offset 36
 1237              		@ sp needed
 1238 0112 BDE8F08F 		pop	{r4, r5, r6, r7, r8, r9, r10, fp, pc}
 1239              	.LVL142:
 1240              	.L40:
 1241              	.LCFI29:
 1242              		.cfi_restore_state
 281:Src/kiss_fft.c ****             f += fstride*in_stride;
 1243              		.loc 1 281 0
 1244 0116 1F9A     		ldr	r2, [sp, #124]
 1245 0118 3B46     		mov	r3, r7
 1246 011a 03FB02F3 		mul	r3, r3, r2
 1247 011e 089A     		ldr	r2, [sp, #32]
 1248 0120 2893     		str	r3, [sp, #160]
 1249 0122 D200     		lsls	r2, r2, #3
 1250              	.LBB24:
 1251              	.LBB25:
ARM GAS  /var/folders/k_/r2bh2pj93_jff4n9gmtn9jvr0000gn/T//ccAUK7QQ.s 			page 31


 282:Src/kiss_fft.c ****         }while( (Fout += m) != Fout_end );
 1252              		.loc 1 282 0
 1253 0124 1146     		mov	r1, r2
 1254              	.LVL143:
 1255 0126 1E92     		str	r2, [sp, #120]
 1256 0128 1A46     		mov	r2, r3
 1257              	.LBB26:
 1258              	.LBB27:
  30:Src/kiss_fft.c ****         C_SUB( *Fout2 ,  *Fout , t );
 1259              		.loc 1 30 0
 1260 012a DB00     		lsls	r3, r3, #3
 1261 012c 2D93     		str	r3, [sp, #180]
 1262              	.LBE27:
 1263              	.LBE26:
 1264              	.LBE25:
 1265              	.LBE24:
 283:Src/kiss_fft.c ****     }
 1266              		.loc 1 283 0
 1267 012e 239B     		ldr	r3, [sp, #140]
 1268 0130 DB00     		lsls	r3, r3, #3
 1269 0132 2A93     		str	r3, [sp, #168]
 1270 0134 249B     		ldr	r3, [sp, #144]
 1271 0136 0A93     		str	r3, [sp, #40]
 1272              	.LBB72:
 1273              	.LBB70:
 282:Src/kiss_fft.c ****         }while( (Fout += m) != Fout_end );
 1274              		.loc 1 282 0
 1275 0138 01FB02F2 		mul	r2, r1, r2
 1276 013c 0BF12803 		add	r3, fp, #40
 1277 0140 1A92     		str	r2, [sp, #104]
 1278 0142 0D93     		str	r3, [sp, #52]
 1279              	.LVL144:
 1280              	.L91:
 243:Src/kiss_fft.c ****     const kiss_fft_cpx * Fout_end = Fout + p*m;
 1281              		.loc 1 243 0 discriminator 1
 1282 0144 DBF80C20 		ldr	r2, [fp, #12]
 242:Src/kiss_fft.c ****     const int m=*factors++; /* stage's fft length/p */
 1283              		.loc 1 242 0 discriminator 1
 1284 0148 DBF80810 		ldr	r1, [fp, #8]
 1285 014c 1691     		str	r1, [sp, #88]
 1286              	.LVL145:
 244:Src/kiss_fft.c **** 
 1287              		.loc 1 244 0 discriminator 1
 1288 014e 1346     		mov	r3, r2
 1289 0150 03FB01F3 		mul	r3, r3, r1
 1290 0154 0A99     		ldr	r1, [sp, #40]
 1291              	.LVL146:
 243:Src/kiss_fft.c ****     const kiss_fft_cpx * Fout_end = Fout + p*m;
 1292              		.loc 1 243 0 discriminator 1
 1293 0156 1992     		str	r2, [sp, #100]
 1294              	.LVL147:
 244:Src/kiss_fft.c **** 
 1295              		.loc 1 244 0 discriminator 1
 1296 0158 01EBC303 		add	r3, r1, r3, lsl #3
 270:Src/kiss_fft.c ****         do{
 1297              		.loc 1 270 0 discriminator 1
 1298 015c 012A     		cmp	r2, #1
ARM GAS  /var/folders/k_/r2bh2pj93_jff4n9gmtn9jvr0000gn/T//ccAUK7QQ.s 			page 32


 244:Src/kiss_fft.c **** 
 1299              		.loc 1 244 0 discriminator 1
 1300 015e 1893     		str	r3, [sp, #96]
 1301              	.LVL148:
 270:Src/kiss_fft.c ****         do{
 1302              		.loc 1 270 0 discriminator 1
 1303 0160 70D1     		bne	.L43
 1304 0162 0833     		adds	r3, r3, #8
 1305              	.LVL149:
 270:Src/kiss_fft.c ****         do{
 1306              		.loc 1 270 0 is_stmt 0
 1307 0164 0F9A     		ldr	r2, [sp, #60]
 1308              	.LVL150:
 1309 0166 1A9D     		ldr	r5, [sp, #104]
 1310 0168 1C46     		mov	r4, r3
 1311 016a 01F10803 		add	r3, r1, #8
 1312              	.LVL151:
 1313              	.L44:
 272:Src/kiss_fft.c ****             f += fstride*in_stride;
 1314              		.loc 1 272 0 is_stmt 1
 1315 016e 92E80300 		ldm	r2, {r0, r1}
 1316 0172 03E90300 		stmdb	r3, {r0, r1}
 1317 0176 0833     		adds	r3, r3, #8
 1318              	.LVL152:
 274:Src/kiss_fft.c ****     }else{
 1319              		.loc 1 274 0
 1320 0178 9C42     		cmp	r4, r3
 273:Src/kiss_fft.c ****         }while(++Fout != Fout_end );
 1321              		.loc 1 273 0
 1322 017a 2A44     		add	r2, r2, r5
 1323              	.LVL153:
 274:Src/kiss_fft.c ****     }else{
 1324              		.loc 1 274 0
 1325 017c F7D1     		bne	.L44
 1326              	.LVL154:
 1327              	.L45:
 289:Src/kiss_fft.c ****         case 2: kf_bfly2(Fout,fstride,st,m); break;
 1328              		.loc 1 289 0
 1329 017e 169B     		ldr	r3, [sp, #88]
 1330 0180 023B     		subs	r3, r3, #2
 1331 0182 032B     		cmp	r3, #3
 1332 0184 00F24582 		bhi	.L83
 1333 0188 DFE803F0 		tbb	[pc, r3]
 1334              	.L85:
 1335 018c 22       		.byte	(.L84-.L85)/2
 1336 018d 1B       		.byte	(.L86-.L85)/2
 1337 018e 14       		.byte	(.L87-.L85)/2
 1338 018f 02       		.byte	(.L88-.L85)/2
 1339              		.p2align 1
 1340              	.L88:
 293:Src/kiss_fft.c ****         default: kf_bfly_generic(Fout,fstride,st,m,p); break;
 1341              		.loc 1 293 0
 1342 0190 199B     		ldr	r3, [sp, #100]
 1343 0192 039A     		ldr	r2, [sp, #12]
 1344 0194 2899     		ldr	r1, [sp, #160]
 1345 0196 0A98     		ldr	r0, [sp, #40]
 1346 0198 FFF7FEFF 		bl	kf_bfly5
ARM GAS  /var/folders/k_/r2bh2pj93_jff4n9gmtn9jvr0000gn/T//ccAUK7QQ.s 			page 33


 1347              	.LVL155:
 1348              	.L90:
 1349              	.LBE70:
 1350              	.LBE72:
 283:Src/kiss_fft.c ****     }
 1351              		.loc 1 283 0 discriminator 1
 1352 019c 0A9B     		ldr	r3, [sp, #40]
 1353 019e 2A9A     		ldr	r2, [sp, #168]
 282:Src/kiss_fft.c ****         }while( (Fout += m) != Fout_end );
 1354              		.loc 1 282 0 discriminator 1
 1355 01a0 2299     		ldr	r1, [sp, #136]
 283:Src/kiss_fft.c ****     }
 1356              		.loc 1 283 0 discriminator 1
 1357 01a2 1344     		add	r3, r3, r2
 282:Src/kiss_fft.c ****         }while( (Fout += m) != Fout_end );
 1358              		.loc 1 282 0 discriminator 1
 1359 01a4 0F9A     		ldr	r2, [sp, #60]
 283:Src/kiss_fft.c ****     }
 1360              		.loc 1 283 0 discriminator 1
 1361 01a6 0A93     		str	r3, [sp, #40]
 1362              	.LVL156:
 282:Src/kiss_fft.c ****         }while( (Fout += m) != Fout_end );
 1363              		.loc 1 282 0 discriminator 1
 1364 01a8 0A44     		add	r2, r2, r1
 1365 01aa 0F92     		str	r2, [sp, #60]
 1366              	.LVL157:
 283:Src/kiss_fft.c ****     }
 1367              		.loc 1 283 0 discriminator 1
 1368 01ac 219A     		ldr	r2, [sp, #132]
 1369              	.LVL158:
 1370 01ae 9A42     		cmp	r2, r3
 1371 01b0 C8D1     		bne	.L91
 1372 01b2 4FE7     		b	.L42
 1373              	.LVL159:
 1374              	.L87:
 1375              	.LBB73:
 1376              	.LBB71:
 292:Src/kiss_fft.c ****         case 5: kf_bfly5(Fout,fstride,st,m); break; 
 1377              		.loc 1 292 0
 1378 01b4 199B     		ldr	r3, [sp, #100]
 1379 01b6 039A     		ldr	r2, [sp, #12]
 1380 01b8 2899     		ldr	r1, [sp, #160]
 1381 01ba 0A98     		ldr	r0, [sp, #40]
 1382 01bc FFF7FEFF 		bl	kf_bfly4
 1383              	.LVL160:
 1384 01c0 ECE7     		b	.L90
 1385              	.L86:
 291:Src/kiss_fft.c ****         case 4: kf_bfly4(Fout,fstride,st,m); break;
 1386              		.loc 1 291 0
 1387 01c2 199B     		ldr	r3, [sp, #100]
 1388 01c4 039A     		ldr	r2, [sp, #12]
 1389 01c6 2899     		ldr	r1, [sp, #160]
 1390 01c8 0A98     		ldr	r0, [sp, #40]
 1391 01ca FFF7FEFF 		bl	kf_bfly3
 1392              	.LVL161:
 1393 01ce E5E7     		b	.L90
 1394              	.L84:
ARM GAS  /var/folders/k_/r2bh2pj93_jff4n9gmtn9jvr0000gn/T//ccAUK7QQ.s 			page 34


 1395              	.LVL162:
 1396 01d0 0A9B     		ldr	r3, [sp, #40]
 1397 01d2 1998     		ldr	r0, [sp, #100]
 1398              	.LBB29:
 1399              	.LBB28:
  23:Src/kiss_fft.c ****     kiss_fft_cpx t;
 1400              		.loc 1 23 0
 1401 01d4 0399     		ldr	r1, [sp, #12]
 1402 01d6 2D9C     		ldr	r4, [sp, #180]
 1403 01d8 03EBC002 		add	r2, r3, r0, lsl #3
 1404 01dc 0832     		adds	r2, r2, #8
 1405 01de 01F58471 		add	r1, r1, #264
 1406              	.LVL163:
 1407 01e2 0833     		adds	r3, r3, #8
 1408              	.LVL164:
 1409              	.L89:
  29:Src/kiss_fft.c ****         tw1 += fstride;
 1410              		.loc 1 29 0
 1411 01e4 91ED016A 		vldr.32	s12, [r1, #4]
 1412 01e8 52ED017A 		vldr.32	s15, [r2, #-4]
 1413 01ec 91ED005A 		vldr.32	s10, [r1]
 1414 01f0 52ED025A 		vldr.32	s11, [r2, #-8]
  31:Src/kiss_fft.c ****         C_ADDTO( *Fout ,  t );
 1415              		.loc 1 31 0
 1416 01f4 13ED027A 		vldr.32	s14, [r3, #-8]
  29:Src/kiss_fft.c ****         tw1 += fstride;
 1417              		.loc 1 29 0
 1418 01f8 66EE676A 		vnmul.f32	s13, s12, s15
 1419 01fc 65EE277A 		vmul.f32	s15, s10, s15
 1420 0200 E5EE856A 		vfma.f32	s13, s11, s10
 1421              	.LVL165:
  35:Src/kiss_fft.c **** }
 1422              		.loc 1 35 0
 1423 0204 0138     		subs	r0, r0, #1
 1424              	.LVL166:
  30:Src/kiss_fft.c ****         C_SUB( *Fout2 ,  *Fout , t );
 1425              		.loc 1 30 0
 1426 0206 2144     		add	r1, r1, r4
 1427              	.LVL167:
  29:Src/kiss_fft.c ****         tw1 += fstride;
 1428              		.loc 1 29 0
 1429 0208 E5EE867A 		vfma.f32	s15, s11, s12
 1430              	.LVL168:
 1431 020c 02F10802 		add	r2, r2, #8
 1432              	.LVL169:
 1433 0210 03F10803 		add	r3, r3, #8
  31:Src/kiss_fft.c ****         C_ADDTO( *Fout ,  t );
 1434              		.loc 1 31 0
 1435 0214 37EE667A 		vsub.f32	s14, s14, s13
 1436 0218 02ED047A 		vstr.32	s14, [r2, #-16]
 1437 021c 13ED037A 		vldr.32	s14, [r3, #-12]
 1438 0220 37EE677A 		vsub.f32	s14, s14, s15
 1439 0224 02ED037A 		vstr.32	s14, [r2, #-12]
  32:Src/kiss_fft.c ****         ++Fout2;
 1440              		.loc 1 32 0
 1441 0228 13ED046A 		vldr.32	s12, [r3, #-16]
 1442 022c 13ED037A 		vldr.32	s14, [r3, #-12]
ARM GAS  /var/folders/k_/r2bh2pj93_jff4n9gmtn9jvr0000gn/T//ccAUK7QQ.s 			page 35


 1443 0230 76EE266A 		vadd.f32	s13, s12, s13
 1444              	.LVL170:
 1445 0234 77EE277A 		vadd.f32	s15, s14, s15
 1446              	.LVL171:
 1447 0238 43ED046A 		vstr.32	s13, [r3, #-16]
 1448 023c 43ED037A 		vstr.32	s15, [r3, #-12]
 1449              	.LVL172:
  35:Src/kiss_fft.c **** }
 1450              		.loc 1 35 0
 1451 0240 D0D1     		bne	.L89
 1452 0242 ABE7     		b	.L90
 1453              	.LVL173:
 1454              	.L43:
 1455              	.LBE28:
 1456              	.LBE29:
 281:Src/kiss_fft.c ****             f += fstride*in_stride;
 1457              		.loc 1 281 0
 1458 0244 169A     		ldr	r2, [sp, #88]
 1459              	.LVL174:
 1460 0246 289B     		ldr	r3, [sp, #160]
 1461              	.LVL175:
 1462 0248 03FB02F3 		mul	r3, r3, r2
 1463              	.LBB30:
 1464              	.LBB31:
 282:Src/kiss_fft.c ****         }while( (Fout += m) != Fout_end );
 1465              		.loc 1 282 0
 1466 024c 1E9A     		ldr	r2, [sp, #120]
 1467              	.LBE31:
 1468              	.LBE30:
 281:Src/kiss_fft.c ****             f += fstride*in_stride;
 1469              		.loc 1 281 0
 1470 024e 1D93     		str	r3, [sp, #116]
 1471              	.LBB65:
 1472              	.LBB60:
 282:Src/kiss_fft.c ****         }while( (Fout += m) != Fout_end );
 1473              		.loc 1 282 0
 1474 0250 1146     		mov	r1, r2
 1475              	.LVL176:
 1476 0252 1A46     		mov	r2, r3
 1477              	.LBB32:
 1478              	.LBB33:
  30:Src/kiss_fft.c ****         C_SUB( *Fout2 ,  *Fout , t );
 1479              		.loc 1 30 0
 1480 0254 DB00     		lsls	r3, r3, #3
 1481 0256 2C93     		str	r3, [sp, #176]
 1482              	.LBE33:
 1483              	.LBE32:
 1484              	.LBE60:
 1485              	.LBE65:
 283:Src/kiss_fft.c ****     }
 1486              		.loc 1 283 0
 1487 0258 199B     		ldr	r3, [sp, #100]
 1488 025a DB00     		lsls	r3, r3, #3
 1489 025c 2093     		str	r3, [sp, #128]
 1490 025e 0F9B     		ldr	r3, [sp, #60]
 1491 0260 0B93     		str	r3, [sp, #44]
 1492              	.LBB66:
ARM GAS  /var/folders/k_/r2bh2pj93_jff4n9gmtn9jvr0000gn/T//ccAUK7QQ.s 			page 36


 1493              	.LBB61:
 282:Src/kiss_fft.c ****         }while( (Fout += m) != Fout_end );
 1494              		.loc 1 282 0
 1495 0262 01FB02F2 		mul	r2, r1, r2
 1496              	.LBE61:
 1497              	.LBE66:
 283:Src/kiss_fft.c ****     }
 1498              		.loc 1 283 0
 1499 0266 0A9B     		ldr	r3, [sp, #40]
 1500              	.LBB67:
 1501              	.LBB62:
 282:Src/kiss_fft.c ****         }while( (Fout += m) != Fout_end );
 1502              		.loc 1 282 0
 1503 0268 1492     		str	r2, [sp, #80]
 1504              	.LBE62:
 1505              	.LBE67:
 283:Src/kiss_fft.c ****     }
 1506              		.loc 1 283 0
 1507 026a 0493     		str	r3, [sp, #16]
 1508              	.LVL177:
 1509              	.L82:
 1510              	.LBB68:
 1511              	.LBB63:
 243:Src/kiss_fft.c ****     const kiss_fft_cpx * Fout_end = Fout + p*m;
 1512              		.loc 1 243 0
 1513 026c DBF81420 		ldr	r2, [fp, #20]
 242:Src/kiss_fft.c ****     const int m=*factors++; /* stage's fft length/p */
 1514              		.loc 1 242 0
 1515 0270 DBF81010 		ldr	r1, [fp, #16]
 1516 0274 1091     		str	r1, [sp, #64]
 1517              	.LVL178:
 244:Src/kiss_fft.c **** 
 1518              		.loc 1 244 0
 1519 0276 1346     		mov	r3, r2
 1520 0278 03FB01F3 		mul	r3, r3, r1
 1521 027c 0499     		ldr	r1, [sp, #16]
 1522              	.LVL179:
 243:Src/kiss_fft.c ****     const kiss_fft_cpx * Fout_end = Fout + p*m;
 1523              		.loc 1 243 0
 1524 027e 1392     		str	r2, [sp, #76]
 1525              	.LVL180:
 244:Src/kiss_fft.c **** 
 1526              		.loc 1 244 0
 1527 0280 01EBC303 		add	r3, r1, r3, lsl #3
 270:Src/kiss_fft.c ****         do{
 1528              		.loc 1 270 0
 1529 0284 012A     		cmp	r2, #1
 244:Src/kiss_fft.c **** 
 1530              		.loc 1 244 0
 1531 0286 1293     		str	r3, [sp, #72]
 1532              	.LVL181:
 270:Src/kiss_fft.c ****         do{
 1533              		.loc 1 270 0
 1534 0288 70D1     		bne	.L46
 1535 028a 0833     		adds	r3, r3, #8
 1536              	.LVL182:
 1537 028c 0B9A     		ldr	r2, [sp, #44]
ARM GAS  /var/folders/k_/r2bh2pj93_jff4n9gmtn9jvr0000gn/T//ccAUK7QQ.s 			page 37


 1538              	.LVL183:
 1539 028e 149D     		ldr	r5, [sp, #80]
 1540 0290 1C46     		mov	r4, r3
 1541 0292 01F10803 		add	r3, r1, #8
 1542              	.LVL184:
 1543              	.L47:
 272:Src/kiss_fft.c ****             f += fstride*in_stride;
 1544              		.loc 1 272 0
 1545 0296 92E80300 		ldm	r2, {r0, r1}
 1546 029a 03E90300 		stmdb	r3, {r0, r1}
 1547 029e 0833     		adds	r3, r3, #8
 1548              	.LVL185:
 274:Src/kiss_fft.c ****     }else{
 1549              		.loc 1 274 0
 1550 02a0 9C42     		cmp	r4, r3
 273:Src/kiss_fft.c ****         }while(++Fout != Fout_end );
 1551              		.loc 1 273 0
 1552 02a2 2A44     		add	r2, r2, r5
 1553              	.LVL186:
 274:Src/kiss_fft.c ****     }else{
 1554              		.loc 1 274 0
 1555 02a4 F7D1     		bne	.L47
 1556              	.LVL187:
 1557              	.L48:
 289:Src/kiss_fft.c ****         case 2: kf_bfly2(Fout,fstride,st,m); break;
 1558              		.loc 1 289 0
 1559 02a6 109B     		ldr	r3, [sp, #64]
 1560 02a8 023B     		subs	r3, r3, #2
 1561 02aa 032B     		cmp	r3, #3
 1562 02ac 00F2A881 		bhi	.L74
 1563 02b0 DFE803F0 		tbb	[pc, r3]
 1564              	.L76:
 1565 02b4 22       		.byte	(.L75-.L76)/2
 1566 02b5 1B       		.byte	(.L77-.L76)/2
 1567 02b6 14       		.byte	(.L78-.L76)/2
 1568 02b7 02       		.byte	(.L79-.L76)/2
 1569              		.p2align 1
 1570              	.L79:
 293:Src/kiss_fft.c ****         default: kf_bfly_generic(Fout,fstride,st,m,p); break;
 1571              		.loc 1 293 0
 1572 02b8 139B     		ldr	r3, [sp, #76]
 1573 02ba 039A     		ldr	r2, [sp, #12]
 1574 02bc 1D99     		ldr	r1, [sp, #116]
 1575 02be 0498     		ldr	r0, [sp, #16]
 1576 02c0 FFF7FEFF 		bl	kf_bfly5
 1577              	.LVL188:
 1578              	.L81:
 1579              	.LBE63:
 1580              	.LBE68:
 283:Src/kiss_fft.c ****     }
 1581              		.loc 1 283 0
 1582 02c4 049B     		ldr	r3, [sp, #16]
 1583 02c6 209A     		ldr	r2, [sp, #128]
 282:Src/kiss_fft.c ****         }while( (Fout += m) != Fout_end );
 1584              		.loc 1 282 0
 1585 02c8 1A99     		ldr	r1, [sp, #104]
 283:Src/kiss_fft.c ****     }
ARM GAS  /var/folders/k_/r2bh2pj93_jff4n9gmtn9jvr0000gn/T//ccAUK7QQ.s 			page 38


 1586              		.loc 1 283 0
 1587 02ca 1344     		add	r3, r3, r2
 282:Src/kiss_fft.c ****         }while( (Fout += m) != Fout_end );
 1588              		.loc 1 282 0
 1589 02cc 0B9A     		ldr	r2, [sp, #44]
 283:Src/kiss_fft.c ****     }
 1590              		.loc 1 283 0
 1591 02ce 0493     		str	r3, [sp, #16]
 1592              	.LVL189:
 282:Src/kiss_fft.c ****         }while( (Fout += m) != Fout_end );
 1593              		.loc 1 282 0
 1594 02d0 0A44     		add	r2, r2, r1
 1595 02d2 0B92     		str	r2, [sp, #44]
 1596              	.LVL190:
 283:Src/kiss_fft.c ****     }
 1597              		.loc 1 283 0
 1598 02d4 189A     		ldr	r2, [sp, #96]
 1599              	.LVL191:
 1600 02d6 9A42     		cmp	r2, r3
 1601 02d8 C8D1     		bne	.L82
 1602 02da 50E7     		b	.L45
 1603              	.LVL192:
 1604              	.L78:
 1605              	.LBB69:
 1606              	.LBB64:
 292:Src/kiss_fft.c ****         case 5: kf_bfly5(Fout,fstride,st,m); break; 
 1607              		.loc 1 292 0
 1608 02dc 139B     		ldr	r3, [sp, #76]
 1609 02de 039A     		ldr	r2, [sp, #12]
 1610 02e0 1D99     		ldr	r1, [sp, #116]
 1611 02e2 0498     		ldr	r0, [sp, #16]
 1612 02e4 FFF7FEFF 		bl	kf_bfly4
 1613              	.LVL193:
 1614 02e8 ECE7     		b	.L81
 1615              	.L77:
 291:Src/kiss_fft.c ****         case 4: kf_bfly4(Fout,fstride,st,m); break;
 1616              		.loc 1 291 0
 1617 02ea 139B     		ldr	r3, [sp, #76]
 1618 02ec 039A     		ldr	r2, [sp, #12]
 1619 02ee 1D99     		ldr	r1, [sp, #116]
 1620 02f0 0498     		ldr	r0, [sp, #16]
 1621 02f2 FFF7FEFF 		bl	kf_bfly3
 1622              	.LVL194:
 1623 02f6 E5E7     		b	.L81
 1624              	.L75:
 1625              	.LVL195:
 1626 02f8 049B     		ldr	r3, [sp, #16]
 1627 02fa 1398     		ldr	r0, [sp, #76]
 1628              	.LBB35:
 1629              	.LBB34:
  23:Src/kiss_fft.c ****     kiss_fft_cpx t;
 1630              		.loc 1 23 0
 1631 02fc 0399     		ldr	r1, [sp, #12]
 1632 02fe 2C9C     		ldr	r4, [sp, #176]
 1633 0300 03EBC002 		add	r2, r3, r0, lsl #3
 1634 0304 0832     		adds	r2, r2, #8
 1635 0306 01F58471 		add	r1, r1, #264
ARM GAS  /var/folders/k_/r2bh2pj93_jff4n9gmtn9jvr0000gn/T//ccAUK7QQ.s 			page 39


 1636              	.LVL196:
 1637 030a 0833     		adds	r3, r3, #8
 1638              	.LVL197:
 1639              	.L80:
  29:Src/kiss_fft.c ****         tw1 += fstride;
 1640              		.loc 1 29 0
 1641 030c 91ED016A 		vldr.32	s12, [r1, #4]
 1642 0310 52ED017A 		vldr.32	s15, [r2, #-4]
 1643 0314 91ED005A 		vldr.32	s10, [r1]
 1644 0318 52ED025A 		vldr.32	s11, [r2, #-8]
  31:Src/kiss_fft.c ****         C_ADDTO( *Fout ,  t );
 1645              		.loc 1 31 0
 1646 031c 13ED027A 		vldr.32	s14, [r3, #-8]
  29:Src/kiss_fft.c ****         tw1 += fstride;
 1647              		.loc 1 29 0
 1648 0320 66EE676A 		vnmul.f32	s13, s12, s15
 1649 0324 65EE277A 		vmul.f32	s15, s10, s15
 1650 0328 E5EE856A 		vfma.f32	s13, s11, s10
 1651              	.LVL198:
  35:Src/kiss_fft.c **** }
 1652              		.loc 1 35 0
 1653 032c 0138     		subs	r0, r0, #1
 1654              	.LVL199:
  30:Src/kiss_fft.c ****         C_SUB( *Fout2 ,  *Fout , t );
 1655              		.loc 1 30 0
 1656 032e 2144     		add	r1, r1, r4
 1657              	.LVL200:
  29:Src/kiss_fft.c ****         tw1 += fstride;
 1658              		.loc 1 29 0
 1659 0330 E5EE867A 		vfma.f32	s15, s11, s12
 1660              	.LVL201:
 1661 0334 02F10802 		add	r2, r2, #8
 1662              	.LVL202:
 1663 0338 03F10803 		add	r3, r3, #8
  31:Src/kiss_fft.c ****         C_ADDTO( *Fout ,  t );
 1664              		.loc 1 31 0
 1665 033c 37EE667A 		vsub.f32	s14, s14, s13
 1666 0340 02ED047A 		vstr.32	s14, [r2, #-16]
 1667 0344 13ED037A 		vldr.32	s14, [r3, #-12]
 1668 0348 37EE677A 		vsub.f32	s14, s14, s15
 1669 034c 02ED037A 		vstr.32	s14, [r2, #-12]
  32:Src/kiss_fft.c ****         ++Fout2;
 1670              		.loc 1 32 0
 1671 0350 13ED046A 		vldr.32	s12, [r3, #-16]
 1672 0354 13ED037A 		vldr.32	s14, [r3, #-12]
 1673 0358 76EE266A 		vadd.f32	s13, s12, s13
 1674              	.LVL203:
 1675 035c 77EE277A 		vadd.f32	s15, s14, s15
 1676              	.LVL204:
 1677 0360 43ED046A 		vstr.32	s13, [r3, #-16]
 1678 0364 43ED037A 		vstr.32	s15, [r3, #-12]
 1679              	.LVL205:
  35:Src/kiss_fft.c **** }
 1680              		.loc 1 35 0
 1681 0368 D0D1     		bne	.L80
 1682 036a ABE7     		b	.L81
 1683              	.LVL206:
ARM GAS  /var/folders/k_/r2bh2pj93_jff4n9gmtn9jvr0000gn/T//ccAUK7QQ.s 			page 40


 1684              	.L46:
 1685              	.LBE34:
 1686              	.LBE35:
 281:Src/kiss_fft.c ****             f += fstride*in_stride;
 1687              		.loc 1 281 0
 1688 036c 109A     		ldr	r2, [sp, #64]
 1689              	.LVL207:
 1690 036e 1D9B     		ldr	r3, [sp, #116]
 1691              	.LVL208:
 1692 0370 03FB02F3 		mul	r3, r3, r2
 1693              	.LBB36:
 1694              	.LBB37:
 282:Src/kiss_fft.c ****         }while( (Fout += m) != Fout_end );
 1695              		.loc 1 282 0
 1696 0374 1E9A     		ldr	r2, [sp, #120]
 1697              	.LBE37:
 1698              	.LBE36:
 281:Src/kiss_fft.c ****             f += fstride*in_stride;
 1699              		.loc 1 281 0
 1700 0376 1593     		str	r3, [sp, #84]
 1701 0378 8A46     		mov	r10, r1
 1702              	.LBB57:
 1703              	.LBB54:
 282:Src/kiss_fft.c ****         }while( (Fout += m) != Fout_end );
 1704              		.loc 1 282 0
 1705 037a 1146     		mov	r1, r2
 1706              	.LVL209:
 1707 037c 1A46     		mov	r2, r3
 1708              	.LBB38:
 1709              	.LBB39:
  30:Src/kiss_fft.c ****         C_SUB( *Fout2 ,  *Fout , t );
 1710              		.loc 1 30 0
 1711 037e DB00     		lsls	r3, r3, #3
 1712 0380 2B93     		str	r3, [sp, #172]
 1713              	.LBE39:
 1714              	.LBE38:
 1715              	.LBE54:
 1716              	.LBE57:
 283:Src/kiss_fft.c ****     }
 1717              		.loc 1 283 0
 1718 0382 139B     		ldr	r3, [sp, #76]
 1719 0384 DB00     		lsls	r3, r3, #3
 1720 0386 1793     		str	r3, [sp, #92]
 1721 0388 0B9B     		ldr	r3, [sp, #44]
 1722 038a CDE9053B 		strd	r3, fp, [sp, #20]
 1723              	.LBB58:
 1724              	.LBB55:
 282:Src/kiss_fft.c ****         }while( (Fout += m) != Fout_end );
 1725              		.loc 1 282 0
 1726 038e 01FB02F2 		mul	r2, r1, r2
 1727 0392 0C92     		str	r2, [sp, #48]
 1728              	.LVL210:
 1729              	.L73:
 242:Src/kiss_fft.c ****     const int m=*factors++; /* stage's fft length/p */
 1730              		.loc 1 242 0
 1731 0394 069A     		ldr	r2, [sp, #24]
 1732 0396 9369     		ldr	r3, [r2, #24]
ARM GAS  /var/folders/k_/r2bh2pj93_jff4n9gmtn9jvr0000gn/T//ccAUK7QQ.s 			page 41


 243:Src/kiss_fft.c ****     const kiss_fft_cpx * Fout_end = Fout + p*m;
 1733              		.loc 1 243 0
 1734 0398 D2F81CB0 		ldr	fp, [r2, #28]
 242:Src/kiss_fft.c ****     const int m=*factors++; /* stage's fft length/p */
 1735              		.loc 1 242 0
 1736 039c 0793     		str	r3, [sp, #28]
 1737              	.LVL211:
 244:Src/kiss_fft.c **** 
 1738              		.loc 1 244 0
 1739 039e 0BFB03F3 		mul	r3, fp, r3
 1740              	.LVL212:
 1741 03a2 0AEBC303 		add	r3, r10, r3, lsl #3
 270:Src/kiss_fft.c ****         do{
 1742              		.loc 1 270 0
 1743 03a6 BBF1010F 		cmp	fp, #1
 244:Src/kiss_fft.c **** 
 1744              		.loc 1 244 0
 1745 03aa 0993     		str	r3, [sp, #36]
 1746              	.LVL213:
 270:Src/kiss_fft.c ****         do{
 1747              		.loc 1 270 0
 1748 03ac 70D1     		bne	.L49
 1749 03ae 0833     		adds	r3, r3, #8
 1750              	.LVL214:
 1751 03b0 059A     		ldr	r2, [sp, #20]
 1752              	.LVL215:
 1753 03b2 0C9D     		ldr	r5, [sp, #48]
 1754 03b4 1C46     		mov	r4, r3
 1755 03b6 0AF10803 		add	r3, r10, #8
 1756              	.LVL216:
 1757              	.L50:
 272:Src/kiss_fft.c ****             f += fstride*in_stride;
 1758              		.loc 1 272 0
 1759 03ba 92E80300 		ldm	r2, {r0, r1}
 1760 03be 03E90300 		stmdb	r3, {r0, r1}
 1761 03c2 0833     		adds	r3, r3, #8
 1762              	.LVL217:
 274:Src/kiss_fft.c ****     }else{
 1763              		.loc 1 274 0
 1764 03c4 9C42     		cmp	r4, r3
 273:Src/kiss_fft.c ****         }while(++Fout != Fout_end );
 1765              		.loc 1 273 0
 1766 03c6 2A44     		add	r2, r2, r5
 1767              	.LVL218:
 274:Src/kiss_fft.c ****     }else{
 1768              		.loc 1 274 0
 1769 03c8 F7D1     		bne	.L50
 1770              	.LVL219:
 1771              	.L51:
 289:Src/kiss_fft.c ****         case 2: kf_bfly2(Fout,fstride,st,m); break;
 1772              		.loc 1 289 0
 1773 03ca 079B     		ldr	r3, [sp, #28]
 1774 03cc 023B     		subs	r3, r3, #2
 1775 03ce 032B     		cmp	r3, #3
 1776 03d0 00F20D81 		bhi	.L65
 1777 03d4 DFE803F0 		tbb	[pc, r3]
 1778              	.L67:
ARM GAS  /var/folders/k_/r2bh2pj93_jff4n9gmtn9jvr0000gn/T//ccAUK7QQ.s 			page 42


 1779 03d8 22       		.byte	(.L66-.L67)/2
 1780 03d9 1B       		.byte	(.L68-.L67)/2
 1781 03da 14       		.byte	(.L69-.L67)/2
 1782 03db 02       		.byte	(.L70-.L67)/2
 1783              		.p2align 1
 1784              	.L70:
 293:Src/kiss_fft.c ****         default: kf_bfly_generic(Fout,fstride,st,m,p); break;
 1785              		.loc 1 293 0
 1786 03dc 5B46     		mov	r3, fp
 1787 03de 039A     		ldr	r2, [sp, #12]
 1788 03e0 1599     		ldr	r1, [sp, #84]
 1789 03e2 5046     		mov	r0, r10
 1790 03e4 FFF7FEFF 		bl	kf_bfly5
 1791              	.LVL220:
 1792              	.L72:
 1793              	.LBE55:
 1794              	.LBE58:
 283:Src/kiss_fft.c ****     }
 1795              		.loc 1 283 0
 1796 03e8 179B     		ldr	r3, [sp, #92]
 282:Src/kiss_fft.c ****         }while( (Fout += m) != Fout_end );
 1797              		.loc 1 282 0
 1798 03ea 149A     		ldr	r2, [sp, #80]
 283:Src/kiss_fft.c ****     }
 1799              		.loc 1 283 0
 1800 03ec 9A44     		add	r10, r10, r3
 282:Src/kiss_fft.c ****         }while( (Fout += m) != Fout_end );
 1801              		.loc 1 282 0
 1802 03ee 059B     		ldr	r3, [sp, #20]
 1803 03f0 1344     		add	r3, r3, r2
 1804 03f2 0593     		str	r3, [sp, #20]
 1805              	.LVL221:
 283:Src/kiss_fft.c ****     }
 1806              		.loc 1 283 0
 1807 03f4 129B     		ldr	r3, [sp, #72]
 1808              	.LVL222:
 1809 03f6 5345     		cmp	r3, r10
 1810 03f8 CCD1     		bne	.L73
 1811 03fa DDF818B0 		ldr	fp, [sp, #24]
 1812 03fe 52E7     		b	.L48
 1813              	.LVL223:
 1814              	.L69:
 1815              	.LBB59:
 1816              	.LBB56:
 292:Src/kiss_fft.c ****         case 5: kf_bfly5(Fout,fstride,st,m); break; 
 1817              		.loc 1 292 0
 1818 0400 5B46     		mov	r3, fp
 1819 0402 039A     		ldr	r2, [sp, #12]
 1820 0404 1599     		ldr	r1, [sp, #84]
 1821 0406 5046     		mov	r0, r10
 1822 0408 FFF7FEFF 		bl	kf_bfly4
 1823              	.LVL224:
 1824 040c ECE7     		b	.L72
 1825              	.L68:
 291:Src/kiss_fft.c ****         case 4: kf_bfly4(Fout,fstride,st,m); break;
 1826              		.loc 1 291 0
 1827 040e 5B46     		mov	r3, fp
ARM GAS  /var/folders/k_/r2bh2pj93_jff4n9gmtn9jvr0000gn/T//ccAUK7QQ.s 			page 43


 1828 0410 039A     		ldr	r2, [sp, #12]
 1829 0412 1599     		ldr	r1, [sp, #84]
 1830 0414 5046     		mov	r0, r10
 1831 0416 FFF7FEFF 		bl	kf_bfly3
 1832              	.LVL225:
 1833 041a E5E7     		b	.L72
 1834              	.L66:
 1835              	.LVL226:
 1836              	.LBB41:
 1837              	.LBB40:
  23:Src/kiss_fft.c ****     kiss_fft_cpx t;
 1838              		.loc 1 23 0
 1839 041c 039B     		ldr	r3, [sp, #12]
 1840 041e 2B98     		ldr	r0, [sp, #172]
 1841 0420 0AEBCB02 		add	r2, r10, fp, lsl #3
 1842 0424 03F58471 		add	r1, r3, #264
 1843              	.LVL227:
 1844 0428 0832     		adds	r2, r2, #8
 1845              	.LVL228:
 1846 042a 0AF10803 		add	r3, r10, #8
 1847              	.LVL229:
 1848              	.L71:
  29:Src/kiss_fft.c ****         tw1 += fstride;
 1849              		.loc 1 29 0
 1850 042e 91ED016A 		vldr.32	s12, [r1, #4]
 1851 0432 52ED017A 		vldr.32	s15, [r2, #-4]
 1852 0436 91ED005A 		vldr.32	s10, [r1]
 1853 043a 52ED025A 		vldr.32	s11, [r2, #-8]
  31:Src/kiss_fft.c ****         C_ADDTO( *Fout ,  t );
 1854              		.loc 1 31 0
 1855 043e 13ED027A 		vldr.32	s14, [r3, #-8]
  29:Src/kiss_fft.c ****         tw1 += fstride;
 1856              		.loc 1 29 0
 1857 0442 66EE676A 		vnmul.f32	s13, s12, s15
 1858 0446 65EE277A 		vmul.f32	s15, s10, s15
 1859 044a E5EE856A 		vfma.f32	s13, s11, s10
 1860              	.LVL230:
  35:Src/kiss_fft.c **** }
 1861              		.loc 1 35 0
 1862 044e BBF1010B 		subs	fp, fp, #1
 1863              	.LVL231:
  30:Src/kiss_fft.c ****         C_SUB( *Fout2 ,  *Fout , t );
 1864              		.loc 1 30 0
 1865 0452 0144     		add	r1, r1, r0
 1866              	.LVL232:
  29:Src/kiss_fft.c ****         tw1 += fstride;
 1867              		.loc 1 29 0
 1868 0454 E5EE867A 		vfma.f32	s15, s11, s12
 1869              	.LVL233:
 1870 0458 02F10802 		add	r2, r2, #8
 1871              	.LVL234:
 1872 045c 03F10803 		add	r3, r3, #8
  31:Src/kiss_fft.c ****         C_ADDTO( *Fout ,  t );
 1873              		.loc 1 31 0
 1874 0460 37EE667A 		vsub.f32	s14, s14, s13
 1875 0464 02ED047A 		vstr.32	s14, [r2, #-16]
 1876 0468 13ED037A 		vldr.32	s14, [r3, #-12]
ARM GAS  /var/folders/k_/r2bh2pj93_jff4n9gmtn9jvr0000gn/T//ccAUK7QQ.s 			page 44


 1877 046c 37EE677A 		vsub.f32	s14, s14, s15
 1878 0470 02ED037A 		vstr.32	s14, [r2, #-12]
  32:Src/kiss_fft.c ****         ++Fout2;
 1879              		.loc 1 32 0
 1880 0474 13ED046A 		vldr.32	s12, [r3, #-16]
 1881 0478 13ED037A 		vldr.32	s14, [r3, #-12]
 1882 047c 76EE266A 		vadd.f32	s13, s12, s13
 1883              	.LVL235:
 1884 0480 77EE277A 		vadd.f32	s15, s14, s15
 1885              	.LVL236:
 1886 0484 43ED046A 		vstr.32	s13, [r3, #-16]
 1887 0488 43ED037A 		vstr.32	s15, [r3, #-12]
 1888              	.LVL237:
  35:Src/kiss_fft.c **** }
 1889              		.loc 1 35 0
 1890 048c CFD1     		bne	.L71
 1891 048e ABE7     		b	.L72
 1892              	.LVL238:
 1893              	.L49:
 1894              	.LBE40:
 1895              	.LBE41:
 281:Src/kiss_fft.c ****             f += fstride*in_stride;
 1896              		.loc 1 281 0
 1897 0490 079A     		ldr	r2, [sp, #28]
 1898              	.LVL239:
 1899 0492 159B     		ldr	r3, [sp, #84]
 1900              	.LVL240:
 283:Src/kiss_fft.c ****     }
 1901              		.loc 1 283 0
 1902 0494 CDF898A0 		str	r10, [sp, #152]
 281:Src/kiss_fft.c ****             f += fstride*in_stride;
 1903              		.loc 1 281 0
 1904 0498 03FB02F3 		mul	r3, r3, r2
 1905              	.LBB42:
 1906              	.LBB43:
 282:Src/kiss_fft.c ****         }while( (Fout += m) != Fout_end );
 1907              		.loc 1 282 0
 1908 049c 1E9A     		ldr	r2, [sp, #120]
 1909              	.LBE43:
 1910              	.LBE42:
 281:Src/kiss_fft.c ****             f += fstride*in_stride;
 1911              		.loc 1 281 0
 1912 049e 0E93     		str	r3, [sp, #56]
 1913              	.LBB51:
 1914              	.LBB48:
 282:Src/kiss_fft.c ****         }while( (Fout += m) != Fout_end );
 1915              		.loc 1 282 0
 1916 04a0 1146     		mov	r1, r2
 1917 04a2 01FB03F9 		mul	r9, r1, r3
 1918              	.LBB44:
 1919              	.LBB45:
  30:Src/kiss_fft.c ****         C_SUB( *Fout2 ,  *Fout , t );
 1920              		.loc 1 30 0
 1921 04a6 DB00     		lsls	r3, r3, #3
 1922 04a8 2993     		str	r3, [sp, #164]
 1923              	.LBE45:
 1924              	.LBE44:
ARM GAS  /var/folders/k_/r2bh2pj93_jff4n9gmtn9jvr0000gn/T//ccAUK7QQ.s 			page 45


 1925              	.LBE48:
 1926              	.LBE51:
 283:Src/kiss_fft.c ****     }
 1927              		.loc 1 283 0
 1928 04aa 4FEACB03 		lsl	r3, fp, #3
 1929 04ae 1193     		str	r3, [sp, #68]
 1930 04b0 059B     		ldr	r3, [sp, #20]
 1931 04b2 CDF89CB0 		str	fp, [sp, #156]
 1932 04b6 5646     		mov	r6, r10
 1933 04b8 CB46     		mov	fp, r9
 1934              	.LVL241:
 1935 04ba 9A46     		mov	r10, r3
 1936              	.LVL242:
 1937              	.L64:
 1938              	.LBB52:
 1939              	.LBB49:
 242:Src/kiss_fft.c ****     const int m=*factors++; /* stage's fft length/p */
 1940              		.loc 1 242 0
 1941 04bc 069B     		ldr	r3, [sp, #24]
 243:Src/kiss_fft.c ****     const kiss_fft_cpx * Fout_end = Fout + p*m;
 1942              		.loc 1 243 0
 1943 04be 5D6A     		ldr	r5, [r3, #36]
 242:Src/kiss_fft.c ****     const int m=*factors++; /* stage's fft length/p */
 1944              		.loc 1 242 0
 1945 04c0 D3F82090 		ldr	r9, [r3, #32]
 1946              	.LVL243:
 270:Src/kiss_fft.c ****         do{
 1947              		.loc 1 270 0
 1948 04c4 012D     		cmp	r5, #1
 244:Src/kiss_fft.c **** 
 1949              		.loc 1 244 0
 1950 04c6 05FB09F4 		mul	r4, r5, r9
 1951 04ca 06EBC404 		add	r4, r6, r4, lsl #3
 1952              	.LVL244:
 270:Src/kiss_fft.c ****         do{
 1953              		.loc 1 270 0
 1954 04ce 6AD1     		bne	.L52
 1955 04d0 0834     		adds	r4, r4, #8
 1956              	.LVL245:
 1957 04d2 06F10803 		add	r3, r6, #8
 1958              	.LVL246:
 1959 04d6 5246     		mov	r2, r10
 1960              	.LVL247:
 1961              	.L53:
 272:Src/kiss_fft.c ****             f += fstride*in_stride;
 1962              		.loc 1 272 0
 1963 04d8 92E80300 		ldm	r2, {r0, r1}
 1964 04dc 03E90300 		stmdb	r3, {r0, r1}
 1965 04e0 0833     		adds	r3, r3, #8
 1966              	.LVL248:
 274:Src/kiss_fft.c ****     }else{
 1967              		.loc 1 274 0
 1968 04e2 9C42     		cmp	r4, r3
 273:Src/kiss_fft.c ****         }while(++Fout != Fout_end );
 1969              		.loc 1 273 0
 1970 04e4 5A44     		add	r2, r2, fp
 1971              	.LVL249:
ARM GAS  /var/folders/k_/r2bh2pj93_jff4n9gmtn9jvr0000gn/T//ccAUK7QQ.s 			page 46


 274:Src/kiss_fft.c ****     }else{
 1972              		.loc 1 274 0
 1973 04e6 F7D1     		bne	.L53
 1974              	.LVL250:
 1975              	.L54:
 289:Src/kiss_fft.c ****         case 2: kf_bfly2(Fout,fstride,st,m); break;
 1976              		.loc 1 289 0
 1977 04e8 A9F10203 		sub	r3, r9, #2
 1978 04ec 032B     		cmp	r3, #3
 1979 04ee 75D8     		bhi	.L56
 1980 04f0 DFE803F0 		tbb	[pc, r3]
 1981              	.L58:
 1982 04f4 20       		.byte	(.L57-.L58)/2
 1983 04f5 19       		.byte	(.L59-.L58)/2
 1984 04f6 12       		.byte	(.L60-.L58)/2
 1985 04f7 02       		.byte	(.L61-.L58)/2
 1986              		.p2align 1
 1987              	.L61:
 293:Src/kiss_fft.c ****         default: kf_bfly_generic(Fout,fstride,st,m,p); break;
 1988              		.loc 1 293 0
 1989 04f8 2B46     		mov	r3, r5
 1990 04fa 039A     		ldr	r2, [sp, #12]
 1991 04fc 0E99     		ldr	r1, [sp, #56]
 1992 04fe 3046     		mov	r0, r6
 1993 0500 FFF7FEFF 		bl	kf_bfly5
 1994              	.LVL251:
 1995              	.L63:
 1996              	.LBE49:
 1997              	.LBE52:
 283:Src/kiss_fft.c ****     }
 1998              		.loc 1 283 0
 1999 0504 119B     		ldr	r3, [sp, #68]
 2000 0506 1E44     		add	r6, r6, r3
 282:Src/kiss_fft.c ****         }while( (Fout += m) != Fout_end );
 2001              		.loc 1 282 0
 2002 0508 0C9B     		ldr	r3, [sp, #48]
 2003 050a 9A44     		add	r10, r10, r3
 2004              	.LVL252:
 283:Src/kiss_fft.c ****     }
 2005              		.loc 1 283 0
 2006 050c 099B     		ldr	r3, [sp, #36]
 2007 050e B342     		cmp	r3, r6
 2008 0510 D4D1     		bne	.L64
 2009 0512 DDE926AB 		ldrd	r10, fp, [sp, #152]
 2010              	.LVL253:
 2011 0516 58E7     		b	.L51
 2012              	.LVL254:
 2013              	.L60:
 2014              	.LBB53:
 2015              	.LBB50:
 292:Src/kiss_fft.c ****         case 5: kf_bfly5(Fout,fstride,st,m); break; 
 2016              		.loc 1 292 0
 2017 0518 2B46     		mov	r3, r5
 2018 051a 039A     		ldr	r2, [sp, #12]
 2019 051c 0E99     		ldr	r1, [sp, #56]
 2020 051e 3046     		mov	r0, r6
 2021 0520 FFF7FEFF 		bl	kf_bfly4
ARM GAS  /var/folders/k_/r2bh2pj93_jff4n9gmtn9jvr0000gn/T//ccAUK7QQ.s 			page 47


 2022              	.LVL255:
 2023 0524 EEE7     		b	.L63
 2024              	.L59:
 291:Src/kiss_fft.c ****         case 4: kf_bfly4(Fout,fstride,st,m); break;
 2025              		.loc 1 291 0
 2026 0526 2B46     		mov	r3, r5
 2027 0528 039A     		ldr	r2, [sp, #12]
 2028 052a 0E99     		ldr	r1, [sp, #56]
 2029 052c 3046     		mov	r0, r6
 2030 052e FFF7FEFF 		bl	kf_bfly3
 2031              	.LVL256:
 2032 0532 E7E7     		b	.L63
 2033              	.L57:
 2034              	.LVL257:
 2035              	.LBB47:
 2036              	.LBB46:
  23:Src/kiss_fft.c ****     kiss_fft_cpx t;
 2037              		.loc 1 23 0
 2038 0534 039B     		ldr	r3, [sp, #12]
 2039 0536 2998     		ldr	r0, [sp, #164]
 2040 0538 06EBC502 		add	r2, r6, r5, lsl #3
 2041 053c 03F58471 		add	r1, r3, #264
 2042              	.LVL258:
 2043 0540 0832     		adds	r2, r2, #8
 2044              	.LVL259:
 2045 0542 06F10803 		add	r3, r6, #8
 2046              	.LVL260:
 2047              	.L62:
  29:Src/kiss_fft.c ****         tw1 += fstride;
 2048              		.loc 1 29 0
 2049 0546 91ED016A 		vldr.32	s12, [r1, #4]
 2050 054a 52ED017A 		vldr.32	s15, [r2, #-4]
 2051 054e 91ED005A 		vldr.32	s10, [r1]
 2052 0552 52ED025A 		vldr.32	s11, [r2, #-8]
  31:Src/kiss_fft.c ****         C_ADDTO( *Fout ,  t );
 2053              		.loc 1 31 0
 2054 0556 13ED027A 		vldr.32	s14, [r3, #-8]
  29:Src/kiss_fft.c ****         tw1 += fstride;
 2055              		.loc 1 29 0
 2056 055a 66EE676A 		vnmul.f32	s13, s12, s15
 2057 055e 65EE277A 		vmul.f32	s15, s10, s15
 2058 0562 E5EE856A 		vfma.f32	s13, s11, s10
 2059              	.LVL261:
  35:Src/kiss_fft.c **** }
 2060              		.loc 1 35 0
 2061 0566 013D     		subs	r5, r5, #1
 2062              	.LVL262:
  30:Src/kiss_fft.c ****         C_SUB( *Fout2 ,  *Fout , t );
 2063              		.loc 1 30 0
 2064 0568 0144     		add	r1, r1, r0
 2065              	.LVL263:
  29:Src/kiss_fft.c ****         tw1 += fstride;
 2066              		.loc 1 29 0
 2067 056a E5EE867A 		vfma.f32	s15, s11, s12
 2068              	.LVL264:
 2069 056e 02F10802 		add	r2, r2, #8
 2070              	.LVL265:
ARM GAS  /var/folders/k_/r2bh2pj93_jff4n9gmtn9jvr0000gn/T//ccAUK7QQ.s 			page 48


 2071 0572 03F10803 		add	r3, r3, #8
  31:Src/kiss_fft.c ****         C_ADDTO( *Fout ,  t );
 2072              		.loc 1 31 0
 2073 0576 37EE667A 		vsub.f32	s14, s14, s13
 2074 057a 02ED047A 		vstr.32	s14, [r2, #-16]
 2075 057e 13ED037A 		vldr.32	s14, [r3, #-12]
 2076 0582 37EE677A 		vsub.f32	s14, s14, s15
 2077 0586 02ED037A 		vstr.32	s14, [r2, #-12]
  32:Src/kiss_fft.c ****         ++Fout2;
 2078              		.loc 1 32 0
 2079 058a 13ED046A 		vldr.32	s12, [r3, #-16]
 2080 058e 13ED037A 		vldr.32	s14, [r3, #-12]
 2081 0592 76EE266A 		vadd.f32	s13, s12, s13
 2082              	.LVL266:
 2083 0596 77EE277A 		vadd.f32	s15, s14, s15
 2084              	.LVL267:
 2085 059a 43ED046A 		vstr.32	s13, [r3, #-16]
 2086 059e 43ED037A 		vstr.32	s15, [r3, #-12]
 2087              	.LVL268:
  35:Src/kiss_fft.c **** }
 2088              		.loc 1 35 0
 2089 05a2 D0D1     		bne	.L62
 2090 05a4 AEE7     		b	.L63
 2091              	.LVL269:
 2092              	.L52:
 2093              	.LBE46:
 2094              	.LBE47:
 281:Src/kiss_fft.c ****             f += fstride*in_stride;
 2095              		.loc 1 281 0
 2096 05a6 0E9B     		ldr	r3, [sp, #56]
 2097              	.LVL270:
 283:Src/kiss_fft.c ****     }
 2098              		.loc 1 283 0
 2099 05a8 1B96     		str	r6, [sp, #108]
 2100 05aa EA00     		lsls	r2, r5, #3
 281:Src/kiss_fft.c ****             f += fstride*in_stride;
 2101              		.loc 1 281 0
 2102 05ac 03FB09F3 		mul	r3, r3, r9
 283:Src/kiss_fft.c ****     }
 2103              		.loc 1 283 0
 2104 05b0 3746     		mov	r7, r6
 2105 05b2 1C95     		str	r5, [sp, #112]
 2106 05b4 D046     		mov	r8, r10
 2107 05b6 1646     		mov	r6, r2
 2108              	.LVL271:
 2109 05b8 1D46     		mov	r5, r3
 2110              	.LVL272:
 2111              	.L55:
 281:Src/kiss_fft.c ****             f += fstride*in_stride;
 2112              		.loc 1 281 0
 2113 05ba 039B     		ldr	r3, [sp, #12]
 2114 05bc 0193     		str	r3, [sp, #4]
 2115 05be 0D9B     		ldr	r3, [sp, #52]
 2116 05c0 0093     		str	r3, [sp]
 2117 05c2 4146     		mov	r1, r8
 2118 05c4 3846     		mov	r0, r7
 2119 05c6 089B     		ldr	r3, [sp, #32]
ARM GAS  /var/folders/k_/r2bh2pj93_jff4n9gmtn9jvr0000gn/T//ccAUK7QQ.s 			page 49


 2120 05c8 2A46     		mov	r2, r5
 283:Src/kiss_fft.c ****     }
 2121              		.loc 1 283 0
 2122 05ca 3744     		add	r7, r7, r6
 2123              	.LVL273:
 281:Src/kiss_fft.c ****             f += fstride*in_stride;
 2124              		.loc 1 281 0
 2125 05cc FFF718FD 		bl	kf_work
 2126              	.LVL274:
 283:Src/kiss_fft.c ****     }
 2127              		.loc 1 283 0
 2128 05d0 BC42     		cmp	r4, r7
 282:Src/kiss_fft.c ****         }while( (Fout += m) != Fout_end );
 2129              		.loc 1 282 0
 2130 05d2 D844     		add	r8, r8, fp
 2131              	.LVL275:
 283:Src/kiss_fft.c ****     }
 2132              		.loc 1 283 0
 2133 05d4 F1D1     		bne	.L55
 2134 05d6 DDE91B65 		ldrd	r6, r5, [sp, #108]
 2135 05da 85E7     		b	.L54
 2136              	.LVL276:
 2137              	.L56:
 294:Src/kiss_fft.c ****     }
 2138              		.loc 1 294 0
 2139 05dc CDF80090 		str	r9, [sp]
 2140 05e0 2B46     		mov	r3, r5
 2141 05e2 039A     		ldr	r2, [sp, #12]
 2142 05e4 0E99     		ldr	r1, [sp, #56]
 2143 05e6 3046     		mov	r0, r6
 2144 05e8 FFF7FEFF 		bl	kf_bfly_generic
 2145              	.LVL277:
 2146 05ec 8AE7     		b	.L63
 2147              	.LVL278:
 2148              	.L65:
 2149              	.LBE50:
 2150              	.LBE53:
 2151 05ee 079B     		ldr	r3, [sp, #28]
 2152 05f0 0093     		str	r3, [sp]
 2153 05f2 039A     		ldr	r2, [sp, #12]
 2154 05f4 1599     		ldr	r1, [sp, #84]
 2155 05f6 5B46     		mov	r3, fp
 2156 05f8 5046     		mov	r0, r10
 2157 05fa FFF7FEFF 		bl	kf_bfly_generic
 2158              	.LVL279:
 2159 05fe F3E6     		b	.L72
 2160              	.LVL280:
 2161              	.L74:
 2162              	.LBE56:
 2163              	.LBE59:
 2164 0600 109B     		ldr	r3, [sp, #64]
 2165 0602 0093     		str	r3, [sp]
 2166 0604 039A     		ldr	r2, [sp, #12]
 2167 0606 139B     		ldr	r3, [sp, #76]
 2168 0608 1D99     		ldr	r1, [sp, #116]
 2169 060a 0498     		ldr	r0, [sp, #16]
 2170 060c FFF7FEFF 		bl	kf_bfly_generic
ARM GAS  /var/folders/k_/r2bh2pj93_jff4n9gmtn9jvr0000gn/T//ccAUK7QQ.s 			page 50


 2171              	.LVL281:
 2172 0610 58E6     		b	.L81
 2173              	.LVL282:
 2174              	.L83:
 2175              	.LBE64:
 2176              	.LBE69:
 2177 0612 169B     		ldr	r3, [sp, #88]
 2178 0614 0093     		str	r3, [sp]
 2179 0616 039A     		ldr	r2, [sp, #12]
 2180 0618 199B     		ldr	r3, [sp, #100]
 2181 061a 2899     		ldr	r1, [sp, #160]
 2182 061c 0A98     		ldr	r0, [sp, #40]
 2183 061e FFF7FEFF 		bl	kf_bfly_generic
 2184              	.LVL283:
 2185 0622 BBE5     		b	.L90
 2186              	.LVL284:
 2187              	.L92:
 2188              	.LBE71:
 2189              	.LBE73:
 2190 0624 1F9B     		ldr	r3, [sp, #124]
 2191 0626 3893     		str	r3, [sp, #224]
 2192              	.LVL285:
 2193 0628 DDE92401 		ldrd	r0, r1, [sp, #144]
 2194 062c 239B     		ldr	r3, [sp, #140]
 2195 062e 039A     		ldr	r2, [sp, #12]
 2196              		.loc 1 296 0
 2197 0630 2FB0     		add	sp, sp, #188
 2198              		@ sp needed
 2199 0632 BDE8F04F 		pop	{r4, r5, r6, r7, r8, r9, r10, fp, lr}
 2200              	.LVL286:
 294:Src/kiss_fft.c ****     }
 2201              		.loc 1 294 0
 2202 0636 FFF7FEBF 		b	kf_bfly_generic
 2203              	.LVL287:
 2204              		.cfi_endproc
 2205              	.LFE8:
 2207 063a 00BF     		.section	.text.kf_work.constprop.1,"ax",%progbits
 2208              		.align	1
 2209              		.p2align 2,,3
 2210              		.syntax unified
 2211              		.thumb
 2212              		.thumb_func
 2213              		.fpu fpv4-sp-d16
 2215              	kf_work.constprop.1:
 2216              	.LFB16:
 232:Src/kiss_fft.c ****         kiss_fft_cpx * Fout,
 2217              		.loc 1 232 0
 2218              		.cfi_startproc
 2219              		@ args = 4, pretend = 0, frame = 16
 2220              		@ frame_needed = 0, uses_anonymous_args = 0
 2221              	.LVL288:
 2222 0000 2DE9F04F 		push	{r4, r5, r6, r7, r8, r9, r10, fp, lr}
 2223              	.LCFI30:
 2224              		.cfi_def_cfa_offset 36
 2225              		.cfi_offset 4, -36
 2226              		.cfi_offset 5, -32
 2227              		.cfi_offset 6, -28
ARM GAS  /var/folders/k_/r2bh2pj93_jff4n9gmtn9jvr0000gn/T//ccAUK7QQ.s 			page 51


 2228              		.cfi_offset 7, -24
 2229              		.cfi_offset 8, -20
 2230              		.cfi_offset 9, -16
 2231              		.cfi_offset 10, -12
 2232              		.cfi_offset 11, -8
 2233              		.cfi_offset 14, -4
 243:Src/kiss_fft.c ****     const kiss_fft_cpx * Fout_end = Fout + p*m;
 2234              		.loc 1 243 0
 2235 0004 D3E900A6 		ldrd	r10, r6, [r3]
 2236              	.LVL289:
 232:Src/kiss_fft.c ****         kiss_fft_cpx * Fout,
 2237              		.loc 1 232 0
 2238 0008 2DED068B 		vpush.64	{d8, d9, d10}
 2239              	.LCFI31:
 2240              		.cfi_def_cfa_offset 60
 2241              		.cfi_offset 80, -60
 2242              		.cfi_offset 81, -56
 2243              		.cfi_offset 82, -52
 2244              		.cfi_offset 83, -48
 2245              		.cfi_offset 84, -44
 2246              		.cfi_offset 85, -40
 2247 000c 0446     		mov	r4, r0
 2248 000e 87B0     		sub	sp, sp, #28
 2249              	.LCFI32:
 2250              		.cfi_def_cfa_offset 88
 244:Src/kiss_fft.c **** 
 2251              		.loc 1 244 0
 2252 0010 06FB0AF0 		mul	r0, r6, r10
 2253              	.LVL290:
 232:Src/kiss_fft.c ****         kiss_fft_cpx * Fout,
 2254              		.loc 1 232 0
 2255 0014 9346     		mov	fp, r2
 270:Src/kiss_fft.c ****         do{
 2256              		.loc 1 270 0
 2257 0016 012E     		cmp	r6, #1
 244:Src/kiss_fft.c **** 
 2258              		.loc 1 244 0
 2259 0018 4FEAC002 		lsl	r2, r0, #3
 2260              	.LVL291:
 232:Src/kiss_fft.c ****         kiss_fft_cpx * Fout,
 2261              		.loc 1 232 0
 2262 001c 0D46     		mov	r5, r1
 2263 001e DDF85880 		ldr	r8, [sp, #88]
 244:Src/kiss_fft.c **** 
 2264              		.loc 1 244 0
 2265 0022 04EB0201 		add	r1, r4, r2
 2266              	.LVL292:
 2267 0026 4FEACB07 		lsl	r7, fp, #3
 270:Src/kiss_fft.c ****         do{
 2268              		.loc 1 270 0
 2269 002a 40F08582 		bne	.L118
 2270 002e 0A46     		mov	r2, r1
 2271 0030 0832     		adds	r2, r2, #8
 2272 0032 04F10803 		add	r3, r4, #8
 2273              	.LVL293:
 2274              	.L119:
 272:Src/kiss_fft.c ****             f += fstride*in_stride;
ARM GAS  /var/folders/k_/r2bh2pj93_jff4n9gmtn9jvr0000gn/T//ccAUK7QQ.s 			page 52


 2275              		.loc 1 272 0
 2276 0036 95E80300 		ldm	r5, {r0, r1}
 2277 003a 03E90300 		stmdb	r3, {r0, r1}
 2278 003e 0833     		adds	r3, r3, #8
 2279              	.LVL294:
 274:Src/kiss_fft.c ****     }else{
 2280              		.loc 1 274 0
 2281 0040 9A42     		cmp	r2, r3
 273:Src/kiss_fft.c ****         }while(++Fout != Fout_end );
 2282              		.loc 1 273 0
 2283 0042 3D44     		add	r5, r5, r7
 2284              	.LVL295:
 274:Src/kiss_fft.c ****     }else{
 2285              		.loc 1 274 0
 2286 0044 F7D1     		bne	.L119
 2287              	.LVL296:
 2288              	.L120:
 289:Src/kiss_fft.c ****         case 2: kf_bfly2(Fout,fstride,st,m); break;
 2289              		.loc 1 289 0
 2290 0046 AAF10203 		sub	r3, r10, #2
 2291 004a 032B     		cmp	r3, #3
 2292 004c 00F28D82 		bhi	.L122
 2293 0050 DFE813F0 		tbh	[pc, r3, lsl #1]
 2294              	.L124:
 2295 0054 3702     		.2byte	(.L123-.L124)/2
 2296 0056 8E01     		.2byte	(.L125-.L124)/2
 2297 0058 EA00     		.2byte	(.L126-.L124)/2
 2298 005a 0400     		.2byte	(.L127-.L124)/2
 2299              		.p2align 1
 2300              	.L127:
 2301              	.LVL297:
 2302              	.LBB82:
 2303              	.LBB83:
 143:Src/kiss_fft.c ****     yb = twiddles[fstride*2*m];
 2304              		.loc 1 143 0
 2305 005c F700     		lsls	r7, r6, #3
 140:Src/kiss_fft.c ****     kiss_fft_cpx *tw;
 2306              		.loc 1 140 0
 2307 005e 08F58478 		add	r8, r8, #264
 2308              	.LVL298:
 147:Src/kiss_fft.c ****     Fout2=Fout0+2*m;
 2309              		.loc 1 147 0
 2310 0062 E019     		adds	r0, r4, r7
 143:Src/kiss_fft.c ****     yb = twiddles[fstride*2*m];
 2311              		.loc 1 143 0
 2312 0064 08EB0705 		add	r5, r8, r7
 2313              	.LVL299:
 148:Src/kiss_fft.c ****     Fout3=Fout0+3*m;
 2314              		.loc 1 148 0
 2315 0068 C119     		adds	r1, r0, r7
 144:Src/kiss_fft.c **** 
 2316              		.loc 1 144 0
 2317 006a 05EB070C 		add	ip, r5, r7
 149:Src/kiss_fft.c ****     Fout4=Fout0+4*m;
 2318              		.loc 1 149 0
 2319 006e CA19     		adds	r2, r1, r7
 153:Src/kiss_fft.c ****         C_FIXDIV( *Fout0,5); C_FIXDIV( *Fout1,5); C_FIXDIV( *Fout2,5); C_FIXDIV( *Fout3,5); C_FIXDI
ARM GAS  /var/folders/k_/r2bh2pj93_jff4n9gmtn9jvr0000gn/T//ccAUK7QQ.s 			page 53


 2320              		.loc 1 153 0
 2321 0070 002E     		cmp	r6, #0
 150:Src/kiss_fft.c **** 
 2322              		.loc 1 150 0
 2323 0072 02EB0703 		add	r3, r2, r7
 144:Src/kiss_fft.c **** 
 2324              		.loc 1 144 0
 2325 0076 9CED003A 		vldr.32	s6, [ip]
 2326 007a DCED012A 		vldr.32	s5, [ip, #4]
 143:Src/kiss_fft.c ****     yb = twiddles[fstride*2*m];
 2327              		.loc 1 143 0
 2328 007e D5ED003A 		vldr.32	s7, [r5]
 2329              	.LVL300:
 2330 0082 95ED012A 		vldr.32	s4, [r5, #4]
 2331              	.LVL301:
 153:Src/kiss_fft.c ****         C_FIXDIV( *Fout0,5); C_FIXDIV( *Fout1,5); C_FIXDIV( *Fout2,5); C_FIXDIV( *Fout3,5); C_FIXDI
 2332              		.loc 1 153 0
 2333 0086 40F3CA80 		ble	.L117
 2334 008a 0837     		adds	r7, r7, #8
 2335              	.LVL302:
 2336 008c 1F44     		add	r7, r7, r3
 2337              	.LVL303:
 2338 008e 0834     		adds	r4, r4, #8
 2339 0090 0830     		adds	r0, r0, #8
 2340              	.LVL304:
 2341 0092 0831     		adds	r1, r1, #8
 2342 0094 0832     		adds	r2, r2, #8
 2343 0096 0833     		adds	r3, r3, #8
 2344 0098 C446     		mov	ip, r8
 2345 009a 4646     		mov	r6, r8
 2346              	.LVL305:
 2347 009c 4546     		mov	r5, r8
 2348 009e F1EE421A 		vneg.f32	s3, s4
 2349              	.LVL306:
 2350              	.L135:
 157:Src/kiss_fft.c ****         C_MUL(scratch[2] ,*Fout2, tw[2*u*fstride]);
 2351              		.loc 1 157 0
 2352 00a2 98ED000A 		vldr.32	s0, [r8]
 2353 00a6 50ED015A 		vldr.32	s11, [r0, #-4]
 2354 00aa D8ED01AA 		vldr.32	s21, [r8, #4]
 2355 00ae 10ED02AA 		vldr.32	s20, [r0, #-8]
 160:Src/kiss_fft.c **** 
 2356              		.loc 1 160 0
 2357 00b2 DCED009A 		vldr.32	s19, [ip]
 2358 00b6 53ED017A 		vldr.32	s15, [r3, #-4]
 2359 00ba 9CED011A 		vldr.32	s2, [ip, #4]
 2360 00be 13ED029A 		vldr.32	s18, [r3, #-8]
 158:Src/kiss_fft.c ****         C_MUL(scratch[3] ,*Fout3, tw[3*u*fstride]);
 2361              		.loc 1 158 0
 2362 00c2 D5ED018A 		vldr.32	s17, [r5, #4]
 2363 00c6 11ED017A 		vldr.32	s14, [r1, #-4]
 2364 00ca 95ED004A 		vldr.32	s8, [r5]
 159:Src/kiss_fft.c ****         C_MUL(scratch[4] ,*Fout4, tw[4*u*fstride]);
 2365              		.loc 1 159 0
 2366 00ce 96ED008A 		vldr.32	s16, [r6]
 2367 00d2 D6ED010A 		vldr.32	s1, [r6, #4]
 2368 00d6 52ED016A 		vldr.32	s13, [r2, #-4]
ARM GAS  /var/folders/k_/r2bh2pj93_jff4n9gmtn9jvr0000gn/T//ccAUK7QQ.s 			page 54


 157:Src/kiss_fft.c ****         C_MUL(scratch[2] ,*Fout2, tw[2*u*fstride]);
 2369              		.loc 1 157 0
 2370 00da 20EE255A 		vmul.f32	s10, s0, s11
 2371 00de 6AEEE55A 		vnmul.f32	s11, s21, s11
 2372 00e2 AAEE2A5A 		vfma.f32	s10, s20, s21
 2373 00e6 0833     		adds	r3, r3, #8
 2374 00e8 08F10808 		add	r8, r8, #8
 2375 00ec EAEE005A 		vfma.f32	s11, s20, s0
 2376 00f0 0CF1200C 		add	ip, ip, #32
 2377 00f4 1035     		adds	r5, r5, #16
 2378 00f6 F0EE454A 		vmov.f32	s9, s10
 160:Src/kiss_fft.c **** 
 2379              		.loc 1 160 0
 2380 00fa 21EE67AA 		vnmul.f32	s20, s2, s15
 2381 00fe 29EEA75A 		vmul.f32	s10, s19, s15
 157:Src/kiss_fft.c ****         C_MUL(scratch[2] ,*Fout2, tw[2*u*fstride]);
 2382              		.loc 1 157 0
 2383 0102 B0EE650A 		vmov.f32	s0, s11
 160:Src/kiss_fft.c **** 
 2384              		.loc 1 160 0
 2385 0106 A9EE29AA 		vfma.f32	s20, s18, s19
 2386 010a 1836     		adds	r6, r6, #24
 2387 010c 0834     		adds	r4, r4, #8
 2388              	.LVL307:
 2389 010e A9EE015A 		vfma.f32	s10, s18, s2
 2390 0112 0830     		adds	r0, r0, #8
 2391 0114 0831     		adds	r1, r1, #8
 158:Src/kiss_fft.c ****         C_MUL(scratch[3] ,*Fout3, tw[3*u*fstride]);
 2392              		.loc 1 158 0
 2393 0116 11ED049A 		vldr.32	s18, [r1, #-16]
 159:Src/kiss_fft.c ****         C_MUL(scratch[4] ,*Fout4, tw[4*u*fstride]);
 2394              		.loc 1 159 0
 2395 011a 52ED027A 		vldr.32	s15, [r2, #-8]
 155:Src/kiss_fft.c **** 
 2396              		.loc 1 155 0
 2397 011e 14ED041A 		vldr.32	s2, [r4, #-16]
 2398              	.LVL308:
 158:Src/kiss_fft.c ****         C_MUL(scratch[3] ,*Fout3, tw[3*u*fstride]);
 2399              		.loc 1 158 0
 2400 0122 68EEC75A 		vnmul.f32	s11, s17, s14
 2401 0126 24EE076A 		vmul.f32	s12, s8, s14
 2402 012a E9EE045A 		vfma.f32	s11, s18, s8
 2403 012e 0832     		adds	r2, r2, #8
 159:Src/kiss_fft.c ****         C_MUL(scratch[4] ,*Fout4, tw[4*u*fstride]);
 2404              		.loc 1 159 0
 2405 0130 28EE267A 		vmul.f32	s14, s16, s13
 158:Src/kiss_fft.c ****         C_MUL(scratch[3] ,*Fout3, tw[3*u*fstride]);
 2406              		.loc 1 158 0
 2407 0134 B0EE654A 		vmov.f32	s8, s11
 159:Src/kiss_fft.c ****         C_MUL(scratch[4] ,*Fout4, tw[4*u*fstride]);
 2408              		.loc 1 159 0
 2409 0138 60EEE65A 		vnmul.f32	s11, s1, s13
 2410 013c A7EEA07A 		vfma.f32	s14, s15, s1
 2411 0140 E7EE885A 		vfma.f32	s11, s15, s16
 155:Src/kiss_fft.c **** 
 2412              		.loc 1 155 0
 2413 0144 54ED037A 		vldr.32	s15, [r4, #-12]
ARM GAS  /var/folders/k_/r2bh2pj93_jff4n9gmtn9jvr0000gn/T//ccAUK7QQ.s 			page 55


 2414              	.LVL309:
 162:Src/kiss_fft.c ****         C_SUB( scratch[10],scratch[1],scratch[4]);
 2415              		.loc 1 162 0
 2416 0148 74EE856A 		vadd.f32	s13, s9, s10
 158:Src/kiss_fft.c ****         C_MUL(scratch[3] ,*Fout3, tw[3*u*fstride]);
 2417              		.loc 1 158 0
 2418 014c A9EE286A 		vfma.f32	s12, s18, s17
 2419              	.LVL310:
 162:Src/kiss_fft.c ****         C_SUB( scratch[10],scratch[1],scratch[4]);
 2420              		.loc 1 162 0
 2421 0150 70EE0A0A 		vadd.f32	s1, s0, s20
 163:Src/kiss_fft.c ****         C_ADD( scratch[8],scratch[2],scratch[3]);
 2422              		.loc 1 163 0
 2423 0154 30EE4AAA 		vsub.f32	s20, s0, s20
 171:Src/kiss_fft.c **** 
 2424              		.loc 1 171 0
 2425 0158 B0EE670A 		vmov.f32	s0, s15
 2426              	.LVL311:
 2427 015c A3EEA60A 		vfma.f32	s0, s7, s13
 165:Src/kiss_fft.c **** 
 2428              		.loc 1 165 0
 2429 0160 76EE47AA 		vsub.f32	s21, s12, s14
 2430              	.LVL312:
 164:Src/kiss_fft.c ****         C_SUB( scratch[9],scratch[2],scratch[3]);
 2431              		.loc 1 164 0
 2432 0164 36EE077A 		vadd.f32	s14, s12, s14
 2433              	.LVL313:
 170:Src/kiss_fft.c ****         scratch[5].i = scratch[0].i + S_MUL(scratch[7].i,ya.r) + S_MUL(scratch[8].i,yb.r);
 2434              		.loc 1 170 0
 2435 0168 F0EE418A 		vmov.f32	s17, s2
 171:Src/kiss_fft.c **** 
 2436              		.loc 1 171 0
 2437 016c A3EE070A 		vfma.f32	s0, s6, s14
 165:Src/kiss_fft.c **** 
 2438              		.loc 1 165 0
 2439 0170 34EE659A 		vsub.f32	s18, s8, s11
 170:Src/kiss_fft.c ****         scratch[5].i = scratch[0].i + S_MUL(scratch[7].i,ya.r) + S_MUL(scratch[8].i,yb.r);
 2440              		.loc 1 170 0
 2441 0174 E3EEA08A 		vfma.f32	s17, s7, s1
 163:Src/kiss_fft.c ****         C_ADD( scratch[8],scratch[2],scratch[3]);
 2442              		.loc 1 163 0
 2443 0178 34EEC55A 		vsub.f32	s10, s9, s10
 164:Src/kiss_fft.c ****         C_SUB( scratch[9],scratch[2],scratch[3]);
 2444              		.loc 1 164 0
 2445 017c 74EE255A 		vadd.f32	s11, s8, s11
 2446              	.LVL314:
 180:Src/kiss_fft.c ****         scratch[12].r = - S_MUL(scratch[10].i,yb.i) + S_MUL(scratch[9].i,ya.i);
 2447              		.loc 1 180 0
 2448 0180 F0EE674A 		vmov.f32	s9, s15
 2449              	.LVL315:
 179:Src/kiss_fft.c ****         scratch[11].i = scratch[0].i + S_MUL(scratch[7].i,yb.r) + S_MUL(scratch[8].i,ya.r);
 2450              		.loc 1 179 0
 2451 0184 B0EE414A 		vmov.f32	s8, s2
 2452              	.LVL316:
 171:Src/kiss_fft.c **** 
 2453              		.loc 1 171 0
 2454 0188 F0EE409A 		vmov.f32	s19, s0
ARM GAS  /var/folders/k_/r2bh2pj93_jff4n9gmtn9jvr0000gn/T//ccAUK7QQ.s 			page 56


 179:Src/kiss_fft.c ****         scratch[11].i = scratch[0].i + S_MUL(scratch[7].i,yb.r) + S_MUL(scratch[8].i,ya.r);
 2455              		.loc 1 179 0
 2456 018c A3EE204A 		vfma.f32	s8, s6, s1
 180:Src/kiss_fft.c ****         scratch[12].r = - S_MUL(scratch[10].i,yb.i) + S_MUL(scratch[9].i,ya.i);
 2457              		.loc 1 180 0
 2458 0190 E3EE264A 		vfma.f32	s9, s6, s13
 173:Src/kiss_fft.c ****         scratch[6].i = -S_MUL(scratch[10].r,ya.i) - S_MUL(scratch[9].r,yb.i);
 2459              		.loc 1 173 0
 2460 0194 22EEAA8A 		vmul.f32	s16, s5, s21
 2461              	.LVL317:
 174:Src/kiss_fft.c **** 
 2462              		.loc 1 174 0
 2463 0198 29EE620A 		vnmul.f32	s0, s18, s5
 170:Src/kiss_fft.c ****         scratch[5].i = scratch[0].i + S_MUL(scratch[7].i,ya.r) + S_MUL(scratch[8].i,yb.r);
 2464              		.loc 1 170 0
 2465 019c E3EE258A 		vfma.f32	s17, s6, s11
 173:Src/kiss_fft.c ****         scratch[6].i = -S_MUL(scratch[10].r,ya.i) - S_MUL(scratch[9].r,yb.i);
 2466              		.loc 1 173 0
 2467 01a0 A2EE058A 		vfma.f32	s16, s4, s10
 181:Src/kiss_fft.c ****         scratch[12].i = S_MUL(scratch[10].r,yb.i) - S_MUL(scratch[9].r,ya.i);
 2468              		.loc 1 181 0
 2469 01a4 25EE626A 		vnmul.f32	s12, s10, s5
 2470              	.LVL318:
 174:Src/kiss_fft.c **** 
 2471              		.loc 1 174 0
 2472 01a8 A1EE8A0A 		vfma.f32	s0, s3, s20
 182:Src/kiss_fft.c **** 
 2473              		.loc 1 182 0
 2474 01ac 29EE425A 		vnmul.f32	s10, s18, s4
 179:Src/kiss_fft.c ****         scratch[11].i = scratch[0].i + S_MUL(scratch[7].i,yb.r) + S_MUL(scratch[8].i,ya.r);
 2475              		.loc 1 179 0
 2476 01b0 A3EEA54A 		vfma.f32	s8, s7, s11
 180:Src/kiss_fft.c ****         scratch[12].r = - S_MUL(scratch[10].i,yb.i) + S_MUL(scratch[9].i,ya.i);
 2477              		.loc 1 180 0
 2478 01b4 E3EE874A 		vfma.f32	s9, s7, s14
 181:Src/kiss_fft.c ****         scratch[12].i = S_MUL(scratch[10].r,yb.i) - S_MUL(scratch[9].r,ya.i);
 2479              		.loc 1 181 0
 2480 01b8 A2EE2A6A 		vfma.f32	s12, s4, s21
 168:Src/kiss_fft.c **** 
 2481              		.loc 1 168 0
 2482 01bc 36EE877A 		vadd.f32	s14, s13, s14
 182:Src/kiss_fft.c **** 
 2483              		.loc 1 182 0
 2484 01c0 A2EE8A5A 		vfma.f32	s10, s5, s20
 167:Src/kiss_fft.c ****         Fout0->i += scratch[7].i + scratch[8].i;
 2485              		.loc 1 167 0
 2486 01c4 70EEA55A 		vadd.f32	s11, s1, s11
 168:Src/kiss_fft.c **** 
 2487              		.loc 1 168 0
 2488 01c8 77EE277A 		vadd.f32	s15, s14, s15
 2489              	.LVL319:
 176:Src/kiss_fft.c ****         C_ADD(*Fout4,scratch[5],scratch[6]);
 2490              		.loc 1 176 0
 2491 01cc 78EEC80A 		vsub.f32	s1, s17, s16
 167:Src/kiss_fft.c ****         Fout0->i += scratch[7].i + scratch[8].i;
 2492              		.loc 1 167 0
 2493 01d0 75EE815A 		vadd.f32	s11, s11, s2
ARM GAS  /var/folders/k_/r2bh2pj93_jff4n9gmtn9jvr0000gn/T//ccAUK7QQ.s 			page 57


 177:Src/kiss_fft.c **** 
 2494              		.loc 1 177 0
 2495 01d4 38EE888A 		vadd.f32	s16, s17, s16
 176:Src/kiss_fft.c ****         C_ADD(*Fout4,scratch[5],scratch[6]);
 2496              		.loc 1 176 0
 2497 01d8 39EEC01A 		vsub.f32	s2, s19, s0
 2498              	.LVL320:
 177:Src/kiss_fft.c **** 
 2499              		.loc 1 177 0
 2500 01dc 39EE800A 		vadd.f32	s0, s19, s0
 168:Src/kiss_fft.c **** 
 2501              		.loc 1 168 0
 2502 01e0 44ED037A 		vstr.32	s15, [r4, #-12]
 2503              	.LVL321:
 167:Src/kiss_fft.c ****         Fout0->i += scratch[7].i + scratch[8].i;
 2504              		.loc 1 167 0
 2505 01e4 44ED045A 		vstr.32	s11, [r4, #-16]
 2506              	.LVL322:
 184:Src/kiss_fft.c ****         C_SUB(*Fout3,scratch[11],scratch[12]);
 2507              		.loc 1 184 0
 2508 01e8 74EE066A 		vadd.f32	s13, s8, s12
 176:Src/kiss_fft.c ****         C_ADD(*Fout4,scratch[5],scratch[6]);
 2509              		.loc 1 176 0
 2510 01ec 40ED040A 		vstr.32	s1, [r0, #-16]
 2511 01f0 00ED031A 		vstr.32	s2, [r0, #-12]
 184:Src/kiss_fft.c ****         C_SUB(*Fout3,scratch[11],scratch[12]);
 2512              		.loc 1 184 0
 2513 01f4 34EE857A 		vadd.f32	s14, s9, s10
 177:Src/kiss_fft.c **** 
 2514              		.loc 1 177 0
 2515 01f8 03ED048A 		vstr.32	s16, [r3, #-16]
 2516 01fc 03ED030A 		vstr.32	s0, [r3, #-12]
 185:Src/kiss_fft.c **** 
 2517              		.loc 1 185 0
 2518 0200 34EE466A 		vsub.f32	s12, s8, s12
 2519 0204 34EEC55A 		vsub.f32	s10, s9, s10
 153:Src/kiss_fft.c ****         C_FIXDIV( *Fout0,5); C_FIXDIV( *Fout1,5); C_FIXDIV( *Fout2,5); C_FIXDIV( *Fout3,5); C_FIXDI
 2520              		.loc 1 153 0
 2521 0208 9F42     		cmp	r7, r3
 184:Src/kiss_fft.c ****         C_SUB(*Fout3,scratch[11],scratch[12]);
 2522              		.loc 1 184 0
 2523 020a 41ED046A 		vstr.32	s13, [r1, #-16]
 2524 020e 01ED037A 		vstr.32	s14, [r1, #-12]
 185:Src/kiss_fft.c **** 
 2525              		.loc 1 185 0
 2526 0212 02ED046A 		vstr.32	s12, [r2, #-16]
 2527 0216 02ED035A 		vstr.32	s10, [r2, #-12]
 2528              	.LVL323:
 153:Src/kiss_fft.c ****         C_FIXDIV( *Fout0,5); C_FIXDIV( *Fout1,5); C_FIXDIV( *Fout2,5); C_FIXDIV( *Fout3,5); C_FIXDI
 2529              		.loc 1 153 0
 2530 021a 7FF442AF 		bne	.L135
 2531              	.LVL324:
 2532              	.L117:
 2533              	.LBE83:
 2534              	.LBE82:
 2535              		.loc 1 296 0
 2536 021e 07B0     		add	sp, sp, #28
ARM GAS  /var/folders/k_/r2bh2pj93_jff4n9gmtn9jvr0000gn/T//ccAUK7QQ.s 			page 58


 2537              	.LCFI33:
 2538              		.cfi_remember_state
 2539              		.cfi_def_cfa_offset 60
 2540              		@ sp needed
 2541 0220 BDEC068B 		vldm	sp!, {d8-d10}
 2542              	.LCFI34:
 2543              		.cfi_restore 84
 2544              		.cfi_restore 85
 2545              		.cfi_restore 82
 2546              		.cfi_restore 83
 2547              		.cfi_restore 80
 2548              		.cfi_restore 81
 2549              		.cfi_def_cfa_offset 36
 2550 0224 BDE8F08F 		pop	{r4, r5, r6, r7, r8, r9, r10, fp, pc}
 2551              	.LVL325:
 2552              	.L126:
 2553              	.LCFI35:
 2554              		.cfi_restore_state
 2555              	.LBB84:
 2556              	.LBB85:
  57:Src/kiss_fft.c ****         C_MUL(scratch[1],Fout[m2] , *tw2 );
 2557              		.loc 1 57 0
 2558 0228 F100     		lsls	r1, r6, #3
 2559 022a 6518     		adds	r5, r4, r1
 2560              	.LVL326:
 2561 022c 0A1D     		adds	r2, r1, #4
 2562 022e 04EB0613 		add	r3, r4, r6, lsl #4
 2563 0232 6818     		adds	r0, r5, r1
  71:Src/kiss_fft.c ****             Fout[m].r = scratch[5].r - scratch[4].i;
 2564              		.loc 1 71 0
 2565 0234 D8F804C0 		ldr	ip, [r8, #4]
 2566 0238 2244     		add	r2, r2, r4
 2567 023a 08F5907E 		add	lr, r8, #288
 2568 023e 08F58C77 		add	r7, r8, #280
 2569 0242 0144     		add	r1, r1, r0
 2570 0244 0433     		adds	r3, r3, #4
 2571 0246 0834     		adds	r4, r4, #8
 2572 0248 08F58878 		add	r8, r8, #272
 2573              	.LVL327:
 2574 024c 1BE0     		b	.L134
 2575              	.LVL328:
 2576              	.L143:
  72:Src/kiss_fft.c ****             Fout[m].i = scratch[5].i + scratch[4].r;
 2577              		.loc 1 72 0
 2578 024e 42ED017A 		vstr.32	s15, [r2, #-4]
  73:Src/kiss_fft.c ****             Fout[m3].r = scratch[5].r + scratch[4].i;
 2579              		.loc 1 73 0
 2580 0252 C5ED015A 		vstr.32	s11, [r5, #4]
  74:Src/kiss_fft.c ****             Fout[m3].i = scratch[5].i - scratch[4].r;
 2581              		.loc 1 74 0
 2582 0256 C1ED006A 		vstr.32	s13, [r1]
  75:Src/kiss_fft.c ****         }else{
 2583              		.loc 1 75 0
 2584 025a 81ED017A 		vstr.32	s14, [r1, #4]
 2585              	.L133:
 2586              	.LVL329:
  83:Src/kiss_fft.c **** }
ARM GAS  /var/folders/k_/r2bh2pj93_jff4n9gmtn9jvr0000gn/T//ccAUK7QQ.s 			page 59


 2587              		.loc 1 83 0
 2588 025e 013E     		subs	r6, r6, #1
 2589              	.LVL330:
 2590 0260 04F10804 		add	r4, r4, #8
 2591 0264 0EF1180E 		add	lr, lr, #24
 2592              	.LVL331:
 2593 0268 07F11007 		add	r7, r7, #16
 2594              	.LVL332:
 2595 026c 08F10808 		add	r8, r8, #8
 2596 0270 05F10805 		add	r5, r5, #8
 2597 0274 00F10800 		add	r0, r0, #8
 2598 0278 01F10801 		add	r1, r1, #8
 2599 027c 02F10802 		add	r2, r2, #8
 2600 0280 03F10803 		add	r3, r3, #8
 2601 0284 CBD0     		beq	.L117
 2602              	.LVL333:
 2603              	.L134:
  57:Src/kiss_fft.c ****         C_MUL(scratch[1],Fout[m2] , *tw2 );
 2604              		.loc 1 57 0
 2605 0286 D5ED017A 		vldr.32	s15, [r5, #4]
 2606 028a 58ED018A 		vldr.32	s17, [r8, #-4]
 2607 028e 18ED028A 		vldr.32	s16, [r8, #-8]
 2608 0292 12ED010A 		vldr.32	s0, [r2, #-4]
  58:Src/kiss_fft.c ****         C_MUL(scratch[2],Fout[m3] , *tw3 );
 2609              		.loc 1 58 0
 2610 0296 17ED042A 		vldr.32	s4, [r7, #-16]
 2611 029a 90ED016A 		vldr.32	s12, [r0, #4]
  59:Src/kiss_fft.c **** 
 2612              		.loc 1 59 0
 2613 029e 1EED051A 		vldr.32	s2, [lr, #-20]
  58:Src/kiss_fft.c ****         C_MUL(scratch[2],Fout[m3] , *tw3 );
 2614              		.loc 1 58 0
 2615 02a2 57ED032A 		vldr.32	s5, [r7, #-12]
  59:Src/kiss_fft.c **** 
 2616              		.loc 1 59 0
 2617 02a6 D1ED016A 		vldr.32	s13, [r1, #4]
 2618 02aa 5EED060A 		vldr.32	s1, [lr, #-24]
 2619 02ae D1ED001A 		vldr.32	s3, [r1]
  58:Src/kiss_fft.c ****         C_MUL(scratch[2],Fout[m3] , *tw3 );
 2620              		.loc 1 58 0
 2621 02b2 13ED013A 		vldr.32	s6, [r3, #-4]
  61:Src/kiss_fft.c ****         C_ADDTO(*Fout, scratch[1]);
 2622              		.loc 1 61 0
 2623 02b6 54ED025A 		vldr.32	s11, [r4, #-8]
 2624 02ba 54ED014A 		vldr.32	s9, [r4, #-4]
  57:Src/kiss_fft.c ****         C_MUL(scratch[1],Fout[m2] , *tw2 );
 2625              		.loc 1 57 0
 2626 02be 27EEE84A 		vnmul.f32	s8, s15, s17
 2627 02c2 67EE887A 		vmul.f32	s15, s15, s16
  58:Src/kiss_fft.c ****         C_MUL(scratch[2],Fout[m3] , *tw3 );
 2628              		.loc 1 58 0
 2629 02c6 66EE023A 		vmul.f32	s7, s12, s4
  57:Src/kiss_fft.c ****         C_MUL(scratch[1],Fout[m2] , *tw2 );
 2630              		.loc 1 57 0
 2631 02ca E8EE807A 		vfma.f32	s15, s17, s0
  59:Src/kiss_fft.c **** 
 2632              		.loc 1 59 0
ARM GAS  /var/folders/k_/r2bh2pj93_jff4n9gmtn9jvr0000gn/T//ccAUK7QQ.s 			page 60


 2633 02ce 26EEC15A 		vnmul.f32	s10, s13, s2
  58:Src/kiss_fft.c ****         C_MUL(scratch[2],Fout[m3] , *tw3 );
 2634              		.loc 1 58 0
 2635 02d2 26EE627A 		vnmul.f32	s14, s12, s5
  59:Src/kiss_fft.c **** 
 2636              		.loc 1 59 0
 2637 02d6 66EEA06A 		vmul.f32	s13, s13, s1
  57:Src/kiss_fft.c ****         C_MUL(scratch[1],Fout[m2] , *tw2 );
 2638              		.loc 1 57 0
 2639 02da B0EE676A 		vmov.f32	s12, s15
  58:Src/kiss_fft.c ****         C_MUL(scratch[2],Fout[m3] , *tw3 );
 2640              		.loc 1 58 0
 2641 02de F0EE637A 		vmov.f32	s15, s7
  59:Src/kiss_fft.c **** 
 2642              		.loc 1 59 0
 2643 02e2 E1EE216A 		vfma.f32	s13, s2, s3
  58:Src/kiss_fft.c ****         C_MUL(scratch[2],Fout[m3] , *tw3 );
 2644              		.loc 1 58 0
 2645 02e6 E2EE837A 		vfma.f32	s15, s5, s6
  59:Src/kiss_fft.c **** 
 2646              		.loc 1 59 0
 2647 02ea A0EEA15A 		vfma.f32	s10, s1, s3
  58:Src/kiss_fft.c ****         C_MUL(scratch[2],Fout[m3] , *tw3 );
 2648              		.loc 1 58 0
 2649 02ee A2EE037A 		vfma.f32	s14, s4, s6
  57:Src/kiss_fft.c ****         C_MUL(scratch[1],Fout[m2] , *tw2 );
 2650              		.loc 1 57 0
 2651 02f2 A8EE004A 		vfma.f32	s8, s16, s0
 2652              	.LVL334:
  62:Src/kiss_fft.c ****         C_ADD( scratch[3] , scratch[0] , scratch[2] );
 2653              		.loc 1 62 0
 2654 02f6 35EE872A 		vadd.f32	s4, s11, s14
 2655 02fa 34EEA73A 		vadd.f32	s6, s9, s15
  63:Src/kiss_fft.c ****         C_SUB( scratch[4] , scratch[0] , scratch[2] );
 2656              		.loc 1 63 0
 2657 02fe 75EE042A 		vadd.f32	s5, s10, s8
 2658 0302 76EE863A 		vadd.f32	s7, s13, s12
  65:Src/kiss_fft.c ****         tw1 += fstride;
 2659              		.loc 1 65 0
 2660 0306 32EE621A 		vsub.f32	s2, s4, s5
 2661 030a 73EE631A 		vsub.f32	s3, s6, s7
  62:Src/kiss_fft.c ****         C_ADD( scratch[3] , scratch[0] , scratch[2] );
 2662              		.loc 1 62 0
 2663 030e 04ED022A 		vstr.32	s4, [r4, #-8]
 2664 0312 04ED013A 		vstr.32	s6, [r4, #-4]
  65:Src/kiss_fft.c ****         tw1 += fstride;
 2665              		.loc 1 65 0
 2666 0316 03ED011A 		vstr.32	s2, [r3, #-4]
 2667 031a C0ED011A 		vstr.32	s3, [r0, #4]
  69:Src/kiss_fft.c **** 
 2668              		.loc 1 69 0
 2669 031e 14ED022A 		vldr.32	s4, [r4, #-8]
 2670 0322 14ED013A 		vldr.32	s6, [r4, #-4]
  61:Src/kiss_fft.c ****         C_ADDTO(*Fout, scratch[1]);
 2671              		.loc 1 61 0
 2672 0326 35EEC77A 		vsub.f32	s14, s11, s14
 2673              	.LVL335:
ARM GAS  /var/folders/k_/r2bh2pj93_jff4n9gmtn9jvr0000gn/T//ccAUK7QQ.s 			page 61


  64:Src/kiss_fft.c ****         C_SUB( Fout[m2], *Fout, scratch[3] );
 2674              		.loc 1 64 0
 2675 032a 34EE455A 		vsub.f32	s10, s8, s10
 2676              	.LVL336:
  61:Src/kiss_fft.c ****         C_ADDTO(*Fout, scratch[1]);
 2677              		.loc 1 61 0
 2678 032e 74EEE75A 		vsub.f32	s11, s9, s15
 2679              	.LVL337:
  69:Src/kiss_fft.c **** 
 2680              		.loc 1 69 0
 2681 0332 72EE222A 		vadd.f32	s5, s4, s5
 2682              	.LVL338:
  64:Src/kiss_fft.c ****         C_SUB( Fout[m2], *Fout, scratch[3] );
 2683              		.loc 1 64 0
 2684 0336 76EE667A 		vsub.f32	s15, s12, s13
 2685              	.LVL339:
  69:Src/kiss_fft.c **** 
 2686              		.loc 1 69 0
 2687 033a 73EE233A 		vadd.f32	s7, s6, s7
 2688              	.LVL340:
 2689 033e 77EE876A 		vadd.f32	s13, s15, s14
 2690              	.LVL341:
 2691 0342 44ED022A 		vstr.32	s5, [r4, #-8]
 2692 0346 77EE677A 		vsub.f32	s15, s14, s15
 2693 034a 44ED013A 		vstr.32	s7, [r4, #-4]
 2694 034e 35EEC57A 		vsub.f32	s14, s11, s10
 2695 0352 75EE255A 		vadd.f32	s11, s10, s11
  71:Src/kiss_fft.c ****             Fout[m].r = scratch[5].r - scratch[4].i;
 2696              		.loc 1 71 0
 2697 0356 BCF1000F 		cmp	ip, #0
 2698 035a 7FF478AF 		bne	.L143
  77:Src/kiss_fft.c ****             Fout[m].i = scratch[5].i - scratch[4].r;
 2699              		.loc 1 77 0
 2700 035e 42ED016A 		vstr.32	s13, [r2, #-4]
  78:Src/kiss_fft.c ****             Fout[m3].r = scratch[5].r - scratch[4].i;
 2701              		.loc 1 78 0
 2702 0362 85ED017A 		vstr.32	s14, [r5, #4]
  79:Src/kiss_fft.c ****             Fout[m3].i = scratch[5].i + scratch[4].r;
 2703              		.loc 1 79 0
 2704 0366 C1ED007A 		vstr.32	s15, [r1]
  80:Src/kiss_fft.c ****         }
 2705              		.loc 1 80 0
 2706 036a C1ED015A 		vstr.32	s11, [r1, #4]
 2707 036e 76E7     		b	.L133
 2708              	.LVL342:
 2709              	.L125:
 2710 0370 06F12105 		add	r5, r6, #33
 2711              	.LVL343:
 2712 0374 ED00     		lsls	r5, r5, #3
 2713              	.LBE85:
 2714              	.LBE84:
 2715              	.LBB86:
 2716              	.LBB87:
  98:Src/kiss_fft.c **** 
 2717              		.loc 1 98 0
 2718 0376 08EB0503 		add	r3, r8, r5
 105:Src/kiss_fft.c ****          C_MUL(scratch[2],Fout[m2] , *tw2);
ARM GAS  /var/folders/k_/r2bh2pj93_jff4n9gmtn9jvr0000gn/T//ccAUK7QQ.s 			page 62


 2719              		.loc 1 105 0
 2720 037a A5F58477 		sub	r7, r5, #264
 2721              	.LBE87:
 2722              	.LBE86:
 291:Src/kiss_fft.c ****         case 4: kf_bfly4(Fout,fstride,st,m); break;
 2723              		.loc 1 291 0
 2724 037e B146     		mov	r9, r6
 2725              	.LVL344:
 2726              	.LBB89:
 2727              	.LBB88:
  98:Src/kiss_fft.c **** 
 2728              		.loc 1 98 0
 2729 0380 93ED01AA 		vldr.32	s20, [r3, #4]
 2730              	.LVL345:
 2731 0384 E619     		adds	r6, r4, r7
 2732              	.LVL346:
 2733 0386 04EB091A 		add	r10, r4, r9, lsl #4
 2734 038a A5F58275 		sub	r5, r5, #260
 2735 038e 2544     		add	r5, r5, r4
 2736 0390 08F5887B 		add	fp, r8, #272
 2737              	.LVL347:
 2738 0394 F1EE4AAA 		vneg.f32	s21, s20
 2739 0398 3744     		add	r7, r7, r6
 2740 039a 0AF1040A 		add	r10, r10, #4
 2741 039e 0834     		adds	r4, r4, #8
 2742 03a0 08F58C78 		add	r8, r8, #280
 2743              	.LVL348:
 2744              	.L130:
 105:Src/kiss_fft.c ****          C_MUL(scratch[2],Fout[m2] , *tw2);
 2745              		.loc 1 105 0
 2746 03a4 1BED017A 		vldr.32	s14, [fp, #-4]
 106:Src/kiss_fft.c **** 
 2747              		.loc 1 106 0
 2748 03a8 58ED035A 		vldr.32	s11, [r8, #-12]
 105:Src/kiss_fft.c ****          C_MUL(scratch[2],Fout[m2] , *tw2);
 2749              		.loc 1 105 0
 2750 03ac 1BED026A 		vldr.32	s12, [fp, #-8]
 106:Src/kiss_fft.c **** 
 2751              		.loc 1 106 0
 2752 03b0 18ED044A 		vldr.32	s8, [r8, #-16]
 105:Src/kiss_fft.c ****          C_MUL(scratch[2],Fout[m2] , *tw2);
 2753              		.loc 1 105 0
 2754 03b4 96ED018A 		vldr.32	s16, [r6, #4]
 106:Src/kiss_fft.c **** 
 2755              		.loc 1 106 0
 2756 03b8 D7ED017A 		vldr.32	s15, [r7, #4]
 105:Src/kiss_fft.c ****          C_MUL(scratch[2],Fout[m2] , *tw2);
 2757              		.loc 1 105 0
 2758 03bc 55ED014A 		vldr.32	s9, [r5, #-4]
 106:Src/kiss_fft.c **** 
 2759              		.loc 1 106 0
 2760 03c0 1AED015A 		vldr.32	s10, [r10, #-4]
 113:Src/kiss_fft.c ****          Fout[m].i = Fout->i - HALF_OF(scratch[3].i);
 2761              		.loc 1 113 0
 2762 03c4 54F8080C 		ldr	r0, [r4, #-8]	@ float
 105:Src/kiss_fft.c ****          C_MUL(scratch[2],Fout[m2] , *tw2);
 2763              		.loc 1 105 0
ARM GAS  /var/folders/k_/r2bh2pj93_jff4n9gmtn9jvr0000gn/T//ccAUK7QQ.s 			page 63


 2764 03c8 67EE488A 		vnmul.f32	s17, s14, s16
 106:Src/kiss_fft.c **** 
 2765              		.loc 1 106 0
 2766 03cc 65EEE76A 		vnmul.f32	s13, s11, s15
 105:Src/kiss_fft.c ****          C_MUL(scratch[2],Fout[m2] , *tw2);
 2767              		.loc 1 105 0
 2768 03d0 26EE088A 		vmul.f32	s16, s12, s16
 106:Src/kiss_fft.c **** 
 2769              		.loc 1 106 0
 2770 03d4 64EE277A 		vmul.f32	s15, s8, s15
 105:Src/kiss_fft.c ****          C_MUL(scratch[2],Fout[m2] , *tw2);
 2771              		.loc 1 105 0
 2772 03d8 A4EE878A 		vfma.f32	s16, s9, s14
 2773 03dc 0BF1080B 		add	fp, fp, #8
 2774 03e0 08F11008 		add	r8, r8, #16
 2775              	.LVL349:
 106:Src/kiss_fft.c **** 
 2776              		.loc 1 106 0
 2777 03e4 E5EE257A 		vfma.f32	s15, s10, s11
 2778 03e8 0834     		adds	r4, r4, #8
 2779 03ea 0AF1080A 		add	r10, r10, #8
 105:Src/kiss_fft.c ****          C_MUL(scratch[2],Fout[m2] , *tw2);
 2780              		.loc 1 105 0
 2781 03ee E4EE868A 		vfma.f32	s17, s9, s12
 2782              	.LVL350:
 2783 03f2 0837     		adds	r7, r7, #8
 2784 03f4 0835     		adds	r5, r5, #8
 106:Src/kiss_fft.c **** 
 2785              		.loc 1 106 0
 2786 03f6 E5EE046A 		vfma.f32	s13, s10, s8
 2787              	.LVL351:
 2788 03fa 0836     		adds	r6, r6, #8
 108:Src/kiss_fft.c ****          C_SUB(scratch[0],scratch[1],scratch[2]);
 2789              		.loc 1 108 0
 2790 03fc 38EE279A 		vadd.f32	s18, s16, s15
 2791 0400 78EEA69A 		vadd.f32	s19, s17, s13
 2792              	.LVL352:
 109:Src/kiss_fft.c ****          tw1 += fstride;
 2793              		.loc 1 109 0
 2794 0404 38EE678A 		vsub.f32	s16, s16, s15
 2795              	.LVL353:
 2796 0408 78EEE68A 		vsub.f32	s17, s17, s13
 2797              	.LVL354:
 113:Src/kiss_fft.c ****          Fout[m].i = Fout->i - HALF_OF(scratch[3].i);
 2798              		.loc 1 113 0
 2799 040c FFF7FEFF 		bl	__aeabi_f2d
 2800              	.LVL355:
 2801 0410 CDE90201 		strd	r0, [sp, #8]
 2802 0414 19EE900A 		vmov	r0, s19
 2803 0418 FFF7FEFF 		bl	__aeabi_f2d
 2804              	.LVL356:
 2805 041c 0022     		movs	r2, #0
 2806 041e 594B     		ldr	r3, .L144
 2807 0420 FFF7FEFF 		bl	__aeabi_dmul
 2808              	.LVL357:
 2809 0424 0246     		mov	r2, r0
 2810 0426 0B46     		mov	r3, r1
ARM GAS  /var/folders/k_/r2bh2pj93_jff4n9gmtn9jvr0000gn/T//ccAUK7QQ.s 			page 64


 2811 0428 DDE90201 		ldrd	r0, [sp, #8]
 2812 042c FFF7FEFF 		bl	__aeabi_dsub
 2813              	.LVL358:
 2814 0430 FFF7FEFF 		bl	__aeabi_d2f
 2815              	.LVL359:
 2816 0434 45F80C0C 		str	r0, [r5, #-12]	@ float
 114:Src/kiss_fft.c **** 
 2817              		.loc 1 114 0
 2818 0438 54F80C0C 		ldr	r0, [r4, #-12]	@ float
 2819 043c FFF7FEFF 		bl	__aeabi_f2d
 2820              	.LVL360:
 2821 0440 CDE90201 		strd	r0, [sp, #8]
 2822 0444 19EE100A 		vmov	r0, s18
 2823 0448 FFF7FEFF 		bl	__aeabi_f2d
 2824              	.LVL361:
 2825 044c 0022     		movs	r2, #0
 2826 044e 4D4B     		ldr	r3, .L144
 2827 0450 FFF7FEFF 		bl	__aeabi_dmul
 2828              	.LVL362:
 2829 0454 0246     		mov	r2, r0
 2830 0456 0B46     		mov	r3, r1
 2831 0458 DDE90201 		ldrd	r0, [sp, #8]
 2832 045c FFF7FEFF 		bl	__aeabi_dsub
 2833              	.LVL363:
 2834 0460 FFF7FEFF 		bl	__aeabi_d2f
 2835              	.LVL364:
 2836 0464 46F8040C 		str	r0, [r6, #-4]	@ float
 2837              	.LVL365:
 118:Src/kiss_fft.c **** 
 2838              		.loc 1 118 0
 2839 0468 54ED037A 		vldr.32	s15, [r4, #-12]
 2840 046c 14ED047A 		vldr.32	s14, [r4, #-16]
 2841 0470 37EE899A 		vadd.f32	s18, s15, s18
 2842              	.LVL366:
 2843 0474 77EE299A 		vadd.f32	s19, s14, s19
 2844              	.LVL367:
 2845 0478 04ED039A 		vstr.32	s18, [r4, #-12]
 2846 047c 44ED049A 		vstr.32	s19, [r4, #-16]
 120:Src/kiss_fft.c ****          Fout[m2].i = Fout[m].i - scratch[0].r;
 2847              		.loc 1 120 0
 2848 0480 55ED037A 		vldr.32	s15, [r5, #-12]
 2849 0484 EAEE087A 		vfma.f32	s15, s20, s16
 127:Src/kiss_fft.c **** }
 2850              		.loc 1 127 0
 2851 0488 B9F10109 		subs	r9, r9, #1
 2852              	.LVL368:
 120:Src/kiss_fft.c ****          Fout[m2].i = Fout[m].i - scratch[0].r;
 2853              		.loc 1 120 0
 2854 048c 4AED037A 		vstr.32	s15, [r10, #-12]
 121:Src/kiss_fft.c **** 
 2855              		.loc 1 121 0
 2856 0490 56ED017A 		vldr.32	s15, [r6, #-4]
 2857 0494 EAEEA87A 		vfma.f32	s15, s21, s17
 2858 0498 47ED017A 		vstr.32	s15, [r7, #-4]
 123:Src/kiss_fft.c ****          Fout[m].i += scratch[0].r;
 2859              		.loc 1 123 0
 2860 049c 55ED037A 		vldr.32	s15, [r5, #-12]
ARM GAS  /var/folders/k_/r2bh2pj93_jff4n9gmtn9jvr0000gn/T//ccAUK7QQ.s 			page 65


 2861 04a0 EAEE887A 		vfma.f32	s15, s21, s16
 2862 04a4 45ED037A 		vstr.32	s15, [r5, #-12]
 124:Src/kiss_fft.c **** 
 2863              		.loc 1 124 0
 2864 04a8 56ED017A 		vldr.32	s15, [r6, #-4]
 2865 04ac EAEE287A 		vfma.f32	s15, s20, s17
 2866 04b0 46ED017A 		vstr.32	s15, [r6, #-4]
 2867              	.LVL369:
 127:Src/kiss_fft.c **** }
 2868              		.loc 1 127 0
 2869 04b4 7FF476AF 		bne	.L130
 2870              	.LBE88:
 2871              	.LBE89:
 2872              		.loc 1 296 0
 2873 04b8 07B0     		add	sp, sp, #28
 2874              	.LCFI36:
 2875              		.cfi_remember_state
 2876              		.cfi_def_cfa_offset 60
 2877              		@ sp needed
 2878 04ba BDEC068B 		vldm	sp!, {d8-d10}
 2879              	.LCFI37:
 2880              		.cfi_restore 84
 2881              		.cfi_restore 85
 2882              		.cfi_restore 82
 2883              		.cfi_restore 83
 2884              		.cfi_restore 80
 2885              		.cfi_restore 81
 2886              		.cfi_def_cfa_offset 36
 2887              	.LVL370:
 2888 04be BDE8F08F 		pop	{r4, r5, r6, r7, r8, r9, r10, fp, pc}
 2889              	.LVL371:
 2890              	.L123:
 2891              	.LCFI38:
 2892              		.cfi_restore_state
 2893 04c2 04EBC603 		add	r3, r4, r6, lsl #3
 2894 04c6 08F58878 		add	r8, r8, #272
 2895              	.LVL372:
 2896 04ca 0833     		adds	r3, r3, #8
 2897 04cc 0834     		adds	r4, r4, #8
 2898              	.LVL373:
 2899              	.L128:
 2900              	.LBB90:
 2901              	.LBB91:
  29:Src/kiss_fft.c ****         tw1 += fstride;
 2902              		.loc 1 29 0
 2903 04ce 18ED016A 		vldr.32	s12, [r8, #-4]
 2904 04d2 53ED017A 		vldr.32	s15, [r3, #-4]
 2905 04d6 18ED025A 		vldr.32	s10, [r8, #-8]
 2906 04da 53ED025A 		vldr.32	s11, [r3, #-8]
  31:Src/kiss_fft.c ****         C_ADDTO( *Fout ,  t );
 2907              		.loc 1 31 0
 2908 04de 14ED027A 		vldr.32	s14, [r4, #-8]
  29:Src/kiss_fft.c ****         tw1 += fstride;
 2909              		.loc 1 29 0
 2910 04e2 66EE676A 		vnmul.f32	s13, s12, s15
 2911 04e6 65EE277A 		vmul.f32	s15, s10, s15
 2912 04ea E5EE856A 		vfma.f32	s13, s11, s10
ARM GAS  /var/folders/k_/r2bh2pj93_jff4n9gmtn9jvr0000gn/T//ccAUK7QQ.s 			page 66


 2913              	.LVL374:
  35:Src/kiss_fft.c **** }
 2914              		.loc 1 35 0
 2915 04ee 013E     		subs	r6, r6, #1
 2916              	.LVL375:
 2917 04f0 08F10808 		add	r8, r8, #8
  29:Src/kiss_fft.c ****         tw1 += fstride;
 2918              		.loc 1 29 0
 2919 04f4 E5EE867A 		vfma.f32	s15, s11, s12
 2920              	.LVL376:
 2921 04f8 03F10803 		add	r3, r3, #8
 2922              	.LVL377:
 2923 04fc 04F10804 		add	r4, r4, #8
  31:Src/kiss_fft.c ****         C_ADDTO( *Fout ,  t );
 2924              		.loc 1 31 0
 2925 0500 37EE667A 		vsub.f32	s14, s14, s13
 2926 0504 03ED047A 		vstr.32	s14, [r3, #-16]
 2927 0508 14ED037A 		vldr.32	s14, [r4, #-12]
 2928 050c 37EE677A 		vsub.f32	s14, s14, s15
 2929 0510 03ED037A 		vstr.32	s14, [r3, #-12]
  32:Src/kiss_fft.c ****         ++Fout2;
 2930              		.loc 1 32 0
 2931 0514 14ED046A 		vldr.32	s12, [r4, #-16]
 2932 0518 14ED037A 		vldr.32	s14, [r4, #-12]
 2933 051c 76EE266A 		vadd.f32	s13, s12, s13
 2934              	.LVL378:
 2935 0520 77EE277A 		vadd.f32	s15, s14, s15
 2936              	.LVL379:
 2937 0524 44ED046A 		vstr.32	s13, [r4, #-16]
 2938 0528 44ED037A 		vstr.32	s15, [r4, #-12]
 2939              	.LVL380:
  35:Src/kiss_fft.c **** }
 2940              		.loc 1 35 0
 2941 052c CFD1     		bne	.L128
 2942              	.LBE91:
 2943              	.LBE90:
 2944              		.loc 1 296 0
 2945 052e 07B0     		add	sp, sp, #28
 2946              	.LCFI39:
 2947              		.cfi_remember_state
 2948              		.cfi_def_cfa_offset 60
 2949              		@ sp needed
 2950 0530 BDEC068B 		vldm	sp!, {d8-d10}
 2951              	.LCFI40:
 2952              		.cfi_restore 84
 2953              		.cfi_restore 85
 2954              		.cfi_restore 82
 2955              		.cfi_restore 83
 2956              		.cfi_restore 80
 2957              		.cfi_restore 81
 2958              		.cfi_def_cfa_offset 36
 2959 0534 BDE8F08F 		pop	{r4, r5, r6, r7, r8, r9, r10, fp, pc}
 2960              	.LVL381:
 2961              	.L118:
 2962              	.LCFI41:
 2963              		.cfi_restore_state
 2964 0538 0833     		adds	r3, r3, #8
ARM GAS  /var/folders/k_/r2bh2pj93_jff4n9gmtn9jvr0000gn/T//ccAUK7QQ.s 			page 67


 2965              	.LVL382:
 2966 053a 0293     		str	r3, [sp, #8]
 283:Src/kiss_fft.c ****     }
 2967              		.loc 1 283 0
 2968 053c F300     		lsls	r3, r6, #3
 2969              	.LVL383:
 2970 053e A146     		mov	r9, r4
 2971 0540 0496     		str	r6, [sp, #16]
 2972 0542 0594     		str	r4, [sp, #20]
 2973 0544 1E46     		mov	r6, r3
 2974              	.LVL384:
 2975 0546 0C46     		mov	r4, r1
 2976              	.LVL385:
 2977              	.L121:
 281:Src/kiss_fft.c ****             f += fstride*in_stride;
 2978              		.loc 1 281 0
 2979 0548 029B     		ldr	r3, [sp, #8]
 2980 054a 0093     		str	r3, [sp]
 2981 054c 2946     		mov	r1, r5
 2982 054e 4846     		mov	r0, r9
 2983 0550 CDF80480 		str	r8, [sp, #4]
 2984 0554 5B46     		mov	r3, fp
 2985 0556 5246     		mov	r2, r10
 283:Src/kiss_fft.c ****     }
 2986              		.loc 1 283 0
 2987 0558 B144     		add	r9, r9, r6
 2988              	.LVL386:
 281:Src/kiss_fft.c ****             f += fstride*in_stride;
 2989              		.loc 1 281 0
 2990 055a FFF7FEFF 		bl	kf_work
 2991              	.LVL387:
 283:Src/kiss_fft.c ****     }
 2992              		.loc 1 283 0
 2993 055e 4C45     		cmp	r4, r9
 282:Src/kiss_fft.c ****         }while( (Fout += m) != Fout_end );
 2994              		.loc 1 282 0
 2995 0560 3D44     		add	r5, r5, r7
 2996              	.LVL388:
 283:Src/kiss_fft.c ****     }
 2997              		.loc 1 283 0
 2998 0562 F1D1     		bne	.L121
 2999 0564 DDE90464 		ldrd	r6, r4, [sp, #16]
 3000              	.LVL389:
 3001 0568 6DE5     		b	.L120
 3002              	.LVL390:
 3003              	.L122:
 294:Src/kiss_fft.c ****     }
 3004              		.loc 1 294 0
 3005 056a 3346     		mov	r3, r6
 3006 056c 4246     		mov	r2, r8
 3007 056e 2046     		mov	r0, r4
 3008 0570 0121     		movs	r1, #1
 3009 0572 CDF858A0 		str	r10, [sp, #88]
 3010              	.LVL391:
 3011              		.loc 1 296 0
 3012 0576 07B0     		add	sp, sp, #28
 3013              		@ sp needed
ARM GAS  /var/folders/k_/r2bh2pj93_jff4n9gmtn9jvr0000gn/T//ccAUK7QQ.s 			page 68


 3014 0578 BDEC068B 		vldm	sp!, {d8-d10}
 3015 057c BDE8F04F 		pop	{r4, r5, r6, r7, r8, r9, r10, fp, lr}
 3016              	.LVL392:
 294:Src/kiss_fft.c ****     }
 3017              		.loc 1 294 0
 3018 0580 FFF7FEBF 		b	kf_bfly_generic
 3019              	.LVL393:
 3020              	.L145:
 3021              		.align	2
 3022              	.L144:
 3023 0584 0000E03F 		.word	1071644672
 3024              		.cfi_endproc
 3025              	.LFE16:
 3027              		.global	__aeabi_i2d
 3028              		.global	__aeabi_ddiv
 3029              		.global	__aeabi_dcmplt
 3030              		.section	.text.kiss_fft_alloc,"ax",%progbits
 3031              		.align	1
 3032              		.p2align 2,,3
 3033              		.global	kiss_fft_alloc
 3034              		.syntax unified
 3035              		.thumb
 3036              		.thumb_func
 3037              		.fpu fpv4-sp-d16
 3039              	kiss_fft_alloc:
 3040              	.LFB10:
 297:Src/kiss_fft.c **** 
 298:Src/kiss_fft.c **** /*  facbuf is populated by p1,m1,p2,m2, ...
 299:Src/kiss_fft.c ****     where 
 300:Src/kiss_fft.c ****     p[i] * m[i] = m[i-1]
 301:Src/kiss_fft.c ****     m0 = n                  */
 302:Src/kiss_fft.c **** static 
 303:Src/kiss_fft.c **** void kf_factor(int n,int * facbuf)
 304:Src/kiss_fft.c **** {
 305:Src/kiss_fft.c ****     int p=4;
 306:Src/kiss_fft.c ****     double floor_sqrt;
 307:Src/kiss_fft.c ****     floor_sqrt = floor( sqrt((double)n) );
 308:Src/kiss_fft.c **** 
 309:Src/kiss_fft.c ****     /*factor out powers of 4, powers of 2, then any remaining primes */
 310:Src/kiss_fft.c ****     do {
 311:Src/kiss_fft.c ****         while (n % p) {
 312:Src/kiss_fft.c ****             switch (p) {
 313:Src/kiss_fft.c ****                 case 4: p = 2; break;
 314:Src/kiss_fft.c ****                 case 2: p = 3; break;
 315:Src/kiss_fft.c ****                 default: p += 2; break;
 316:Src/kiss_fft.c ****             }
 317:Src/kiss_fft.c ****             if (p > floor_sqrt)
 318:Src/kiss_fft.c ****                 p = n;          /* no more factors, skip to end */
 319:Src/kiss_fft.c ****         }
 320:Src/kiss_fft.c ****         n /= p;
 321:Src/kiss_fft.c ****         *facbuf++ = p;
 322:Src/kiss_fft.c ****         *facbuf++ = n;
 323:Src/kiss_fft.c ****     } while (n > 1);
 324:Src/kiss_fft.c **** }
 325:Src/kiss_fft.c **** 
 326:Src/kiss_fft.c **** /*
 327:Src/kiss_fft.c ****  *
ARM GAS  /var/folders/k_/r2bh2pj93_jff4n9gmtn9jvr0000gn/T//ccAUK7QQ.s 			page 69


 328:Src/kiss_fft.c ****  * User-callable function to allocate all necessary storage space for the fft.
 329:Src/kiss_fft.c ****  *
 330:Src/kiss_fft.c ****  * The return value is a contiguous block of memory, allocated with malloc.  As such,
 331:Src/kiss_fft.c ****  * It can be freed with free(), rather than a kiss_fft-specific function.
 332:Src/kiss_fft.c ****  * */
 333:Src/kiss_fft.c **** kiss_fft_cfg kiss_fft_alloc(int nfft,int inverse_fft,void * mem,size_t * lenmem )
 334:Src/kiss_fft.c **** {
 3041              		.loc 1 334 0
 3042              		.cfi_startproc
 3043              		@ args = 0, pretend = 0, frame = 16
 3044              		@ frame_needed = 0, uses_anonymous_args = 0
 3045              	.LVL394:
 3046 0000 2DE9F04F 		push	{r4, r5, r6, r7, r8, r9, r10, fp, lr}
 3047              	.LCFI42:
 3048              		.cfi_def_cfa_offset 36
 3049              		.cfi_offset 4, -36
 3050              		.cfi_offset 5, -32
 3051              		.cfi_offset 6, -28
 3052              		.cfi_offset 7, -24
 3053              		.cfi_offset 8, -20
 3054              		.cfi_offset 9, -16
 3055              		.cfi_offset 10, -12
 3056              		.cfi_offset 11, -8
 3057              		.cfi_offset 14, -4
 3058 0004 2DED028B 		vpush.64	{d8}
 3059              	.LCFI43:
 3060              		.cfi_def_cfa_offset 44
 3061              		.cfi_offset 80, -44
 3062              		.cfi_offset 81, -40
 3063 0008 0746     		mov	r7, r0
 335:Src/kiss_fft.c ****     KISS_FFT_ALIGN_CHECK(mem)
 336:Src/kiss_fft.c **** 
 337:Src/kiss_fft.c ****     kiss_fft_cfg st=NULL;
 338:Src/kiss_fft.c ****     size_t memneeded = KISS_FFT_ALIGN_SIZE_UP(sizeof(struct kiss_fft_state)
 3064              		.loc 1 338 0
 3065 000a 2130     		adds	r0, r0, #33
 3066              	.LVL395:
 334:Src/kiss_fft.c ****     KISS_FFT_ALIGN_CHECK(mem)
 3067              		.loc 1 334 0
 3068 000c 85B0     		sub	sp, sp, #20
 3069              	.LCFI44:
 3070              		.cfi_def_cfa_offset 64
 334:Src/kiss_fft.c ****     KISS_FFT_ALIGN_CHECK(mem)
 3071              		.loc 1 334 0
 3072 000e 0E46     		mov	r6, r1
 3073              		.loc 1 338 0
 3074 0010 C000     		lsls	r0, r0, #3
 3075              	.LVL396:
 339:Src/kiss_fft.c ****         + sizeof(kiss_fft_cpx)*(nfft-1)); /* twiddle factors*/
 340:Src/kiss_fft.c **** 
 341:Src/kiss_fft.c ****     if ( lenmem==NULL ) {
 3076              		.loc 1 341 0
 3077 0012 002B     		cmp	r3, #0
 3078 0014 00F08782 		beq	.L248
 342:Src/kiss_fft.c ****         st = ( kiss_fft_cfg)KISS_FFT_MALLOC( memneeded );
 343:Src/kiss_fft.c ****     }else{
 344:Src/kiss_fft.c ****         if (mem != NULL && *lenmem >= memneeded)
ARM GAS  /var/folders/k_/r2bh2pj93_jff4n9gmtn9jvr0000gn/T//ccAUK7QQ.s 			page 70


 3079              		.loc 1 344 0
 3080 0018 002A     		cmp	r2, #0
 3081 001a 00F0CB82 		beq	.L249
 3082              		.loc 1 344 0 is_stmt 0 discriminator 1
 3083 001e 1968     		ldr	r1, [r3]
 3084              	.LVL397:
 345:Src/kiss_fft.c ****             st = (kiss_fft_cfg)mem;
 346:Src/kiss_fft.c ****         *lenmem = memneeded;
 3085              		.loc 1 346 0 is_stmt 1 discriminator 1
 3086 0020 1860     		str	r0, [r3]
 344:Src/kiss_fft.c ****             st = (kiss_fft_cfg)mem;
 3087              		.loc 1 344 0 discriminator 1
 3088 0022 8142     		cmp	r1, r0
 3089 0024 C0F08C82 		bcc	.L250
 3090              	.LVL398:
 3091              		.loc 1 346 0
 3092 0028 0192     		str	r2, [sp, #4]
 3093 002a 1346     		mov	r3, r2
 3094              	.LVL399:
 3095              	.L148:
 3096              	.LBB96:
 347:Src/kiss_fft.c ****     }
 348:Src/kiss_fft.c ****     if (st) {
 349:Src/kiss_fft.c ****         int i;
 350:Src/kiss_fft.c ****         st->nfft=nfft;
 351:Src/kiss_fft.c ****         st->inverse = inverse_fft;
 3097              		.loc 1 351 0
 3098 002c C3E90076 		strd	r7, r6, [r3]
 3099              	.LVL400:
 3100 0030 3846     		mov	r0, r7
 3101 0032 FFF7FEFF 		bl	__aeabi_i2d
 3102              	.LVL401:
 352:Src/kiss_fft.c **** 
 353:Src/kiss_fft.c ****         for (i=0;i<nfft;++i) {
 3103              		.loc 1 353 0
 3104 0036 002F     		cmp	r7, #0
 3105 0038 0446     		mov	r4, r0
 3106 003a 0D46     		mov	r5, r1
 3107 003c 31DD     		ble	.L152
 3108 003e 019B     		ldr	r3, [sp, #4]
 3109 0040 03F5847A 		add	r10, r3, #264
 3110 0044 002E     		cmp	r6, #0
 3111 0046 40F00681 		bne	.L153
 3112              	.LBB97:
 354:Src/kiss_fft.c ****             const double pi=3.141592653589793238462643383279502884197169399375105820974944;
 355:Src/kiss_fft.c ****             double phase = -2*pi*i / nfft;
 3113              		.loc 1 355 0
 3114 004a 0FF2AC39 		adr	r9, .L259
 3115 004e D9E90089 		ldrd	r8, [r9]
 3116              	.LVL402:
 3117              	.L154:
 3118 0052 3046     		mov	r0, r6
 3119 0054 FFF7FEFF 		bl	__aeabi_i2d
 3120              	.LVL403:
 3121 0058 4246     		mov	r2, r8
 3122 005a 4B46     		mov	r3, r9
 3123 005c FFF7FEFF 		bl	__aeabi_dmul
ARM GAS  /var/folders/k_/r2bh2pj93_jff4n9gmtn9jvr0000gn/T//ccAUK7QQ.s 			page 71


 3124              	.LVL404:
 3125 0060 2246     		mov	r2, r4
 3126 0062 2B46     		mov	r3, r5
 3127 0064 FFF7FEFF 		bl	__aeabi_ddiv
 3128              	.LVL405:
 356:Src/kiss_fft.c ****             if (st->inverse)
 357:Src/kiss_fft.c ****                 phase *= -1;
 358:Src/kiss_fft.c ****             kf_cexp(st->twiddles+i, phase );
 3129              		.loc 1 358 0
 3130 0068 41EC100B 		vmov	d0, r0, r1
 355:Src/kiss_fft.c ****             if (st->inverse)
 3131              		.loc 1 355 0
 3132 006c 41EC180B 		vmov	d8, r0, r1
 3133              	.LVL406:
 3134              		.loc 1 358 0
 3135 0070 FFF7FEFF 		bl	cos
 3136              	.LVL407:
 3137 0074 51EC100B 		vmov	r0, r1, d0
 3138 0078 FFF7FEFF 		bl	__aeabi_d2f
 3139              	.LVL408:
 3140 007c B0EE480A 		vmov.f32	s0, s16
 3141 0080 F0EE680A 		vmov.f32	s1, s17
 3142 0084 CAF80000 		str	r0, [r10]	@ float
 3143 0088 FFF7FEFF 		bl	sin
 3144              	.LVL409:
 3145 008c 51EC100B 		vmov	r0, r1, d0
 3146 0090 FFF7FEFF 		bl	__aeabi_d2f
 3147              	.LVL410:
 3148              	.LBE97:
 353:Src/kiss_fft.c ****             const double pi=3.141592653589793238462643383279502884197169399375105820974944;
 3149              		.loc 1 353 0
 3150 0094 0136     		adds	r6, r6, #1
 3151              	.LVL411:
 3152 0096 B742     		cmp	r7, r6
 3153              	.LBB98:
 3154              		.loc 1 358 0
 3155 0098 CAF80400 		str	r0, [r10, #4]	@ float
 3156 009c 0AF1080A 		add	r10, r10, #8
 3157              	.LBE98:
 353:Src/kiss_fft.c ****             const double pi=3.141592653589793238462643383279502884197169399375105820974944;
 3158              		.loc 1 353 0
 3159 00a0 D7D1     		bne	.L154
 3160              	.LVL412:
 3161              	.L152:
 3162              	.LBB99:
 3163              	.LBB100:
 307:Src/kiss_fft.c **** 
 3164              		.loc 1 307 0
 3165 00a2 45EC104B 		vmov	d0, r4, r5
 3166 00a6 FFF7FEFF 		bl	sqrt
 3167              	.LVL413:
 3168 00aa FFF7FEFF 		bl	floor
 3169              	.LVL414:
 3170 00ae 5BEC10AB 		vmov	r10, fp, d0
 3171 00b2 0022     		movs	r2, #0
 3172 00b4 D24B     		ldr	r3, .L259+8
 3173              	.LBE100:
ARM GAS  /var/folders/k_/r2bh2pj93_jff4n9gmtn9jvr0000gn/T//ccAUK7QQ.s 			page 72


 3174              	.LBE99:
 359:Src/kiss_fft.c ****         }
 360:Src/kiss_fft.c **** 
 361:Src/kiss_fft.c ****         kf_factor(nfft,st->factors);
 3175              		.loc 1 361 0
 3176 00b6 019D     		ldr	r5, [sp, #4]
 3177 00b8 10EE100A 		vmov	r0, s0	@ int
 3178 00bc 5946     		mov	r1, fp
 3179 00be FFF7FEFF 		bl	__aeabi_dcmplt
 3180              	.LVL415:
 3181 00c2 2C46     		mov	r4, r5
 3182 00c4 0834     		adds	r4, r4, #8
 3183              	.LVL416:
 3184 00c6 1035     		adds	r5, r5, #16
 3185 00c8 0022     		movs	r2, #0
 3186 00ca 4FF08043 		mov	r3, #1073741824
 3187 00ce 0028     		cmp	r0, #0
 3188 00d0 53D0     		beq	.L240
 3189 00d2 5046     		mov	r0, r10
 3190 00d4 5946     		mov	r1, fp
 3191 00d6 FFF7FEFF 		bl	__aeabi_dcmplt
 3192              	.LVL417:
 3193              	.LBB105:
 3194              	.LBB101:
 305:Src/kiss_fft.c ****     double floor_sqrt;
 3195              		.loc 1 305 0
 3196 00da 0426     		movs	r6, #4
 3197 00dc 0028     		cmp	r0, #0
 3198 00de 40F09880 		bne	.L158
 321:Src/kiss_fft.c ****         *facbuf++ = n;
 3199              		.loc 1 321 0
 3200 00e2 4FF00208 		mov	r8, #2
 3201              	.LVL418:
 3202              	.L167:
 311:Src/kiss_fft.c ****             switch (p) {
 3203              		.loc 1 311 0
 3204 00e6 97FBF6F3 		sdiv	r3, r7, r6
 3205 00ea 06FB1372 		mls	r2, r6, r3, r7
 3206 00ee 7AB9     		cbnz	r2, .L159
 3207              	.LVL419:
 3208              	.L166:
 323:Src/kiss_fft.c **** }
 3209              		.loc 1 323 0
 3210 00f0 012B     		cmp	r3, #1
 320:Src/kiss_fft.c ****         *facbuf++ = p;
 3211              		.loc 1 320 0
 3212 00f2 1F46     		mov	r7, r3
 3213              	.LVL420:
 321:Src/kiss_fft.c ****         *facbuf++ = n;
 3214              		.loc 1 321 0
 3215 00f4 C4E90063 		strd	r6, r3, [r4]
 3216              	.LVL421:
 323:Src/kiss_fft.c **** }
 3217              		.loc 1 323 0
 3218 00f8 40F3A780 		ble	.L146
 3219 00fc 04F11003 		add	r3, r4, #16
 3220              	.LVL422:
ARM GAS  /var/folders/k_/r2bh2pj93_jff4n9gmtn9jvr0000gn/T//ccAUK7QQ.s 			page 73


 3221 0100 2C46     		mov	r4, r5
 3222              	.LVL423:
 3223 0102 1D46     		mov	r5, r3
 3224              	.LVL424:
 311:Src/kiss_fft.c ****             switch (p) {
 3225              		.loc 1 311 0
 3226 0104 97FBF6F3 		sdiv	r3, r7, r6
 3227 0108 06FB1372 		mls	r2, r6, r3, r7
 3228 010c 002A     		cmp	r2, #0
 3229 010e EFD0     		beq	.L166
 3230              	.L159:
 312:Src/kiss_fft.c ****                 case 4: p = 2; break;
 3231              		.loc 1 312 0
 3232 0110 022E     		cmp	r6, #2
 3233 0112 00F0F381 		beq	.L164
 3234 0116 042E     		cmp	r6, #4
 3235 0118 40F0F281 		bne	.L251
 3236              	.LVL425:
 311:Src/kiss_fft.c ****             switch (p) {
 3237              		.loc 1 311 0
 3238 011c 002F     		cmp	r7, #0
 3239 011e 07F00103 		and	r3, r7, #1
 3240 0122 B8BF     		it	lt
 3241 0124 5B42     		rsblt	r3, r3, #0
 3242 0126 002B     		cmp	r3, #0
 3243 0128 40F0E881 		bne	.L164
 320:Src/kiss_fft.c ****         *facbuf++ = p;
 3244              		.loc 1 320 0
 3245 012c 07EBD773 		add	r3, r7, r7, lsr #31
 3246 0130 5F10     		asrs	r7, r3, #1
 3247              	.LVL426:
 323:Src/kiss_fft.c **** }
 3248              		.loc 1 323 0
 3249 0132 012F     		cmp	r7, #1
 322:Src/kiss_fft.c ****     } while (n > 1);
 3250              		.loc 1 322 0
 3251 0134 C4E90087 		strd	r8, r7, [r4]
 323:Src/kiss_fft.c **** }
 3252              		.loc 1 323 0
 3253 0138 40F38780 		ble	.L146
 3254              	.LVL427:
 311:Src/kiss_fft.c ****             switch (p) {
 3255              		.loc 1 311 0
 3256 013c F807     		lsls	r0, r7, #31
 3257 013e 00F1D981 		bmi	.L252
 320:Src/kiss_fft.c ****         *facbuf++ = p;
 3258              		.loc 1 320 0
 3259 0142 9F10     		asrs	r7, r3, #2
 3260              	.LVL428:
 323:Src/kiss_fft.c **** }
 3261              		.loc 1 323 0
 3262 0144 012F     		cmp	r7, #1
 322:Src/kiss_fft.c ****     } while (n > 1);
 3263              		.loc 1 322 0
 3264 0146 C5E90087 		strd	r8, r7, [r5]
 3265 014a 04F11002 		add	r2, r4, #16
 323:Src/kiss_fft.c **** }
ARM GAS  /var/folders/k_/r2bh2pj93_jff4n9gmtn9jvr0000gn/T//ccAUK7QQ.s 			page 74


 3266              		.loc 1 323 0
 3267 014e 7CD0     		beq	.L146
 311:Src/kiss_fft.c ****             switch (p) {
 3268              		.loc 1 311 0
 3269 0150 F907     		lsls	r1, r7, #31
 3270 0152 05F11005 		add	r5, r5, #16
 3271              	.LVL429:
 3272 0156 00F13C82 		bmi	.L193
 320:Src/kiss_fft.c ****         *facbuf++ = p;
 3273              		.loc 1 320 0
 3274 015a DF10     		asrs	r7, r3, #3
 3275              	.LVL430:
 323:Src/kiss_fft.c **** }
 3276              		.loc 1 323 0
 3277 015c 012F     		cmp	r7, #1
 321:Src/kiss_fft.c ****         *facbuf++ = n;
 3278              		.loc 1 321 0
 3279 015e C4E90487 		strd	r8, r7, [r4, #16]
 3280              	.LVL431:
 323:Src/kiss_fft.c **** }
 3281              		.loc 1 323 0
 3282 0162 72D0     		beq	.L146
 311:Src/kiss_fft.c ****             switch (p) {
 3283              		.loc 1 311 0
 3284 0164 FA07     		lsls	r2, r7, #31
 3285              	.LVL432:
 3286 0166 04F12003 		add	r3, r4, #32
 3287              	.LVL433:
 3288 016a 00F1C581 		bmi	.L243
 3289 016e 2C46     		mov	r4, r5
 313:Src/kiss_fft.c ****                 case 2: p = 3; break;
 3290              		.loc 1 313 0
 3291 0170 0226     		movs	r6, #2
 311:Src/kiss_fft.c ****             switch (p) {
 3292              		.loc 1 311 0
 3293 0172 1D46     		mov	r5, r3
 3294              	.LVL434:
 3295 0174 97FBF6F3 		sdiv	r3, r7, r6
 3296 0178 BAE7     		b	.L166
 3297              	.LVL435:
 3298              	.L240:
 3299 017a 5046     		mov	r0, r10
 3300 017c 5946     		mov	r1, fp
 3301 017e FFF7FEFF 		bl	__aeabi_dcmplt
 3302              	.LVL436:
 3303 0182 DFF89092 		ldr	r9, .L259+28
 305:Src/kiss_fft.c ****     double floor_sqrt;
 3304              		.loc 1 305 0
 3305 0186 0426     		movs	r6, #4
 3306 0188 0028     		cmp	r0, #0
 3307 018a 40F04581 		bne	.L195
 3308              	.LVL437:
 3309              	.L180:
 311:Src/kiss_fft.c ****             switch (p) {
 3310              		.loc 1 311 0
 3311 018e 97FBF6F3 		sdiv	r3, r7, r6
 3312 0192 06FB1372 		mls	r2, r6, r3, r7
ARM GAS  /var/folders/k_/r2bh2pj93_jff4n9gmtn9jvr0000gn/T//ccAUK7QQ.s 			page 75


 3313 0196 002A     		cmp	r2, #0
 3314 0198 00F0D380 		beq	.L169
 312:Src/kiss_fft.c ****                 case 4: p = 2; break;
 3315              		.loc 1 312 0
 3316 019c 022E     		cmp	r6, #2
 3317 019e 00F09E80 		beq	.L171
 3318 01a2 042E     		cmp	r6, #4
 3319 01a4 40F0D980 		bne	.L170
 3320              	.LVL438:
 311:Src/kiss_fft.c ****             switch (p) {
 3321              		.loc 1 311 0
 3322 01a8 002F     		cmp	r7, #0
 3323 01aa 07F00103 		and	r3, r7, #1
 3324 01ae B8BF     		it	lt
 3325 01b0 5B42     		rsblt	r3, r3, #0
 3326 01b2 002B     		cmp	r3, #0
 3327 01b4 40F09380 		bne	.L171
 320:Src/kiss_fft.c ****         *facbuf++ = p;
 3328              		.loc 1 320 0
 3329 01b8 07EBD772 		add	r2, r7, r7, lsr #31
 3330 01bc 5710     		asrs	r7, r2, #1
 3331              	.LVL439:
 321:Src/kiss_fft.c ****         *facbuf++ = n;
 3332              		.loc 1 321 0
 3333 01be 0223     		movs	r3, #2
 323:Src/kiss_fft.c **** }
 3334              		.loc 1 323 0
 3335 01c0 012F     		cmp	r7, #1
 321:Src/kiss_fft.c ****         *facbuf++ = n;
 3336              		.loc 1 321 0
 3337 01c2 C4E90037 		strd	r3, r7, [r4]
 3338              	.LVL440:
 323:Src/kiss_fft.c **** }
 3339              		.loc 1 323 0
 3340 01c6 40DD     		ble	.L146
 311:Src/kiss_fft.c ****             switch (p) {
 3341              		.loc 1 311 0
 3342 01c8 FE07     		lsls	r6, r7, #31
 3343 01ca 00F18480 		bmi	.L175
 320:Src/kiss_fft.c ****         *facbuf++ = p;
 3344              		.loc 1 320 0
 3345 01ce 42FA03F7 		asr	r7, r2, r3
 3346              	.LVL441:
 323:Src/kiss_fft.c **** }
 3347              		.loc 1 323 0
 3348 01d2 012F     		cmp	r7, #1
 322:Src/kiss_fft.c ****     } while (n > 1);
 3349              		.loc 1 322 0
 3350 01d4 C5E90037 		strd	r3, r7, [r5]
 3351 01d8 04F11001 		add	r1, r4, #16
 323:Src/kiss_fft.c **** }
 3352              		.loc 1 323 0
 3353 01dc 35D0     		beq	.L146
 311:Src/kiss_fft.c ****             switch (p) {
 3354              		.loc 1 311 0
 3355 01de F807     		lsls	r0, r7, #31
 3356 01e0 05F11005 		add	r5, r5, #16
ARM GAS  /var/folders/k_/r2bh2pj93_jff4n9gmtn9jvr0000gn/T//ccAUK7QQ.s 			page 76


 3357              	.LVL442:
 3358 01e4 00F1EF81 		bmi	.L203
 320:Src/kiss_fft.c ****         *facbuf++ = p;
 3359              		.loc 1 320 0
 3360 01e8 D710     		asrs	r7, r2, #3
 3361              	.LVL443:
 323:Src/kiss_fft.c **** }
 3362              		.loc 1 323 0
 3363 01ea 012F     		cmp	r7, #1
 321:Src/kiss_fft.c ****         *facbuf++ = n;
 3364              		.loc 1 321 0
 3365 01ec C4E90437 		strd	r3, r7, [r4, #16]
 3366              	.LVL444:
 323:Src/kiss_fft.c **** }
 3367              		.loc 1 323 0
 3368 01f0 2BD0     		beq	.L146
 3369 01f2 04F12003 		add	r3, r4, #32
 3370              	.LVL445:
 311:Src/kiss_fft.c ****             switch (p) {
 3371              		.loc 1 311 0
 3372 01f6 2C46     		mov	r4, r5
 3373 01f8 1D46     		mov	r5, r3
 3374              	.LVL446:
 3375 01fa FB07     		lsls	r3, r7, #31
 3376 01fc 6FD4     		bmi	.L171
 313:Src/kiss_fft.c ****                 case 2: p = 3; break;
 3377              		.loc 1 313 0
 3378 01fe 0226     		movs	r6, #2
 3379 0200 9DE0     		b	.L244
 3380              	.LVL447:
 3381              	.L191:
 312:Src/kiss_fft.c ****                 case 4: p = 2; break;
 3382              		.loc 1 312 0
 3383 0202 022E     		cmp	r6, #2
 3384 0204 04D0     		beq	.L208
 3385 0206 042E     		cmp	r6, #4
 3386 0208 06F10206 		add	r6, r6, #2
 3387              	.LVL448:
 317:Src/kiss_fft.c ****                 p = n;          /* no more factors, skip to end */
 3388              		.loc 1 317 0
 3389 020c 3046     		mov	r0, r6
 312:Src/kiss_fft.c ****                 case 4: p = 2; break;
 3390              		.loc 1 312 0
 3391 020e 56D1     		bne	.L253
 3392              	.L208:
 3393 0210 3E46     		mov	r6, r7
 3394              	.L158:
 3395              	.LVL449:
 311:Src/kiss_fft.c ****             switch (p) {
 3396              		.loc 1 311 0
 3397 0212 97FBF6F3 		sdiv	r3, r7, r6
 3398 0216 06FB1372 		mls	r2, r6, r3, r7
 3399 021a 04F11001 		add	r1, r4, #16
 3400 021e 002A     		cmp	r2, #0
 3401 0220 EFD1     		bne	.L191
 323:Src/kiss_fft.c **** }
 3402              		.loc 1 323 0
ARM GAS  /var/folders/k_/r2bh2pj93_jff4n9gmtn9jvr0000gn/T//ccAUK7QQ.s 			page 77


 3403 0222 012B     		cmp	r3, #1
 320:Src/kiss_fft.c ****         *facbuf++ = p;
 3404              		.loc 1 320 0
 3405 0224 1F46     		mov	r7, r3
 3406              	.LVL450:
 321:Src/kiss_fft.c ****         *facbuf++ = n;
 3407              		.loc 1 321 0
 3408 0226 C4E90063 		strd	r6, r3, [r4]
 3409              	.LVL451:
 323:Src/kiss_fft.c **** }
 3410              		.loc 1 323 0
 3411 022a 0EDD     		ble	.L146
 3412              	.L254:
 311:Src/kiss_fft.c ****             switch (p) {
 3413              		.loc 1 311 0
 3414 022c 97FBF6F3 		sdiv	r3, r7, r6
 3415              	.LVL452:
 323:Src/kiss_fft.c **** }
 3416              		.loc 1 323 0
 3417 0230 2C46     		mov	r4, r5
 311:Src/kiss_fft.c ****             switch (p) {
 3418              		.loc 1 311 0
 3419 0232 06FB1372 		mls	r2, r6, r3, r7
 323:Src/kiss_fft.c **** }
 3420              		.loc 1 323 0
 3421 0236 0D46     		mov	r5, r1
 3422              	.LVL453:
 3423 0238 04F11001 		add	r1, r4, #16
 311:Src/kiss_fft.c ****             switch (p) {
 3424              		.loc 1 311 0
 3425 023c 002A     		cmp	r2, #0
 3426 023e E0D1     		bne	.L191
 323:Src/kiss_fft.c **** }
 3427              		.loc 1 323 0
 3428 0240 012B     		cmp	r3, #1
 320:Src/kiss_fft.c ****         *facbuf++ = p;
 3429              		.loc 1 320 0
 3430 0242 1F46     		mov	r7, r3
 3431              	.LVL454:
 321:Src/kiss_fft.c ****         *facbuf++ = n;
 3432              		.loc 1 321 0
 3433 0244 C4E90063 		strd	r6, r3, [r4]
 3434              	.LVL455:
 323:Src/kiss_fft.c **** }
 3435              		.loc 1 323 0
 3436 0248 F0DC     		bgt	.L254
 3437              	.LVL456:
 3438              	.L146:
 3439              	.LBE101:
 3440              	.LBE105:
 3441              	.LBE96:
 362:Src/kiss_fft.c ****     }
 363:Src/kiss_fft.c ****     return st;
 364:Src/kiss_fft.c **** }
 3442              		.loc 1 364 0
 3443 024a 0198     		ldr	r0, [sp, #4]
 3444 024c 05B0     		add	sp, sp, #20
ARM GAS  /var/folders/k_/r2bh2pj93_jff4n9gmtn9jvr0000gn/T//ccAUK7QQ.s 			page 78


 3445              	.LCFI45:
 3446              		.cfi_remember_state
 3447              		.cfi_def_cfa_offset 44
 3448              		@ sp needed
 3449 024e BDEC028B 		vldm	sp!, {d8}
 3450              	.LCFI46:
 3451              		.cfi_restore 80
 3452              		.cfi_restore 81
 3453              		.cfi_def_cfa_offset 36
 3454 0252 BDE8F08F 		pop	{r4, r5, r6, r7, r8, r9, r10, fp, pc}
 3455              	.LVL457:
 3456              	.L153:
 3457              	.LCFI47:
 3458              		.cfi_restore_state
 3459              	.LBB111:
 353:Src/kiss_fft.c ****             const double pi=3.141592653589793238462643383279502884197169399375105820974944;
 3460              		.loc 1 353 0
 3461 0256 CDE90245 		strd	r4, [sp, #8]
 3462 025a 4FF0000B 		mov	fp, #0
 3463 025e 3D46     		mov	r5, r7
 3464              	.LVL458:
 3465              	.L155:
 3466              	.LBB106:
 355:Src/kiss_fft.c ****             if (st->inverse)
 3467              		.loc 1 355 0
 3468 0260 5846     		mov	r0, fp
 3469 0262 FFF7FEFF 		bl	__aeabi_i2d
 3470              	.LVL459:
 3471 0266 64A3     		adr	r3, .L259
 3472 0268 D3E90023 		ldrd	r2, [r3]
 3473 026c FFF7FEFF 		bl	__aeabi_dmul
 3474              	.LVL460:
 3475 0270 DDE90223 		ldrd	r2, [sp, #8]
 3476 0274 FFF7FEFF 		bl	__aeabi_ddiv
 3477              	.LVL461:
 3478 0278 0646     		mov	r6, r0
 3479 027a 0F46     		mov	r7, r1
 3480              	.LVL462:
 358:Src/kiss_fft.c ****         }
 3481              		.loc 1 358 0
 3482 027c 47EC106B 		vmov	d0, r6, r7
 3483 0280 FFF7FEFF 		bl	cos
 3484              	.LVL463:
 3485 0284 51EC100B 		vmov	r0, r1, d0
 3486 0288 FFF7FEFF 		bl	__aeabi_d2f
 3487              	.LVL464:
 357:Src/kiss_fft.c ****             kf_cexp(st->twiddles+i, phase );
 3488              		.loc 1 357 0
 3489 028c B046     		mov	r8, r6
 3490 028e 07F10049 		add	r9, r7, #-2147483648
 358:Src/kiss_fft.c ****         }
 3491              		.loc 1 358 0
 3492 0292 CAF80000 		str	r0, [r10]	@ float
 3493 0296 49EC108B 		vmov	d0, r8, r9
 3494 029a FFF7FEFF 		bl	sin
 3495              	.LVL465:
 3496 029e 51EC100B 		vmov	r0, r1, d0
ARM GAS  /var/folders/k_/r2bh2pj93_jff4n9gmtn9jvr0000gn/T//ccAUK7QQ.s 			page 79


 3497 02a2 FFF7FEFF 		bl	__aeabi_d2f
 3498              	.LVL466:
 3499              	.LBE106:
 353:Src/kiss_fft.c ****             const double pi=3.141592653589793238462643383279502884197169399375105820974944;
 3500              		.loc 1 353 0
 3501 02a6 0BF1010B 		add	fp, fp, #1
 3502              	.LVL467:
 3503 02aa 5D45     		cmp	r5, fp
 3504              	.LBB107:
 358:Src/kiss_fft.c ****         }
 3505              		.loc 1 358 0
 3506 02ac CAF80400 		str	r0, [r10, #4]	@ float
 3507 02b0 0AF1080A 		add	r10, r10, #8
 3508              	.LBE107:
 353:Src/kiss_fft.c ****             const double pi=3.141592653589793238462643383279502884197169399375105820974944;
 3509              		.loc 1 353 0
 3510 02b4 D4D1     		bne	.L155
 3511 02b6 2F46     		mov	r7, r5
 3512 02b8 DDE90245 		ldrd	r4, [sp, #8]
 3513 02bc F1E6     		b	.L152
 3514              	.LVL468:
 3515              	.L253:
 3516              	.LBB108:
 3517              	.LBB102:
 317:Src/kiss_fft.c ****                 p = n;          /* no more factors, skip to end */
 3518              		.loc 1 317 0
 3519 02be FFF7FEFF 		bl	__aeabi_i2d
 3520              	.LVL469:
 3521 02c2 0246     		mov	r2, r0
 3522 02c4 0B46     		mov	r3, r1
 3523 02c6 5046     		mov	r0, r10
 3524 02c8 5946     		mov	r1, fp
 3525 02ca FFF7FEFF 		bl	__aeabi_dcmplt
 3526              	.LVL470:
 3527 02ce 0028     		cmp	r0, #0
 3528 02d0 18BF     		it	ne
 3529 02d2 3E46     		movne	r6, r7
 3530 02d4 9DE7     		b	.L158
 3531              	.LVL471:
 3532              	.L175:
 3533 02d6 04F11003 		add	r3, r4, #16
 311:Src/kiss_fft.c ****             switch (p) {
 3534              		.loc 1 311 0
 3535 02da 2C46     		mov	r4, r5
 3536              	.LVL472:
 3537 02dc 1D46     		mov	r5, r3
 3538              	.LVL473:
 3539              	.L171:
 3540 02de 89FB0736 		smull	r3, r6, r9, r7
 3541 02e2 4FEAE778 		asr	r8, r7, #31
 3542 02e6 A6EB0806 		sub	r6, r6, r8
 3543 02ea 06EB4603 		add	r3, r6, r6, lsl #1
 3544 02ee 9F42     		cmp	r7, r3
 3545 02f0 42D0     		beq	.L255
 3546              	.LVL474:
 317:Src/kiss_fft.c ****                 p = n;          /* no more factors, skip to end */
 3547              		.loc 1 317 0
ARM GAS  /var/folders/k_/r2bh2pj93_jff4n9gmtn9jvr0000gn/T//ccAUK7QQ.s 			page 80


 3548 02f2 0022     		movs	r2, #0
 3549 02f4 434B     		ldr	r3, .L259+12
 3550 02f6 5046     		mov	r0, r10
 3551 02f8 5946     		mov	r1, fp
 3552 02fa FFF7FEFF 		bl	__aeabi_dcmplt
 3553              	.LVL475:
 3554 02fe C8BB     		cbnz	r0, .L173
 3555              	.LVL476:
 311:Src/kiss_fft.c ****             switch (p) {
 3556              		.loc 1 311 0
 3557 0300 414A     		ldr	r2, .L259+16
 3558 0302 82FB0713 		smull	r1, r3, r2, r7
 3559 0306 C8EB6308 		rsb	r8, r8, r3, asr #1
 3560 030a 08EB8803 		add	r3, r8, r8, lsl #2
 3561 030e 9F42     		cmp	r7, r3
 3562 0310 22D1     		bne	.L199
 320:Src/kiss_fft.c ****         *facbuf++ = p;
 3563              		.loc 1 320 0
 3564 0312 4746     		mov	r7, r8
 3565              	.LVL477:
 321:Src/kiss_fft.c ****         *facbuf++ = n;
 3566              		.loc 1 321 0
 3567 0314 0523     		movs	r3, #5
 323:Src/kiss_fft.c **** }
 3568              		.loc 1 323 0
 3569 0316 012F     		cmp	r7, #1
 322:Src/kiss_fft.c ****     } while (n > 1);
 3570              		.loc 1 322 0
 3571 0318 C4F80480 		str	r8, [r4, #4]
 321:Src/kiss_fft.c ****         *facbuf++ = n;
 3572              		.loc 1 321 0
 3573 031c 2360     		str	r3, [r4]
 3574              	.LVL478:
 323:Src/kiss_fft.c **** }
 3575              		.loc 1 323 0
 3576 031e 94DD     		ble	.L146
 311:Src/kiss_fft.c ****             switch (p) {
 3577              		.loc 1 311 0
 3578 0320 82FB0832 		smull	r3, r2, r2, r8
 3579 0324 FB17     		asrs	r3, r7, #31
 3580 0326 C3EB6203 		rsb	r3, r3, r2, asr #1
 3581 032a 03EB8303 		add	r3, r3, r3, lsl #2
 3582 032e 04F11002 		add	r2, r4, #16
 3583              	.LVL479:
 3584 0332 9845     		cmp	r8, r3
 3585 0334 2C46     		mov	r4, r5
 3586 0336 4FF00506 		mov	r6, #5
 3587 033a 1546     		mov	r5, r2
 3588              	.LVL480:
 3589 033c 0DD1     		bne	.L170
 3590              	.LVL481:
 3591              	.L244:
 3592 033e 97FBF6F3 		sdiv	r3, r7, r6
 3593              	.L169:
 323:Src/kiss_fft.c **** }
 3594              		.loc 1 323 0
 3595 0342 012B     		cmp	r3, #1
ARM GAS  /var/folders/k_/r2bh2pj93_jff4n9gmtn9jvr0000gn/T//ccAUK7QQ.s 			page 81


 320:Src/kiss_fft.c ****         *facbuf++ = p;
 3596              		.loc 1 320 0
 3597 0344 1F46     		mov	r7, r3
 3598              	.LVL482:
 321:Src/kiss_fft.c ****         *facbuf++ = n;
 3599              		.loc 1 321 0
 3600 0346 C4E90063 		strd	r6, r3, [r4]
 3601              	.LVL483:
 323:Src/kiss_fft.c **** }
 3602              		.loc 1 323 0
 3603 034a 7FF77EAF 		ble	.L146
 3604 034e 04F11003 		add	r3, r4, #16
 3605              	.LVL484:
 3606 0352 2C46     		mov	r4, r5
 3607              	.LVL485:
 3608 0354 1D46     		mov	r5, r3
 3609 0356 1AE7     		b	.L180
 3610              	.LVL486:
 3611              	.L199:
 311:Src/kiss_fft.c ****             switch (p) {
 3612              		.loc 1 311 0
 3613 0358 0526     		movs	r6, #5
 3614              	.LVL487:
 3615              	.L170:
 3616 035a 0236     		adds	r6, r6, #2
 317:Src/kiss_fft.c ****                 p = n;          /* no more factors, skip to end */
 3617              		.loc 1 317 0
 3618 035c 3046     		mov	r0, r6
 3619 035e FFF7FEFF 		bl	__aeabi_i2d
 3620              	.LVL488:
 3621 0362 0246     		mov	r2, r0
 3622 0364 0B46     		mov	r3, r1
 3623 0366 5046     		mov	r0, r10
 3624 0368 5946     		mov	r1, fp
 3625 036a FFF7FEFF 		bl	__aeabi_dcmplt
 3626              	.LVL489:
 3627 036e 0028     		cmp	r0, #0
 3628 0370 3FF40DAF 		beq	.L180
 3629              	.L173:
 3630              	.LVL490:
 311:Src/kiss_fft.c ****             switch (p) {
 3631              		.loc 1 311 0
 3632 0374 3E46     		mov	r6, r7
 3633 0376 0AE7     		b	.L180
 3634              	.LVL491:
 3635              	.L255:
 321:Src/kiss_fft.c ****         *facbuf++ = n;
 3636              		.loc 1 321 0
 3637 0378 0322     		movs	r2, #3
 323:Src/kiss_fft.c **** }
 3638              		.loc 1 323 0
 3639 037a 012E     		cmp	r6, #1
 321:Src/kiss_fft.c ****         *facbuf++ = n;
 3640              		.loc 1 321 0
 3641 037c C4E90026 		strd	r2, r6, [r4]
 3642              	.LVL492:
 323:Src/kiss_fft.c **** }
ARM GAS  /var/folders/k_/r2bh2pj93_jff4n9gmtn9jvr0000gn/T//ccAUK7QQ.s 			page 82


 3643              		.loc 1 323 0
 3644 0380 7FF763AF 		ble	.L146
 311:Src/kiss_fft.c ****             switch (p) {
 3645              		.loc 1 311 0
 3646 0384 89FB0613 		smull	r1, r3, r9, r6
 3647 0388 F117     		asrs	r1, r6, #31
 3648 038a 5B1A     		subs	r3, r3, r1
 3649 038c 03EB4303 		add	r3, r3, r3, lsl #1
 3650 0390 9E42     		cmp	r6, r3
 3651 0392 0291     		str	r1, [sp, #8]
 3652 0394 00F0E080 		beq	.L256
 317:Src/kiss_fft.c ****                 p = n;          /* no more factors, skip to end */
 3653              		.loc 1 317 0
 3654 0398 0022     		movs	r2, #0
 3655 039a 1A4B     		ldr	r3, .L259+12
 3656 039c 5046     		mov	r0, r10
 3657 039e 5946     		mov	r1, fp
 3658 03a0 1034     		adds	r4, r4, #16
 3659              	.LVL493:
 3660 03a2 FFF7FEFF 		bl	__aeabi_dcmplt
 3661              	.LVL494:
 3662 03a6 0028     		cmp	r0, #0
 3663 03a8 40F00781 		bne	.L196
 3664              	.LVL495:
 311:Src/kiss_fft.c ****             switch (p) {
 3665              		.loc 1 311 0
 3666 03ac 164B     		ldr	r3, .L259+16
 3667 03ae 83FB0623 		smull	r2, r3, r3, r6
 3668 03b2 029A     		ldr	r2, [sp, #8]
 3669 03b4 C2EB6303 		rsb	r3, r2, r3, asr #1
 3670 03b8 03EB8303 		add	r3, r3, r3, lsl #2
 3671 03bc 9E42     		cmp	r6, r3
 3672 03be 40F00F81 		bne	.L197
 320:Src/kiss_fft.c ****         *facbuf++ = p;
 3673              		.loc 1 320 0
 3674 03c2 124B     		ldr	r3, .L259+20
 3675 03c4 83FB0723 		smull	r2, r3, r3, r7
 3676 03c8 1F44     		add	r7, r7, r3
 3677 03ca C8EBE707 		rsb	r7, r8, r7, asr #3
 3678              	.LVL496:
 321:Src/kiss_fft.c ****         *facbuf++ = n;
 3679              		.loc 1 321 0
 3680 03ce 0523     		movs	r3, #5
 323:Src/kiss_fft.c **** }
 3681              		.loc 1 323 0
 3682 03d0 012F     		cmp	r7, #1
 322:Src/kiss_fft.c ****     } while (n > 1);
 3683              		.loc 1 322 0
 3684 03d2 C5E90037 		strd	r3, r7, [r5]
 323:Src/kiss_fft.c **** }
 3685              		.loc 1 323 0
 3686 03d6 7FF738AF 		ble	.L146
 311:Src/kiss_fft.c ****             switch (p) {
 3687              		.loc 1 311 0
 3688 03da 0D4B     		ldr	r3, .L259+24
 3689 03dc A3FB0723 		umull	r2, r3, r3, r7
 3690 03e0 9B08     		lsrs	r3, r3, #2
ARM GAS  /var/folders/k_/r2bh2pj93_jff4n9gmtn9jvr0000gn/T//ccAUK7QQ.s 			page 83


 3691 03e2 03EB8303 		add	r3, r3, r3, lsl #2
 3692 03e6 9F42     		cmp	r7, r3
 3693 03e8 05F11005 		add	r5, r5, #16
 3694              	.LVL497:
 3695 03ec B4D1     		bne	.L199
 3696 03ee 0526     		movs	r6, #5
 3697 03f0 97FBF6F3 		sdiv	r3, r7, r6
 3698 03f4 A5E7     		b	.L169
 3699              	.L260:
 3700 03f6 00BF     		.align	3
 3701              	.L259:
 3702 03f8 182D4454 		.word	1413754136
 3703 03fc FB2119C0 		.word	-1072094725
 3704 0400 00000840 		.word	1074266112
 3705 0404 00001440 		.word	1075052544
 3706 0408 67666666 		.word	1717986919
 3707 040c 89888888 		.word	-2004318071
 3708 0410 CDCCCCCC 		.word	-858993459
 3709 0414 56555555 		.word	1431655766
 3710              	.LVL498:
 3711              	.L195:
 321:Src/kiss_fft.c ****         *facbuf++ = n;
 3712              		.loc 1 321 0
 3713 0418 4FF00308 		mov	r8, #3
 3714              	.LVL499:
 3715              	.L168:
 311:Src/kiss_fft.c ****             switch (p) {
 3716              		.loc 1 311 0
 3717 041c 97FBF6F3 		sdiv	r3, r7, r6
 3718 0420 06FB1372 		mls	r2, r6, r3, r7
 3719 0424 52B1     		cbz	r2, .L188
 3720              	.L181:
 312:Src/kiss_fft.c ****                 case 4: p = 2; break;
 3721              		.loc 1 312 0
 3722 0426 022E     		cmp	r6, #2
 3723 0428 13D0     		beq	.L184
 3724 042a 042E     		cmp	r6, #4
 3725 042c 54D1     		bne	.L183
 3726              	.LVL500:
 323:Src/kiss_fft.c **** }
 3727              		.loc 1 323 0
 3728 042e 3E46     		mov	r6, r7
 3729              	.LVL501:
 3730              	.L258:
 311:Src/kiss_fft.c ****             switch (p) {
 3731              		.loc 1 311 0
 3732 0430 97FBF6F3 		sdiv	r3, r7, r6
 3733 0434 06FB1372 		mls	r2, r6, r3, r7
 3734 0438 002A     		cmp	r2, #0
 3735 043a F4D1     		bne	.L181
 3736              	.LVL502:
 3737              	.L188:
 323:Src/kiss_fft.c **** }
 3738              		.loc 1 323 0
 3739 043c 012B     		cmp	r3, #1
 320:Src/kiss_fft.c ****         *facbuf++ = p;
 3740              		.loc 1 320 0
ARM GAS  /var/folders/k_/r2bh2pj93_jff4n9gmtn9jvr0000gn/T//ccAUK7QQ.s 			page 84


 3741 043e 1F46     		mov	r7, r3
 3742              	.LVL503:
 321:Src/kiss_fft.c ****         *facbuf++ = n;
 3743              		.loc 1 321 0
 3744 0440 C4E90063 		strd	r6, r3, [r4]
 3745              	.LVL504:
 323:Src/kiss_fft.c **** }
 3746              		.loc 1 323 0
 3747 0444 7FF701AF 		ble	.L146
 3748 0448 04F11003 		add	r3, r4, #16
 3749              	.LVL505:
 3750 044c 2C46     		mov	r4, r5
 3751              	.LVL506:
 3752 044e 1D46     		mov	r5, r3
 3753 0450 E4E7     		b	.L168
 3754              	.LVL507:
 3755              	.L184:
 311:Src/kiss_fft.c ****             switch (p) {
 3756              		.loc 1 311 0
 3757 0452 89FB0723 		smull	r2, r3, r9, r7
 3758 0456 FA17     		asrs	r2, r7, #31
 3759 0458 9B1A     		subs	r3, r3, r2
 3760 045a 03EB4301 		add	r1, r3, r3, lsl #1
 3761 045e 8F42     		cmp	r7, r1
 3762 0460 5DD1     		bne	.L205
 3763              	.LVL508:
 323:Src/kiss_fft.c **** }
 3764              		.loc 1 323 0
 3765 0462 012B     		cmp	r3, #1
 322:Src/kiss_fft.c ****     } while (n > 1);
 3766              		.loc 1 322 0
 3767 0464 C4E90083 		strd	r8, r3, [r4]
 323:Src/kiss_fft.c **** }
 3768              		.loc 1 323 0
 3769 0468 7FF7EFAE 		ble	.L146
 3770              	.LVL509:
 311:Src/kiss_fft.c ****             switch (p) {
 3771              		.loc 1 311 0
 3772 046c 89FB0301 		smull	r0, r1, r9, r3
 3773 0470 A1EBE371 		sub	r1, r1, r3, asr #31
 3774 0474 01EB4101 		add	r1, r1, r1, lsl #1
 3775 0478 8B42     		cmp	r3, r1
 3776 047a 64D1     		bne	.L257
 320:Src/kiss_fft.c ****         *facbuf++ = p;
 3777              		.loc 1 320 0
 3778 047c 5E4B     		ldr	r3, .L261
 3779              	.LVL510:
 3780 047e 83FB0713 		smull	r1, r3, r3, r7
 3781 0482 C2EB6303 		rsb	r3, r2, r3, asr #1
 3782              	.LVL511:
 323:Src/kiss_fft.c **** }
 3783              		.loc 1 323 0
 3784 0486 012B     		cmp	r3, #1
 322:Src/kiss_fft.c ****     } while (n > 1);
 3785              		.loc 1 322 0
 3786 0488 C5E90083 		strd	r8, r3, [r5]
 3787 048c 04F11000 		add	r0, r4, #16
ARM GAS  /var/folders/k_/r2bh2pj93_jff4n9gmtn9jvr0000gn/T//ccAUK7QQ.s 			page 85


 323:Src/kiss_fft.c **** }
 3788              		.loc 1 323 0
 3789 0490 7FF7DBAE 		ble	.L146
 311:Src/kiss_fft.c ****             switch (p) {
 3790              		.loc 1 311 0
 3791 0494 594E     		ldr	r6, .L261+4
 3792 0496 A6FB03C1 		umull	ip, r1, r6, r3
 3793 049a 4908     		lsrs	r1, r1, #1
 3794 049c 01EB4101 		add	r1, r1, r1, lsl #1
 3795 04a0 8B42     		cmp	r3, r1
 3796 04a2 05F11005 		add	r5, r5, #16
 3797              	.LVL512:
 3798 04a6 40F09780 		bne	.L206
 320:Src/kiss_fft.c ****         *facbuf++ = p;
 3799              		.loc 1 320 0
 3800 04aa 554B     		ldr	r3, .L261+8
 3801              	.LVL513:
 3802 04ac 83FB0737 		smull	r3, r7, r3, r7
 3803 04b0 C2EBE707 		rsb	r7, r2, r7, asr #3
 3804              	.LVL514:
 323:Src/kiss_fft.c **** }
 3805              		.loc 1 323 0
 3806 04b4 012F     		cmp	r7, #1
 321:Src/kiss_fft.c ****         *facbuf++ = n;
 3807              		.loc 1 321 0
 3808 04b6 C4E90487 		strd	r8, r7, [r4, #16]
 3809              	.LVL515:
 323:Src/kiss_fft.c **** }
 3810              		.loc 1 323 0
 3811 04ba 7FF7C6AE 		ble	.L146
 311:Src/kiss_fft.c ****             switch (p) {
 3812              		.loc 1 311 0
 3813 04be A6FB0723 		umull	r2, r3, r6, r7
 3814 04c2 5B08     		lsrs	r3, r3, #1
 3815 04c4 03EB4303 		add	r3, r3, r3, lsl #1
 3816 04c8 9F42     		cmp	r7, r3
 3817 04ca 04F12002 		add	r2, r4, #32
 3818              	.LVL516:
 3819 04ce 2C46     		mov	r4, r5
 3820 04d0 00F08C80 		beq	.L207
 3821 04d4 0326     		movs	r6, #3
 3822 04d6 1546     		mov	r5, r2
 3823              	.LVL517:
 3824              	.L183:
 3825 04d8 0236     		adds	r6, r6, #2
 3826 04da 3046     		mov	r0, r6
 3827 04dc FFF7FEFF 		bl	__aeabi_i2d
 3828              	.LVL518:
 3829 04e0 0246     		mov	r2, r0
 3830 04e2 0B46     		mov	r3, r1
 3831              	.L186:
 317:Src/kiss_fft.c ****                 p = n;          /* no more factors, skip to end */
 3832              		.loc 1 317 0
 3833 04e4 5046     		mov	r0, r10
 3834 04e6 5946     		mov	r1, fp
 3835 04e8 FFF7FEFF 		bl	__aeabi_dcmplt
 3836              	.LVL519:
ARM GAS  /var/folders/k_/r2bh2pj93_jff4n9gmtn9jvr0000gn/T//ccAUK7QQ.s 			page 86


 3837 04ec 0028     		cmp	r0, #0
 3838 04ee 95D0     		beq	.L168
 3839              	.LVL520:
 323:Src/kiss_fft.c **** }
 3840              		.loc 1 323 0
 3841 04f0 3E46     		mov	r6, r7
 3842 04f2 9DE7     		b	.L258
 3843              	.LVL521:
 3844              	.L252:
 3845 04f4 04F11003 		add	r3, r4, #16
 3846              	.L243:
 311:Src/kiss_fft.c ****             switch (p) {
 3847              		.loc 1 311 0
 3848 04f8 2C46     		mov	r4, r5
 3849 04fa 1D46     		mov	r5, r3
 3850              	.LVL522:
 3851              	.L164:
 323:Src/kiss_fft.c **** }
 3852              		.loc 1 323 0
 3853 04fc 3E46     		mov	r6, r7
 3854 04fe F2E5     		b	.L167
 3855              	.LVL523:
 3856              	.L251:
 3857 0500 0236     		adds	r6, r6, #2
 3858              	.LVL524:
 317:Src/kiss_fft.c ****                 p = n;          /* no more factors, skip to end */
 3859              		.loc 1 317 0
 3860 0502 3046     		mov	r0, r6
 3861 0504 FFF7FEFF 		bl	__aeabi_i2d
 3862              	.LVL525:
 3863 0508 0246     		mov	r2, r0
 3864 050a 0B46     		mov	r3, r1
 3865 050c 5046     		mov	r0, r10
 3866 050e 5946     		mov	r1, fp
 3867 0510 FFF7FEFF 		bl	__aeabi_dcmplt
 3868              	.LVL526:
 3869 0514 0028     		cmp	r0, #0
 3870 0516 3FF4E6AD 		beq	.L167
 3871              	.LVL527:
 323:Src/kiss_fft.c **** }
 3872              		.loc 1 323 0
 3873 051a 3E46     		mov	r6, r7
 3874 051c E3E5     		b	.L167
 3875              	.LVL528:
 3876              	.L205:
 311:Src/kiss_fft.c ****             switch (p) {
 3877              		.loc 1 311 0
 3878 051e 0022     		movs	r2, #0
 3879 0520 384B     		ldr	r3, .L261+12
 3880 0522 0526     		movs	r6, #5
 3881 0524 DEE7     		b	.L186
 3882              	.LVL529:
 3883              	.L248:
 3884              	.LBE102:
 3885              	.LBE108:
 3886              	.LBE111:
 342:Src/kiss_fft.c ****     }else{
ARM GAS  /var/folders/k_/r2bh2pj93_jff4n9gmtn9jvr0000gn/T//ccAUK7QQ.s 			page 87


 3887              		.loc 1 342 0
 3888 0526 FFF7FEFF 		bl	malloc
 3889              	.LVL530:
 348:Src/kiss_fft.c ****         int i;
 3890              		.loc 1 348 0
 3891 052a 0346     		mov	r3, r0
 3892 052c 0190     		str	r0, [sp, #4]
 3893 052e 0028     		cmp	r0, #0
 3894 0530 7FF47CAD 		bne	.L148
 3895              		.loc 1 364 0
 3896 0534 0198     		ldr	r0, [sp, #4]
 3897 0536 05B0     		add	sp, sp, #20
 3898              	.LCFI48:
 3899              		.cfi_remember_state
 3900              		.cfi_def_cfa_offset 44
 3901              		@ sp needed
 3902 0538 BDEC028B 		vldm	sp!, {d8}
 3903              	.LCFI49:
 3904              		.cfi_restore 80
 3905              		.cfi_restore 81
 3906              		.cfi_def_cfa_offset 36
 3907 053c BDE8F08F 		pop	{r4, r5, r6, r7, r8, r9, r10, fp, pc}
 3908              	.LVL531:
 3909              	.L250:
 3910              	.LCFI50:
 3911              		.cfi_restore_state
 337:Src/kiss_fft.c ****     size_t memneeded = KISS_FFT_ALIGN_SIZE_UP(sizeof(struct kiss_fft_state)
 3912              		.loc 1 337 0
 3913 0540 0023     		movs	r3, #0
 3914              	.LVL532:
 3915 0542 0193     		str	r3, [sp, #4]
 3916 0544 81E6     		b	.L146
 3917              	.LVL533:
 3918              	.L257:
 3919 0546 04F11001 		add	r1, r4, #16
 3920              	.LBB112:
 3921              	.LBB109:
 3922              	.LBB103:
 311:Src/kiss_fft.c ****             switch (p) {
 3923              		.loc 1 311 0
 3924 054a 1F46     		mov	r7, r3
 3925 054c 2C46     		mov	r4, r5
 3926 054e 0022     		movs	r2, #0
 3927 0550 2C4B     		ldr	r3, .L261+12
 3928              	.LVL534:
 3929 0552 0D46     		mov	r5, r1
 3930 0554 0526     		movs	r6, #5
 3931 0556 C5E7     		b	.L186
 3932              	.LVL535:
 3933              	.L256:
 320:Src/kiss_fft.c ****         *facbuf++ = p;
 3934              		.loc 1 320 0
 3935 0558 274B     		ldr	r3, .L261
 3936 055a 83FB0713 		smull	r1, r3, r3, r7
 3937 055e C8EB6303 		rsb	r3, r8, r3, asr #1
 3938              	.LVL536:
 323:Src/kiss_fft.c **** }
ARM GAS  /var/folders/k_/r2bh2pj93_jff4n9gmtn9jvr0000gn/T//ccAUK7QQ.s 			page 88


 3939              		.loc 1 323 0
 3940 0562 012B     		cmp	r3, #1
 322:Src/kiss_fft.c ****     } while (n > 1);
 3941              		.loc 1 322 0
 3942 0564 C5E90023 		strd	r2, r3, [r5]
 3943 0568 04F11000 		add	r0, r4, #16
 323:Src/kiss_fft.c **** }
 3944              		.loc 1 323 0
 3945 056c 7FF76DAE 		ble	.L146
 311:Src/kiss_fft.c ****             switch (p) {
 3946              		.loc 1 311 0
 3947 0570 224E     		ldr	r6, .L261+4
 3948 0572 A6FB03C1 		umull	ip, r1, r6, r3
 3949 0576 4908     		lsrs	r1, r1, #1
 3950 0578 01EB4101 		add	r1, r1, r1, lsl #1
 3951 057c 8B42     		cmp	r3, r1
 3952 057e 05F11005 		add	r5, r5, #16
 3953              	.LVL537:
 3954 0582 22D1     		bne	.L201
 320:Src/kiss_fft.c ****         *facbuf++ = p;
 3955              		.loc 1 320 0
 3956 0584 1E4B     		ldr	r3, .L261+8
 3957              	.LVL538:
 3958 0586 83FB0737 		smull	r3, r7, r3, r7
 3959 058a C8EBE707 		rsb	r7, r8, r7, asr #3
 3960              	.LVL539:
 323:Src/kiss_fft.c **** }
 3961              		.loc 1 323 0
 3962 058e 012F     		cmp	r7, #1
 321:Src/kiss_fft.c ****         *facbuf++ = n;
 3963              		.loc 1 321 0
 3964 0590 C4E90427 		strd	r2, r7, [r4, #16]
 3965              	.LVL540:
 323:Src/kiss_fft.c **** }
 3966              		.loc 1 323 0
 3967 0594 7FF759AE 		ble	.L146
 311:Src/kiss_fft.c ****             switch (p) {
 3968              		.loc 1 311 0
 3969 0598 A6FB0713 		umull	r1, r3, r6, r7
 3970 059c 5B08     		lsrs	r3, r3, #1
 3971 059e 03EB4303 		add	r3, r3, r3, lsl #1
 3972 05a2 04F12001 		add	r1, r4, #32
 3973              	.LVL541:
 3974 05a6 9F42     		cmp	r7, r3
 3975 05a8 2C46     		mov	r4, r5
 3976 05aa 1646     		mov	r6, r2
 3977 05ac 0D46     		mov	r5, r1
 3978              	.LVL542:
 3979 05ae 7FF4D4AE 		bne	.L170
 3980 05b2 C4E6     		b	.L244
 3981              	.LVL543:
 3982              	.L249:
 3983              	.LBE103:
 3984              	.LBE109:
 3985              	.LBE112:
 346:Src/kiss_fft.c ****     }
 3986              		.loc 1 346 0
ARM GAS  /var/folders/k_/r2bh2pj93_jff4n9gmtn9jvr0000gn/T//ccAUK7QQ.s 			page 89


 3987 05b4 1860     		str	r0, [r3]
 337:Src/kiss_fft.c ****     size_t memneeded = KISS_FFT_ALIGN_SIZE_UP(sizeof(struct kiss_fft_state)
 3988              		.loc 1 337 0
 3989 05b6 0192     		str	r2, [sp, #4]
 3990 05b8 47E6     		b	.L146
 3991              	.LVL544:
 3992              	.L196:
 3993              	.LBB113:
 3994              	.LBB110:
 3995              	.LBB104:
 317:Src/kiss_fft.c ****                 p = n;          /* no more factors, skip to end */
 3996              		.loc 1 317 0
 3997 05ba 2346     		mov	r3, r4
 3998 05bc 3746     		mov	r7, r6
 3999 05be 2C46     		mov	r4, r5
 4000              	.LVL545:
 311:Src/kiss_fft.c ****             switch (p) {
 4001              		.loc 1 311 0
 4002 05c0 3E46     		mov	r6, r7
 317:Src/kiss_fft.c ****                 p = n;          /* no more factors, skip to end */
 4003              		.loc 1 317 0
 4004 05c2 1D46     		mov	r5, r3
 4005              	.LVL546:
 4006 05c4 E3E5     		b	.L180
 4007              	.LVL547:
 4008              	.L203:
 311:Src/kiss_fft.c ****             switch (p) {
 4009              		.loc 1 311 0
 4010 05c6 0C46     		mov	r4, r1
 4011 05c8 89E6     		b	.L171
 4012              	.LVL548:
 4013              	.L201:
 4014 05ca 0446     		mov	r4, r0
 4015 05cc 1F46     		mov	r7, r3
 4016 05ce 1646     		mov	r6, r2
 4017 05d0 C3E6     		b	.L170
 4018              	.LVL549:
 4019              	.L193:
 4020 05d2 1446     		mov	r4, r2
 4021              	.LVL550:
 323:Src/kiss_fft.c **** }
 4022              		.loc 1 323 0
 4023 05d4 3E46     		mov	r6, r7
 4024 05d6 86E5     		b	.L167
 4025              	.LVL551:
 4026              	.L206:
 311:Src/kiss_fft.c ****             switch (p) {
 4027              		.loc 1 311 0
 4028 05d8 0446     		mov	r4, r0
 4029 05da 1F46     		mov	r7, r3
 4030 05dc 0326     		movs	r6, #3
 4031 05de 7BE7     		b	.L183
 4032              	.LVL552:
 4033              	.L197:
 4034 05e0 2346     		mov	r3, r4
 4035 05e2 3746     		mov	r7, r6
 4036 05e4 2C46     		mov	r4, r5
ARM GAS  /var/folders/k_/r2bh2pj93_jff4n9gmtn9jvr0000gn/T//ccAUK7QQ.s 			page 90


 4037 05e6 0526     		movs	r6, #5
 4038              	.LVL553:
 4039 05e8 1D46     		mov	r5, r3
 4040              	.LVL554:
 4041 05ea B6E6     		b	.L170
 4042              	.LVL555:
 4043              	.L207:
 4044 05ec 0326     		movs	r6, #3
 4045 05ee 1546     		mov	r5, r2
 4046 05f0 97FBF6F3 		sdiv	r3, r7, r6
 4047 05f4 22E7     		b	.L188
 4048              	.L262:
 4049 05f6 00BF     		.align	2
 4050              	.L261:
 4051 05f8 398EE338 		.word	954437177
 4052 05fc ABAAAAAA 		.word	-1431655765
 4053 0600 F712DA4B 		.word	1272582903
 4054 0604 00001440 		.word	1075052544
 4055              	.LBE104:
 4056              	.LBE110:
 4057              	.LBE113:
 4058              		.cfi_endproc
 4059              	.LFE10:
 4061              		.section	.text.kiss_fft_stride,"ax",%progbits
 4062              		.align	1
 4063              		.p2align 2,,3
 4064              		.global	kiss_fft_stride
 4065              		.syntax unified
 4066              		.thumb
 4067              		.thumb_func
 4068              		.fpu fpv4-sp-d16
 4070              	kiss_fft_stride:
 4071              	.LFB11:
 365:Src/kiss_fft.c **** 
 366:Src/kiss_fft.c **** 
 367:Src/kiss_fft.c **** void kiss_fft_stride(kiss_fft_cfg st,const kiss_fft_cpx *fin,kiss_fft_cpx *fout,int in_stride)
 368:Src/kiss_fft.c **** {
 4072              		.loc 1 368 0
 4073              		.cfi_startproc
 4074              		@ args = 0, pretend = 0, frame = 0
 4075              		@ frame_needed = 0, uses_anonymous_args = 0
 4076              	.LVL556:
 4077 0000 2DE9F041 		push	{r4, r5, r6, r7, r8, lr}
 4078              	.LCFI51:
 4079              		.cfi_def_cfa_offset 24
 4080              		.cfi_offset 4, -24
 4081              		.cfi_offset 5, -20
 4082              		.cfi_offset 6, -16
 4083              		.cfi_offset 7, -12
 4084              		.cfi_offset 8, -8
 4085              		.cfi_offset 14, -4
 369:Src/kiss_fft.c ****     if (fin == fout) {
 4086              		.loc 1 369 0
 4087 0004 9142     		cmp	r1, r2
 368:Src/kiss_fft.c ****     if (fin == fout) {
 4088              		.loc 1 368 0
 4089 0006 82B0     		sub	sp, sp, #8
ARM GAS  /var/folders/k_/r2bh2pj93_jff4n9gmtn9jvr0000gn/T//ccAUK7QQ.s 			page 91


 4090              	.LCFI52:
 4091              		.cfi_def_cfa_offset 32
 368:Src/kiss_fft.c ****     if (fin == fout) {
 4092              		.loc 1 368 0
 4093 0008 0446     		mov	r4, r0
 4094 000a 1E46     		mov	r6, r3
 4095 000c 00F10807 		add	r7, r0, #8
 4096              		.loc 1 369 0
 4097 0010 08D0     		beq	.L266
 4098 0012 1046     		mov	r0, r2
 4099              	.LVL557:
 370:Src/kiss_fft.c ****         //NOTE: this is not really an in-place FFT algorithm.
 371:Src/kiss_fft.c ****         //It just performs an out-of-place FFT into a temp buffer
 372:Src/kiss_fft.c ****         kiss_fft_cpx * tmpbuf = (kiss_fft_cpx*)KISS_FFT_TMP_ALLOC( sizeof(kiss_fft_cpx)*st->nfft);
 373:Src/kiss_fft.c ****         kf_work(tmpbuf,fin,1,in_stride, st->factors,st);
 374:Src/kiss_fft.c ****         memcpy(fout,tmpbuf,sizeof(kiss_fft_cpx)*st->nfft);
 375:Src/kiss_fft.c ****         KISS_FFT_TMP_FREE(tmpbuf);
 376:Src/kiss_fft.c ****     }else{
 377:Src/kiss_fft.c ****         kf_work( fout, fin, 1,in_stride, st->factors,st );
 4100              		.loc 1 377 0
 4101 0014 0094     		str	r4, [sp]
 4102 0016 3B46     		mov	r3, r7
 4103              	.LVL558:
 4104 0018 3246     		mov	r2, r6
 4105              	.LVL559:
 4106 001a FFF7FEFF 		bl	kf_work.constprop.1
 4107              	.LVL560:
 378:Src/kiss_fft.c ****     }
 379:Src/kiss_fft.c **** }
 4108              		.loc 1 379 0
 4109 001e 02B0     		add	sp, sp, #8
 4110              	.LCFI53:
 4111              		.cfi_remember_state
 4112              		.cfi_def_cfa_offset 24
 4113              		@ sp needed
 4114 0020 BDE8F081 		pop	{r4, r5, r6, r7, r8, pc}
 4115              	.LVL561:
 4116              	.L266:
 4117              	.LCFI54:
 4118              		.cfi_restore_state
 4119              	.LBB117:
 4120              	.LBB118:
 372:Src/kiss_fft.c ****         kf_work(tmpbuf,fin,1,in_stride, st->factors,st);
 4121              		.loc 1 372 0
 4122 0024 0068     		ldr	r0, [r0]
 4123              	.LVL562:
 4124 0026 C000     		lsls	r0, r0, #3
 4125 0028 0D46     		mov	r5, r1
 4126              	.LVL563:
 4127 002a FFF7FEFF 		bl	malloc
 4128              	.LVL564:
 373:Src/kiss_fft.c ****         memcpy(fout,tmpbuf,sizeof(kiss_fft_cpx)*st->nfft);
 4129              		.loc 1 373 0
 4130 002e 3B46     		mov	r3, r7
 4131 0030 3246     		mov	r2, r6
 4132 0032 2946     		mov	r1, r5
 4133 0034 0094     		str	r4, [sp]
ARM GAS  /var/folders/k_/r2bh2pj93_jff4n9gmtn9jvr0000gn/T//ccAUK7QQ.s 			page 92


 372:Src/kiss_fft.c ****         kf_work(tmpbuf,fin,1,in_stride, st->factors,st);
 4134              		.loc 1 372 0
 4135 0036 8046     		mov	r8, r0
 4136              	.LVL565:
 373:Src/kiss_fft.c ****         memcpy(fout,tmpbuf,sizeof(kiss_fft_cpx)*st->nfft);
 4137              		.loc 1 373 0
 4138 0038 FFF7FEFF 		bl	kf_work.constprop.1
 4139              	.LVL566:
 374:Src/kiss_fft.c ****         KISS_FFT_TMP_FREE(tmpbuf);
 4140              		.loc 1 374 0
 4141 003c 2268     		ldr	r2, [r4]
 4142 003e 2846     		mov	r0, r5
 4143 0040 D200     		lsls	r2, r2, #3
 4144 0042 4146     		mov	r1, r8
 4145 0044 FFF7FEFF 		bl	memcpy
 4146              	.LVL567:
 375:Src/kiss_fft.c ****     }else{
 4147              		.loc 1 375 0
 4148 0048 4046     		mov	r0, r8
 4149              	.LBE118:
 4150              	.LBE117:
 4151              		.loc 1 379 0
 4152 004a 02B0     		add	sp, sp, #8
 4153              	.LCFI55:
 4154              		.cfi_def_cfa_offset 24
 4155              		@ sp needed
 4156 004c BDE8F041 		pop	{r4, r5, r6, r7, r8, lr}
 4157              	.LCFI56:
 4158              		.cfi_restore 14
 4159              		.cfi_restore 8
 4160              		.cfi_restore 7
 4161              		.cfi_restore 6
 4162              		.cfi_restore 5
 4163              		.cfi_restore 4
 4164              		.cfi_def_cfa_offset 0
 4165              	.LVL568:
 4166              	.LBB120:
 4167              	.LBB119:
 375:Src/kiss_fft.c ****     }else{
 4168              		.loc 1 375 0
 4169 0050 FFF7FEBF 		b	free
 4170              	.LVL569:
 4171              	.LBE119:
 4172              	.LBE120:
 4173              		.cfi_endproc
 4174              	.LFE11:
 4176              		.section	.text.kiss_fft,"ax",%progbits
 4177              		.align	1
 4178              		.p2align 2,,3
 4179              		.global	kiss_fft
 4180              		.syntax unified
 4181              		.thumb
 4182              		.thumb_func
 4183              		.fpu fpv4-sp-d16
 4185              	kiss_fft:
 4186              	.LFB12:
 380:Src/kiss_fft.c **** 
ARM GAS  /var/folders/k_/r2bh2pj93_jff4n9gmtn9jvr0000gn/T//ccAUK7QQ.s 			page 93


 381:Src/kiss_fft.c **** void kiss_fft(kiss_fft_cfg cfg,const kiss_fft_cpx *fin,kiss_fft_cpx *fout)
 382:Src/kiss_fft.c **** {
 4187              		.loc 1 382 0
 4188              		.cfi_startproc
 4189              		@ args = 0, pretend = 0, frame = 24
 4190              		@ frame_needed = 0, uses_anonymous_args = 0
 4191              	.LVL570:
 4192 0000 2DE9F04F 		push	{r4, r5, r6, r7, r8, r9, r10, fp, lr}
 4193              	.LCFI57:
 4194              		.cfi_def_cfa_offset 36
 4195              		.cfi_offset 4, -36
 4196              		.cfi_offset 5, -32
 4197              		.cfi_offset 6, -28
 4198              		.cfi_offset 7, -24
 4199              		.cfi_offset 8, -20
 4200              		.cfi_offset 9, -16
 4201              		.cfi_offset 10, -12
 4202              		.cfi_offset 11, -8
 4203              		.cfi_offset 14, -4
 4204 0004 2DED068B 		vpush.64	{d8, d9, d10}
 4205              	.LCFI58:
 4206              		.cfi_def_cfa_offset 60
 4207              		.cfi_offset 80, -60
 4208              		.cfi_offset 81, -56
 4209              		.cfi_offset 82, -52
 4210              		.cfi_offset 83, -48
 4211              		.cfi_offset 84, -44
 4212              		.cfi_offset 85, -40
 4213 0008 89B0     		sub	sp, sp, #36
 4214              	.LCFI59:
 4215              		.cfi_def_cfa_offset 96
 4216              	.LBB146:
 4217              	.LBB147:
 369:Src/kiss_fft.c ****         //NOTE: this is not really an in-place FFT algorithm.
 4218              		.loc 1 369 0
 4219 000a 9142     		cmp	r1, r2
 4220              	.LBE147:
 4221              	.LBE146:
 4222              		.loc 1 382 0
 4223 000c 0290     		str	r0, [sp, #8]
 4224 000e 0E46     		mov	r6, r1
 4225              	.LVL571:
 4226 0010 1446     		mov	r4, r2
 4227 0012 00F11009 		add	r9, r0, #16
 4228              	.LBB202:
 4229              	.LBB196:
 369:Src/kiss_fft.c ****         //NOTE: this is not really an in-place FFT algorithm.
 4230              		.loc 1 369 0
 4231 0016 36D0     		beq	.L316
 4232              	.LVL572:
 4233              	.LBB148:
 4234              	.LBB149:
 243:Src/kiss_fft.c ****     const kiss_fft_cpx * Fout_end = Fout + p*m;
 4235              		.loc 1 243 0
 4236 0018 C568     		ldr	r5, [r0, #12]
 242:Src/kiss_fft.c ****     const int m=*factors++; /* stage's fft length/p */
 4237              		.loc 1 242 0
ARM GAS  /var/folders/k_/r2bh2pj93_jff4n9gmtn9jvr0000gn/T//ccAUK7QQ.s 			page 94


 4238 001a D0F80880 		ldr	r8, [r0, #8]
 4239              	.LVL573:
 244:Src/kiss_fft.c **** 
 4240              		.loc 1 244 0
 4241 001e 05FB08F7 		mul	r7, r5, r8
 4242 0022 FF00     		lsls	r7, r7, #3
 270:Src/kiss_fft.c ****         do{
 4243              		.loc 1 270 0
 4244 0024 012D     		cmp	r5, #1
 244:Src/kiss_fft.c **** 
 4245              		.loc 1 244 0
 4246 0026 04EB070A 		add	r10, r4, r7
 4247              	.LVL574:
 270:Src/kiss_fft.c ****         do{
 4248              		.loc 1 270 0
 4249 002a 17D1     		bne	.L286
 4250 002c 083F     		subs	r7, r7, #8
 4251 002e FF08     		lsrs	r7, r7, #3
 4252 0030 0137     		adds	r7, r7, #1
 4253 0032 0022     		movs	r2, #0
 4254              	.LVL575:
 4255              	.L287:
 272:Src/kiss_fft.c ****             f += fstride*in_stride;
 4256              		.loc 1 272 0
 4257 0034 D300     		lsls	r3, r2, #3
 4258 0036 F118     		adds	r1, r6, r3
 4259              	.LVL576:
 4260 0038 03C9     		ldm	r1, {r0, r1}
 4261              	.LVL577:
 4262 003a 0132     		adds	r2, r2, #1
 4263              	.LVL578:
 4264 003c 2344     		add	r3, r3, r4
 274:Src/kiss_fft.c ****     }else{
 4265              		.loc 1 274 0
 4266 003e 9742     		cmp	r7, r2
 272:Src/kiss_fft.c ****             f += fstride*in_stride;
 4267              		.loc 1 272 0
 4268 0040 83E80300 		stm	r3, {r0, r1}
 4269              	.LVL579:
 274:Src/kiss_fft.c ****     }else{
 4270              		.loc 1 274 0
 4271 0044 F6D1     		bne	.L287
 4272              	.LVL580:
 4273              	.L288:
 289:Src/kiss_fft.c ****         case 2: kf_bfly2(Fout,fstride,st,m); break;
 4274              		.loc 1 289 0
 4275 0046 A8F10203 		sub	r3, r8, #2
 4276 004a 032B     		cmp	r3, #3
 4277 004c 00F24E85 		bhi	.L290
 4278 0050 DFE813F0 		tbh	[pc, r3, lsl #1]
 4279              	.L292:
 4280 0054 7002     		.2byte	(.L291-.L292)/2
 4281 0056 C801     		.2byte	(.L293-.L292)/2
 4282 0058 2101     		.2byte	(.L294-.L292)/2
 4283 005a 3800     		.2byte	(.L295-.L292)/2
 4284              	.LVL581:
 4285              		.p2align 1
ARM GAS  /var/folders/k_/r2bh2pj93_jff4n9gmtn9jvr0000gn/T//ccAUK7QQ.s 			page 95


 4286              	.L286:
 283:Src/kiss_fft.c ****     }
 4287              		.loc 1 283 0
 4288 005c 2746     		mov	r7, r4
 4289 005e 4FEAC50B 		lsl	fp, r5, #3
 4290 0062 4C46     		mov	r4, r9
 4291 0064 B946     		mov	r9, r7
 4292              	.LVL582:
 4293              	.L289:
 281:Src/kiss_fft.c ****             f += fstride*in_stride;
 4294              		.loc 1 281 0
 4295 0066 029B     		ldr	r3, [sp, #8]
 4296 0068 3146     		mov	r1, r6
 4297 006a CDE90043 		strd	r4, r3, [sp]
 4298 006e 3846     		mov	r0, r7
 4299 0070 0123     		movs	r3, #1
 4300 0072 4246     		mov	r2, r8
 283:Src/kiss_fft.c ****     }
 4301              		.loc 1 283 0
 4302 0074 5F44     		add	r7, r7, fp
 4303              	.LVL583:
 281:Src/kiss_fft.c ****             f += fstride*in_stride;
 4304              		.loc 1 281 0
 4305 0076 FFF7FEFF 		bl	kf_work
 4306              	.LVL584:
 283:Src/kiss_fft.c ****     }
 4307              		.loc 1 283 0
 4308 007a BA45     		cmp	r10, r7
 282:Src/kiss_fft.c ****         }while( (Fout += m) != Fout_end );
 4309              		.loc 1 282 0
 4310 007c 06F10806 		add	r6, r6, #8
 4311              	.LVL585:
 283:Src/kiss_fft.c ****     }
 4312              		.loc 1 283 0
 4313 0080 F1D1     		bne	.L289
 4314 0082 4C46     		mov	r4, r9
 4315              	.LVL586:
 4316 0084 DFE7     		b	.L288
 4317              	.LVL587:
 4318              	.L316:
 4319              	.LBE149:
 4320              	.LBE148:
 4321              	.LBB164:
 4322              	.LBB165:
 372:Src/kiss_fft.c ****         kf_work(tmpbuf,fin,1,in_stride, st->factors,st);
 4323              		.loc 1 372 0
 4324 0086 0546     		mov	r5, r0
 4325 0088 0068     		ldr	r0, [r0]
 4326              	.LVL588:
 4327 008a C000     		lsls	r0, r0, #3
 4328 008c FFF7FEFF 		bl	malloc
 4329              	.LVL589:
 4330              	.LBB166:
 4331              	.LBB167:
 242:Src/kiss_fft.c ****     const int m=*factors++; /* stage's fft length/p */
 4332              		.loc 1 242 0
 4333 0090 D5F80880 		ldr	r8, [r5, #8]
ARM GAS  /var/folders/k_/r2bh2pj93_jff4n9gmtn9jvr0000gn/T//ccAUK7QQ.s 			page 96


 243:Src/kiss_fft.c ****     const kiss_fft_cpx * Fout_end = Fout + p*m;
 4334              		.loc 1 243 0
 4335 0094 ED68     		ldr	r5, [r5, #12]
 4336              	.LBE167:
 4337              	.LBE166:
 372:Src/kiss_fft.c ****         kf_work(tmpbuf,fin,1,in_stride, st->factors,st);
 4338              		.loc 1 372 0
 4339 0096 0690     		str	r0, [sp, #24]
 4340              	.LVL590:
 4341              	.LBB181:
 4342              	.LBB176:
 244:Src/kiss_fft.c **** 
 4343              		.loc 1 244 0
 4344 0098 05FB08F2 		mul	r2, r5, r8
 4345 009c D200     		lsls	r2, r2, #3
 270:Src/kiss_fft.c ****         do{
 4346              		.loc 1 270 0
 4347 009e 012D     		cmp	r5, #1
 244:Src/kiss_fft.c **** 
 4348              		.loc 1 244 0
 4349 00a0 00EB020A 		add	r10, r0, r2
 4350              	.LVL591:
 270:Src/kiss_fft.c ****         do{
 4351              		.loc 1 270 0
 4352 00a4 40F08282 		bne	.L269
 4353 00a8 2146     		mov	r1, r4
 4354 00aa FFF7FEFF 		bl	memcpy
 4355              	.LVL592:
 4356              	.L270:
 289:Src/kiss_fft.c ****         case 2: kf_bfly2(Fout,fstride,st,m); break;
 4357              		.loc 1 289 0
 4358 00ae A8F10203 		sub	r3, r8, #2
 4359 00b2 032B     		cmp	r3, #3
 4360 00b4 00F22785 		bhi	.L272
 4361 00b8 DFE813F0 		tbh	[pc, r3, lsl #1]
 4362              	.L274:
 4363 00bc 3504     		.2byte	(.L273-.L274)/2
 4364 00be 6E04     		.2byte	(.L275-.L274)/2
 4365 00c0 8503     		.2byte	(.L276-.L274)/2
 4366 00c2 8E02     		.2byte	(.L277-.L274)/2
 4367              	.LVL593:
 4368              		.p2align 1
 4369              	.L295:
 4370              	.LBE176:
 4371              	.LBE181:
 4372              	.LBE165:
 4373              	.LBE164:
 4374              	.LBB189:
 4375              	.LBB160:
 4376              	.LBB150:
 4377              	.LBB151:
 140:Src/kiss_fft.c ****     kiss_fft_cpx *tw;
 4378              		.loc 1 140 0
 4379 00c4 029B     		ldr	r3, [sp, #8]
 143:Src/kiss_fft.c ****     yb = twiddles[fstride*2*m];
 4380              		.loc 1 143 0
 4381 00c6 4FEAC50C 		lsl	ip, r5, #3
ARM GAS  /var/folders/k_/r2bh2pj93_jff4n9gmtn9jvr0000gn/T//ccAUK7QQ.s 			page 97


 140:Src/kiss_fft.c ****     kiss_fft_cpx *tw;
 4382              		.loc 1 140 0
 4383 00ca 03F58470 		add	r0, r3, #264
 4384              	.LVL594:
 143:Src/kiss_fft.c ****     yb = twiddles[fstride*2*m];
 4385              		.loc 1 143 0
 4386 00ce 00EB0C03 		add	r3, r0, ip
 147:Src/kiss_fft.c ****     Fout2=Fout0+2*m;
 4387              		.loc 1 147 0
 4388 00d2 04EB0C01 		add	r1, r4, ip
 144:Src/kiss_fft.c **** 
 4389              		.loc 1 144 0
 4390 00d6 03EB0C06 		add	r6, r3, ip
 148:Src/kiss_fft.c ****     Fout3=Fout0+3*m;
 4391              		.loc 1 148 0
 4392 00da 01EB0C02 		add	r2, r1, ip
 153:Src/kiss_fft.c ****         C_FIXDIV( *Fout0,5); C_FIXDIV( *Fout1,5); C_FIXDIV( *Fout2,5); C_FIXDIV( *Fout3,5); C_FIXDI
 4393              		.loc 1 153 0
 4394 00de 002D     		cmp	r5, #0
 143:Src/kiss_fft.c ****     yb = twiddles[fstride*2*m];
 4395              		.loc 1 143 0
 4396 00e0 D3ED003A 		vldr.32	s7, [r3]
 4397              	.LVL595:
 4398 00e4 93ED012A 		vldr.32	s4, [r3, #4]
 4399              	.LVL596:
 144:Src/kiss_fft.c **** 
 4400              		.loc 1 144 0
 4401 00e8 96ED003A 		vldr.32	s6, [r6]
 4402              	.LVL597:
 4403 00ec D6ED012A 		vldr.32	s5, [r6, #4]
 4404              	.LVL598:
 149:Src/kiss_fft.c ****     Fout4=Fout0+4*m;
 4405              		.loc 1 149 0
 4406 00f0 02EB0C03 		add	r3, r2, ip
 4407              	.LVL599:
 153:Src/kiss_fft.c ****         C_FIXDIV( *Fout0,5); C_FIXDIV( *Fout1,5); C_FIXDIV( *Fout2,5); C_FIXDIV( *Fout3,5); C_FIXDI
 4408              		.loc 1 153 0
 4409 00f4 40F3CA80 		ble	.L267
 4410 00f8 0CF1080C 		add	ip, ip, #8
 4411              	.LVL600:
 4412 00fc 9C44     		add	ip, ip, r3
 4413              	.LVL601:
 4414 00fe 0834     		adds	r4, r4, #8
 4415              	.LVL602:
 4416 0100 0831     		adds	r1, r1, #8
 4417              	.LVL603:
 4418 0102 0832     		adds	r2, r2, #8
 4419 0104 0833     		adds	r3, r3, #8
 4420 0106 E646     		mov	lr, ip
 4421 0108 0746     		mov	r7, r0
 4422 010a 0646     		mov	r6, r0
 4423 010c 0546     		mov	r5, r0
 4424              	.LVL604:
 4425 010e F1EE421A 		vneg.f32	s3, s4
 4426              	.LVL605:
 4427              	.L303:
 157:Src/kiss_fft.c ****         C_MUL(scratch[2] ,*Fout2, tw[2*u*fstride]);
ARM GAS  /var/folders/k_/r2bh2pj93_jff4n9gmtn9jvr0000gn/T//ccAUK7QQ.s 			page 98


 4428              		.loc 1 157 0
 4429 0112 90ED009A 		vldr.32	s18, [r0]
 4430 0116 11ED016A 		vldr.32	s12, [r1, #-4]
 4431 011a 90ED01AA 		vldr.32	s20, [r0, #4]
 4432 011e 51ED029A 		vldr.32	s19, [r1, #-8]
 160:Src/kiss_fft.c **** 
 4433              		.loc 1 160 0
 4434 0122 D7ED008A 		vldr.32	s17, [r7]
 4435 0126 D7ED015A 		vldr.32	s11, [r7, #4]
 4436 012a 5CED017A 		vldr.32	s15, [ip, #-4]
 158:Src/kiss_fft.c ****         C_MUL(scratch[3] ,*Fout3, tw[3*u*fstride]);
 4437              		.loc 1 158 0
 4438 012e D5ED010A 		vldr.32	s1, [r5, #4]
 160:Src/kiss_fft.c **** 
 4439              		.loc 1 160 0
 4440 0132 1CED020A 		vldr.32	s0, [ip, #-8]
 158:Src/kiss_fft.c ****         C_MUL(scratch[3] ,*Fout3, tw[3*u*fstride]);
 4441              		.loc 1 158 0
 4442 0136 12ED017A 		vldr.32	s14, [r2, #-4]
 4443 013a 95ED004A 		vldr.32	s8, [r5]
 159:Src/kiss_fft.c ****         C_MUL(scratch[4] ,*Fout4, tw[4*u*fstride]);
 4444              		.loc 1 159 0
 4445 013e D6ED004A 		vldr.32	s9, [r6]
 4446 0142 53ED016A 		vldr.32	s13, [r3, #-4]
 4447 0146 96ED011A 		vldr.32	s2, [r6, #4]
 157:Src/kiss_fft.c ****         C_MUL(scratch[2] ,*Fout2, tw[2*u*fstride]);
 4448              		.loc 1 157 0
 4449 014a 29EE065A 		vmul.f32	s10, s18, s12
 4450 014e 2AEE466A 		vnmul.f32	s12, s20, s12
 4451 0152 A9EE8A5A 		vfma.f32	s10, s19, s20
 4452 0156 0833     		adds	r3, r3, #8
 4453 0158 0830     		adds	r0, r0, #8
 160:Src/kiss_fft.c **** 
 4454              		.loc 1 160 0
 4455 015a 25EEE7AA 		vnmul.f32	s20, s11, s15
 157:Src/kiss_fft.c ****         C_MUL(scratch[2] ,*Fout2, tw[2*u*fstride]);
 4456              		.loc 1 157 0
 4457 015e B0EE458A 		vmov.f32	s16, s10
 160:Src/kiss_fft.c **** 
 4458              		.loc 1 160 0
 4459 0162 28EEA75A 		vmul.f32	s10, s17, s15
 4460 0166 A0EE28AA 		vfma.f32	s20, s0, s17
 4461 016a 2037     		adds	r7, r7, #32
 4462 016c 1035     		adds	r5, r5, #16
 158:Src/kiss_fft.c ****         C_MUL(scratch[3] ,*Fout3, tw[3*u*fstride]);
 4463              		.loc 1 158 0
 4464 016e 52ED028A 		vldr.32	s17, [r2, #-8]
 159:Src/kiss_fft.c ****         C_MUL(scratch[4] ,*Fout4, tw[4*u*fstride]);
 4465              		.loc 1 159 0
 4466 0172 53ED047A 		vldr.32	s15, [r3, #-16]
 160:Src/kiss_fft.c **** 
 4467              		.loc 1 160 0
 4468 0176 A0EE255A 		vfma.f32	s10, s0, s11
 4469 017a 1836     		adds	r6, r6, #24
 4470 017c 0834     		adds	r4, r4, #8
 4471              	.LVL606:
 157:Src/kiss_fft.c ****         C_MUL(scratch[2] ,*Fout2, tw[2*u*fstride]);
ARM GAS  /var/folders/k_/r2bh2pj93_jff4n9gmtn9jvr0000gn/T//ccAUK7QQ.s 			page 99


 4472              		.loc 1 157 0
 4473 017e A9EE896A 		vfma.f32	s12, s19, s18
 4474 0182 0831     		adds	r1, r1, #8
 4475 0184 0CF1080C 		add	ip, ip, #8
 158:Src/kiss_fft.c ****         C_MUL(scratch[3] ,*Fout3, tw[3*u*fstride]);
 4476              		.loc 1 158 0
 4477 0188 60EEC75A 		vnmul.f32	s11, s1, s14
 157:Src/kiss_fft.c ****         C_MUL(scratch[2] ,*Fout2, tw[2*u*fstride]);
 4478              		.loc 1 157 0
 4479 018c B0EE469A 		vmov.f32	s18, s12
 158:Src/kiss_fft.c ****         C_MUL(scratch[3] ,*Fout3, tw[3*u*fstride]);
 4480              		.loc 1 158 0
 4481 0190 E8EE845A 		vfma.f32	s11, s17, s8
 4482 0194 0832     		adds	r2, r2, #8
 4483 0196 24EE076A 		vmul.f32	s12, s8, s14
 159:Src/kiss_fft.c ****         C_MUL(scratch[4] ,*Fout4, tw[4*u*fstride]);
 4484              		.loc 1 159 0
 4485 019a 24EEA67A 		vmul.f32	s14, s9, s13
 158:Src/kiss_fft.c ****         C_MUL(scratch[3] ,*Fout3, tw[3*u*fstride]);
 4486              		.loc 1 158 0
 4487 019e A8EEA06A 		vfma.f32	s12, s17, s1
 4488 01a2 B0EE654A 		vmov.f32	s8, s11
 159:Src/kiss_fft.c ****         C_MUL(scratch[4] ,*Fout4, tw[4*u*fstride]);
 4489              		.loc 1 159 0
 4490 01a6 A7EE817A 		vfma.f32	s14, s15, s2
 4491 01aa 61EE665A 		vnmul.f32	s11, s2, s13
 162:Src/kiss_fft.c ****         C_SUB( scratch[10],scratch[1],scratch[4]);
 4492              		.loc 1 162 0
 4493 01ae 78EE056A 		vadd.f32	s13, s16, s10
 159:Src/kiss_fft.c ****         C_MUL(scratch[4] ,*Fout4, tw[4*u*fstride]);
 4494              		.loc 1 159 0
 4495 01b2 E7EEA45A 		vfma.f32	s11, s15, s9
 155:Src/kiss_fft.c **** 
 4496              		.loc 1 155 0
 4497 01b6 54ED037A 		vldr.32	s15, [r4, #-12]
 4498 01ba 14ED040A 		vldr.32	s0, [r4, #-16]
 4499              	.LVL607:
 165:Src/kiss_fft.c **** 
 4500              		.loc 1 165 0
 4501 01be 76EE47AA 		vsub.f32	s21, s12, s14
 164:Src/kiss_fft.c ****         C_SUB( scratch[9],scratch[2],scratch[3]);
 4502              		.loc 1 164 0
 4503 01c2 36EE077A 		vadd.f32	s14, s12, s14
 4504              	.LVL608:
 180:Src/kiss_fft.c ****         scratch[12].r = - S_MUL(scratch[10].i,yb.i) + S_MUL(scratch[9].i,ya.i);
 4505              		.loc 1 180 0
 4506 01c6 B0EE676A 		vmov.f32	s12, s15
 4507              	.LVL609:
 4508 01ca A3EE266A 		vfma.f32	s12, s6, s13
 162:Src/kiss_fft.c ****         C_SUB( scratch[10],scratch[1],scratch[4]);
 4509              		.loc 1 162 0
 4510 01ce 79EE0A8A 		vadd.f32	s17, s18, s20
 4511              	.LVL610:
 180:Src/kiss_fft.c ****         scratch[12].r = - S_MUL(scratch[10].i,yb.i) + S_MUL(scratch[9].i,ya.i);
 4512              		.loc 1 180 0
 4513 01d2 A3EE876A 		vfma.f32	s12, s7, s14
 165:Src/kiss_fft.c **** 
ARM GAS  /var/folders/k_/r2bh2pj93_jff4n9gmtn9jvr0000gn/T//ccAUK7QQ.s 			page 100


 4514              		.loc 1 165 0
 4515 01d6 74EE659A 		vsub.f32	s19, s8, s11
 163:Src/kiss_fft.c ****         C_ADD( scratch[8],scratch[2],scratch[3]);
 4516              		.loc 1 163 0
 4517 01da 38EE455A 		vsub.f32	s10, s16, s10
 164:Src/kiss_fft.c ****         C_SUB( scratch[9],scratch[2],scratch[3]);
 4518              		.loc 1 164 0
 4519 01de 74EE255A 		vadd.f32	s11, s8, s11
 4520              	.LVL611:
 170:Src/kiss_fft.c ****         scratch[5].i = scratch[0].i + S_MUL(scratch[7].i,ya.r) + S_MUL(scratch[8].i,yb.r);
 4521              		.loc 1 170 0
 4522 01e2 F0EE400A 		vmov.f32	s1, s0
 4523              	.LVL612:
 171:Src/kiss_fft.c **** 
 4524              		.loc 1 171 0
 4525 01e6 B0EE674A 		vmov.f32	s8, s15
 4526              	.LVL613:
 179:Src/kiss_fft.c ****         scratch[11].i = scratch[0].i + S_MUL(scratch[7].i,yb.r) + S_MUL(scratch[8].i,ya.r);
 4527              		.loc 1 179 0
 4528 01ea B0EE408A 		vmov.f32	s16, s0
 4529              	.LVL614:
 170:Src/kiss_fft.c ****         scratch[5].i = scratch[0].i + S_MUL(scratch[7].i,ya.r) + S_MUL(scratch[8].i,yb.r);
 4530              		.loc 1 170 0
 4531 01ee E3EEA80A 		vfma.f32	s1, s7, s17
 179:Src/kiss_fft.c ****         scratch[11].i = scratch[0].i + S_MUL(scratch[7].i,yb.r) + S_MUL(scratch[8].i,ya.r);
 4532              		.loc 1 179 0
 4533 01f2 A3EE288A 		vfma.f32	s16, s6, s17
 171:Src/kiss_fft.c **** 
 4534              		.loc 1 171 0
 4535 01f6 A3EEA64A 		vfma.f32	s8, s7, s13
 173:Src/kiss_fft.c ****         scratch[6].i = -S_MUL(scratch[10].r,ya.i) - S_MUL(scratch[9].r,yb.i);
 4536              		.loc 1 173 0
 4537 01fa 22EEAA1A 		vmul.f32	s2, s5, s21
 4538              	.LVL615:
 163:Src/kiss_fft.c ****         C_ADD( scratch[8],scratch[2],scratch[3]);
 4539              		.loc 1 163 0
 4540 01fe 39EE4AAA 		vsub.f32	s20, s18, s20
 173:Src/kiss_fft.c ****         scratch[6].i = -S_MUL(scratch[10].r,ya.i) - S_MUL(scratch[9].r,yb.i);
 4541              		.loc 1 173 0
 4542 0202 A2EE051A 		vfma.f32	s2, s4, s10
 180:Src/kiss_fft.c ****         scratch[12].r = - S_MUL(scratch[10].i,yb.i) + S_MUL(scratch[9].i,ya.i);
 4543              		.loc 1 180 0
 4544 0206 B0EE469A 		vmov.f32	s18, s12
 4545              	.LVL616:
 181:Src/kiss_fft.c ****         scratch[12].i = S_MUL(scratch[10].r,yb.i) - S_MUL(scratch[9].r,ya.i);
 4546              		.loc 1 181 0
 4547 020a 25EE625A 		vnmul.f32	s10, s10, s5
 174:Src/kiss_fft.c **** 
 4548              		.loc 1 174 0
 4549 020e 69EEE24A 		vnmul.f32	s9, s19, s5
 4550              	.LVL617:
 182:Src/kiss_fft.c **** 
 4551              		.loc 1 182 0
 4552 0212 29EEC26A 		vnmul.f32	s12, s19, s4
 170:Src/kiss_fft.c ****         scratch[5].i = scratch[0].i + S_MUL(scratch[7].i,ya.r) + S_MUL(scratch[8].i,yb.r);
 4553              		.loc 1 170 0
 4554 0216 E3EE250A 		vfma.f32	s1, s6, s11
ARM GAS  /var/folders/k_/r2bh2pj93_jff4n9gmtn9jvr0000gn/T//ccAUK7QQ.s 			page 101


 179:Src/kiss_fft.c ****         scratch[11].i = scratch[0].i + S_MUL(scratch[7].i,yb.r) + S_MUL(scratch[8].i,ya.r);
 4555              		.loc 1 179 0
 4556 021a A3EEA58A 		vfma.f32	s16, s7, s11
 171:Src/kiss_fft.c **** 
 4557              		.loc 1 171 0
 4558 021e A3EE074A 		vfma.f32	s8, s6, s14
 181:Src/kiss_fft.c ****         scratch[12].i = S_MUL(scratch[10].r,yb.i) - S_MUL(scratch[9].r,ya.i);
 4559              		.loc 1 181 0
 4560 0222 A2EE2A5A 		vfma.f32	s10, s4, s21
 174:Src/kiss_fft.c **** 
 4561              		.loc 1 174 0
 4562 0226 E1EE8A4A 		vfma.f32	s9, s3, s20
 182:Src/kiss_fft.c **** 
 4563              		.loc 1 182 0
 4564 022a A2EE8A6A 		vfma.f32	s12, s5, s20
 168:Src/kiss_fft.c **** 
 4565              		.loc 1 168 0
 4566 022e 36EE877A 		vadd.f32	s14, s13, s14
 167:Src/kiss_fft.c ****         Fout0->i += scratch[7].i + scratch[8].i;
 4567              		.loc 1 167 0
 4568 0232 78EEA55A 		vadd.f32	s11, s17, s11
 168:Src/kiss_fft.c **** 
 4569              		.loc 1 168 0
 4570 0236 77EE277A 		vadd.f32	s15, s14, s15
 4571              	.LVL618:
 176:Src/kiss_fft.c ****         C_ADD(*Fout4,scratch[5],scratch[6]);
 4572              		.loc 1 176 0
 4573 023a 70EEC18A 		vsub.f32	s17, s1, s2
 184:Src/kiss_fft.c ****         C_SUB(*Fout3,scratch[11],scratch[12]);
 4574              		.loc 1 184 0
 4575 023e 78EE056A 		vadd.f32	s13, s16, s10
 177:Src/kiss_fft.c **** 
 4576              		.loc 1 177 0
 4577 0242 30EE811A 		vadd.f32	s2, s1, s2
 184:Src/kiss_fft.c ****         C_SUB(*Fout3,scratch[11],scratch[12]);
 4578              		.loc 1 184 0
 4579 0246 39EE067A 		vadd.f32	s14, s18, s12
 176:Src/kiss_fft.c ****         C_ADD(*Fout4,scratch[5],scratch[6]);
 4580              		.loc 1 176 0
 4581 024a 74EE640A 		vsub.f32	s1, s8, s9
 167:Src/kiss_fft.c ****         Fout0->i += scratch[7].i + scratch[8].i;
 4582              		.loc 1 167 0
 4583 024e 75EE805A 		vadd.f32	s11, s11, s0
 177:Src/kiss_fft.c **** 
 4584              		.loc 1 177 0
 4585 0252 74EE244A 		vadd.f32	s9, s8, s9
 185:Src/kiss_fft.c **** 
 4586              		.loc 1 185 0
 4587 0256 38EE455A 		vsub.f32	s10, s16, s10
 4588 025a 39EE466A 		vsub.f32	s12, s18, s12
 168:Src/kiss_fft.c **** 
 4589              		.loc 1 168 0
 4590 025e 44ED037A 		vstr.32	s15, [r4, #-12]
 4591              	.LVL619:
 167:Src/kiss_fft.c ****         Fout0->i += scratch[7].i + scratch[8].i;
 4592              		.loc 1 167 0
 4593 0262 44ED045A 		vstr.32	s11, [r4, #-16]
ARM GAS  /var/folders/k_/r2bh2pj93_jff4n9gmtn9jvr0000gn/T//ccAUK7QQ.s 			page 102


 176:Src/kiss_fft.c ****         C_ADD(*Fout4,scratch[5],scratch[6]);
 4594              		.loc 1 176 0
 4595 0266 41ED048A 		vstr.32	s17, [r1, #-16]
 4596 026a 41ED030A 		vstr.32	s1, [r1, #-12]
 177:Src/kiss_fft.c **** 
 4597              		.loc 1 177 0
 4598 026e 0CED041A 		vstr.32	s2, [ip, #-16]
 4599 0272 4CED034A 		vstr.32	s9, [ip, #-12]
 184:Src/kiss_fft.c ****         C_SUB(*Fout3,scratch[11],scratch[12]);
 4600              		.loc 1 184 0
 4601 0276 42ED046A 		vstr.32	s13, [r2, #-16]
 4602 027a 02ED037A 		vstr.32	s14, [r2, #-12]
 185:Src/kiss_fft.c **** 
 4603              		.loc 1 185 0
 4604 027e 03ED045A 		vstr.32	s10, [r3, #-16]
 4605 0282 03ED036A 		vstr.32	s12, [r3, #-12]
 4606              	.LVL620:
 153:Src/kiss_fft.c ****         C_FIXDIV( *Fout0,5); C_FIXDIV( *Fout1,5); C_FIXDIV( *Fout2,5); C_FIXDIV( *Fout3,5); C_FIXDI
 4607              		.loc 1 153 0
 4608 0286 9E45     		cmp	lr, r3
 4609 0288 7FF443AF 		bne	.L303
 4610              	.LVL621:
 4611              	.L267:
 4612              	.LBE151:
 4613              	.LBE150:
 4614              	.LBE160:
 4615              	.LBE189:
 4616              	.LBE196:
 4617              	.LBE202:
 383:Src/kiss_fft.c ****     kiss_fft_stride(cfg,fin,fout,1);
 384:Src/kiss_fft.c **** }
 4618              		.loc 1 384 0
 4619 028c 09B0     		add	sp, sp, #36
 4620              	.LCFI60:
 4621              		.cfi_remember_state
 4622              		.cfi_def_cfa_offset 60
 4623              		@ sp needed
 4624 028e BDEC068B 		vldm	sp!, {d8-d10}
 4625              	.LCFI61:
 4626              		.cfi_restore 84
 4627              		.cfi_restore 85
 4628              		.cfi_restore 82
 4629              		.cfi_restore 83
 4630              		.cfi_restore 80
 4631              		.cfi_restore 81
 4632              		.cfi_def_cfa_offset 36
 4633 0292 BDE8F08F 		pop	{r4, r5, r6, r7, r8, r9, r10, fp, pc}
 4634              	.LVL622:
 4635              	.L294:
 4636              	.LCFI62:
 4637              		.cfi_restore_state
 4638              	.LBB203:
 4639              	.LBB197:
 4640              	.LBB190:
 4641              	.LBB161:
 4642              	.LBB152:
 4643              	.LBB153:
ARM GAS  /var/folders/k_/r2bh2pj93_jff4n9gmtn9jvr0000gn/T//ccAUK7QQ.s 			page 103


  57:Src/kiss_fft.c ****         C_MUL(scratch[1],Fout[m2] , *tw2 );
 4644              		.loc 1 57 0
 4645 0296 E900     		lsls	r1, r5, #3
  71:Src/kiss_fft.c ****             Fout[m].r = scratch[5].r - scratch[4].i;
 4646              		.loc 1 71 0
 4647 0298 029F     		ldr	r7, [sp, #8]
 4648 029a 6618     		adds	r6, r4, r1
 4649 029c 06EB0109 		add	r9, r6, r1
 4650 02a0 0A1D     		adds	r2, r1, #4
 4651 02a2 04EB0513 		add	r3, r4, r5, lsl #4
 4652 02a6 D7F804E0 		ldr	lr, [r7, #4]
 4653 02aa 2244     		add	r2, r2, r4
 4654 02ac 07F59078 		add	r8, r7, #288
 4655              	.LVL623:
 4656 02b0 07F58C7C 		add	ip, r7, #280
 4657 02b4 4944     		add	r1, r1, r9
 4658 02b6 0433     		adds	r3, r3, #4
 4659 02b8 0834     		adds	r4, r4, #8
 4660              	.LVL624:
 4661 02ba 07F58877 		add	r7, r7, #272
 4662 02be 4846     		mov	r0, r9
 4663 02c0 1BE0     		b	.L302
 4664              	.LVL625:
 4665              	.L317:
  72:Src/kiss_fft.c ****             Fout[m].i = scratch[5].i + scratch[4].r;
 4666              		.loc 1 72 0
 4667 02c2 42ED017A 		vstr.32	s15, [r2, #-4]
  73:Src/kiss_fft.c ****             Fout[m3].r = scratch[5].r + scratch[4].i;
 4668              		.loc 1 73 0
 4669 02c6 C6ED015A 		vstr.32	s11, [r6, #4]
  74:Src/kiss_fft.c ****             Fout[m3].i = scratch[5].i - scratch[4].r;
 4670              		.loc 1 74 0
 4671 02ca C1ED006A 		vstr.32	s13, [r1]
  75:Src/kiss_fft.c ****         }else{
 4672              		.loc 1 75 0
 4673 02ce 81ED017A 		vstr.32	s14, [r1, #4]
 4674              	.L301:
 4675              	.LVL626:
  83:Src/kiss_fft.c **** }
 4676              		.loc 1 83 0
 4677 02d2 013D     		subs	r5, r5, #1
 4678              	.LVL627:
 4679 02d4 04F10804 		add	r4, r4, #8
 4680 02d8 08F11808 		add	r8, r8, #24
 4681              	.LVL628:
 4682 02dc 0CF1100C 		add	ip, ip, #16
 4683              	.LVL629:
 4684 02e0 07F10807 		add	r7, r7, #8
 4685 02e4 06F10806 		add	r6, r6, #8
 4686 02e8 00F10800 		add	r0, r0, #8
 4687 02ec 01F10801 		add	r1, r1, #8
 4688 02f0 02F10802 		add	r2, r2, #8
 4689 02f4 03F10803 		add	r3, r3, #8
 4690 02f8 C8D0     		beq	.L267
 4691              	.LVL630:
 4692              	.L302:
  57:Src/kiss_fft.c ****         C_MUL(scratch[1],Fout[m2] , *tw2 );
ARM GAS  /var/folders/k_/r2bh2pj93_jff4n9gmtn9jvr0000gn/T//ccAUK7QQ.s 			page 104


 4693              		.loc 1 57 0
 4694 02fa D6ED017A 		vldr.32	s15, [r6, #4]
 4695 02fe 57ED018A 		vldr.32	s17, [r7, #-4]
 4696 0302 17ED028A 		vldr.32	s16, [r7, #-8]
 4697 0306 12ED010A 		vldr.32	s0, [r2, #-4]
  58:Src/kiss_fft.c ****         C_MUL(scratch[2],Fout[m3] , *tw3 );
 4698              		.loc 1 58 0
 4699 030a 1CED042A 		vldr.32	s4, [ip, #-16]
 4700 030e 90ED016A 		vldr.32	s12, [r0, #4]
  59:Src/kiss_fft.c **** 
 4701              		.loc 1 59 0
 4702 0312 18ED051A 		vldr.32	s2, [r8, #-20]
  58:Src/kiss_fft.c ****         C_MUL(scratch[2],Fout[m3] , *tw3 );
 4703              		.loc 1 58 0
 4704 0316 5CED032A 		vldr.32	s5, [ip, #-12]
  59:Src/kiss_fft.c **** 
 4705              		.loc 1 59 0
 4706 031a D1ED016A 		vldr.32	s13, [r1, #4]
 4707 031e 58ED060A 		vldr.32	s1, [r8, #-24]
 4708 0322 D1ED001A 		vldr.32	s3, [r1]
  58:Src/kiss_fft.c ****         C_MUL(scratch[2],Fout[m3] , *tw3 );
 4709              		.loc 1 58 0
 4710 0326 13ED013A 		vldr.32	s6, [r3, #-4]
  61:Src/kiss_fft.c ****         C_ADDTO(*Fout, scratch[1]);
 4711              		.loc 1 61 0
 4712 032a 54ED025A 		vldr.32	s11, [r4, #-8]
 4713 032e 54ED014A 		vldr.32	s9, [r4, #-4]
  57:Src/kiss_fft.c ****         C_MUL(scratch[1],Fout[m2] , *tw2 );
 4714              		.loc 1 57 0
 4715 0332 27EEE84A 		vnmul.f32	s8, s15, s17
 4716 0336 67EE887A 		vmul.f32	s15, s15, s16
  58:Src/kiss_fft.c ****         C_MUL(scratch[2],Fout[m3] , *tw3 );
 4717              		.loc 1 58 0
 4718 033a 66EE023A 		vmul.f32	s7, s12, s4
  57:Src/kiss_fft.c ****         C_MUL(scratch[1],Fout[m2] , *tw2 );
 4719              		.loc 1 57 0
 4720 033e E8EE807A 		vfma.f32	s15, s17, s0
  59:Src/kiss_fft.c **** 
 4721              		.loc 1 59 0
 4722 0342 26EEC15A 		vnmul.f32	s10, s13, s2
  58:Src/kiss_fft.c ****         C_MUL(scratch[2],Fout[m3] , *tw3 );
 4723              		.loc 1 58 0
 4724 0346 26EE627A 		vnmul.f32	s14, s12, s5
  59:Src/kiss_fft.c **** 
 4725              		.loc 1 59 0
 4726 034a 66EEA06A 		vmul.f32	s13, s13, s1
  57:Src/kiss_fft.c ****         C_MUL(scratch[1],Fout[m2] , *tw2 );
 4727              		.loc 1 57 0
 4728 034e B0EE676A 		vmov.f32	s12, s15
  58:Src/kiss_fft.c ****         C_MUL(scratch[2],Fout[m3] , *tw3 );
 4729              		.loc 1 58 0
 4730 0352 F0EE637A 		vmov.f32	s15, s7
  59:Src/kiss_fft.c **** 
 4731              		.loc 1 59 0
 4732 0356 E1EE216A 		vfma.f32	s13, s2, s3
  58:Src/kiss_fft.c ****         C_MUL(scratch[2],Fout[m3] , *tw3 );
 4733              		.loc 1 58 0
ARM GAS  /var/folders/k_/r2bh2pj93_jff4n9gmtn9jvr0000gn/T//ccAUK7QQ.s 			page 105


 4734 035a E2EE837A 		vfma.f32	s15, s5, s6
  59:Src/kiss_fft.c **** 
 4735              		.loc 1 59 0
 4736 035e A0EEA15A 		vfma.f32	s10, s1, s3
  58:Src/kiss_fft.c ****         C_MUL(scratch[2],Fout[m3] , *tw3 );
 4737              		.loc 1 58 0
 4738 0362 A2EE037A 		vfma.f32	s14, s4, s6
  57:Src/kiss_fft.c ****         C_MUL(scratch[1],Fout[m2] , *tw2 );
 4739              		.loc 1 57 0
 4740 0366 A8EE004A 		vfma.f32	s8, s16, s0
 4741              	.LVL631:
  62:Src/kiss_fft.c ****         C_ADD( scratch[3] , scratch[0] , scratch[2] );
 4742              		.loc 1 62 0
 4743 036a 35EE872A 		vadd.f32	s4, s11, s14
 4744 036e 34EEA73A 		vadd.f32	s6, s9, s15
  63:Src/kiss_fft.c ****         C_SUB( scratch[4] , scratch[0] , scratch[2] );
 4745              		.loc 1 63 0
 4746 0372 75EE042A 		vadd.f32	s5, s10, s8
 4747 0376 76EE863A 		vadd.f32	s7, s13, s12
  65:Src/kiss_fft.c ****         tw1 += fstride;
 4748              		.loc 1 65 0
 4749 037a 32EE621A 		vsub.f32	s2, s4, s5
 4750 037e 73EE631A 		vsub.f32	s3, s6, s7
  62:Src/kiss_fft.c ****         C_ADD( scratch[3] , scratch[0] , scratch[2] );
 4751              		.loc 1 62 0
 4752 0382 04ED022A 		vstr.32	s4, [r4, #-8]
 4753 0386 04ED013A 		vstr.32	s6, [r4, #-4]
  65:Src/kiss_fft.c ****         tw1 += fstride;
 4754              		.loc 1 65 0
 4755 038a 03ED011A 		vstr.32	s2, [r3, #-4]
 4756 038e C0ED011A 		vstr.32	s3, [r0, #4]
  69:Src/kiss_fft.c **** 
 4757              		.loc 1 69 0
 4758 0392 14ED022A 		vldr.32	s4, [r4, #-8]
 4759 0396 14ED013A 		vldr.32	s6, [r4, #-4]
  61:Src/kiss_fft.c ****         C_ADDTO(*Fout, scratch[1]);
 4760              		.loc 1 61 0
 4761 039a 35EEC77A 		vsub.f32	s14, s11, s14
 4762              	.LVL632:
  64:Src/kiss_fft.c ****         C_SUB( Fout[m2], *Fout, scratch[3] );
 4763              		.loc 1 64 0
 4764 039e 34EE455A 		vsub.f32	s10, s8, s10
 4765              	.LVL633:
  61:Src/kiss_fft.c ****         C_ADDTO(*Fout, scratch[1]);
 4766              		.loc 1 61 0
 4767 03a2 74EEE75A 		vsub.f32	s11, s9, s15
 4768              	.LVL634:
  69:Src/kiss_fft.c **** 
 4769              		.loc 1 69 0
 4770 03a6 72EE222A 		vadd.f32	s5, s4, s5
 4771              	.LVL635:
  64:Src/kiss_fft.c ****         C_SUB( Fout[m2], *Fout, scratch[3] );
 4772              		.loc 1 64 0
 4773 03aa 76EE667A 		vsub.f32	s15, s12, s13
 4774              	.LVL636:
  69:Src/kiss_fft.c **** 
 4775              		.loc 1 69 0
ARM GAS  /var/folders/k_/r2bh2pj93_jff4n9gmtn9jvr0000gn/T//ccAUK7QQ.s 			page 106


 4776 03ae 73EE233A 		vadd.f32	s7, s6, s7
 4777              	.LVL637:
 4778 03b2 77EE876A 		vadd.f32	s13, s15, s14
 4779              	.LVL638:
 4780 03b6 44ED022A 		vstr.32	s5, [r4, #-8]
 4781 03ba 77EE677A 		vsub.f32	s15, s14, s15
 4782 03be 44ED013A 		vstr.32	s7, [r4, #-4]
 4783 03c2 35EEC57A 		vsub.f32	s14, s11, s10
 4784 03c6 75EE255A 		vadd.f32	s11, s10, s11
  71:Src/kiss_fft.c ****             Fout[m].r = scratch[5].r - scratch[4].i;
 4785              		.loc 1 71 0
 4786 03ca BEF1000F 		cmp	lr, #0
 4787 03ce 7FF478AF 		bne	.L317
  77:Src/kiss_fft.c ****             Fout[m].i = scratch[5].i - scratch[4].r;
 4788              		.loc 1 77 0
 4789 03d2 42ED016A 		vstr.32	s13, [r2, #-4]
  78:Src/kiss_fft.c ****             Fout[m3].r = scratch[5].r - scratch[4].i;
 4790              		.loc 1 78 0
 4791 03d6 86ED017A 		vstr.32	s14, [r6, #4]
  79:Src/kiss_fft.c ****             Fout[m3].i = scratch[5].i + scratch[4].r;
 4792              		.loc 1 79 0
 4793 03da C1ED007A 		vstr.32	s15, [r1]
  80:Src/kiss_fft.c ****         }
 4794              		.loc 1 80 0
 4795 03de C1ED015A 		vstr.32	s11, [r1, #4]
 4796 03e2 76E7     		b	.L301
 4797              	.LVL639:
 4798              	.L293:
 4799              	.LBE153:
 4800              	.LBE152:
 4801              	.LBB154:
 4802              	.LBB155:
  98:Src/kiss_fft.c **** 
 4803              		.loc 1 98 0
 4804 03e4 029A     		ldr	r2, [sp, #8]
 4805              	.LBE155:
 4806              	.LBE154:
 291:Src/kiss_fft.c ****         case 4: kf_bfly4(Fout,fstride,st,m); break;
 4807              		.loc 1 291 0
 4808 03e6 A946     		mov	r9, r5
 4809              	.LVL640:
 4810 03e8 2135     		adds	r5, r5, #33
 4811              	.LVL641:
 4812 03ea ED00     		lsls	r5, r5, #3
 4813              	.LBB157:
 4814              	.LBB156:
  98:Src/kiss_fft.c **** 
 4815              		.loc 1 98 0
 4816 03ec 5319     		adds	r3, r2, r5
 105:Src/kiss_fft.c ****          C_MUL(scratch[2],Fout[m2] , *tw2);
 4817              		.loc 1 105 0
 4818 03ee A5F58477 		sub	r7, r5, #264
  98:Src/kiss_fft.c **** 
 4819              		.loc 1 98 0
 4820 03f2 93ED01AA 		vldr.32	s20, [r3, #4]
 4821              	.LVL642:
 4822 03f6 E619     		adds	r6, r4, r7
ARM GAS  /var/folders/k_/r2bh2pj93_jff4n9gmtn9jvr0000gn/T//ccAUK7QQ.s 			page 107


 4823 03f8 04EB091A 		add	r10, r4, r9, lsl #4
 4824              	.LVL643:
 4825 03fc A5F58275 		sub	r5, r5, #260
 4826 0400 2544     		add	r5, r5, r4
 4827 0402 F1EE4AAA 		vneg.f32	s21, s20
 4828 0406 3744     		add	r7, r7, r6
 4829 0408 0AF1040A 		add	r10, r10, #4
 4830 040c 0834     		adds	r4, r4, #8
 4831              	.LVL644:
 4832 040e 02F5887B 		add	fp, r2, #272
 4833 0412 02F58C78 		add	r8, r2, #280
 4834              	.LVL645:
 4835              	.L298:
 105:Src/kiss_fft.c ****          C_MUL(scratch[2],Fout[m2] , *tw2);
 4836              		.loc 1 105 0
