ARM GAS  /var/folders/k_/r2bh2pj93_jff4n9gmtn9jvr0000gn/T//ccQW0Cft.s 			page 1


   1              		.cpu cortex-m4
   2              		.eabi_attribute 27, 1
   3              		.eabi_attribute 28, 1
   4              		.eabi_attribute 20, 1
   5              		.eabi_attribute 21, 1
   6              		.eabi_attribute 23, 3
   7              		.eabi_attribute 24, 1
   8              		.eabi_attribute 25, 1
   9              		.eabi_attribute 26, 1
  10              		.eabi_attribute 30, 1
  11              		.eabi_attribute 34, 1
  12              		.eabi_attribute 18, 4
  13              		.file	"sdadc.c"
  14              		.text
  15              	.Ltext0:
  16              		.cfi_sections	.debug_frame
  17              		.section	.text.MX_SDADC1_Init,"ax",%progbits
  18              		.align	1
  19              		.global	MX_SDADC1_Init
  20              		.syntax unified
  21              		.thumb
  22              		.thumb_func
  23              		.fpu fpv4-sp-d16
  25              	MX_SDADC1_Init:
  26              	.LFB126:
  27              		.file 1 "Src/sdadc.c"
   1:Src/sdadc.c   **** /**
   2:Src/sdadc.c   ****   ******************************************************************************
   3:Src/sdadc.c   ****   * File Name          : SDADC.c
   4:Src/sdadc.c   ****   * Description        : This file provides code for the configuration
   5:Src/sdadc.c   ****   *                      of the SDADC instances.
   6:Src/sdadc.c   ****   ******************************************************************************
   7:Src/sdadc.c   ****   ** This notice applies to any and all portions of this file
   8:Src/sdadc.c   ****   * that are not between comment pairs USER CODE BEGIN and
   9:Src/sdadc.c   ****   * USER CODE END. Other portions of this file, whether 
  10:Src/sdadc.c   ****   * inserted by the user or by software development tools
  11:Src/sdadc.c   ****   * are owned by their respective copyright owners.
  12:Src/sdadc.c   ****   *
  13:Src/sdadc.c   ****   * COPYRIGHT(c) 2020 STMicroelectronics
  14:Src/sdadc.c   ****   *
  15:Src/sdadc.c   ****   * Redistribution and use in source and binary forms, with or without modification,
  16:Src/sdadc.c   ****   * are permitted provided that the following conditions are met:
  17:Src/sdadc.c   ****   *   1. Redistributions of source code must retain the above copyright notice,
  18:Src/sdadc.c   ****   *      this list of conditions and the following disclaimer.
  19:Src/sdadc.c   ****   *   2. Redistributions in binary form must reproduce the above copyright notice,
  20:Src/sdadc.c   ****   *      this list of conditions and the following disclaimer in the documentation
  21:Src/sdadc.c   ****   *      and/or other materials provided with the distribution.
  22:Src/sdadc.c   ****   *   3. Neither the name of STMicroelectronics nor the names of its contributors
  23:Src/sdadc.c   ****   *      may be used to endorse or promote products derived from this software
  24:Src/sdadc.c   ****   *      without specific prior written permission.
  25:Src/sdadc.c   ****   *
  26:Src/sdadc.c   ****   * THIS SOFTWARE IS PROVIDED BY THE COPYRIGHT HOLDERS AND CONTRIBUTORS "AS IS"
  27:Src/sdadc.c   ****   * AND ANY EXPRESS OR IMPLIED WARRANTIES, INCLUDING, BUT NOT LIMITED TO, THE
  28:Src/sdadc.c   ****   * IMPLIED WARRANTIES OF MERCHANTABILITY AND FITNESS FOR A PARTICULAR PURPOSE ARE
  29:Src/sdadc.c   ****   * DISCLAIMED. IN NO EVENT SHALL THE COPYRIGHT HOLDER OR CONTRIBUTORS BE LIABLE
  30:Src/sdadc.c   ****   * FOR ANY DIRECT, INDIRECT, INCIDENTAL, SPECIAL, EXEMPLARY, OR CONSEQUENTIAL
  31:Src/sdadc.c   ****   * DAMAGES (INCLUDING, BUT NOT LIMITED TO, PROCUREMENT OF SUBSTITUTE GOODS OR
ARM GAS  /var/folders/k_/r2bh2pj93_jff4n9gmtn9jvr0000gn/T//ccQW0Cft.s 			page 2


  32:Src/sdadc.c   ****   * SERVICES; LOSS OF USE, DATA, OR PROFITS; OR BUSINESS INTERRUPTION) HOWEVER
  33:Src/sdadc.c   ****   * CAUSED AND ON ANY THEORY OF LIABILITY, WHETHER IN CONTRACT, STRICT LIABILITY,
  34:Src/sdadc.c   ****   * OR TORT (INCLUDING NEGLIGENCE OR OTHERWISE) ARISING IN ANY WAY OUT OF THE USE
  35:Src/sdadc.c   ****   * OF THIS SOFTWARE, EVEN IF ADVISED OF THE POSSIBILITY OF SUCH DAMAGE.
  36:Src/sdadc.c   ****   *
  37:Src/sdadc.c   ****   ******************************************************************************
  38:Src/sdadc.c   ****   */
  39:Src/sdadc.c   **** 
  40:Src/sdadc.c   **** /* Includes ------------------------------------------------------------------*/
  41:Src/sdadc.c   **** #include "sdadc.h"
  42:Src/sdadc.c   **** 
  43:Src/sdadc.c   **** /* USER CODE BEGIN 0 */
  44:Src/sdadc.c   **** 
  45:Src/sdadc.c   **** /* USER CODE END 0 */
  46:Src/sdadc.c   **** 
  47:Src/sdadc.c   **** SDADC_HandleTypeDef hsdadc1;
  48:Src/sdadc.c   **** SDADC_HandleTypeDef hsdadc2;
  49:Src/sdadc.c   **** SDADC_HandleTypeDef hsdadc3;
  50:Src/sdadc.c   **** DMA_HandleTypeDef hdma_sdadc1;
  51:Src/sdadc.c   **** DMA_HandleTypeDef hdma_sdadc2;
  52:Src/sdadc.c   **** DMA_HandleTypeDef hdma_sdadc3;
  53:Src/sdadc.c   **** 
  54:Src/sdadc.c   **** /* SDADC1 init function */
  55:Src/sdadc.c   **** void MX_SDADC1_Init(void)
  56:Src/sdadc.c   **** {
  28              		.loc 1 56 0
  29              		.cfi_startproc
  30              		@ args = 0, pretend = 0, frame = 16
  31              		@ frame_needed = 0, uses_anonymous_args = 0
  32 0000 00B5     		push	{lr}
  33              	.LCFI0:
  34              		.cfi_def_cfa_offset 4
  35              		.cfi_offset 14, -4
  36 0002 85B0     		sub	sp, sp, #20
  37              	.LCFI1:
  38              		.cfi_def_cfa_offset 24
  57:Src/sdadc.c   ****   SDADC_ConfParamTypeDef ConfParamStruct = {0};
  39              		.loc 1 57 0
  40 0004 0023     		movs	r3, #0
  41 0006 0093     		str	r3, [sp]
  42 0008 0193     		str	r3, [sp, #4]
  43 000a 0293     		str	r3, [sp, #8]
  44 000c 0393     		str	r3, [sp, #12]
  58:Src/sdadc.c   **** 
  59:Src/sdadc.c   ****   /**Configure the SDADC low power mode, fast conversion mode,
  60:Src/sdadc.c   ****   slow clock mode and SDADC1 reference voltage 
  61:Src/sdadc.c   ****   */
  62:Src/sdadc.c   ****   hsdadc1.Instance = SDADC1;
  45              		.loc 1 62 0
  46 000e 2A48     		ldr	r0, .L17
  47 0010 2A4A     		ldr	r2, .L17+4
  48 0012 0260     		str	r2, [r0]
  63:Src/sdadc.c   ****   hsdadc1.Init.IdleLowPowerMode = SDADC_LOWPOWER_NONE;
  49              		.loc 1 63 0
  50 0014 4360     		str	r3, [r0, #4]
  64:Src/sdadc.c   ****   hsdadc1.Init.FastConversionMode = SDADC_FAST_CONV_ENABLE;
  51              		.loc 1 64 0
ARM GAS  /var/folders/k_/r2bh2pj93_jff4n9gmtn9jvr0000gn/T//ccQW0Cft.s 			page 3


  52 0016 4FF08072 		mov	r2, #16777216
  53 001a 8260     		str	r2, [r0, #8]
  65:Src/sdadc.c   ****   hsdadc1.Init.SlowClockMode = SDADC_SLOW_CLOCK_DISABLE;
  54              		.loc 1 65 0
  55 001c C360     		str	r3, [r0, #12]
  66:Src/sdadc.c   ****   hsdadc1.Init.ReferenceVoltage = SDADC_VREF_VDDA;
  56              		.loc 1 66 0
  57 001e 4FF44073 		mov	r3, #768
  58 0022 0361     		str	r3, [r0, #16]
  67:Src/sdadc.c   ****   hsdadc1.InjectedTrigger = SDADC_EXTERNAL_TRIGGER;
  59              		.loc 1 67 0
  60 0024 0223     		movs	r3, #2
  61 0026 C362     		str	r3, [r0, #44]
  68:Src/sdadc.c   ****   hsdadc1.ExtTriggerEdge = SDADC_EXT_TRIG_RISING_EDGE;
  62              		.loc 1 68 0
  63 0028 4FF40053 		mov	r3, #8192
  64 002c 0363     		str	r3, [r0, #48]
  69:Src/sdadc.c   ****   if (HAL_SDADC_Init(&hsdadc1) != HAL_OK)
  65              		.loc 1 69 0
  66 002e FFF7FEFF 		bl	HAL_SDADC_Init
  67              	.LVL0:
  68 0032 58BB     		cbnz	r0, .L10
  69              	.L2:
  70:Src/sdadc.c   ****   {
  71:Src/sdadc.c   ****     Error_Handler();
  72:Src/sdadc.c   ****   }
  73:Src/sdadc.c   ****   /**Configure the Injected Mode 
  74:Src/sdadc.c   ****   */
  75:Src/sdadc.c   ****   if (HAL_SDADC_SelectInjectedDelay(&hsdadc1, SDADC_INJECTED_DELAY_NONE) != HAL_OK)
  70              		.loc 1 75 0
  71 0034 0021     		movs	r1, #0
  72 0036 2048     		ldr	r0, .L17
  73 0038 FFF7FEFF 		bl	HAL_SDADC_SelectInjectedDelay
  74              	.LVL1:
  75 003c 48BB     		cbnz	r0, .L11
  76              	.L3:
  76:Src/sdadc.c   ****   {
  77:Src/sdadc.c   ****     Error_Handler();
  78:Src/sdadc.c   ****   }
  79:Src/sdadc.c   ****   if (HAL_SDADC_SelectInjectedExtTrigger(&hsdadc1, SDADC_EXT_TRIG_TIM13_CC1, SDADC_EXT_TRIG_RISING_
  77              		.loc 1 79 0
  78 003e 4FF40052 		mov	r2, #8192
  79 0042 0021     		movs	r1, #0
  80 0044 1C48     		ldr	r0, .L17
  81 0046 FFF7FEFF 		bl	HAL_SDADC_SelectInjectedExtTrigger
  82              	.LVL2:
  83 004a 28BB     		cbnz	r0, .L12
  84              	.L4:
  80:Src/sdadc.c   ****   {
  81:Src/sdadc.c   ****     Error_Handler();
  82:Src/sdadc.c   ****   }
  83:Src/sdadc.c   ****   if (HAL_SDADC_SelectInjectedTrigger(&hsdadc1, SDADC_EXTERNAL_TRIGGER) != HAL_OK)
  85              		.loc 1 83 0
  86 004c 0221     		movs	r1, #2
  87 004e 1A48     		ldr	r0, .L17
  88 0050 FFF7FEFF 		bl	HAL_SDADC_SelectInjectedTrigger
  89              	.LVL3:
ARM GAS  /var/folders/k_/r2bh2pj93_jff4n9gmtn9jvr0000gn/T//ccQW0Cft.s 			page 4


  90 0054 18BB     		cbnz	r0, .L13
  91              	.L5:
  84:Src/sdadc.c   ****   {
  85:Src/sdadc.c   ****     Error_Handler();
  86:Src/sdadc.c   ****   }
  87:Src/sdadc.c   ****   if (HAL_SDADC_InjectedConfigChannel(&hsdadc1, SDADC_CHANNEL_6, SDADC_CONTINUOUS_CONV_ON) != HAL_O
  92              		.loc 1 87 0
  93 0056 0122     		movs	r2, #1
  94 0058 1949     		ldr	r1, .L17+8
  95 005a 1748     		ldr	r0, .L17
  96 005c FFF7FEFF 		bl	HAL_SDADC_InjectedConfigChannel
  97              	.LVL4:
  98 0060 00BB     		cbnz	r0, .L14
  99              	.L6:
  88:Src/sdadc.c   ****   {
  89:Src/sdadc.c   ****     Error_Handler();
  90:Src/sdadc.c   ****   }
  91:Src/sdadc.c   ****   /**Set parameters for SDADC configuration 0 Register 
  92:Src/sdadc.c   ****   */
  93:Src/sdadc.c   ****   ConfParamStruct.InputMode = SDADC_INPUT_MODE_SE_ZERO_REFERENCE;
 100              		.loc 1 93 0
 101 0062 4FF04063 		mov	r3, #201326592
 102 0066 0093     		str	r3, [sp]
  94:Src/sdadc.c   ****   ConfParamStruct.Gain = SDADC_GAIN_1;
 103              		.loc 1 94 0
 104 0068 0021     		movs	r1, #0
 105 006a 0191     		str	r1, [sp, #4]
  95:Src/sdadc.c   ****   ConfParamStruct.CommonMode = SDADC_COMMON_MODE_VSSA;
 106              		.loc 1 95 0
 107 006c 0291     		str	r1, [sp, #8]
  96:Src/sdadc.c   ****   ConfParamStruct.Offset = 0;
 108              		.loc 1 96 0
 109 006e 0391     		str	r1, [sp, #12]
  97:Src/sdadc.c   ****   if (HAL_SDADC_PrepareChannelConfig(&hsdadc1, SDADC_CONF_INDEX_0, &ConfParamStruct) != HAL_OK)
 110              		.loc 1 97 0
 111 0070 6A46     		mov	r2, sp
 112 0072 1148     		ldr	r0, .L17
 113 0074 FFF7FEFF 		bl	HAL_SDADC_PrepareChannelConfig
 114              	.LVL5:
 115 0078 B8B9     		cbnz	r0, .L15
 116              	.L7:
  98:Src/sdadc.c   ****   {
  99:Src/sdadc.c   ****     Error_Handler();
 100:Src/sdadc.c   ****   }
 101:Src/sdadc.c   ****   /**Configure the Injected Channel 
 102:Src/sdadc.c   ****   */
 103:Src/sdadc.c   ****   if (HAL_SDADC_AssociateChannelConfig(&hsdadc1, SDADC_CHANNEL_6, SDADC_CONF_INDEX_0) != HAL_OK)
 117              		.loc 1 103 0
 118 007a 0022     		movs	r2, #0
 119 007c 1049     		ldr	r1, .L17+8
 120 007e 0E48     		ldr	r0, .L17
 121 0080 FFF7FEFF 		bl	HAL_SDADC_AssociateChannelConfig
 122              	.LVL6:
 123 0084 A0B9     		cbnz	r0, .L16
 124              	.L1:
 104:Src/sdadc.c   ****   {
 105:Src/sdadc.c   ****     Error_Handler();
ARM GAS  /var/folders/k_/r2bh2pj93_jff4n9gmtn9jvr0000gn/T//ccQW0Cft.s 			page 5


 106:Src/sdadc.c   ****   }
 107:Src/sdadc.c   **** 
 108:Src/sdadc.c   **** }
 125              		.loc 1 108 0
 126 0086 05B0     		add	sp, sp, #20
 127              	.LCFI2:
 128              		.cfi_remember_state
 129              		.cfi_def_cfa_offset 4
 130              		@ sp needed
 131 0088 5DF804FB 		ldr	pc, [sp], #4
 132              	.L10:
 133              	.LCFI3:
 134              		.cfi_restore_state
  71:Src/sdadc.c   ****   }
 135              		.loc 1 71 0
 136 008c FFF7FEFF 		bl	Error_Handler
 137              	.LVL7:
 138 0090 D0E7     		b	.L2
 139              	.L11:
  77:Src/sdadc.c   ****   }
 140              		.loc 1 77 0
 141 0092 FFF7FEFF 		bl	Error_Handler
 142              	.LVL8:
 143 0096 D2E7     		b	.L3
 144              	.L12:
  81:Src/sdadc.c   ****   }
 145              		.loc 1 81 0
 146 0098 FFF7FEFF 		bl	Error_Handler
 147              	.LVL9:
 148 009c D6E7     		b	.L4
 149              	.L13:
  85:Src/sdadc.c   ****   }
 150              		.loc 1 85 0
 151 009e FFF7FEFF 		bl	Error_Handler
 152              	.LVL10:
 153 00a2 D8E7     		b	.L5
 154              	.L14:
  89:Src/sdadc.c   ****   }
 155              		.loc 1 89 0
 156 00a4 FFF7FEFF 		bl	Error_Handler
 157              	.LVL11:
 158 00a8 DBE7     		b	.L6
 159              	.L15:
  99:Src/sdadc.c   ****   }
 160              		.loc 1 99 0
 161 00aa FFF7FEFF 		bl	Error_Handler
 162              	.LVL12:
 163 00ae E4E7     		b	.L7
 164              	.L16:
 105:Src/sdadc.c   ****   }
 165              		.loc 1 105 0
 166 00b0 FFF7FEFF 		bl	Error_Handler
 167              	.LVL13:
 168              		.loc 1 108 0
 169 00b4 E7E7     		b	.L1
 170              	.L18:
 171 00b6 00BF     		.align	2
ARM GAS  /var/folders/k_/r2bh2pj93_jff4n9gmtn9jvr0000gn/T//ccQW0Cft.s 			page 6


 172              	.L17:
 173 00b8 00000000 		.word	hsdadc1
 174 00bc 00600140 		.word	1073831936
 175 00c0 40000600 		.word	393280
 176              		.cfi_endproc
 177              	.LFE126:
 179              		.section	.text.MX_SDADC2_Init,"ax",%progbits
 180              		.align	1
 181              		.global	MX_SDADC2_Init
 182              		.syntax unified
 183              		.thumb
 184              		.thumb_func
 185              		.fpu fpv4-sp-d16
 187              	MX_SDADC2_Init:
 188              	.LFB127:
 109:Src/sdadc.c   **** /* SDADC2 init function */
 110:Src/sdadc.c   **** void MX_SDADC2_Init(void)
 111:Src/sdadc.c   **** {
 189              		.loc 1 111 0
 190              		.cfi_startproc
 191              		@ args = 0, pretend = 0, frame = 16
 192              		@ frame_needed = 0, uses_anonymous_args = 0
 193 0000 00B5     		push	{lr}
 194              	.LCFI4:
 195              		.cfi_def_cfa_offset 4
 196              		.cfi_offset 14, -4
 197 0002 85B0     		sub	sp, sp, #20
 198              	.LCFI5:
 199              		.cfi_def_cfa_offset 24
 112:Src/sdadc.c   ****   SDADC_ConfParamTypeDef ConfParamStruct = {0};
 200              		.loc 1 112 0
 201 0004 0023     		movs	r3, #0
 202 0006 0093     		str	r3, [sp]
 203 0008 0193     		str	r3, [sp, #4]
 204 000a 0293     		str	r3, [sp, #8]
 205 000c 0393     		str	r3, [sp, #12]
 113:Src/sdadc.c   **** 
 114:Src/sdadc.c   ****   /**Configure the SDADC low power mode, fast conversion mode,
 115:Src/sdadc.c   ****   slow clock mode and SDADC1 reference voltage 
 116:Src/sdadc.c   ****   */
 117:Src/sdadc.c   ****   hsdadc2.Instance = SDADC2;
 206              		.loc 1 117 0
 207 000e 1448     		ldr	r0, .L27
 208 0010 144A     		ldr	r2, .L27+4
 209 0012 0260     		str	r2, [r0]
 118:Src/sdadc.c   ****   hsdadc2.Init.IdleLowPowerMode = SDADC_LOWPOWER_NONE;
 210              		.loc 1 118 0
 211 0014 4360     		str	r3, [r0, #4]
 119:Src/sdadc.c   ****   hsdadc2.Init.FastConversionMode = SDADC_FAST_CONV_DISABLE;
 212              		.loc 1 119 0
 213 0016 8360     		str	r3, [r0, #8]
 120:Src/sdadc.c   ****   hsdadc2.Init.SlowClockMode = SDADC_SLOW_CLOCK_DISABLE;
 214              		.loc 1 120 0
 215 0018 C360     		str	r3, [r0, #12]
 121:Src/sdadc.c   ****   hsdadc2.Init.ReferenceVoltage = SDADC_VREF_VDDA;
 216              		.loc 1 121 0
 217 001a 4FF44073 		mov	r3, #768
ARM GAS  /var/folders/k_/r2bh2pj93_jff4n9gmtn9jvr0000gn/T//ccQW0Cft.s 			page 7


 218 001e 0361     		str	r3, [r0, #16]
 122:Src/sdadc.c   ****   if (HAL_SDADC_Init(&hsdadc2) != HAL_OK)
 219              		.loc 1 122 0
 220 0020 FFF7FEFF 		bl	HAL_SDADC_Init
 221              	.LVL14:
 222 0024 98B9     		cbnz	r0, .L24
 223              	.L20:
 123:Src/sdadc.c   ****   {
 124:Src/sdadc.c   ****     Error_Handler();
 125:Src/sdadc.c   ****   }
 126:Src/sdadc.c   ****   /**Configure The Regular Mode 
 127:Src/sdadc.c   ****   */
 128:Src/sdadc.c   ****   if (HAL_SDADC_SelectRegularTrigger(&hsdadc2, SDADC_SOFTWARE_TRIGGER) != HAL_OK)
 224              		.loc 1 128 0
 225 0026 0021     		movs	r1, #0
 226 0028 0D48     		ldr	r0, .L27
 227 002a FFF7FEFF 		bl	HAL_SDADC_SelectRegularTrigger
 228              	.LVL15:
 229 002e 88B9     		cbnz	r0, .L25
 230              	.L21:
 129:Src/sdadc.c   ****   {
 130:Src/sdadc.c   ****     Error_Handler();
 131:Src/sdadc.c   ****   }
 132:Src/sdadc.c   ****   /**Set parameters for SDADC configuration 0 Register 
 133:Src/sdadc.c   ****   */
 134:Src/sdadc.c   ****   ConfParamStruct.InputMode = SDADC_INPUT_MODE_SE_ZERO_REFERENCE;
 231              		.loc 1 134 0
 232 0030 4FF04063 		mov	r3, #201326592
 233 0034 0093     		str	r3, [sp]
 135:Src/sdadc.c   ****   ConfParamStruct.Gain = SDADC_GAIN_1;
 234              		.loc 1 135 0
 235 0036 0021     		movs	r1, #0
 236 0038 0191     		str	r1, [sp, #4]
 136:Src/sdadc.c   ****   ConfParamStruct.CommonMode = SDADC_COMMON_MODE_VSSA;
 237              		.loc 1 136 0
 238 003a 0291     		str	r1, [sp, #8]
 137:Src/sdadc.c   ****   ConfParamStruct.Offset = 0;
 239              		.loc 1 137 0
 240 003c 0391     		str	r1, [sp, #12]
 138:Src/sdadc.c   ****   if (HAL_SDADC_PrepareChannelConfig(&hsdadc2, SDADC_CONF_INDEX_0, &ConfParamStruct) != HAL_OK)
 241              		.loc 1 138 0
 242 003e 6A46     		mov	r2, sp
 243 0040 0748     		ldr	r0, .L27
 244 0042 FFF7FEFF 		bl	HAL_SDADC_PrepareChannelConfig
 245              	.LVL16:
 246 0046 40B9     		cbnz	r0, .L26
 247              	.L19:
 139:Src/sdadc.c   ****   {
 140:Src/sdadc.c   ****     Error_Handler();
 141:Src/sdadc.c   ****   }
 142:Src/sdadc.c   **** 
 143:Src/sdadc.c   **** }
 248              		.loc 1 143 0
 249 0048 05B0     		add	sp, sp, #20
 250              	.LCFI6:
 251              		.cfi_remember_state
 252              		.cfi_def_cfa_offset 4
ARM GAS  /var/folders/k_/r2bh2pj93_jff4n9gmtn9jvr0000gn/T//ccQW0Cft.s 			page 8


 253              		@ sp needed
 254 004a 5DF804FB 		ldr	pc, [sp], #4
 255              	.L24:
 256              	.LCFI7:
 257              		.cfi_restore_state
 124:Src/sdadc.c   ****   }
 258              		.loc 1 124 0
 259 004e FFF7FEFF 		bl	Error_Handler
 260              	.LVL17:
 261 0052 E8E7     		b	.L20
 262              	.L25:
 130:Src/sdadc.c   ****   }
 263              		.loc 1 130 0
 264 0054 FFF7FEFF 		bl	Error_Handler
 265              	.LVL18:
 266 0058 EAE7     		b	.L21
 267              	.L26:
 140:Src/sdadc.c   ****   }
 268              		.loc 1 140 0
 269 005a FFF7FEFF 		bl	Error_Handler
 270              	.LVL19:
 271              		.loc 1 143 0
 272 005e F3E7     		b	.L19
 273              	.L28:
 274              		.align	2
 275              	.L27:
 276 0060 00000000 		.word	hsdadc2
 277 0064 00640140 		.word	1073832960
 278              		.cfi_endproc
 279              	.LFE127:
 281              		.section	.text.MX_SDADC3_Init,"ax",%progbits
 282              		.align	1
 283              		.global	MX_SDADC3_Init
 284              		.syntax unified
 285              		.thumb
 286              		.thumb_func
 287              		.fpu fpv4-sp-d16
 289              	MX_SDADC3_Init:
 290              	.LFB128:
 144:Src/sdadc.c   **** /* SDADC3 init function */
 145:Src/sdadc.c   **** void MX_SDADC3_Init(void)
 146:Src/sdadc.c   **** {
 291              		.loc 1 146 0
 292              		.cfi_startproc
 293              		@ args = 0, pretend = 0, frame = 16
 294              		@ frame_needed = 0, uses_anonymous_args = 0
 295 0000 00B5     		push	{lr}
 296              	.LCFI8:
 297              		.cfi_def_cfa_offset 4
 298              		.cfi_offset 14, -4
 299 0002 85B0     		sub	sp, sp, #20
 300              	.LCFI9:
 301              		.cfi_def_cfa_offset 24
 147:Src/sdadc.c   ****   SDADC_ConfParamTypeDef ConfParamStruct = {0};
 302              		.loc 1 147 0
 303 0004 0023     		movs	r3, #0
 304 0006 0093     		str	r3, [sp]
ARM GAS  /var/folders/k_/r2bh2pj93_jff4n9gmtn9jvr0000gn/T//ccQW0Cft.s 			page 9


 305 0008 0193     		str	r3, [sp, #4]
 306 000a 0293     		str	r3, [sp, #8]
 307 000c 0393     		str	r3, [sp, #12]
 148:Src/sdadc.c   **** 
 149:Src/sdadc.c   ****   /**Configure the SDADC low power mode, fast conversion mode,
 150:Src/sdadc.c   ****   slow clock mode and SDADC1 reference voltage 
 151:Src/sdadc.c   ****   */
 152:Src/sdadc.c   ****   hsdadc3.Instance = SDADC3;
 308              		.loc 1 152 0
 309 000e 1448     		ldr	r0, .L37
 310 0010 144A     		ldr	r2, .L37+4
 311 0012 0260     		str	r2, [r0]
 153:Src/sdadc.c   ****   hsdadc3.Init.IdleLowPowerMode = SDADC_LOWPOWER_NONE;
 312              		.loc 1 153 0
 313 0014 4360     		str	r3, [r0, #4]
 154:Src/sdadc.c   ****   hsdadc3.Init.FastConversionMode = SDADC_FAST_CONV_DISABLE;
 314              		.loc 1 154 0
 315 0016 8360     		str	r3, [r0, #8]
 155:Src/sdadc.c   ****   hsdadc3.Init.SlowClockMode = SDADC_SLOW_CLOCK_DISABLE;
 316              		.loc 1 155 0
 317 0018 C360     		str	r3, [r0, #12]
 156:Src/sdadc.c   ****   hsdadc3.Init.ReferenceVoltage = SDADC_VREF_VDDA;
 318              		.loc 1 156 0
 319 001a 4FF44073 		mov	r3, #768
 320 001e 0361     		str	r3, [r0, #16]
 157:Src/sdadc.c   ****   if (HAL_SDADC_Init(&hsdadc3) != HAL_OK)
 321              		.loc 1 157 0
 322 0020 FFF7FEFF 		bl	HAL_SDADC_Init
 323              	.LVL20:
 324 0024 98B9     		cbnz	r0, .L34
 325              	.L30:
 158:Src/sdadc.c   ****   {
 159:Src/sdadc.c   ****     Error_Handler();
 160:Src/sdadc.c   ****   }
 161:Src/sdadc.c   ****   /**Configure The Regular Mode 
 162:Src/sdadc.c   ****   */
 163:Src/sdadc.c   ****   if (HAL_SDADC_SelectRegularTrigger(&hsdadc3, SDADC_SOFTWARE_TRIGGER) != HAL_OK)
 326              		.loc 1 163 0
 327 0026 0021     		movs	r1, #0
 328 0028 0D48     		ldr	r0, .L37
 329 002a FFF7FEFF 		bl	HAL_SDADC_SelectRegularTrigger
 330              	.LVL21:
 331 002e 88B9     		cbnz	r0, .L35
 332              	.L31:
 164:Src/sdadc.c   ****   {
 165:Src/sdadc.c   ****     Error_Handler();
 166:Src/sdadc.c   ****   }
 167:Src/sdadc.c   ****   /**Set parameters for SDADC configuration 0 Register 
 168:Src/sdadc.c   ****   */
 169:Src/sdadc.c   ****   ConfParamStruct.InputMode = SDADC_INPUT_MODE_SE_ZERO_REFERENCE;
 333              		.loc 1 169 0
 334 0030 4FF04063 		mov	r3, #201326592
 335 0034 0093     		str	r3, [sp]
 170:Src/sdadc.c   ****   ConfParamStruct.Gain = SDADC_GAIN_1;
 336              		.loc 1 170 0
 337 0036 0021     		movs	r1, #0
 338 0038 0191     		str	r1, [sp, #4]
ARM GAS  /var/folders/k_/r2bh2pj93_jff4n9gmtn9jvr0000gn/T//ccQW0Cft.s 			page 10


 171:Src/sdadc.c   ****   ConfParamStruct.CommonMode = SDADC_COMMON_MODE_VSSA;
 339              		.loc 1 171 0
 340 003a 0291     		str	r1, [sp, #8]
 172:Src/sdadc.c   ****   ConfParamStruct.Offset = 0;
 341              		.loc 1 172 0
 342 003c 0391     		str	r1, [sp, #12]
 173:Src/sdadc.c   ****   if (HAL_SDADC_PrepareChannelConfig(&hsdadc3, SDADC_CONF_INDEX_0, &ConfParamStruct) != HAL_OK)
 343              		.loc 1 173 0
 344 003e 6A46     		mov	r2, sp
 345 0040 0748     		ldr	r0, .L37
 346 0042 FFF7FEFF 		bl	HAL_SDADC_PrepareChannelConfig
 347              	.LVL22:
 348 0046 40B9     		cbnz	r0, .L36
 349              	.L29:
 174:Src/sdadc.c   ****   {
 175:Src/sdadc.c   ****     Error_Handler();
 176:Src/sdadc.c   ****   }
 177:Src/sdadc.c   **** 
 178:Src/sdadc.c   **** }
 350              		.loc 1 178 0
 351 0048 05B0     		add	sp, sp, #20
 352              	.LCFI10:
 353              		.cfi_remember_state
 354              		.cfi_def_cfa_offset 4
 355              		@ sp needed
 356 004a 5DF804FB 		ldr	pc, [sp], #4
 357              	.L34:
 358              	.LCFI11:
 359              		.cfi_restore_state
 159:Src/sdadc.c   ****   }
 360              		.loc 1 159 0
 361 004e FFF7FEFF 		bl	Error_Handler
 362              	.LVL23:
 363 0052 E8E7     		b	.L30
 364              	.L35:
 165:Src/sdadc.c   ****   }
 365              		.loc 1 165 0
 366 0054 FFF7FEFF 		bl	Error_Handler
 367              	.LVL24:
 368 0058 EAE7     		b	.L31
 369              	.L36:
 175:Src/sdadc.c   ****   }
 370              		.loc 1 175 0
 371 005a FFF7FEFF 		bl	Error_Handler
 372              	.LVL25:
 373              		.loc 1 178 0
 374 005e F3E7     		b	.L29
 375              	.L38:
 376              		.align	2
 377              	.L37:
 378 0060 00000000 		.word	hsdadc3
 379 0064 00680140 		.word	1073833984
 380              		.cfi_endproc
 381              	.LFE128:
 383              		.section	.text.HAL_SDADC_MspInit,"ax",%progbits
 384              		.align	1
 385              		.global	HAL_SDADC_MspInit
ARM GAS  /var/folders/k_/r2bh2pj93_jff4n9gmtn9jvr0000gn/T//ccQW0Cft.s 			page 11


 386              		.syntax unified
 387              		.thumb
 388              		.thumb_func
 389              		.fpu fpv4-sp-d16
 391              	HAL_SDADC_MspInit:
 392              	.LFB129:
 179:Src/sdadc.c   **** 
 180:Src/sdadc.c   **** void HAL_SDADC_MspInit(SDADC_HandleTypeDef* sdadcHandle)
 181:Src/sdadc.c   **** {
 393              		.loc 1 181 0
 394              		.cfi_startproc
 395              		@ args = 0, pretend = 0, frame = 48
 396              		@ frame_needed = 0, uses_anonymous_args = 0
 397              	.LVL26:
 398 0000 30B5     		push	{r4, r5, lr}
 399              	.LCFI12:
 400              		.cfi_def_cfa_offset 12
 401              		.cfi_offset 4, -12
 402              		.cfi_offset 5, -8
 403              		.cfi_offset 14, -4
 404 0002 8DB0     		sub	sp, sp, #52
 405              	.LCFI13:
 406              		.cfi_def_cfa_offset 64
 407 0004 0446     		mov	r4, r0
 182:Src/sdadc.c   **** 
 183:Src/sdadc.c   ****   GPIO_InitTypeDef GPIO_InitStruct = {0};
 408              		.loc 1 183 0
 409 0006 0023     		movs	r3, #0
 410 0008 0793     		str	r3, [sp, #28]
 411 000a 0893     		str	r3, [sp, #32]
 412 000c 0993     		str	r3, [sp, #36]
 413 000e 0A93     		str	r3, [sp, #40]
 414 0010 0B93     		str	r3, [sp, #44]
 184:Src/sdadc.c   ****   if(sdadcHandle->Instance==SDADC1)
 415              		.loc 1 184 0
 416 0012 0368     		ldr	r3, [r0]
 417 0014 574A     		ldr	r2, .L53
 418 0016 9342     		cmp	r3, r2
 419 0018 07D0     		beq	.L47
 185:Src/sdadc.c   ****   {
 186:Src/sdadc.c   ****   /* USER CODE BEGIN SDADC1_MspInit 0 */
 187:Src/sdadc.c   **** 
 188:Src/sdadc.c   ****   /* USER CODE END SDADC1_MspInit 0 */
 189:Src/sdadc.c   ****     /* SDADC1 clock enable */
 190:Src/sdadc.c   ****     __HAL_RCC_SDADC1_CLK_ENABLE();
 191:Src/sdadc.c   ****   
 192:Src/sdadc.c   ****     __HAL_RCC_GPIOB_CLK_ENABLE();
 193:Src/sdadc.c   ****     /**SDADC1 GPIO Configuration    
 194:Src/sdadc.c   ****     PB0     ------> SDADC1_AIN6P 
 195:Src/sdadc.c   ****     */
 196:Src/sdadc.c   ****     GPIO_InitStruct.Pin = GPIO_PIN_0;
 197:Src/sdadc.c   ****     GPIO_InitStruct.Mode = GPIO_MODE_ANALOG;
 198:Src/sdadc.c   ****     GPIO_InitStruct.Pull = GPIO_NOPULL;
 199:Src/sdadc.c   ****     HAL_GPIO_Init(GPIOB, &GPIO_InitStruct);
 200:Src/sdadc.c   **** 
 201:Src/sdadc.c   ****     /* SDADC1 DMA Init */
 202:Src/sdadc.c   ****     /* SDADC1 Init */
ARM GAS  /var/folders/k_/r2bh2pj93_jff4n9gmtn9jvr0000gn/T//ccQW0Cft.s 			page 12


 203:Src/sdadc.c   ****     hdma_sdadc1.Instance = DMA2_Channel3;
 204:Src/sdadc.c   ****     hdma_sdadc1.Init.Direction = DMA_PERIPH_TO_MEMORY;
 205:Src/sdadc.c   ****     hdma_sdadc1.Init.PeriphInc = DMA_PINC_DISABLE;
 206:Src/sdadc.c   ****     hdma_sdadc1.Init.MemInc = DMA_MINC_ENABLE;
 207:Src/sdadc.c   ****     hdma_sdadc1.Init.PeriphDataAlignment = DMA_PDATAALIGN_HALFWORD;
 208:Src/sdadc.c   ****     hdma_sdadc1.Init.MemDataAlignment = DMA_MDATAALIGN_HALFWORD;
 209:Src/sdadc.c   ****     hdma_sdadc1.Init.Mode = DMA_NORMAL;
 210:Src/sdadc.c   ****     hdma_sdadc1.Init.Priority = DMA_PRIORITY_HIGH;
 211:Src/sdadc.c   ****     if (HAL_DMA_Init(&hdma_sdadc1) != HAL_OK)
 212:Src/sdadc.c   ****     {
 213:Src/sdadc.c   ****       Error_Handler();
 214:Src/sdadc.c   ****     }
 215:Src/sdadc.c   **** 
 216:Src/sdadc.c   ****     __HAL_LINKDMA(sdadcHandle,hdma,hdma_sdadc1);
 217:Src/sdadc.c   **** 
 218:Src/sdadc.c   ****   /* USER CODE BEGIN SDADC1_MspInit 1 */
 219:Src/sdadc.c   **** 
 220:Src/sdadc.c   ****   /* USER CODE END SDADC1_MspInit 1 */
 221:Src/sdadc.c   ****   }
 222:Src/sdadc.c   ****   else if(sdadcHandle->Instance==SDADC2)
 420              		.loc 1 222 0
 421 001a 574A     		ldr	r2, .L53+4
 422 001c 9342     		cmp	r3, r2
 423 001e 3BD0     		beq	.L48
 223:Src/sdadc.c   ****   {
 224:Src/sdadc.c   ****   /* USER CODE BEGIN SDADC2_MspInit 0 */
 225:Src/sdadc.c   **** 
 226:Src/sdadc.c   ****   /* USER CODE END SDADC2_MspInit 0 */
 227:Src/sdadc.c   ****     /* SDADC2 clock enable */
 228:Src/sdadc.c   ****     __HAL_RCC_SDADC2_CLK_ENABLE();
 229:Src/sdadc.c   ****   
 230:Src/sdadc.c   ****     __HAL_RCC_GPIOB_CLK_ENABLE();
 231:Src/sdadc.c   ****     /**SDADC2 GPIO Configuration    
 232:Src/sdadc.c   ****     PB2     ------> SDADC2_AIN6P 
 233:Src/sdadc.c   ****     */
 234:Src/sdadc.c   ****     GPIO_InitStruct.Pin = GPIO_PIN_2;
 235:Src/sdadc.c   ****     GPIO_InitStruct.Mode = GPIO_MODE_ANALOG;
 236:Src/sdadc.c   ****     GPIO_InitStruct.Pull = GPIO_NOPULL;
 237:Src/sdadc.c   ****     HAL_GPIO_Init(GPIOB, &GPIO_InitStruct);
 238:Src/sdadc.c   **** 
 239:Src/sdadc.c   ****     /* SDADC2 DMA Init */
 240:Src/sdadc.c   ****     /* SDADC2 Init */
 241:Src/sdadc.c   ****     hdma_sdadc2.Instance = DMA2_Channel4;
 242:Src/sdadc.c   ****     hdma_sdadc2.Init.Direction = DMA_PERIPH_TO_MEMORY;
 243:Src/sdadc.c   ****     hdma_sdadc2.Init.PeriphInc = DMA_PINC_DISABLE;
 244:Src/sdadc.c   ****     hdma_sdadc2.Init.MemInc = DMA_MINC_ENABLE;
 245:Src/sdadc.c   ****     hdma_sdadc2.Init.PeriphDataAlignment = DMA_PDATAALIGN_HALFWORD;
 246:Src/sdadc.c   ****     hdma_sdadc2.Init.MemDataAlignment = DMA_MDATAALIGN_HALFWORD;
 247:Src/sdadc.c   ****     hdma_sdadc2.Init.Mode = DMA_NORMAL;
 248:Src/sdadc.c   ****     hdma_sdadc2.Init.Priority = DMA_PRIORITY_HIGH;
 249:Src/sdadc.c   ****     if (HAL_DMA_Init(&hdma_sdadc2) != HAL_OK)
 250:Src/sdadc.c   ****     {
 251:Src/sdadc.c   ****       Error_Handler();
 252:Src/sdadc.c   ****     }
 253:Src/sdadc.c   **** 
 254:Src/sdadc.c   ****     __HAL_LINKDMA(sdadcHandle,hdma,hdma_sdadc2);
 255:Src/sdadc.c   **** 
ARM GAS  /var/folders/k_/r2bh2pj93_jff4n9gmtn9jvr0000gn/T//ccQW0Cft.s 			page 13


 256:Src/sdadc.c   ****   /* USER CODE BEGIN SDADC2_MspInit 1 */
 257:Src/sdadc.c   **** 
 258:Src/sdadc.c   ****   /* USER CODE END SDADC2_MspInit 1 */
 259:Src/sdadc.c   ****   }
 260:Src/sdadc.c   ****   else if(sdadcHandle->Instance==SDADC3)
 424              		.loc 1 260 0
 425 0020 564A     		ldr	r2, .L53+8
 426 0022 9342     		cmp	r3, r2
 427 0024 6FD0     		beq	.L49
 428              	.LVL27:
 429              	.L39:
 261:Src/sdadc.c   ****   {
 262:Src/sdadc.c   ****   /* USER CODE BEGIN SDADC3_MspInit 0 */
 263:Src/sdadc.c   **** 
 264:Src/sdadc.c   ****   /* USER CODE END SDADC3_MspInit 0 */
 265:Src/sdadc.c   ****     /* SDADC3 clock enable */
 266:Src/sdadc.c   ****     __HAL_RCC_SDADC3_CLK_ENABLE();
 267:Src/sdadc.c   ****   
 268:Src/sdadc.c   ****     __HAL_RCC_GPIOD_CLK_ENABLE();
 269:Src/sdadc.c   ****     /**SDADC3 GPIO Configuration    
 270:Src/sdadc.c   ****     PD8     ------> SDADC3_AIN6P 
 271:Src/sdadc.c   ****     */
 272:Src/sdadc.c   ****     GPIO_InitStruct.Pin = GPIO_PIN_8;
 273:Src/sdadc.c   ****     GPIO_InitStruct.Mode = GPIO_MODE_ANALOG;
 274:Src/sdadc.c   ****     GPIO_InitStruct.Pull = GPIO_NOPULL;
 275:Src/sdadc.c   ****     HAL_GPIO_Init(GPIOD, &GPIO_InitStruct);
 276:Src/sdadc.c   **** 
 277:Src/sdadc.c   ****     /* SDADC3 DMA Init */
 278:Src/sdadc.c   ****     /* SDADC3 Init */
 279:Src/sdadc.c   ****     hdma_sdadc3.Instance = DMA2_Channel5;
 280:Src/sdadc.c   ****     hdma_sdadc3.Init.Direction = DMA_PERIPH_TO_MEMORY;
 281:Src/sdadc.c   ****     hdma_sdadc3.Init.PeriphInc = DMA_PINC_DISABLE;
 282:Src/sdadc.c   ****     hdma_sdadc3.Init.MemInc = DMA_MINC_ENABLE;
 283:Src/sdadc.c   ****     hdma_sdadc3.Init.PeriphDataAlignment = DMA_PDATAALIGN_HALFWORD;
 284:Src/sdadc.c   ****     hdma_sdadc3.Init.MemDataAlignment = DMA_MDATAALIGN_HALFWORD;
 285:Src/sdadc.c   ****     hdma_sdadc3.Init.Mode = DMA_NORMAL;
 286:Src/sdadc.c   ****     hdma_sdadc3.Init.Priority = DMA_PRIORITY_HIGH;
 287:Src/sdadc.c   ****     if (HAL_DMA_Init(&hdma_sdadc3) != HAL_OK)
 288:Src/sdadc.c   ****     {
 289:Src/sdadc.c   ****       Error_Handler();
 290:Src/sdadc.c   ****     }
 291:Src/sdadc.c   **** 
 292:Src/sdadc.c   ****     __HAL_LINKDMA(sdadcHandle,hdma,hdma_sdadc3);
 293:Src/sdadc.c   **** 
 294:Src/sdadc.c   ****   /* USER CODE BEGIN SDADC3_MspInit 1 */
 295:Src/sdadc.c   **** 
 296:Src/sdadc.c   ****   /* USER CODE END SDADC3_MspInit 1 */
 297:Src/sdadc.c   ****   }
 298:Src/sdadc.c   **** }
 430              		.loc 1 298 0
 431 0026 0DB0     		add	sp, sp, #52
 432              	.LCFI14:
 433              		.cfi_remember_state
 434              		.cfi_def_cfa_offset 12
 435              		@ sp needed
 436 0028 30BD     		pop	{r4, r5, pc}
 437              	.LVL28:
ARM GAS  /var/folders/k_/r2bh2pj93_jff4n9gmtn9jvr0000gn/T//ccQW0Cft.s 			page 14


 438              	.L47:
 439              	.LCFI15:
 440              		.cfi_restore_state
 441              	.LBB2:
 190:Src/sdadc.c   ****   
 442              		.loc 1 190 0
 443 002a 554B     		ldr	r3, .L53+12
 444 002c 9A69     		ldr	r2, [r3, #24]
 445 002e 42F08072 		orr	r2, r2, #16777216
 446 0032 9A61     		str	r2, [r3, #24]
 447 0034 9A69     		ldr	r2, [r3, #24]
 448 0036 02F08072 		and	r2, r2, #16777216
 449 003a 0192     		str	r2, [sp, #4]
 450 003c 019A     		ldr	r2, [sp, #4]
 451              	.LBE2:
 452              	.LBB3:
 192:Src/sdadc.c   ****     /**SDADC1 GPIO Configuration    
 453              		.loc 1 192 0
 454 003e 5A69     		ldr	r2, [r3, #20]
 455 0040 42F48022 		orr	r2, r2, #262144
 456 0044 5A61     		str	r2, [r3, #20]
 457 0046 5B69     		ldr	r3, [r3, #20]
 458 0048 03F48023 		and	r3, r3, #262144
 459 004c 0293     		str	r3, [sp, #8]
 460 004e 029B     		ldr	r3, [sp, #8]
 461              	.LBE3:
 196:Src/sdadc.c   ****     GPIO_InitStruct.Mode = GPIO_MODE_ANALOG;
 462              		.loc 1 196 0
 463 0050 0123     		movs	r3, #1
 464 0052 0793     		str	r3, [sp, #28]
 197:Src/sdadc.c   ****     GPIO_InitStruct.Pull = GPIO_NOPULL;
 465              		.loc 1 197 0
 466 0054 0323     		movs	r3, #3
 467 0056 0893     		str	r3, [sp, #32]
 199:Src/sdadc.c   **** 
 468              		.loc 1 199 0
 469 0058 07A9     		add	r1, sp, #28
 470 005a 4A48     		ldr	r0, .L53+16
 471              	.LVL29:
 472 005c FFF7FEFF 		bl	HAL_GPIO_Init
 473              	.LVL30:
 203:Src/sdadc.c   ****     hdma_sdadc1.Init.Direction = DMA_PERIPH_TO_MEMORY;
 474              		.loc 1 203 0
 475 0060 4948     		ldr	r0, .L53+20
 476 0062 4A4B     		ldr	r3, .L53+24
 477 0064 0360     		str	r3, [r0]
 204:Src/sdadc.c   ****     hdma_sdadc1.Init.PeriphInc = DMA_PINC_DISABLE;
 478              		.loc 1 204 0
 479 0066 0023     		movs	r3, #0
 480 0068 4360     		str	r3, [r0, #4]
 205:Src/sdadc.c   ****     hdma_sdadc1.Init.MemInc = DMA_MINC_ENABLE;
 481              		.loc 1 205 0
 482 006a 8360     		str	r3, [r0, #8]
 206:Src/sdadc.c   ****     hdma_sdadc1.Init.PeriphDataAlignment = DMA_PDATAALIGN_HALFWORD;
 483              		.loc 1 206 0
 484 006c 8022     		movs	r2, #128
 485 006e C260     		str	r2, [r0, #12]
ARM GAS  /var/folders/k_/r2bh2pj93_jff4n9gmtn9jvr0000gn/T//ccQW0Cft.s 			page 15


 207:Src/sdadc.c   ****     hdma_sdadc1.Init.MemDataAlignment = DMA_MDATAALIGN_HALFWORD;
 486              		.loc 1 207 0
 487 0070 4FF48072 		mov	r2, #256
 488 0074 0261     		str	r2, [r0, #16]
 208:Src/sdadc.c   ****     hdma_sdadc1.Init.Mode = DMA_NORMAL;
 489              		.loc 1 208 0
 490 0076 4FF48062 		mov	r2, #1024
 491 007a 4261     		str	r2, [r0, #20]
 209:Src/sdadc.c   ****     hdma_sdadc1.Init.Priority = DMA_PRIORITY_HIGH;
 492              		.loc 1 209 0
 493 007c 8361     		str	r3, [r0, #24]
 210:Src/sdadc.c   ****     if (HAL_DMA_Init(&hdma_sdadc1) != HAL_OK)
 494              		.loc 1 210 0
 495 007e 4FF40053 		mov	r3, #8192
 496 0082 C361     		str	r3, [r0, #28]
 211:Src/sdadc.c   ****     {
 497              		.loc 1 211 0
 498 0084 FFF7FEFF 		bl	HAL_DMA_Init
 499              	.LVL31:
 500 0088 18B9     		cbnz	r0, .L50
 501              	.L41:
 216:Src/sdadc.c   **** 
 502              		.loc 1 216 0
 503 008a 3F4B     		ldr	r3, .L53+20
 504 008c 6361     		str	r3, [r4, #20]
 505 008e 5C62     		str	r4, [r3, #36]
 506 0090 C9E7     		b	.L39
 507              	.L50:
 213:Src/sdadc.c   ****     }
 508              		.loc 1 213 0
 509 0092 FFF7FEFF 		bl	Error_Handler
 510              	.LVL32:
 511 0096 F8E7     		b	.L41
 512              	.LVL33:
 513              	.L48:
 514              	.LBB4:
 228:Src/sdadc.c   ****   
 515              		.loc 1 228 0
 516 0098 394B     		ldr	r3, .L53+12
 517 009a 9A69     		ldr	r2, [r3, #24]
 518 009c 42F00072 		orr	r2, r2, #33554432
 519 00a0 9A61     		str	r2, [r3, #24]
 520 00a2 9A69     		ldr	r2, [r3, #24]
 521 00a4 02F00072 		and	r2, r2, #33554432
 522 00a8 0392     		str	r2, [sp, #12]
 523 00aa 039A     		ldr	r2, [sp, #12]
 524              	.LBE4:
 525              	.LBB5:
 230:Src/sdadc.c   ****     /**SDADC2 GPIO Configuration    
 526              		.loc 1 230 0
 527 00ac 5A69     		ldr	r2, [r3, #20]
 528 00ae 42F48022 		orr	r2, r2, #262144
 529 00b2 5A61     		str	r2, [r3, #20]
 530 00b4 5B69     		ldr	r3, [r3, #20]
 531 00b6 03F48023 		and	r3, r3, #262144
 532 00ba 0493     		str	r3, [sp, #16]
 533 00bc 049B     		ldr	r3, [sp, #16]
ARM GAS  /var/folders/k_/r2bh2pj93_jff4n9gmtn9jvr0000gn/T//ccQW0Cft.s 			page 16


 534              	.LBE5:
 234:Src/sdadc.c   ****     GPIO_InitStruct.Mode = GPIO_MODE_ANALOG;
 535              		.loc 1 234 0
 536 00be 0423     		movs	r3, #4
 537 00c0 0793     		str	r3, [sp, #28]
 235:Src/sdadc.c   ****     GPIO_InitStruct.Pull = GPIO_NOPULL;
 538              		.loc 1 235 0
 539 00c2 0323     		movs	r3, #3
 540 00c4 0893     		str	r3, [sp, #32]
 237:Src/sdadc.c   **** 
 541              		.loc 1 237 0
 542 00c6 07A9     		add	r1, sp, #28
 543 00c8 2E48     		ldr	r0, .L53+16
 544              	.LVL34:
 545 00ca FFF7FEFF 		bl	HAL_GPIO_Init
 546              	.LVL35:
 241:Src/sdadc.c   ****     hdma_sdadc2.Init.Direction = DMA_PERIPH_TO_MEMORY;
 547              		.loc 1 241 0
 548 00ce 3048     		ldr	r0, .L53+28
 549 00d0 304B     		ldr	r3, .L53+32
 550 00d2 0360     		str	r3, [r0]
 242:Src/sdadc.c   ****     hdma_sdadc2.Init.PeriphInc = DMA_PINC_DISABLE;
 551              		.loc 1 242 0
 552 00d4 0023     		movs	r3, #0
 553 00d6 4360     		str	r3, [r0, #4]
 243:Src/sdadc.c   ****     hdma_sdadc2.Init.MemInc = DMA_MINC_ENABLE;
 554              		.loc 1 243 0
 555 00d8 8360     		str	r3, [r0, #8]
 244:Src/sdadc.c   ****     hdma_sdadc2.Init.PeriphDataAlignment = DMA_PDATAALIGN_HALFWORD;
 556              		.loc 1 244 0
 557 00da 8022     		movs	r2, #128
 558 00dc C260     		str	r2, [r0, #12]
 245:Src/sdadc.c   ****     hdma_sdadc2.Init.MemDataAlignment = DMA_MDATAALIGN_HALFWORD;
 559              		.loc 1 245 0
 560 00de 4FF48072 		mov	r2, #256
 561 00e2 0261     		str	r2, [r0, #16]
 246:Src/sdadc.c   ****     hdma_sdadc2.Init.Mode = DMA_NORMAL;
 562              		.loc 1 246 0
 563 00e4 4FF48062 		mov	r2, #1024
 564 00e8 4261     		str	r2, [r0, #20]
 247:Src/sdadc.c   ****     hdma_sdadc2.Init.Priority = DMA_PRIORITY_HIGH;
 565              		.loc 1 247 0
 566 00ea 8361     		str	r3, [r0, #24]
 248:Src/sdadc.c   ****     if (HAL_DMA_Init(&hdma_sdadc2) != HAL_OK)
 567              		.loc 1 248 0
 568 00ec 4FF40053 		mov	r3, #8192
 569 00f0 C361     		str	r3, [r0, #28]
 249:Src/sdadc.c   ****     {
 570              		.loc 1 249 0
 571 00f2 FFF7FEFF 		bl	HAL_DMA_Init
 572              	.LVL36:
 573 00f6 18B9     		cbnz	r0, .L51
 574              	.L44:
 254:Src/sdadc.c   **** 
 575              		.loc 1 254 0
 576 00f8 254B     		ldr	r3, .L53+28
 577 00fa 6361     		str	r3, [r4, #20]
ARM GAS  /var/folders/k_/r2bh2pj93_jff4n9gmtn9jvr0000gn/T//ccQW0Cft.s 			page 17


 578 00fc 5C62     		str	r4, [r3, #36]
 579 00fe 92E7     		b	.L39
 580              	.L51:
 251:Src/sdadc.c   ****     }
 581              		.loc 1 251 0
 582 0100 FFF7FEFF 		bl	Error_Handler
 583              	.LVL37:
 584 0104 F8E7     		b	.L44
 585              	.LVL38:
 586              	.L49:
 587              	.LBB6:
 266:Src/sdadc.c   ****   
 588              		.loc 1 266 0
 589 0106 1E4B     		ldr	r3, .L53+12
 590 0108 9A69     		ldr	r2, [r3, #24]
 591 010a 42F08062 		orr	r2, r2, #67108864
 592 010e 9A61     		str	r2, [r3, #24]
 593 0110 9A69     		ldr	r2, [r3, #24]
 594 0112 02F08062 		and	r2, r2, #67108864
 595 0116 0592     		str	r2, [sp, #20]
 596 0118 059A     		ldr	r2, [sp, #20]
 597              	.LBE6:
 598              	.LBB7:
 268:Src/sdadc.c   ****     /**SDADC3 GPIO Configuration    
 599              		.loc 1 268 0
 600 011a 5A69     		ldr	r2, [r3, #20]
 601 011c 42F48012 		orr	r2, r2, #1048576
 602 0120 5A61     		str	r2, [r3, #20]
 603 0122 5B69     		ldr	r3, [r3, #20]
 604 0124 03F48013 		and	r3, r3, #1048576
 605 0128 0693     		str	r3, [sp, #24]
 606 012a 069B     		ldr	r3, [sp, #24]
 607              	.LBE7:
 272:Src/sdadc.c   ****     GPIO_InitStruct.Mode = GPIO_MODE_ANALOG;
 608              		.loc 1 272 0
 609 012c 4FF48075 		mov	r5, #256
 610 0130 0795     		str	r5, [sp, #28]
 273:Src/sdadc.c   ****     GPIO_InitStruct.Pull = GPIO_NOPULL;
 611              		.loc 1 273 0
 612 0132 0323     		movs	r3, #3
 613 0134 0893     		str	r3, [sp, #32]
 275:Src/sdadc.c   **** 
 614              		.loc 1 275 0
 615 0136 07A9     		add	r1, sp, #28
 616 0138 1748     		ldr	r0, .L53+36
 617              	.LVL39:
 618 013a FFF7FEFF 		bl	HAL_GPIO_Init
 619              	.LVL40:
 279:Src/sdadc.c   ****     hdma_sdadc3.Init.Direction = DMA_PERIPH_TO_MEMORY;
 620              		.loc 1 279 0
 621 013e 1748     		ldr	r0, .L53+40
 622 0140 174B     		ldr	r3, .L53+44
 623 0142 0360     		str	r3, [r0]
 280:Src/sdadc.c   ****     hdma_sdadc3.Init.PeriphInc = DMA_PINC_DISABLE;
 624              		.loc 1 280 0
 625 0144 0023     		movs	r3, #0
 626 0146 4360     		str	r3, [r0, #4]
ARM GAS  /var/folders/k_/r2bh2pj93_jff4n9gmtn9jvr0000gn/T//ccQW0Cft.s 			page 18


 281:Src/sdadc.c   ****     hdma_sdadc3.Init.MemInc = DMA_MINC_ENABLE;
 627              		.loc 1 281 0
 628 0148 8360     		str	r3, [r0, #8]
 282:Src/sdadc.c   ****     hdma_sdadc3.Init.PeriphDataAlignment = DMA_PDATAALIGN_HALFWORD;
 629              		.loc 1 282 0
 630 014a 8022     		movs	r2, #128
 631 014c C260     		str	r2, [r0, #12]
 283:Src/sdadc.c   ****     hdma_sdadc3.Init.MemDataAlignment = DMA_MDATAALIGN_HALFWORD;
 632              		.loc 1 283 0
 633 014e 0561     		str	r5, [r0, #16]
 284:Src/sdadc.c   ****     hdma_sdadc3.Init.Mode = DMA_NORMAL;
 634              		.loc 1 284 0
 635 0150 4FF48062 		mov	r2, #1024
 636 0154 4261     		str	r2, [r0, #20]
 285:Src/sdadc.c   ****     hdma_sdadc3.Init.Priority = DMA_PRIORITY_HIGH;
 637              		.loc 1 285 0
 638 0156 8361     		str	r3, [r0, #24]
 286:Src/sdadc.c   ****     if (HAL_DMA_Init(&hdma_sdadc3) != HAL_OK)
 639              		.loc 1 286 0
 640 0158 4FF40053 		mov	r3, #8192
 641 015c C361     		str	r3, [r0, #28]
 287:Src/sdadc.c   ****     {
 642              		.loc 1 287 0
 643 015e FFF7FEFF 		bl	HAL_DMA_Init
 644              	.LVL41:
 645 0162 18B9     		cbnz	r0, .L52
 646              	.L45:
 292:Src/sdadc.c   **** 
 647              		.loc 1 292 0
 648 0164 0D4B     		ldr	r3, .L53+40
 649 0166 6361     		str	r3, [r4, #20]
 650 0168 5C62     		str	r4, [r3, #36]
 651              		.loc 1 298 0
 652 016a 5CE7     		b	.L39
 653              	.L52:
 289:Src/sdadc.c   ****     }
 654              		.loc 1 289 0
 655 016c FFF7FEFF 		bl	Error_Handler
 656              	.LVL42:
 657 0170 F8E7     		b	.L45
 658              	.L54:
 659 0172 00BF     		.align	2
 660              	.L53:
 661 0174 00600140 		.word	1073831936
 662 0178 00640140 		.word	1073832960
 663 017c 00680140 		.word	1073833984
 664 0180 00100240 		.word	1073876992
 665 0184 00040048 		.word	1207960576
 666 0188 00000000 		.word	hdma_sdadc1
 667 018c 30040240 		.word	1073873968
 668 0190 00000000 		.word	hdma_sdadc2
 669 0194 44040240 		.word	1073873988
 670 0198 000C0048 		.word	1207962624
 671 019c 00000000 		.word	hdma_sdadc3
 672 01a0 58040240 		.word	1073874008
 673              		.cfi_endproc
 674              	.LFE129:
ARM GAS  /var/folders/k_/r2bh2pj93_jff4n9gmtn9jvr0000gn/T//ccQW0Cft.s 			page 19


 676              		.section	.text.HAL_SDADC_MspDeInit,"ax",%progbits
 677              		.align	1
 678              		.global	HAL_SDADC_MspDeInit
 679              		.syntax unified
 680              		.thumb
 681              		.thumb_func
 682              		.fpu fpv4-sp-d16
 684              	HAL_SDADC_MspDeInit:
 685              	.LFB130:
 299:Src/sdadc.c   **** 
 300:Src/sdadc.c   **** void HAL_SDADC_MspDeInit(SDADC_HandleTypeDef* sdadcHandle)
 301:Src/sdadc.c   **** {
 686              		.loc 1 301 0
 687              		.cfi_startproc
 688              		@ args = 0, pretend = 0, frame = 0
 689              		@ frame_needed = 0, uses_anonymous_args = 0
 690              	.LVL43:
 691 0000 10B5     		push	{r4, lr}
 692              	.LCFI16:
 693              		.cfi_def_cfa_offset 8
 694              		.cfi_offset 4, -8
 695              		.cfi_offset 14, -4
 696 0002 0446     		mov	r4, r0
 302:Src/sdadc.c   **** 
 303:Src/sdadc.c   ****   if(sdadcHandle->Instance==SDADC1)
 697              		.loc 1 303 0
 698 0004 0368     		ldr	r3, [r0]
 699 0006 1A4A     		ldr	r2, .L63
 700 0008 9342     		cmp	r3, r2
 701 000a 06D0     		beq	.L60
 304:Src/sdadc.c   ****   {
 305:Src/sdadc.c   ****   /* USER CODE BEGIN SDADC1_MspDeInit 0 */
 306:Src/sdadc.c   **** 
 307:Src/sdadc.c   ****   /* USER CODE END SDADC1_MspDeInit 0 */
 308:Src/sdadc.c   ****     /* Peripheral clock disable */
 309:Src/sdadc.c   ****     __HAL_RCC_SDADC1_CLK_DISABLE();
 310:Src/sdadc.c   ****   
 311:Src/sdadc.c   ****     /**SDADC1 GPIO Configuration    
 312:Src/sdadc.c   ****     PB0     ------> SDADC1_AIN6P 
 313:Src/sdadc.c   ****     */
 314:Src/sdadc.c   ****     HAL_GPIO_DeInit(GPIOB, GPIO_PIN_0);
 315:Src/sdadc.c   **** 
 316:Src/sdadc.c   ****     /* SDADC1 DMA DeInit */
 317:Src/sdadc.c   ****     HAL_DMA_DeInit(sdadcHandle->hdma);
 318:Src/sdadc.c   ****   /* USER CODE BEGIN SDADC1_MspDeInit 1 */
 319:Src/sdadc.c   **** 
 320:Src/sdadc.c   ****   /* USER CODE END SDADC1_MspDeInit 1 */
 321:Src/sdadc.c   ****   }
 322:Src/sdadc.c   ****   else if(sdadcHandle->Instance==SDADC2)
 702              		.loc 1 322 0
 703 000c 194A     		ldr	r2, .L63+4
 704 000e 9342     		cmp	r3, r2
 705 0010 11D0     		beq	.L61
 323:Src/sdadc.c   ****   {
 324:Src/sdadc.c   ****   /* USER CODE BEGIN SDADC2_MspDeInit 0 */
 325:Src/sdadc.c   **** 
 326:Src/sdadc.c   ****   /* USER CODE END SDADC2_MspDeInit 0 */
ARM GAS  /var/folders/k_/r2bh2pj93_jff4n9gmtn9jvr0000gn/T//ccQW0Cft.s 			page 20


 327:Src/sdadc.c   ****     /* Peripheral clock disable */
 328:Src/sdadc.c   ****     __HAL_RCC_SDADC2_CLK_DISABLE();
 329:Src/sdadc.c   ****   
 330:Src/sdadc.c   ****     /**SDADC2 GPIO Configuration    
 331:Src/sdadc.c   ****     PB2     ------> SDADC2_AIN6P 
 332:Src/sdadc.c   ****     */
 333:Src/sdadc.c   ****     HAL_GPIO_DeInit(GPIOB, GPIO_PIN_2);
 334:Src/sdadc.c   **** 
 335:Src/sdadc.c   ****     /* SDADC2 DMA DeInit */
 336:Src/sdadc.c   ****     HAL_DMA_DeInit(sdadcHandle->hdma);
 337:Src/sdadc.c   ****   /* USER CODE BEGIN SDADC2_MspDeInit 1 */
 338:Src/sdadc.c   **** 
 339:Src/sdadc.c   ****   /* USER CODE END SDADC2_MspDeInit 1 */
 340:Src/sdadc.c   ****   }
 341:Src/sdadc.c   ****   else if(sdadcHandle->Instance==SDADC3)
 706              		.loc 1 341 0
 707 0012 194A     		ldr	r2, .L63+8
 708 0014 9342     		cmp	r3, r2
 709 0016 1CD0     		beq	.L62
 710              	.LVL44:
 711              	.L55:
 342:Src/sdadc.c   ****   {
 343:Src/sdadc.c   ****   /* USER CODE BEGIN SDADC3_MspDeInit 0 */
 344:Src/sdadc.c   **** 
 345:Src/sdadc.c   ****   /* USER CODE END SDADC3_MspDeInit 0 */
 346:Src/sdadc.c   ****     /* Peripheral clock disable */
 347:Src/sdadc.c   ****     __HAL_RCC_SDADC3_CLK_DISABLE();
 348:Src/sdadc.c   ****   
 349:Src/sdadc.c   ****     /**SDADC3 GPIO Configuration    
 350:Src/sdadc.c   ****     PD8     ------> SDADC3_AIN6P 
 351:Src/sdadc.c   ****     */
 352:Src/sdadc.c   ****     HAL_GPIO_DeInit(GPIOD, GPIO_PIN_8);
 353:Src/sdadc.c   **** 
 354:Src/sdadc.c   ****     /* SDADC3 DMA DeInit */
 355:Src/sdadc.c   ****     HAL_DMA_DeInit(sdadcHandle->hdma);
 356:Src/sdadc.c   ****   /* USER CODE BEGIN SDADC3_MspDeInit 1 */
 357:Src/sdadc.c   **** 
 358:Src/sdadc.c   ****   /* USER CODE END SDADC3_MspDeInit 1 */
 359:Src/sdadc.c   ****   }
 360:Src/sdadc.c   **** } 
 712              		.loc 1 360 0
 713 0018 10BD     		pop	{r4, pc}
 714              	.LVL45:
 715              	.L60:
 309:Src/sdadc.c   ****   
 716              		.loc 1 309 0
 717 001a 02F53042 		add	r2, r2, #45056
 718 001e 9369     		ldr	r3, [r2, #24]
 719 0020 23F08073 		bic	r3, r3, #16777216
 720 0024 9361     		str	r3, [r2, #24]
 314:Src/sdadc.c   **** 
 721              		.loc 1 314 0
 722 0026 0121     		movs	r1, #1
 723 0028 1448     		ldr	r0, .L63+12
 724              	.LVL46:
 725 002a FFF7FEFF 		bl	HAL_GPIO_DeInit
 726              	.LVL47:
ARM GAS  /var/folders/k_/r2bh2pj93_jff4n9gmtn9jvr0000gn/T//ccQW0Cft.s 			page 21


 317:Src/sdadc.c   ****   /* USER CODE BEGIN SDADC1_MspDeInit 1 */
 727              		.loc 1 317 0
 728 002e 6069     		ldr	r0, [r4, #20]
 729 0030 FFF7FEFF 		bl	HAL_DMA_DeInit
 730              	.LVL48:
 731 0034 F0E7     		b	.L55
 732              	.LVL49:
 733              	.L61:
 328:Src/sdadc.c   ****   
 734              		.loc 1 328 0
 735 0036 02F52C42 		add	r2, r2, #44032
 736 003a 9369     		ldr	r3, [r2, #24]
 737 003c 23F00073 		bic	r3, r3, #33554432
 738 0040 9361     		str	r3, [r2, #24]
 333:Src/sdadc.c   **** 
 739              		.loc 1 333 0
 740 0042 0421     		movs	r1, #4
 741 0044 0D48     		ldr	r0, .L63+12
 742              	.LVL50:
 743 0046 FFF7FEFF 		bl	HAL_GPIO_DeInit
 744              	.LVL51:
 336:Src/sdadc.c   ****   /* USER CODE BEGIN SDADC2_MspDeInit 1 */
 745              		.loc 1 336 0
 746 004a 6069     		ldr	r0, [r4, #20]
 747 004c FFF7FEFF 		bl	HAL_DMA_DeInit
 748              	.LVL52:
 749 0050 E2E7     		b	.L55
 750              	.LVL53:
 751              	.L62:
 347:Src/sdadc.c   ****   
 752              		.loc 1 347 0
 753 0052 02F52842 		add	r2, r2, #43008
 754 0056 9369     		ldr	r3, [r2, #24]
 755 0058 23F08063 		bic	r3, r3, #67108864
 756 005c 9361     		str	r3, [r2, #24]
 352:Src/sdadc.c   **** 
 757              		.loc 1 352 0
 758 005e 4FF48071 		mov	r1, #256
 759 0062 0748     		ldr	r0, .L63+16
 760              	.LVL54:
 761 0064 FFF7FEFF 		bl	HAL_GPIO_DeInit
 762              	.LVL55:
 355:Src/sdadc.c   ****   /* USER CODE BEGIN SDADC3_MspDeInit 1 */
 763              		.loc 1 355 0
 764 0068 6069     		ldr	r0, [r4, #20]
 765 006a FFF7FEFF 		bl	HAL_DMA_DeInit
 766              	.LVL56:
 767              		.loc 1 360 0
 768 006e D3E7     		b	.L55
 769              	.L64:
 770              		.align	2
 771              	.L63:
 772 0070 00600140 		.word	1073831936
 773 0074 00640140 		.word	1073832960
 774 0078 00680140 		.word	1073833984
 775 007c 00040048 		.word	1207960576
 776 0080 000C0048 		.word	1207962624
ARM GAS  /var/folders/k_/r2bh2pj93_jff4n9gmtn9jvr0000gn/T//ccQW0Cft.s 			page 22


 777              		.cfi_endproc
 778              	.LFE130:
 780              		.comm	hdma_sdadc3,68,4
 781              		.comm	hdma_sdadc2,68,4
 782              		.comm	hdma_sdadc1,68,4
 783              		.comm	hsdadc3,68,4
 784              		.comm	hsdadc2,68,4
 785              		.comm	hsdadc1,68,4
 786              		.text
 787              	.Letext0:
 788              		.file 2 "/usr/local/Cellar/arm-none-eabi-gcc/7-2018-q2-update/gcc/arm-none-eabi/include/machine/_d
 789              		.file 3 "/usr/local/Cellar/arm-none-eabi-gcc/7-2018-q2-update/gcc/arm-none-eabi/include/sys/_stdin
 790              		.file 4 "Drivers/CMSIS/Include/core_cm4.h"
 791              		.file 5 "Drivers/CMSIS/Device/ST/STM32F3xx/Include/system_stm32f3xx.h"
 792              		.file 6 "Drivers/CMSIS/Device/ST/STM32F3xx/Include/stm32f373xc.h"
 793              		.file 7 "/usr/local/Cellar/arm-none-eabi-gcc/7-2018-q2-update/gcc/arm-none-eabi/include/sys/lock.h
 794              		.file 8 "/usr/local/Cellar/arm-none-eabi-gcc/7-2018-q2-update/gcc/arm-none-eabi/include/sys/_types
 795              		.file 9 "/usr/local/Cellar/arm-none-eabi-gcc/7-2018-q2-update/gcc/lib/gcc/arm-none-eabi/7.3.1/incl
 796              		.file 10 "/usr/local/Cellar/arm-none-eabi-gcc/7-2018-q2-update/gcc/arm-none-eabi/include/sys/reent
 797              		.file 11 "Drivers/STM32F3xx_HAL_Driver/Inc/stm32f3xx_hal_def.h"
 798              		.file 12 "Drivers/STM32F3xx_HAL_Driver/Inc/stm32f3xx_hal_gpio.h"
 799              		.file 13 "Drivers/STM32F3xx_HAL_Driver/Inc/stm32f3xx_hal_dma.h"
 800              		.file 14 "Drivers/STM32F3xx_HAL_Driver/Inc/stm32f3xx_hal_sdadc.h"
 801              		.file 15 "Drivers/STM32F3xx_HAL_Driver/Inc/stm32f3xx_hal.h"
 802              		.file 16 "Inc/sdadc.h"
 803              		.file 17 "Inc/main.h"
ARM GAS  /var/folders/k_/r2bh2pj93_jff4n9gmtn9jvr0000gn/T//ccQW0Cft.s 			page 23

