ARM GAS  /var/folders/80/65lm4rm97rv_n74c85vt01040000gn/T//ccntfwFR.s 			page 1


   1              		.cpu cortex-m4
   2              		.eabi_attribute 27, 1
   3              		.eabi_attribute 28, 1
   4              		.eabi_attribute 20, 1
   5              		.eabi_attribute 21, 1
   6              		.eabi_attribute 23, 3
   7              		.eabi_attribute 24, 1
   8              		.eabi_attribute 25, 1
   9              		.eabi_attribute 26, 1
  10              		.eabi_attribute 30, 1
  11              		.eabi_attribute 34, 1
  12              		.eabi_attribute 18, 4
  13              		.file	"stm32f3xx_hal_rcc.c"
  14              		.text
  15              	.Ltext0:
  16              		.cfi_sections	.debug_frame
  17              		.section	.text.HAL_RCC_DeInit,"ax",%progbits
  18              		.align	1
  19              		.global	HAL_RCC_DeInit
  20              		.arch armv7e-m
  21              		.syntax unified
  22              		.thumb
  23              		.thumb_func
  24              		.fpu fpv4-sp-d16
  26              	HAL_RCC_DeInit:
  27              	.LFB126:
  28              		.file 1 "Drivers/STM32F3xx_HAL_Driver/Src/stm32f3xx_hal_rcc.c"
   1:Drivers/STM32F3xx_HAL_Driver/Src/stm32f3xx_hal_rcc.c **** /**
   2:Drivers/STM32F3xx_HAL_Driver/Src/stm32f3xx_hal_rcc.c ****   ******************************************************************************
   3:Drivers/STM32F3xx_HAL_Driver/Src/stm32f3xx_hal_rcc.c ****   * @file    stm32f3xx_hal_rcc.c
   4:Drivers/STM32F3xx_HAL_Driver/Src/stm32f3xx_hal_rcc.c ****   * @author  MCD Application Team
   5:Drivers/STM32F3xx_HAL_Driver/Src/stm32f3xx_hal_rcc.c ****   * @brief   RCC HAL module driver.
   6:Drivers/STM32F3xx_HAL_Driver/Src/stm32f3xx_hal_rcc.c ****   *          This file provides firmware functions to manage the following 
   7:Drivers/STM32F3xx_HAL_Driver/Src/stm32f3xx_hal_rcc.c ****   *          functionalities of the Reset and Clock Control (RCC) peripheral:
   8:Drivers/STM32F3xx_HAL_Driver/Src/stm32f3xx_hal_rcc.c ****   *           + Initialization and de-initialization functions
   9:Drivers/STM32F3xx_HAL_Driver/Src/stm32f3xx_hal_rcc.c ****   *           + Peripheral Control functions
  10:Drivers/STM32F3xx_HAL_Driver/Src/stm32f3xx_hal_rcc.c ****   *       
  11:Drivers/STM32F3xx_HAL_Driver/Src/stm32f3xx_hal_rcc.c ****   @verbatim                
  12:Drivers/STM32F3xx_HAL_Driver/Src/stm32f3xx_hal_rcc.c ****   ==============================================================================
  13:Drivers/STM32F3xx_HAL_Driver/Src/stm32f3xx_hal_rcc.c ****                       ##### RCC specific features #####
  14:Drivers/STM32F3xx_HAL_Driver/Src/stm32f3xx_hal_rcc.c ****   ==============================================================================
  15:Drivers/STM32F3xx_HAL_Driver/Src/stm32f3xx_hal_rcc.c ****     [..]  
  16:Drivers/STM32F3xx_HAL_Driver/Src/stm32f3xx_hal_rcc.c ****       After reset the device is running from Internal High Speed oscillator
  17:Drivers/STM32F3xx_HAL_Driver/Src/stm32f3xx_hal_rcc.c ****       (HSI 8MHz) with Flash 0 wait state, Flash prefetch buffer is enabled, 
  18:Drivers/STM32F3xx_HAL_Driver/Src/stm32f3xx_hal_rcc.c ****       and all peripherals are off except internal SRAM, Flash and JTAG.
  19:Drivers/STM32F3xx_HAL_Driver/Src/stm32f3xx_hal_rcc.c ****       (+) There is no prescaler on High speed (AHB) and Low speed (APB) buses;
  20:Drivers/STM32F3xx_HAL_Driver/Src/stm32f3xx_hal_rcc.c ****           all peripherals mapped on these buses are running at HSI speed.
  21:Drivers/STM32F3xx_HAL_Driver/Src/stm32f3xx_hal_rcc.c ****       (+) The clock for all peripherals is switched off, except the SRAM and FLASH.
  22:Drivers/STM32F3xx_HAL_Driver/Src/stm32f3xx_hal_rcc.c ****       (+) All GPIOs are in input floating state, except the JTAG pins which
  23:Drivers/STM32F3xx_HAL_Driver/Src/stm32f3xx_hal_rcc.c ****           are assigned to be used for debug purpose.
  24:Drivers/STM32F3xx_HAL_Driver/Src/stm32f3xx_hal_rcc.c ****     [..] Once the device started from reset, the user application has to:
  25:Drivers/STM32F3xx_HAL_Driver/Src/stm32f3xx_hal_rcc.c ****       (+) Configure the clock source to be used to drive the System clock
  26:Drivers/STM32F3xx_HAL_Driver/Src/stm32f3xx_hal_rcc.c ****           (if the application needs higher frequency/performance)
  27:Drivers/STM32F3xx_HAL_Driver/Src/stm32f3xx_hal_rcc.c ****       (+) Configure the System clock frequency and Flash settings  
  28:Drivers/STM32F3xx_HAL_Driver/Src/stm32f3xx_hal_rcc.c ****       (+) Configure the AHB and APB buses prescalers
  29:Drivers/STM32F3xx_HAL_Driver/Src/stm32f3xx_hal_rcc.c ****       (+) Enable the clock for the peripheral(s) to be used
  30:Drivers/STM32F3xx_HAL_Driver/Src/stm32f3xx_hal_rcc.c ****       (+) Configure the clock source(s) for peripherals whose clocks are not
ARM GAS  /var/folders/80/65lm4rm97rv_n74c85vt01040000gn/T//ccntfwFR.s 			page 2


  31:Drivers/STM32F3xx_HAL_Driver/Src/stm32f3xx_hal_rcc.c ****           derived from the System clock (RTC, ADC, I2C, I2S, TIM, USB FS)
  32:Drivers/STM32F3xx_HAL_Driver/Src/stm32f3xx_hal_rcc.c **** 
  33:Drivers/STM32F3xx_HAL_Driver/Src/stm32f3xx_hal_rcc.c ****                       ##### RCC Limitations #####
  34:Drivers/STM32F3xx_HAL_Driver/Src/stm32f3xx_hal_rcc.c ****   ==============================================================================
  35:Drivers/STM32F3xx_HAL_Driver/Src/stm32f3xx_hal_rcc.c ****     [..]  
  36:Drivers/STM32F3xx_HAL_Driver/Src/stm32f3xx_hal_rcc.c ****       A delay between an RCC peripheral clock enable and the effective peripheral 
  37:Drivers/STM32F3xx_HAL_Driver/Src/stm32f3xx_hal_rcc.c ****       enabling should be taken into account in order to manage the peripheral read/write 
  38:Drivers/STM32F3xx_HAL_Driver/Src/stm32f3xx_hal_rcc.c ****       from/to registers.
  39:Drivers/STM32F3xx_HAL_Driver/Src/stm32f3xx_hal_rcc.c ****       (+) This delay depends on the peripheral mapping.
  40:Drivers/STM32F3xx_HAL_Driver/Src/stm32f3xx_hal_rcc.c ****         (++) AHB & APB peripherals, 1 dummy read is necessary
  41:Drivers/STM32F3xx_HAL_Driver/Src/stm32f3xx_hal_rcc.c **** 
  42:Drivers/STM32F3xx_HAL_Driver/Src/stm32f3xx_hal_rcc.c ****     [..]  
  43:Drivers/STM32F3xx_HAL_Driver/Src/stm32f3xx_hal_rcc.c ****       Workarounds:
  44:Drivers/STM32F3xx_HAL_Driver/Src/stm32f3xx_hal_rcc.c ****       (#) For AHB & APB peripherals, a dummy read to the peripheral register has been
  45:Drivers/STM32F3xx_HAL_Driver/Src/stm32f3xx_hal_rcc.c ****           inserted in each __HAL_RCC_PPP_CLK_ENABLE() macro.
  46:Drivers/STM32F3xx_HAL_Driver/Src/stm32f3xx_hal_rcc.c **** 
  47:Drivers/STM32F3xx_HAL_Driver/Src/stm32f3xx_hal_rcc.c ****   @endverbatim
  48:Drivers/STM32F3xx_HAL_Driver/Src/stm32f3xx_hal_rcc.c ****   ******************************************************************************
  49:Drivers/STM32F3xx_HAL_Driver/Src/stm32f3xx_hal_rcc.c ****   * @attention
  50:Drivers/STM32F3xx_HAL_Driver/Src/stm32f3xx_hal_rcc.c ****   *
  51:Drivers/STM32F3xx_HAL_Driver/Src/stm32f3xx_hal_rcc.c ****   * <h2><center>&copy; COPYRIGHT(c) 2016 STMicroelectronics</center></h2>
  52:Drivers/STM32F3xx_HAL_Driver/Src/stm32f3xx_hal_rcc.c ****   *
  53:Drivers/STM32F3xx_HAL_Driver/Src/stm32f3xx_hal_rcc.c ****   * Redistribution and use in source and binary forms, with or without modification,
  54:Drivers/STM32F3xx_HAL_Driver/Src/stm32f3xx_hal_rcc.c ****   * are permitted provided that the following conditions are met:
  55:Drivers/STM32F3xx_HAL_Driver/Src/stm32f3xx_hal_rcc.c ****   *   1. Redistributions of source code must retain the above copyright notice,
  56:Drivers/STM32F3xx_HAL_Driver/Src/stm32f3xx_hal_rcc.c ****   *      this list of conditions and the following disclaimer.
  57:Drivers/STM32F3xx_HAL_Driver/Src/stm32f3xx_hal_rcc.c ****   *   2. Redistributions in binary form must reproduce the above copyright notice,
  58:Drivers/STM32F3xx_HAL_Driver/Src/stm32f3xx_hal_rcc.c ****   *      this list of conditions and the following disclaimer in the documentation
  59:Drivers/STM32F3xx_HAL_Driver/Src/stm32f3xx_hal_rcc.c ****   *      and/or other materials provided with the distribution.
  60:Drivers/STM32F3xx_HAL_Driver/Src/stm32f3xx_hal_rcc.c ****   *   3. Neither the name of STMicroelectronics nor the names of its contributors
  61:Drivers/STM32F3xx_HAL_Driver/Src/stm32f3xx_hal_rcc.c ****   *      may be used to endorse or promote products derived from this software
  62:Drivers/STM32F3xx_HAL_Driver/Src/stm32f3xx_hal_rcc.c ****   *      without specific prior written permission.
  63:Drivers/STM32F3xx_HAL_Driver/Src/stm32f3xx_hal_rcc.c ****   *
  64:Drivers/STM32F3xx_HAL_Driver/Src/stm32f3xx_hal_rcc.c ****   * THIS SOFTWARE IS PROVIDED BY THE COPYRIGHT HOLDERS AND CONTRIBUTORS "AS IS"
  65:Drivers/STM32F3xx_HAL_Driver/Src/stm32f3xx_hal_rcc.c ****   * AND ANY EXPRESS OR IMPLIED WARRANTIES, INCLUDING, BUT NOT LIMITED TO, THE
  66:Drivers/STM32F3xx_HAL_Driver/Src/stm32f3xx_hal_rcc.c ****   * IMPLIED WARRANTIES OF MERCHANTABILITY AND FITNESS FOR A PARTICULAR PURPOSE ARE
  67:Drivers/STM32F3xx_HAL_Driver/Src/stm32f3xx_hal_rcc.c ****   * DISCLAIMED. IN NO EVENT SHALL THE COPYRIGHT HOLDER OR CONTRIBUTORS BE LIABLE
  68:Drivers/STM32F3xx_HAL_Driver/Src/stm32f3xx_hal_rcc.c ****   * FOR ANY DIRECT, INDIRECT, INCIDENTAL, SPECIAL, EXEMPLARY, OR CONSEQUENTIAL
  69:Drivers/STM32F3xx_HAL_Driver/Src/stm32f3xx_hal_rcc.c ****   * DAMAGES (INCLUDING, BUT NOT LIMITED TO, PROCUREMENT OF SUBSTITUTE GOODS OR
  70:Drivers/STM32F3xx_HAL_Driver/Src/stm32f3xx_hal_rcc.c ****   * SERVICES; LOSS OF USE, DATA, OR PROFITS; OR BUSINESS INTERRUPTION) HOWEVER
  71:Drivers/STM32F3xx_HAL_Driver/Src/stm32f3xx_hal_rcc.c ****   * CAUSED AND ON ANY THEORY OF LIABILITY, WHETHER IN CONTRACT, STRICT LIABILITY,
  72:Drivers/STM32F3xx_HAL_Driver/Src/stm32f3xx_hal_rcc.c ****   * OR TORT (INCLUDING NEGLIGENCE OR OTHERWISE) ARISING IN ANY WAY OUT OF THE USE
  73:Drivers/STM32F3xx_HAL_Driver/Src/stm32f3xx_hal_rcc.c ****   * OF THIS SOFTWARE, EVEN IF ADVISED OF THE POSSIBILITY OF SUCH DAMAGE.
  74:Drivers/STM32F3xx_HAL_Driver/Src/stm32f3xx_hal_rcc.c ****   *
  75:Drivers/STM32F3xx_HAL_Driver/Src/stm32f3xx_hal_rcc.c ****   ******************************************************************************  
  76:Drivers/STM32F3xx_HAL_Driver/Src/stm32f3xx_hal_rcc.c **** */
  77:Drivers/STM32F3xx_HAL_Driver/Src/stm32f3xx_hal_rcc.c **** 
  78:Drivers/STM32F3xx_HAL_Driver/Src/stm32f3xx_hal_rcc.c **** /* Includes ------------------------------------------------------------------*/
  79:Drivers/STM32F3xx_HAL_Driver/Src/stm32f3xx_hal_rcc.c **** #include "stm32f3xx_hal.h"
  80:Drivers/STM32F3xx_HAL_Driver/Src/stm32f3xx_hal_rcc.c **** 
  81:Drivers/STM32F3xx_HAL_Driver/Src/stm32f3xx_hal_rcc.c **** /** @addtogroup STM32F3xx_HAL_Driver
  82:Drivers/STM32F3xx_HAL_Driver/Src/stm32f3xx_hal_rcc.c ****   * @{
  83:Drivers/STM32F3xx_HAL_Driver/Src/stm32f3xx_hal_rcc.c ****   */
  84:Drivers/STM32F3xx_HAL_Driver/Src/stm32f3xx_hal_rcc.c **** 
  85:Drivers/STM32F3xx_HAL_Driver/Src/stm32f3xx_hal_rcc.c **** /** @defgroup RCC RCC
  86:Drivers/STM32F3xx_HAL_Driver/Src/stm32f3xx_hal_rcc.c **** * @brief RCC HAL module driver
  87:Drivers/STM32F3xx_HAL_Driver/Src/stm32f3xx_hal_rcc.c ****   * @{
ARM GAS  /var/folders/80/65lm4rm97rv_n74c85vt01040000gn/T//ccntfwFR.s 			page 3


  88:Drivers/STM32F3xx_HAL_Driver/Src/stm32f3xx_hal_rcc.c ****   */
  89:Drivers/STM32F3xx_HAL_Driver/Src/stm32f3xx_hal_rcc.c **** 
  90:Drivers/STM32F3xx_HAL_Driver/Src/stm32f3xx_hal_rcc.c **** #ifdef HAL_RCC_MODULE_ENABLED
  91:Drivers/STM32F3xx_HAL_Driver/Src/stm32f3xx_hal_rcc.c **** 
  92:Drivers/STM32F3xx_HAL_Driver/Src/stm32f3xx_hal_rcc.c **** /* Private typedef -----------------------------------------------------------*/
  93:Drivers/STM32F3xx_HAL_Driver/Src/stm32f3xx_hal_rcc.c **** /* Private define ------------------------------------------------------------*/
  94:Drivers/STM32F3xx_HAL_Driver/Src/stm32f3xx_hal_rcc.c **** /** @defgroup RCC_Private_Constants RCC Private Constants
  95:Drivers/STM32F3xx_HAL_Driver/Src/stm32f3xx_hal_rcc.c ****  * @{
  96:Drivers/STM32F3xx_HAL_Driver/Src/stm32f3xx_hal_rcc.c ****  */
  97:Drivers/STM32F3xx_HAL_Driver/Src/stm32f3xx_hal_rcc.c **** /* Bits position in  in the CFGR register */
  98:Drivers/STM32F3xx_HAL_Driver/Src/stm32f3xx_hal_rcc.c **** #define RCC_CFGR_HPRE_BITNUMBER           POSITION_VAL(RCC_CFGR_HPRE)
  99:Drivers/STM32F3xx_HAL_Driver/Src/stm32f3xx_hal_rcc.c **** #define RCC_CFGR_PPRE1_BITNUMBER          POSITION_VAL(RCC_CFGR_PPRE1)
 100:Drivers/STM32F3xx_HAL_Driver/Src/stm32f3xx_hal_rcc.c **** #define RCC_CFGR_PPRE2_BITNUMBER          POSITION_VAL(RCC_CFGR_PPRE2)
 101:Drivers/STM32F3xx_HAL_Driver/Src/stm32f3xx_hal_rcc.c **** /**
 102:Drivers/STM32F3xx_HAL_Driver/Src/stm32f3xx_hal_rcc.c ****   * @}
 103:Drivers/STM32F3xx_HAL_Driver/Src/stm32f3xx_hal_rcc.c ****   */
 104:Drivers/STM32F3xx_HAL_Driver/Src/stm32f3xx_hal_rcc.c **** /* Private macro -------------------------------------------------------------*/
 105:Drivers/STM32F3xx_HAL_Driver/Src/stm32f3xx_hal_rcc.c **** /** @defgroup RCC_Private_Macros RCC Private Macros
 106:Drivers/STM32F3xx_HAL_Driver/Src/stm32f3xx_hal_rcc.c ****   * @{
 107:Drivers/STM32F3xx_HAL_Driver/Src/stm32f3xx_hal_rcc.c ****   */
 108:Drivers/STM32F3xx_HAL_Driver/Src/stm32f3xx_hal_rcc.c **** 
 109:Drivers/STM32F3xx_HAL_Driver/Src/stm32f3xx_hal_rcc.c **** #define MCO1_CLK_ENABLE()     __HAL_RCC_GPIOA_CLK_ENABLE()
 110:Drivers/STM32F3xx_HAL_Driver/Src/stm32f3xx_hal_rcc.c **** #define MCO1_GPIO_PORT        GPIOA
 111:Drivers/STM32F3xx_HAL_Driver/Src/stm32f3xx_hal_rcc.c **** #define MCO1_PIN              GPIO_PIN_8
 112:Drivers/STM32F3xx_HAL_Driver/Src/stm32f3xx_hal_rcc.c **** 
 113:Drivers/STM32F3xx_HAL_Driver/Src/stm32f3xx_hal_rcc.c **** /**
 114:Drivers/STM32F3xx_HAL_Driver/Src/stm32f3xx_hal_rcc.c ****   * @}
 115:Drivers/STM32F3xx_HAL_Driver/Src/stm32f3xx_hal_rcc.c ****   */
 116:Drivers/STM32F3xx_HAL_Driver/Src/stm32f3xx_hal_rcc.c **** 
 117:Drivers/STM32F3xx_HAL_Driver/Src/stm32f3xx_hal_rcc.c **** /* Private variables ---------------------------------------------------------*/
 118:Drivers/STM32F3xx_HAL_Driver/Src/stm32f3xx_hal_rcc.c **** /** @defgroup RCC_Private_Variables RCC Private Variables
 119:Drivers/STM32F3xx_HAL_Driver/Src/stm32f3xx_hal_rcc.c ****   * @{
 120:Drivers/STM32F3xx_HAL_Driver/Src/stm32f3xx_hal_rcc.c ****   */
 121:Drivers/STM32F3xx_HAL_Driver/Src/stm32f3xx_hal_rcc.c **** const uint8_t aPLLMULFactorTable[16] = { 2U,  3U,  4U,  5U,  6U,  7U,  8U,  9U,
 122:Drivers/STM32F3xx_HAL_Driver/Src/stm32f3xx_hal_rcc.c ****                                        10U, 11U, 12U, 13U, 14U, 15U, 16U, 16U};
 123:Drivers/STM32F3xx_HAL_Driver/Src/stm32f3xx_hal_rcc.c **** const uint8_t aPredivFactorTable[16] = { 1U, 2U,  3U,  4U,  5U,  6U,  7U,  8U,
 124:Drivers/STM32F3xx_HAL_Driver/Src/stm32f3xx_hal_rcc.c ****                                          9U,10U, 11U, 12U, 13U, 14U, 15U, 16U};
 125:Drivers/STM32F3xx_HAL_Driver/Src/stm32f3xx_hal_rcc.c **** /**
 126:Drivers/STM32F3xx_HAL_Driver/Src/stm32f3xx_hal_rcc.c ****   * @}
 127:Drivers/STM32F3xx_HAL_Driver/Src/stm32f3xx_hal_rcc.c ****   */
 128:Drivers/STM32F3xx_HAL_Driver/Src/stm32f3xx_hal_rcc.c **** 
 129:Drivers/STM32F3xx_HAL_Driver/Src/stm32f3xx_hal_rcc.c **** /* Private function prototypes -----------------------------------------------*/
 130:Drivers/STM32F3xx_HAL_Driver/Src/stm32f3xx_hal_rcc.c **** /* Exported functions ---------------------------------------------------------*/
 131:Drivers/STM32F3xx_HAL_Driver/Src/stm32f3xx_hal_rcc.c **** 
 132:Drivers/STM32F3xx_HAL_Driver/Src/stm32f3xx_hal_rcc.c **** /** @defgroup RCC_Exported_Functions RCC Exported Functions
 133:Drivers/STM32F3xx_HAL_Driver/Src/stm32f3xx_hal_rcc.c ****   * @{
 134:Drivers/STM32F3xx_HAL_Driver/Src/stm32f3xx_hal_rcc.c ****   */
 135:Drivers/STM32F3xx_HAL_Driver/Src/stm32f3xx_hal_rcc.c **** 
 136:Drivers/STM32F3xx_HAL_Driver/Src/stm32f3xx_hal_rcc.c **** /** @defgroup RCC_Exported_Functions_Group1 Initialization and de-initialization functions 
 137:Drivers/STM32F3xx_HAL_Driver/Src/stm32f3xx_hal_rcc.c ****   *  @brief    Initialization and Configuration functions 
 138:Drivers/STM32F3xx_HAL_Driver/Src/stm32f3xx_hal_rcc.c ****   *
 139:Drivers/STM32F3xx_HAL_Driver/Src/stm32f3xx_hal_rcc.c ****   @verbatim    
 140:Drivers/STM32F3xx_HAL_Driver/Src/stm32f3xx_hal_rcc.c ****   ===============================================================================
 141:Drivers/STM32F3xx_HAL_Driver/Src/stm32f3xx_hal_rcc.c ****            ##### Initialization and de-initialization functions #####
 142:Drivers/STM32F3xx_HAL_Driver/Src/stm32f3xx_hal_rcc.c ****   ===============================================================================
 143:Drivers/STM32F3xx_HAL_Driver/Src/stm32f3xx_hal_rcc.c ****     [..]
 144:Drivers/STM32F3xx_HAL_Driver/Src/stm32f3xx_hal_rcc.c ****       This section provides functions allowing to configure the internal/external oscillators
ARM GAS  /var/folders/80/65lm4rm97rv_n74c85vt01040000gn/T//ccntfwFR.s 			page 4


 145:Drivers/STM32F3xx_HAL_Driver/Src/stm32f3xx_hal_rcc.c ****       (HSE, HSI, LSE, LSI, PLL, CSS and MCO) and the System buses clocks (SYSCLK, AHB, APB1
 146:Drivers/STM32F3xx_HAL_Driver/Src/stm32f3xx_hal_rcc.c ****       and APB2).
 147:Drivers/STM32F3xx_HAL_Driver/Src/stm32f3xx_hal_rcc.c **** 
 148:Drivers/STM32F3xx_HAL_Driver/Src/stm32f3xx_hal_rcc.c ****     [..] Internal/external clock and PLL configuration
 149:Drivers/STM32F3xx_HAL_Driver/Src/stm32f3xx_hal_rcc.c ****       (#) HSI (high-speed internal), 8 MHz factory-trimmed RC used directly or through
 150:Drivers/STM32F3xx_HAL_Driver/Src/stm32f3xx_hal_rcc.c ****           the PLL as System clock source.
 151:Drivers/STM32F3xx_HAL_Driver/Src/stm32f3xx_hal_rcc.c ****           The HSI clock can be used also to clock the USART and I2C peripherals.
 152:Drivers/STM32F3xx_HAL_Driver/Src/stm32f3xx_hal_rcc.c **** 
 153:Drivers/STM32F3xx_HAL_Driver/Src/stm32f3xx_hal_rcc.c ****       (#) LSI (low-speed internal), ~40 KHz low consumption RC used as IWDG and/or RTC
 154:Drivers/STM32F3xx_HAL_Driver/Src/stm32f3xx_hal_rcc.c ****           clock source.
 155:Drivers/STM32F3xx_HAL_Driver/Src/stm32f3xx_hal_rcc.c **** 
 156:Drivers/STM32F3xx_HAL_Driver/Src/stm32f3xx_hal_rcc.c ****       (#) HSE (high-speed external), 4 to 32 MHz crystal oscillator used directly or
 157:Drivers/STM32F3xx_HAL_Driver/Src/stm32f3xx_hal_rcc.c ****           through the PLL as System clock source. Can be used also as RTC clock source.
 158:Drivers/STM32F3xx_HAL_Driver/Src/stm32f3xx_hal_rcc.c **** 
 159:Drivers/STM32F3xx_HAL_Driver/Src/stm32f3xx_hal_rcc.c ****       (#) LSE (low-speed external), 32 KHz oscillator used as RTC clock source.   
 160:Drivers/STM32F3xx_HAL_Driver/Src/stm32f3xx_hal_rcc.c **** 
 161:Drivers/STM32F3xx_HAL_Driver/Src/stm32f3xx_hal_rcc.c ****       (#) PLL (clocked by HSI or HSE), featuring different output clocks:
 162:Drivers/STM32F3xx_HAL_Driver/Src/stm32f3xx_hal_rcc.c ****         (++) The first output is used to generate the high speed system clock (up to 72 MHz)
 163:Drivers/STM32F3xx_HAL_Driver/Src/stm32f3xx_hal_rcc.c ****         (++) The second output is used to generate the clock for the USB FS (48 MHz)
 164:Drivers/STM32F3xx_HAL_Driver/Src/stm32f3xx_hal_rcc.c ****         (++) The third output may be used to generate the clock for the ADC peripherals (up to 72 M
 165:Drivers/STM32F3xx_HAL_Driver/Src/stm32f3xx_hal_rcc.c ****         (++) The fourth output may be used to generate the clock for the TIM peripherals (144 MHz)
 166:Drivers/STM32F3xx_HAL_Driver/Src/stm32f3xx_hal_rcc.c **** 
 167:Drivers/STM32F3xx_HAL_Driver/Src/stm32f3xx_hal_rcc.c ****       (#) CSS (Clock security system), once enable using the macro __HAL_RCC_CSS_ENABLE()
 168:Drivers/STM32F3xx_HAL_Driver/Src/stm32f3xx_hal_rcc.c ****           and if a HSE clock failure occurs(HSE used directly or through PLL as System 
 169:Drivers/STM32F3xx_HAL_Driver/Src/stm32f3xx_hal_rcc.c ****           clock source), the System clocks automatically switched to HSI and an interrupt
 170:Drivers/STM32F3xx_HAL_Driver/Src/stm32f3xx_hal_rcc.c ****           is generated if enabled. The interrupt is linked to the Cortex-M4 NMI 
 171:Drivers/STM32F3xx_HAL_Driver/Src/stm32f3xx_hal_rcc.c ****           (Non-Maskable Interrupt) exception vector.   
 172:Drivers/STM32F3xx_HAL_Driver/Src/stm32f3xx_hal_rcc.c **** 
 173:Drivers/STM32F3xx_HAL_Driver/Src/stm32f3xx_hal_rcc.c ****       (#) MCO (microcontroller clock output), used to output SYSCLK, HSI, HSE, LSI, LSE or PLL
 174:Drivers/STM32F3xx_HAL_Driver/Src/stm32f3xx_hal_rcc.c ****           clock (divided by 2) output on pin (such as PA8 pin).
 175:Drivers/STM32F3xx_HAL_Driver/Src/stm32f3xx_hal_rcc.c **** 
 176:Drivers/STM32F3xx_HAL_Driver/Src/stm32f3xx_hal_rcc.c ****     [..] System, AHB and APB buses clocks configuration
 177:Drivers/STM32F3xx_HAL_Driver/Src/stm32f3xx_hal_rcc.c ****       (#) Several clock sources can be used to drive the System clock (SYSCLK): HSI,
 178:Drivers/STM32F3xx_HAL_Driver/Src/stm32f3xx_hal_rcc.c ****           HSE and PLL.
 179:Drivers/STM32F3xx_HAL_Driver/Src/stm32f3xx_hal_rcc.c ****           The AHB clock (HCLK) is derived from System clock through configurable
 180:Drivers/STM32F3xx_HAL_Driver/Src/stm32f3xx_hal_rcc.c ****           prescaler and used to clock the CPU, memory and peripherals mapped
 181:Drivers/STM32F3xx_HAL_Driver/Src/stm32f3xx_hal_rcc.c ****           on AHB bus (DMA, GPIO...). APB1 (PCLK1) and APB2 (PCLK2) clocks are derived
 182:Drivers/STM32F3xx_HAL_Driver/Src/stm32f3xx_hal_rcc.c ****           from AHB clock through configurable prescalers and used to clock
 183:Drivers/STM32F3xx_HAL_Driver/Src/stm32f3xx_hal_rcc.c ****           the peripherals mapped on these buses. You can use
 184:Drivers/STM32F3xx_HAL_Driver/Src/stm32f3xx_hal_rcc.c ****           "@ref HAL_RCC_GetSysClockFreq()" function to retrieve the frequencies of these clocks.
 185:Drivers/STM32F3xx_HAL_Driver/Src/stm32f3xx_hal_rcc.c **** 
 186:Drivers/STM32F3xx_HAL_Driver/Src/stm32f3xx_hal_rcc.c ****       (#) All the peripheral clocks are derived from the System clock (SYSCLK) except:
 187:Drivers/STM32F3xx_HAL_Driver/Src/stm32f3xx_hal_rcc.c ****         (++) The FLASH program/erase clock  which is always HSI 8MHz clock.
 188:Drivers/STM32F3xx_HAL_Driver/Src/stm32f3xx_hal_rcc.c ****         (++) The USB 48 MHz clock which is derived from the PLL VCO clock.
 189:Drivers/STM32F3xx_HAL_Driver/Src/stm32f3xx_hal_rcc.c ****         (++) The USART clock which can be derived as well from HSI 8MHz, LSI or LSE.
 190:Drivers/STM32F3xx_HAL_Driver/Src/stm32f3xx_hal_rcc.c ****         (++) The I2C clock which can be derived as well from HSI 8MHz clock.
 191:Drivers/STM32F3xx_HAL_Driver/Src/stm32f3xx_hal_rcc.c ****         (++) The ADC clock which is derived from PLL output.
 192:Drivers/STM32F3xx_HAL_Driver/Src/stm32f3xx_hal_rcc.c ****         (++) The RTC clock which is derived from the LSE, LSI or 1 MHz HSE_RTC
 193:Drivers/STM32F3xx_HAL_Driver/Src/stm32f3xx_hal_rcc.c ****              (HSE divided by a programmable prescaler). The System clock (SYSCLK)
 194:Drivers/STM32F3xx_HAL_Driver/Src/stm32f3xx_hal_rcc.c ****              frequency must be higher or equal to the RTC clock frequency.
 195:Drivers/STM32F3xx_HAL_Driver/Src/stm32f3xx_hal_rcc.c ****         (++) IWDG clock which is always the LSI clock.
 196:Drivers/STM32F3xx_HAL_Driver/Src/stm32f3xx_hal_rcc.c **** 
 197:Drivers/STM32F3xx_HAL_Driver/Src/stm32f3xx_hal_rcc.c ****          (#) For the STM32F3xx devices, the maximum frequency of the SYSCLK, HCLK, PCLK1 and PCLK2 
 198:Drivers/STM32F3xx_HAL_Driver/Src/stm32f3xx_hal_rcc.c ****              Depending on the SYSCLK frequency, the flash latency should be adapted accordingly.
 199:Drivers/STM32F3xx_HAL_Driver/Src/stm32f3xx_hal_rcc.c **** 
 200:Drivers/STM32F3xx_HAL_Driver/Src/stm32f3xx_hal_rcc.c ****          (#) After reset, the System clock source is the HSI (8 MHz) with 0 WS and
 201:Drivers/STM32F3xx_HAL_Driver/Src/stm32f3xx_hal_rcc.c ****              prefetch is disabled.
ARM GAS  /var/folders/80/65lm4rm97rv_n74c85vt01040000gn/T//ccntfwFR.s 			page 5


 202:Drivers/STM32F3xx_HAL_Driver/Src/stm32f3xx_hal_rcc.c ****   @endverbatim
 203:Drivers/STM32F3xx_HAL_Driver/Src/stm32f3xx_hal_rcc.c ****   * @{
 204:Drivers/STM32F3xx_HAL_Driver/Src/stm32f3xx_hal_rcc.c ****   */
 205:Drivers/STM32F3xx_HAL_Driver/Src/stm32f3xx_hal_rcc.c ****   
 206:Drivers/STM32F3xx_HAL_Driver/Src/stm32f3xx_hal_rcc.c **** /*
 207:Drivers/STM32F3xx_HAL_Driver/Src/stm32f3xx_hal_rcc.c ****   Additional consideration on the SYSCLK based on Latency settings:
 208:Drivers/STM32F3xx_HAL_Driver/Src/stm32f3xx_hal_rcc.c ****         +-----------------------------------------------+
 209:Drivers/STM32F3xx_HAL_Driver/Src/stm32f3xx_hal_rcc.c ****         | Latency       | SYSCLK clock frequency (MHz)  |
 210:Drivers/STM32F3xx_HAL_Driver/Src/stm32f3xx_hal_rcc.c ****         |---------------|-------------------------------|
 211:Drivers/STM32F3xx_HAL_Driver/Src/stm32f3xx_hal_rcc.c ****         |0WS(1CPU cycle)|       0 < SYSCLK <= 24        |
 212:Drivers/STM32F3xx_HAL_Driver/Src/stm32f3xx_hal_rcc.c ****         |---------------|-------------------------------|
 213:Drivers/STM32F3xx_HAL_Driver/Src/stm32f3xx_hal_rcc.c ****         |1WS(2CPU cycle)|      24 < SYSCLK <= 48        |
 214:Drivers/STM32F3xx_HAL_Driver/Src/stm32f3xx_hal_rcc.c ****         |---------------|-------------------------------|
 215:Drivers/STM32F3xx_HAL_Driver/Src/stm32f3xx_hal_rcc.c ****         |2WS(3CPU cycle)|      48 < SYSCLK <= 72        |
 216:Drivers/STM32F3xx_HAL_Driver/Src/stm32f3xx_hal_rcc.c ****         +-----------------------------------------------+
 217:Drivers/STM32F3xx_HAL_Driver/Src/stm32f3xx_hal_rcc.c ****   */
 218:Drivers/STM32F3xx_HAL_Driver/Src/stm32f3xx_hal_rcc.c **** 
 219:Drivers/STM32F3xx_HAL_Driver/Src/stm32f3xx_hal_rcc.c **** /**
 220:Drivers/STM32F3xx_HAL_Driver/Src/stm32f3xx_hal_rcc.c ****   * @brief  Resets the RCC clock configuration to the default reset state.
 221:Drivers/STM32F3xx_HAL_Driver/Src/stm32f3xx_hal_rcc.c ****   * @note   The default reset state of the clock configuration is given below:
 222:Drivers/STM32F3xx_HAL_Driver/Src/stm32f3xx_hal_rcc.c ****   *            - HSI ON and used as system clock source
 223:Drivers/STM32F3xx_HAL_Driver/Src/stm32f3xx_hal_rcc.c ****   *            - HSE and PLL OFF
 224:Drivers/STM32F3xx_HAL_Driver/Src/stm32f3xx_hal_rcc.c ****   *            - AHB, APB1 and APB2 prescaler set to 1.
 225:Drivers/STM32F3xx_HAL_Driver/Src/stm32f3xx_hal_rcc.c ****   *            - CSS and MCO1 OFF
 226:Drivers/STM32F3xx_HAL_Driver/Src/stm32f3xx_hal_rcc.c ****   *            - All interrupts disabled
 227:Drivers/STM32F3xx_HAL_Driver/Src/stm32f3xx_hal_rcc.c ****   * @note   This function does not modify the configuration of the
 228:Drivers/STM32F3xx_HAL_Driver/Src/stm32f3xx_hal_rcc.c ****   *            - Peripheral clocks
 229:Drivers/STM32F3xx_HAL_Driver/Src/stm32f3xx_hal_rcc.c ****   *            - LSI, LSE and RTC clocks
 230:Drivers/STM32F3xx_HAL_Driver/Src/stm32f3xx_hal_rcc.c ****   * @retval HAL status
 231:Drivers/STM32F3xx_HAL_Driver/Src/stm32f3xx_hal_rcc.c ****   */
 232:Drivers/STM32F3xx_HAL_Driver/Src/stm32f3xx_hal_rcc.c **** HAL_StatusTypeDef HAL_RCC_DeInit(void)
 233:Drivers/STM32F3xx_HAL_Driver/Src/stm32f3xx_hal_rcc.c **** {
  29              		.loc 1 233 1 view -0
  30              		.cfi_startproc
  31              		@ args = 0, pretend = 0, frame = 0
  32              		@ frame_needed = 0, uses_anonymous_args = 0
  33 0000 38B5     		push	{r3, r4, r5, lr}
  34              	.LCFI0:
  35              		.cfi_def_cfa_offset 16
  36              		.cfi_offset 3, -16
  37              		.cfi_offset 4, -12
  38              		.cfi_offset 5, -8
  39              		.cfi_offset 14, -4
 234:Drivers/STM32F3xx_HAL_Driver/Src/stm32f3xx_hal_rcc.c ****   uint32_t tickstart = 0;
  40              		.loc 1 234 3 view .LVU1
  41              	.LVL0:
 235:Drivers/STM32F3xx_HAL_Driver/Src/stm32f3xx_hal_rcc.c **** 
 236:Drivers/STM32F3xx_HAL_Driver/Src/stm32f3xx_hal_rcc.c ****   /* Set HSION bit */
 237:Drivers/STM32F3xx_HAL_Driver/Src/stm32f3xx_hal_rcc.c ****   SET_BIT(RCC->CR, RCC_CR_HSION);
  42              		.loc 1 237 3 view .LVU2
  43 0002 354A     		ldr	r2, .L18
  44 0004 1368     		ldr	r3, [r2]
  45 0006 43F00103 		orr	r3, r3, #1
  46 000a 1360     		str	r3, [r2]
 238:Drivers/STM32F3xx_HAL_Driver/Src/stm32f3xx_hal_rcc.c **** 
 239:Drivers/STM32F3xx_HAL_Driver/Src/stm32f3xx_hal_rcc.c ****   /* Insure HSIRDY bit is set before writing default HSITRIM value */
 240:Drivers/STM32F3xx_HAL_Driver/Src/stm32f3xx_hal_rcc.c ****   /* Get start tick */
ARM GAS  /var/folders/80/65lm4rm97rv_n74c85vt01040000gn/T//ccntfwFR.s 			page 6


 241:Drivers/STM32F3xx_HAL_Driver/Src/stm32f3xx_hal_rcc.c ****   tickstart = HAL_GetTick();
  47              		.loc 1 241 3 view .LVU3
  48              		.loc 1 241 15 is_stmt 0 view .LVU4
  49 000c FFF7FEFF 		bl	HAL_GetTick
  50              	.LVL1:
  51 0010 0446     		mov	r4, r0
  52              	.LVL2:
 242:Drivers/STM32F3xx_HAL_Driver/Src/stm32f3xx_hal_rcc.c **** 
 243:Drivers/STM32F3xx_HAL_Driver/Src/stm32f3xx_hal_rcc.c ****   /* Wait till HSI is ready */
 244:Drivers/STM32F3xx_HAL_Driver/Src/stm32f3xx_hal_rcc.c ****   while(READ_BIT(RCC->CR, RCC_CR_HSIRDY) == RESET)
  53              		.loc 1 244 3 is_stmt 1 view .LVU5
  54              	.L2:
  55              		.loc 1 244 8 view .LVU6
  56              		.loc 1 244 9 is_stmt 0 view .LVU7
  57 0012 314B     		ldr	r3, .L18
  58 0014 1B68     		ldr	r3, [r3]
  59              		.loc 1 244 8 view .LVU8
  60 0016 13F0020F 		tst	r3, #2
  61 001a 07D1     		bne	.L14
 245:Drivers/STM32F3xx_HAL_Driver/Src/stm32f3xx_hal_rcc.c ****   {
 246:Drivers/STM32F3xx_HAL_Driver/Src/stm32f3xx_hal_rcc.c ****     if((HAL_GetTick() - tickstart) > HSI_TIMEOUT_VALUE)
  62              		.loc 1 246 5 is_stmt 1 view .LVU9
  63              		.loc 1 246 9 is_stmt 0 view .LVU10
  64 001c FFF7FEFF 		bl	HAL_GetTick
  65              	.LVL3:
  66              		.loc 1 246 23 view .LVU11
  67 0020 001B     		subs	r0, r0, r4
  68              		.loc 1 246 7 view .LVU12
  69 0022 0228     		cmp	r0, #2
  70 0024 F5D9     		bls	.L2
 247:Drivers/STM32F3xx_HAL_Driver/Src/stm32f3xx_hal_rcc.c ****     {
 248:Drivers/STM32F3xx_HAL_Driver/Src/stm32f3xx_hal_rcc.c ****       return HAL_TIMEOUT;
  71              		.loc 1 248 14 view .LVU13
  72 0026 0324     		movs	r4, #3
  73              	.LVL4:
  74              	.L3:
 249:Drivers/STM32F3xx_HAL_Driver/Src/stm32f3xx_hal_rcc.c ****     }
 250:Drivers/STM32F3xx_HAL_Driver/Src/stm32f3xx_hal_rcc.c ****   }
 251:Drivers/STM32F3xx_HAL_Driver/Src/stm32f3xx_hal_rcc.c **** 
 252:Drivers/STM32F3xx_HAL_Driver/Src/stm32f3xx_hal_rcc.c ****   /* Set HSITRIM default value */
 253:Drivers/STM32F3xx_HAL_Driver/Src/stm32f3xx_hal_rcc.c ****   MODIFY_REG(RCC->CR, RCC_CR_HSITRIM, RCC_CR_HSITRIM_4);
 254:Drivers/STM32F3xx_HAL_Driver/Src/stm32f3xx_hal_rcc.c **** 
 255:Drivers/STM32F3xx_HAL_Driver/Src/stm32f3xx_hal_rcc.c ****   /* Reset SW[1:0], HPRE[3:0], PPRE1[2:0], PPRE2[2:0] and MCOSEL[2:0] bits */
 256:Drivers/STM32F3xx_HAL_Driver/Src/stm32f3xx_hal_rcc.c ****   CLEAR_BIT(RCC->CFGR, RCC_CFGR_SW | RCC_CFGR_HPRE | RCC_CFGR_PPRE1 | RCC_CFGR_PPRE2 | RCC_CFGR_MCO
 257:Drivers/STM32F3xx_HAL_Driver/Src/stm32f3xx_hal_rcc.c **** 
 258:Drivers/STM32F3xx_HAL_Driver/Src/stm32f3xx_hal_rcc.c ****   /* Insure HSI selected as system clock source */
 259:Drivers/STM32F3xx_HAL_Driver/Src/stm32f3xx_hal_rcc.c ****   /* Get start tick */
 260:Drivers/STM32F3xx_HAL_Driver/Src/stm32f3xx_hal_rcc.c ****   tickstart = HAL_GetTick();
 261:Drivers/STM32F3xx_HAL_Driver/Src/stm32f3xx_hal_rcc.c **** 
 262:Drivers/STM32F3xx_HAL_Driver/Src/stm32f3xx_hal_rcc.c ****   /* Wait till system clock source is ready */
 263:Drivers/STM32F3xx_HAL_Driver/Src/stm32f3xx_hal_rcc.c ****   while(READ_BIT(RCC->CFGR, RCC_CFGR_SWS) != RCC_CFGR_SWS_HSI)
 264:Drivers/STM32F3xx_HAL_Driver/Src/stm32f3xx_hal_rcc.c ****   {
 265:Drivers/STM32F3xx_HAL_Driver/Src/stm32f3xx_hal_rcc.c ****     if((HAL_GetTick() - tickstart) > CLOCKSWITCH_TIMEOUT_VALUE)
 266:Drivers/STM32F3xx_HAL_Driver/Src/stm32f3xx_hal_rcc.c ****     {
 267:Drivers/STM32F3xx_HAL_Driver/Src/stm32f3xx_hal_rcc.c ****       return HAL_TIMEOUT;
 268:Drivers/STM32F3xx_HAL_Driver/Src/stm32f3xx_hal_rcc.c ****     }
 269:Drivers/STM32F3xx_HAL_Driver/Src/stm32f3xx_hal_rcc.c ****   }
ARM GAS  /var/folders/80/65lm4rm97rv_n74c85vt01040000gn/T//ccntfwFR.s 			page 7


 270:Drivers/STM32F3xx_HAL_Driver/Src/stm32f3xx_hal_rcc.c **** 
 271:Drivers/STM32F3xx_HAL_Driver/Src/stm32f3xx_hal_rcc.c ****   /* Update the SystemCoreClock global variable for HSI as system clock source */
 272:Drivers/STM32F3xx_HAL_Driver/Src/stm32f3xx_hal_rcc.c ****   SystemCoreClock = HSI_VALUE;
 273:Drivers/STM32F3xx_HAL_Driver/Src/stm32f3xx_hal_rcc.c **** 
 274:Drivers/STM32F3xx_HAL_Driver/Src/stm32f3xx_hal_rcc.c ****   /* Configure the source of time base considering new system clock settings  */
 275:Drivers/STM32F3xx_HAL_Driver/Src/stm32f3xx_hal_rcc.c ****   if(HAL_InitTick(TICK_INT_PRIORITY) != HAL_OK)
 276:Drivers/STM32F3xx_HAL_Driver/Src/stm32f3xx_hal_rcc.c ****   {
 277:Drivers/STM32F3xx_HAL_Driver/Src/stm32f3xx_hal_rcc.c ****     return HAL_ERROR;
 278:Drivers/STM32F3xx_HAL_Driver/Src/stm32f3xx_hal_rcc.c ****   }
 279:Drivers/STM32F3xx_HAL_Driver/Src/stm32f3xx_hal_rcc.c **** 
 280:Drivers/STM32F3xx_HAL_Driver/Src/stm32f3xx_hal_rcc.c ****   /* Reset HSEON, CSSON, PLLON bits */
 281:Drivers/STM32F3xx_HAL_Driver/Src/stm32f3xx_hal_rcc.c ****   CLEAR_BIT(RCC->CR, RCC_CR_PLLON | RCC_CR_CSSON | RCC_CR_HSEON);
 282:Drivers/STM32F3xx_HAL_Driver/Src/stm32f3xx_hal_rcc.c **** 
 283:Drivers/STM32F3xx_HAL_Driver/Src/stm32f3xx_hal_rcc.c ****   /* Reset HSEBYP bit */
 284:Drivers/STM32F3xx_HAL_Driver/Src/stm32f3xx_hal_rcc.c ****   CLEAR_BIT(RCC->CR, RCC_CR_HSEBYP);
 285:Drivers/STM32F3xx_HAL_Driver/Src/stm32f3xx_hal_rcc.c **** 
 286:Drivers/STM32F3xx_HAL_Driver/Src/stm32f3xx_hal_rcc.c ****   /* Insure PLLRDY is reset */
 287:Drivers/STM32F3xx_HAL_Driver/Src/stm32f3xx_hal_rcc.c ****   /* Get start tick */
 288:Drivers/STM32F3xx_HAL_Driver/Src/stm32f3xx_hal_rcc.c ****   tickstart = HAL_GetTick();
 289:Drivers/STM32F3xx_HAL_Driver/Src/stm32f3xx_hal_rcc.c ****   while(READ_BIT(RCC->CR, RCC_CR_PLLRDY) != 0U)
 290:Drivers/STM32F3xx_HAL_Driver/Src/stm32f3xx_hal_rcc.c ****   {
 291:Drivers/STM32F3xx_HAL_Driver/Src/stm32f3xx_hal_rcc.c ****     if((HAL_GetTick() - tickstart) > PLL_TIMEOUT_VALUE)
 292:Drivers/STM32F3xx_HAL_Driver/Src/stm32f3xx_hal_rcc.c ****     {
 293:Drivers/STM32F3xx_HAL_Driver/Src/stm32f3xx_hal_rcc.c ****       return HAL_TIMEOUT;
 294:Drivers/STM32F3xx_HAL_Driver/Src/stm32f3xx_hal_rcc.c ****     }
 295:Drivers/STM32F3xx_HAL_Driver/Src/stm32f3xx_hal_rcc.c ****   }
 296:Drivers/STM32F3xx_HAL_Driver/Src/stm32f3xx_hal_rcc.c **** 
 297:Drivers/STM32F3xx_HAL_Driver/Src/stm32f3xx_hal_rcc.c ****   /* Reset CFGR register */
 298:Drivers/STM32F3xx_HAL_Driver/Src/stm32f3xx_hal_rcc.c ****   CLEAR_REG(RCC->CFGR);
 299:Drivers/STM32F3xx_HAL_Driver/Src/stm32f3xx_hal_rcc.c **** 
 300:Drivers/STM32F3xx_HAL_Driver/Src/stm32f3xx_hal_rcc.c ****   /* Reset CFGR2 register */
 301:Drivers/STM32F3xx_HAL_Driver/Src/stm32f3xx_hal_rcc.c ****   CLEAR_REG(RCC->CFGR2);
 302:Drivers/STM32F3xx_HAL_Driver/Src/stm32f3xx_hal_rcc.c **** 
 303:Drivers/STM32F3xx_HAL_Driver/Src/stm32f3xx_hal_rcc.c ****   /* Reset CFGR3 register */
 304:Drivers/STM32F3xx_HAL_Driver/Src/stm32f3xx_hal_rcc.c ****   CLEAR_REG(RCC->CFGR3);
 305:Drivers/STM32F3xx_HAL_Driver/Src/stm32f3xx_hal_rcc.c **** 
 306:Drivers/STM32F3xx_HAL_Driver/Src/stm32f3xx_hal_rcc.c ****   /* Clear all interrupt flags */
 307:Drivers/STM32F3xx_HAL_Driver/Src/stm32f3xx_hal_rcc.c ****   SET_BIT(RCC->CIR, RCC_CIR_LSIRDYC | RCC_CIR_LSERDYC | RCC_CIR_HSIRDYC | RCC_CIR_HSERDYC | RCC_CIR
 308:Drivers/STM32F3xx_HAL_Driver/Src/stm32f3xx_hal_rcc.c **** 
 309:Drivers/STM32F3xx_HAL_Driver/Src/stm32f3xx_hal_rcc.c ****   /* Disable all interrupts */
 310:Drivers/STM32F3xx_HAL_Driver/Src/stm32f3xx_hal_rcc.c ****   CLEAR_REG(RCC->CIR);
 311:Drivers/STM32F3xx_HAL_Driver/Src/stm32f3xx_hal_rcc.c **** 
 312:Drivers/STM32F3xx_HAL_Driver/Src/stm32f3xx_hal_rcc.c ****   /* Reset all CSR flags */
 313:Drivers/STM32F3xx_HAL_Driver/Src/stm32f3xx_hal_rcc.c ****   __HAL_RCC_CLEAR_RESET_FLAGS();
 314:Drivers/STM32F3xx_HAL_Driver/Src/stm32f3xx_hal_rcc.c **** 
 315:Drivers/STM32F3xx_HAL_Driver/Src/stm32f3xx_hal_rcc.c ****   return HAL_OK;
 316:Drivers/STM32F3xx_HAL_Driver/Src/stm32f3xx_hal_rcc.c **** }
  75              		.loc 1 316 1 view .LVU14
  76 0028 2046     		mov	r0, r4
  77 002a 38BD     		pop	{r3, r4, r5, pc}
  78              	.LVL5:
  79              	.L14:
 253:Drivers/STM32F3xx_HAL_Driver/Src/stm32f3xx_hal_rcc.c **** 
  80              		.loc 1 253 3 is_stmt 1 view .LVU15
  81 002c 2A4A     		ldr	r2, .L18
  82 002e 1368     		ldr	r3, [r2]
  83 0030 23F0F803 		bic	r3, r3, #248
ARM GAS  /var/folders/80/65lm4rm97rv_n74c85vt01040000gn/T//ccntfwFR.s 			page 8


  84 0034 43F08003 		orr	r3, r3, #128
  85 0038 1360     		str	r3, [r2]
 256:Drivers/STM32F3xx_HAL_Driver/Src/stm32f3xx_hal_rcc.c **** 
  86              		.loc 1 256 3 view .LVU16
  87 003a 5168     		ldr	r1, [r2, #4]
  88 003c 274B     		ldr	r3, .L18+4
  89 003e 0B40     		ands	r3, r3, r1
  90 0040 5360     		str	r3, [r2, #4]
 260:Drivers/STM32F3xx_HAL_Driver/Src/stm32f3xx_hal_rcc.c **** 
  91              		.loc 1 260 3 view .LVU17
 260:Drivers/STM32F3xx_HAL_Driver/Src/stm32f3xx_hal_rcc.c **** 
  92              		.loc 1 260 15 is_stmt 0 view .LVU18
  93 0042 FFF7FEFF 		bl	HAL_GetTick
  94              	.LVL6:
  95 0046 0446     		mov	r4, r0
  96              	.LVL7:
 263:Drivers/STM32F3xx_HAL_Driver/Src/stm32f3xx_hal_rcc.c ****   {
  97              		.loc 1 263 3 is_stmt 1 view .LVU19
  98              	.L5:
 263:Drivers/STM32F3xx_HAL_Driver/Src/stm32f3xx_hal_rcc.c ****   {
  99              		.loc 1 263 8 view .LVU20
 263:Drivers/STM32F3xx_HAL_Driver/Src/stm32f3xx_hal_rcc.c ****   {
 100              		.loc 1 263 9 is_stmt 0 view .LVU21
 101 0048 234B     		ldr	r3, .L18
 102 004a 5B68     		ldr	r3, [r3, #4]
 263:Drivers/STM32F3xx_HAL_Driver/Src/stm32f3xx_hal_rcc.c ****   {
 103              		.loc 1 263 8 view .LVU22
 104 004c 13F00C0F 		tst	r3, #12
 105 0050 08D0     		beq	.L15
 265:Drivers/STM32F3xx_HAL_Driver/Src/stm32f3xx_hal_rcc.c ****     {
 106              		.loc 1 265 5 is_stmt 1 view .LVU23
 265:Drivers/STM32F3xx_HAL_Driver/Src/stm32f3xx_hal_rcc.c ****     {
 107              		.loc 1 265 9 is_stmt 0 view .LVU24
 108 0052 FFF7FEFF 		bl	HAL_GetTick
 109              	.LVL8:
 265:Drivers/STM32F3xx_HAL_Driver/Src/stm32f3xx_hal_rcc.c ****     {
 110              		.loc 1 265 23 view .LVU25
 111 0056 001B     		subs	r0, r0, r4
 265:Drivers/STM32F3xx_HAL_Driver/Src/stm32f3xx_hal_rcc.c ****     {
 112              		.loc 1 265 7 view .LVU26
 113 0058 41F28833 		movw	r3, #5000
 114 005c 9842     		cmp	r0, r3
 115 005e F3D9     		bls	.L5
 267:Drivers/STM32F3xx_HAL_Driver/Src/stm32f3xx_hal_rcc.c ****     }
 116              		.loc 1 267 14 view .LVU27
 117 0060 0324     		movs	r4, #3
 118              	.LVL9:
 267:Drivers/STM32F3xx_HAL_Driver/Src/stm32f3xx_hal_rcc.c ****     }
 119              		.loc 1 267 14 view .LVU28
 120 0062 E1E7     		b	.L3
 121              	.LVL10:
 122              	.L15:
 272:Drivers/STM32F3xx_HAL_Driver/Src/stm32f3xx_hal_rcc.c **** 
 123              		.loc 1 272 3 is_stmt 1 view .LVU29
 272:Drivers/STM32F3xx_HAL_Driver/Src/stm32f3xx_hal_rcc.c **** 
 124              		.loc 1 272 19 is_stmt 0 view .LVU30
 125 0064 1E4B     		ldr	r3, .L18+8
ARM GAS  /var/folders/80/65lm4rm97rv_n74c85vt01040000gn/T//ccntfwFR.s 			page 9


 126 0066 1F4A     		ldr	r2, .L18+12
 127 0068 1A60     		str	r2, [r3]
 275:Drivers/STM32F3xx_HAL_Driver/Src/stm32f3xx_hal_rcc.c ****   {
 128              		.loc 1 275 3 is_stmt 1 view .LVU31
 275:Drivers/STM32F3xx_HAL_Driver/Src/stm32f3xx_hal_rcc.c ****   {
 129              		.loc 1 275 6 is_stmt 0 view .LVU32
 130 006a 0020     		movs	r0, #0
 131 006c FFF7FEFF 		bl	HAL_InitTick
 132              	.LVL11:
 275:Drivers/STM32F3xx_HAL_Driver/Src/stm32f3xx_hal_rcc.c ****   {
 133              		.loc 1 275 5 view .LVU33
 134 0070 0446     		mov	r4, r0
 135              	.LVL12:
 275:Drivers/STM32F3xx_HAL_Driver/Src/stm32f3xx_hal_rcc.c ****   {
 136              		.loc 1 275 5 view .LVU34
 137 0072 08B1     		cbz	r0, .L16
 277:Drivers/STM32F3xx_HAL_Driver/Src/stm32f3xx_hal_rcc.c ****   }
 138              		.loc 1 277 12 view .LVU35
 139 0074 0124     		movs	r4, #1
 140 0076 D7E7     		b	.L3
 141              	.L16:
 281:Drivers/STM32F3xx_HAL_Driver/Src/stm32f3xx_hal_rcc.c **** 
 142              		.loc 1 281 3 is_stmt 1 view .LVU36
 143 0078 174A     		ldr	r2, .L18
 144 007a 1368     		ldr	r3, [r2]
 145 007c 23F08473 		bic	r3, r3, #17301504
 146 0080 23F48033 		bic	r3, r3, #65536
 147 0084 1360     		str	r3, [r2]
 284:Drivers/STM32F3xx_HAL_Driver/Src/stm32f3xx_hal_rcc.c **** 
 148              		.loc 1 284 3 view .LVU37
 149 0086 1368     		ldr	r3, [r2]
 150 0088 23F48023 		bic	r3, r3, #262144
 151 008c 1360     		str	r3, [r2]
 288:Drivers/STM32F3xx_HAL_Driver/Src/stm32f3xx_hal_rcc.c ****   while(READ_BIT(RCC->CR, RCC_CR_PLLRDY) != 0U)
 152              		.loc 1 288 3 view .LVU38
 288:Drivers/STM32F3xx_HAL_Driver/Src/stm32f3xx_hal_rcc.c ****   while(READ_BIT(RCC->CR, RCC_CR_PLLRDY) != 0U)
 153              		.loc 1 288 15 is_stmt 0 view .LVU39
 154 008e FFF7FEFF 		bl	HAL_GetTick
 155              	.LVL13:
 156 0092 0546     		mov	r5, r0
 157              	.LVL14:
 289:Drivers/STM32F3xx_HAL_Driver/Src/stm32f3xx_hal_rcc.c ****   {
 158              		.loc 1 289 3 is_stmt 1 view .LVU40
 159              	.L7:
 289:Drivers/STM32F3xx_HAL_Driver/Src/stm32f3xx_hal_rcc.c ****   {
 160              		.loc 1 289 8 view .LVU41
 289:Drivers/STM32F3xx_HAL_Driver/Src/stm32f3xx_hal_rcc.c ****   {
 161              		.loc 1 289 9 is_stmt 0 view .LVU42
 162 0094 104B     		ldr	r3, .L18
 163 0096 1B68     		ldr	r3, [r3]
 289:Drivers/STM32F3xx_HAL_Driver/Src/stm32f3xx_hal_rcc.c ****   {
 164              		.loc 1 289 8 view .LVU43
 165 0098 13F0007F 		tst	r3, #33554432
 166 009c 06D0     		beq	.L17
 291:Drivers/STM32F3xx_HAL_Driver/Src/stm32f3xx_hal_rcc.c ****     {
 167              		.loc 1 291 5 is_stmt 1 view .LVU44
 291:Drivers/STM32F3xx_HAL_Driver/Src/stm32f3xx_hal_rcc.c ****     {
ARM GAS  /var/folders/80/65lm4rm97rv_n74c85vt01040000gn/T//ccntfwFR.s 			page 10


 168              		.loc 1 291 9 is_stmt 0 view .LVU45
 169 009e FFF7FEFF 		bl	HAL_GetTick
 170              	.LVL15:
 291:Drivers/STM32F3xx_HAL_Driver/Src/stm32f3xx_hal_rcc.c ****     {
 171              		.loc 1 291 23 view .LVU46
 172 00a2 401B     		subs	r0, r0, r5
 291:Drivers/STM32F3xx_HAL_Driver/Src/stm32f3xx_hal_rcc.c ****     {
 173              		.loc 1 291 7 view .LVU47
 174 00a4 0228     		cmp	r0, #2
 175 00a6 F5D9     		bls	.L7
 293:Drivers/STM32F3xx_HAL_Driver/Src/stm32f3xx_hal_rcc.c ****     }
 176              		.loc 1 293 14 view .LVU48
 177 00a8 0324     		movs	r4, #3
 178 00aa BDE7     		b	.L3
 179              	.L17:
 298:Drivers/STM32F3xx_HAL_Driver/Src/stm32f3xx_hal_rcc.c **** 
 180              		.loc 1 298 3 is_stmt 1 view .LVU49
 181 00ac 0A4B     		ldr	r3, .L18
 182 00ae 0022     		movs	r2, #0
 183 00b0 5A60     		str	r2, [r3, #4]
 301:Drivers/STM32F3xx_HAL_Driver/Src/stm32f3xx_hal_rcc.c **** 
 184              		.loc 1 301 3 view .LVU50
 185 00b2 DA62     		str	r2, [r3, #44]
 304:Drivers/STM32F3xx_HAL_Driver/Src/stm32f3xx_hal_rcc.c **** 
 186              		.loc 1 304 3 view .LVU51
 187 00b4 1A63     		str	r2, [r3, #48]
 307:Drivers/STM32F3xx_HAL_Driver/Src/stm32f3xx_hal_rcc.c **** 
 188              		.loc 1 307 3 view .LVU52
 189 00b6 9968     		ldr	r1, [r3, #8]
 190 00b8 41F41F01 		orr	r1, r1, #10420224
 191 00bc 9960     		str	r1, [r3, #8]
 310:Drivers/STM32F3xx_HAL_Driver/Src/stm32f3xx_hal_rcc.c **** 
 192              		.loc 1 310 3 view .LVU53
 193 00be 9A60     		str	r2, [r3, #8]
 313:Drivers/STM32F3xx_HAL_Driver/Src/stm32f3xx_hal_rcc.c **** 
 194              		.loc 1 313 3 view .LVU54
 195              	.LVL16:
 196              	.LBB168:
 197              	.LBI168:
 198              		.file 2 "Drivers/CMSIS/Include/cmsis_gcc.h"
   1:Drivers/CMSIS/Include/cmsis_gcc.h **** /**************************************************************************//**
   2:Drivers/CMSIS/Include/cmsis_gcc.h ****  * @file     cmsis_gcc.h
   3:Drivers/CMSIS/Include/cmsis_gcc.h ****  * @brief    CMSIS Cortex-M Core Function/Instruction Header File
   4:Drivers/CMSIS/Include/cmsis_gcc.h ****  * @version  V4.30
   5:Drivers/CMSIS/Include/cmsis_gcc.h ****  * @date     20. October 2015
   6:Drivers/CMSIS/Include/cmsis_gcc.h ****  ******************************************************************************/
   7:Drivers/CMSIS/Include/cmsis_gcc.h **** /* Copyright (c) 2009 - 2015 ARM LIMITED
   8:Drivers/CMSIS/Include/cmsis_gcc.h **** 
   9:Drivers/CMSIS/Include/cmsis_gcc.h ****    All rights reserved.
  10:Drivers/CMSIS/Include/cmsis_gcc.h ****    Redistribution and use in source and binary forms, with or without
  11:Drivers/CMSIS/Include/cmsis_gcc.h ****    modification, are permitted provided that the following conditions are met:
  12:Drivers/CMSIS/Include/cmsis_gcc.h ****    - Redistributions of source code must retain the above copyright
  13:Drivers/CMSIS/Include/cmsis_gcc.h ****      notice, this list of conditions and the following disclaimer.
  14:Drivers/CMSIS/Include/cmsis_gcc.h ****    - Redistributions in binary form must reproduce the above copyright
  15:Drivers/CMSIS/Include/cmsis_gcc.h ****      notice, this list of conditions and the following disclaimer in the
  16:Drivers/CMSIS/Include/cmsis_gcc.h ****      documentation and/or other materials provided with the distribution.
  17:Drivers/CMSIS/Include/cmsis_gcc.h ****    - Neither the name of ARM nor the names of its contributors may be used
ARM GAS  /var/folders/80/65lm4rm97rv_n74c85vt01040000gn/T//ccntfwFR.s 			page 11


  18:Drivers/CMSIS/Include/cmsis_gcc.h ****      to endorse or promote products derived from this software without
  19:Drivers/CMSIS/Include/cmsis_gcc.h ****      specific prior written permission.
  20:Drivers/CMSIS/Include/cmsis_gcc.h ****    *
  21:Drivers/CMSIS/Include/cmsis_gcc.h ****    THIS SOFTWARE IS PROVIDED BY THE COPYRIGHT HOLDERS AND CONTRIBUTORS "AS IS"
  22:Drivers/CMSIS/Include/cmsis_gcc.h ****    AND ANY EXPRESS OR IMPLIED WARRANTIES, INCLUDING, BUT NOT LIMITED TO, THE
  23:Drivers/CMSIS/Include/cmsis_gcc.h ****    IMPLIED WARRANTIES OF MERCHANTABILITY AND FITNESS FOR A PARTICULAR PURPOSE
  24:Drivers/CMSIS/Include/cmsis_gcc.h ****    ARE DISCLAIMED. IN NO EVENT SHALL COPYRIGHT HOLDERS AND CONTRIBUTORS BE
  25:Drivers/CMSIS/Include/cmsis_gcc.h ****    LIABLE FOR ANY DIRECT, INDIRECT, INCIDENTAL, SPECIAL, EXEMPLARY, OR
  26:Drivers/CMSIS/Include/cmsis_gcc.h ****    CONSEQUENTIAL DAMAGES (INCLUDING, BUT NOT LIMITED TO, PROCUREMENT OF
  27:Drivers/CMSIS/Include/cmsis_gcc.h ****    SUBSTITUTE GOODS OR SERVICES; LOSS OF USE, DATA, OR PROFITS; OR BUSINESS
  28:Drivers/CMSIS/Include/cmsis_gcc.h ****    INTERRUPTION) HOWEVER CAUSED AND ON ANY THEORY OF LIABILITY, WHETHER IN
  29:Drivers/CMSIS/Include/cmsis_gcc.h ****    CONTRACT, STRICT LIABILITY, OR TORT (INCLUDING NEGLIGENCE OR OTHERWISE)
  30:Drivers/CMSIS/Include/cmsis_gcc.h ****    ARISING IN ANY WAY OUT OF THE USE OF THIS SOFTWARE, EVEN IF ADVISED OF THE
  31:Drivers/CMSIS/Include/cmsis_gcc.h ****    POSSIBILITY OF SUCH DAMAGE.
  32:Drivers/CMSIS/Include/cmsis_gcc.h ****    ---------------------------------------------------------------------------*/
  33:Drivers/CMSIS/Include/cmsis_gcc.h **** 
  34:Drivers/CMSIS/Include/cmsis_gcc.h **** 
  35:Drivers/CMSIS/Include/cmsis_gcc.h **** #ifndef __CMSIS_GCC_H
  36:Drivers/CMSIS/Include/cmsis_gcc.h **** #define __CMSIS_GCC_H
  37:Drivers/CMSIS/Include/cmsis_gcc.h **** 
  38:Drivers/CMSIS/Include/cmsis_gcc.h **** /* ignore some GCC warnings */
  39:Drivers/CMSIS/Include/cmsis_gcc.h **** #if defined ( __GNUC__ )
  40:Drivers/CMSIS/Include/cmsis_gcc.h **** #pragma GCC diagnostic push
  41:Drivers/CMSIS/Include/cmsis_gcc.h **** #pragma GCC diagnostic ignored "-Wsign-conversion"
  42:Drivers/CMSIS/Include/cmsis_gcc.h **** #pragma GCC diagnostic ignored "-Wconversion"
  43:Drivers/CMSIS/Include/cmsis_gcc.h **** #pragma GCC diagnostic ignored "-Wunused-parameter"
  44:Drivers/CMSIS/Include/cmsis_gcc.h **** #endif
  45:Drivers/CMSIS/Include/cmsis_gcc.h **** 
  46:Drivers/CMSIS/Include/cmsis_gcc.h **** 
  47:Drivers/CMSIS/Include/cmsis_gcc.h **** /* ###########################  Core Function Access  ########################### */
  48:Drivers/CMSIS/Include/cmsis_gcc.h **** /** \ingroup  CMSIS_Core_FunctionInterface
  49:Drivers/CMSIS/Include/cmsis_gcc.h ****     \defgroup CMSIS_Core_RegAccFunctions CMSIS Core Register Access Functions
  50:Drivers/CMSIS/Include/cmsis_gcc.h ****   @{
  51:Drivers/CMSIS/Include/cmsis_gcc.h ****  */
  52:Drivers/CMSIS/Include/cmsis_gcc.h **** 
  53:Drivers/CMSIS/Include/cmsis_gcc.h **** /**
  54:Drivers/CMSIS/Include/cmsis_gcc.h ****   \brief   Enable IRQ Interrupts
  55:Drivers/CMSIS/Include/cmsis_gcc.h ****   \details Enables IRQ interrupts by clearing the I-bit in the CPSR.
  56:Drivers/CMSIS/Include/cmsis_gcc.h ****            Can only be executed in Privileged modes.
  57:Drivers/CMSIS/Include/cmsis_gcc.h ****  */
  58:Drivers/CMSIS/Include/cmsis_gcc.h **** __attribute__( ( always_inline ) ) __STATIC_INLINE void __enable_irq(void)
  59:Drivers/CMSIS/Include/cmsis_gcc.h **** {
  60:Drivers/CMSIS/Include/cmsis_gcc.h ****   __ASM volatile ("cpsie i" : : : "memory");
  61:Drivers/CMSIS/Include/cmsis_gcc.h **** }
  62:Drivers/CMSIS/Include/cmsis_gcc.h **** 
  63:Drivers/CMSIS/Include/cmsis_gcc.h **** 
  64:Drivers/CMSIS/Include/cmsis_gcc.h **** /**
  65:Drivers/CMSIS/Include/cmsis_gcc.h ****   \brief   Disable IRQ Interrupts
  66:Drivers/CMSIS/Include/cmsis_gcc.h ****   \details Disables IRQ interrupts by setting the I-bit in the CPSR.
  67:Drivers/CMSIS/Include/cmsis_gcc.h ****   Can only be executed in Privileged modes.
  68:Drivers/CMSIS/Include/cmsis_gcc.h ****  */
  69:Drivers/CMSIS/Include/cmsis_gcc.h **** __attribute__( ( always_inline ) ) __STATIC_INLINE void __disable_irq(void)
  70:Drivers/CMSIS/Include/cmsis_gcc.h **** {
  71:Drivers/CMSIS/Include/cmsis_gcc.h ****   __ASM volatile ("cpsid i" : : : "memory");
  72:Drivers/CMSIS/Include/cmsis_gcc.h **** }
  73:Drivers/CMSIS/Include/cmsis_gcc.h **** 
  74:Drivers/CMSIS/Include/cmsis_gcc.h **** 
ARM GAS  /var/folders/80/65lm4rm97rv_n74c85vt01040000gn/T//ccntfwFR.s 			page 12


  75:Drivers/CMSIS/Include/cmsis_gcc.h **** /**
  76:Drivers/CMSIS/Include/cmsis_gcc.h ****   \brief   Get Control Register
  77:Drivers/CMSIS/Include/cmsis_gcc.h ****   \details Returns the content of the Control Register.
  78:Drivers/CMSIS/Include/cmsis_gcc.h ****   \return               Control Register value
  79:Drivers/CMSIS/Include/cmsis_gcc.h ****  */
  80:Drivers/CMSIS/Include/cmsis_gcc.h **** __attribute__( ( always_inline ) ) __STATIC_INLINE uint32_t __get_CONTROL(void)
  81:Drivers/CMSIS/Include/cmsis_gcc.h **** {
  82:Drivers/CMSIS/Include/cmsis_gcc.h ****   uint32_t result;
  83:Drivers/CMSIS/Include/cmsis_gcc.h **** 
  84:Drivers/CMSIS/Include/cmsis_gcc.h ****   __ASM volatile ("MRS %0, control" : "=r" (result) );
  85:Drivers/CMSIS/Include/cmsis_gcc.h ****   return(result);
  86:Drivers/CMSIS/Include/cmsis_gcc.h **** }
  87:Drivers/CMSIS/Include/cmsis_gcc.h **** 
  88:Drivers/CMSIS/Include/cmsis_gcc.h **** 
  89:Drivers/CMSIS/Include/cmsis_gcc.h **** /**
  90:Drivers/CMSIS/Include/cmsis_gcc.h ****   \brief   Set Control Register
  91:Drivers/CMSIS/Include/cmsis_gcc.h ****   \details Writes the given value to the Control Register.
  92:Drivers/CMSIS/Include/cmsis_gcc.h ****   \param [in]    control  Control Register value to set
  93:Drivers/CMSIS/Include/cmsis_gcc.h ****  */
  94:Drivers/CMSIS/Include/cmsis_gcc.h **** __attribute__( ( always_inline ) ) __STATIC_INLINE void __set_CONTROL(uint32_t control)
  95:Drivers/CMSIS/Include/cmsis_gcc.h **** {
  96:Drivers/CMSIS/Include/cmsis_gcc.h ****   __ASM volatile ("MSR control, %0" : : "r" (control) : "memory");
  97:Drivers/CMSIS/Include/cmsis_gcc.h **** }
  98:Drivers/CMSIS/Include/cmsis_gcc.h **** 
  99:Drivers/CMSIS/Include/cmsis_gcc.h **** 
 100:Drivers/CMSIS/Include/cmsis_gcc.h **** /**
 101:Drivers/CMSIS/Include/cmsis_gcc.h ****   \brief   Get IPSR Register
 102:Drivers/CMSIS/Include/cmsis_gcc.h ****   \details Returns the content of the IPSR Register.
 103:Drivers/CMSIS/Include/cmsis_gcc.h ****   \return               IPSR Register value
 104:Drivers/CMSIS/Include/cmsis_gcc.h ****  */
 105:Drivers/CMSIS/Include/cmsis_gcc.h **** __attribute__( ( always_inline ) ) __STATIC_INLINE uint32_t __get_IPSR(void)
 106:Drivers/CMSIS/Include/cmsis_gcc.h **** {
 107:Drivers/CMSIS/Include/cmsis_gcc.h ****   uint32_t result;
 108:Drivers/CMSIS/Include/cmsis_gcc.h **** 
 109:Drivers/CMSIS/Include/cmsis_gcc.h ****   __ASM volatile ("MRS %0, ipsr" : "=r" (result) );
 110:Drivers/CMSIS/Include/cmsis_gcc.h ****   return(result);
 111:Drivers/CMSIS/Include/cmsis_gcc.h **** }
 112:Drivers/CMSIS/Include/cmsis_gcc.h **** 
 113:Drivers/CMSIS/Include/cmsis_gcc.h **** 
 114:Drivers/CMSIS/Include/cmsis_gcc.h **** /**
 115:Drivers/CMSIS/Include/cmsis_gcc.h ****   \brief   Get APSR Register
 116:Drivers/CMSIS/Include/cmsis_gcc.h ****   \details Returns the content of the APSR Register.
 117:Drivers/CMSIS/Include/cmsis_gcc.h ****   \return               APSR Register value
 118:Drivers/CMSIS/Include/cmsis_gcc.h ****  */
 119:Drivers/CMSIS/Include/cmsis_gcc.h **** __attribute__( ( always_inline ) ) __STATIC_INLINE uint32_t __get_APSR(void)
 120:Drivers/CMSIS/Include/cmsis_gcc.h **** {
 121:Drivers/CMSIS/Include/cmsis_gcc.h ****   uint32_t result;
 122:Drivers/CMSIS/Include/cmsis_gcc.h **** 
 123:Drivers/CMSIS/Include/cmsis_gcc.h ****   __ASM volatile ("MRS %0, apsr" : "=r" (result) );
 124:Drivers/CMSIS/Include/cmsis_gcc.h ****   return(result);
 125:Drivers/CMSIS/Include/cmsis_gcc.h **** }
 126:Drivers/CMSIS/Include/cmsis_gcc.h **** 
 127:Drivers/CMSIS/Include/cmsis_gcc.h **** 
 128:Drivers/CMSIS/Include/cmsis_gcc.h **** /**
 129:Drivers/CMSIS/Include/cmsis_gcc.h ****   \brief   Get xPSR Register
 130:Drivers/CMSIS/Include/cmsis_gcc.h ****   \details Returns the content of the xPSR Register.
 131:Drivers/CMSIS/Include/cmsis_gcc.h **** 
ARM GAS  /var/folders/80/65lm4rm97rv_n74c85vt01040000gn/T//ccntfwFR.s 			page 13


 132:Drivers/CMSIS/Include/cmsis_gcc.h ****     \return               xPSR Register value
 133:Drivers/CMSIS/Include/cmsis_gcc.h ****  */
 134:Drivers/CMSIS/Include/cmsis_gcc.h **** __attribute__( ( always_inline ) ) __STATIC_INLINE uint32_t __get_xPSR(void)
 135:Drivers/CMSIS/Include/cmsis_gcc.h **** {
 136:Drivers/CMSIS/Include/cmsis_gcc.h ****   uint32_t result;
 137:Drivers/CMSIS/Include/cmsis_gcc.h **** 
 138:Drivers/CMSIS/Include/cmsis_gcc.h ****   __ASM volatile ("MRS %0, xpsr" : "=r" (result) );
 139:Drivers/CMSIS/Include/cmsis_gcc.h ****   return(result);
 140:Drivers/CMSIS/Include/cmsis_gcc.h **** }
 141:Drivers/CMSIS/Include/cmsis_gcc.h **** 
 142:Drivers/CMSIS/Include/cmsis_gcc.h **** 
 143:Drivers/CMSIS/Include/cmsis_gcc.h **** /**
 144:Drivers/CMSIS/Include/cmsis_gcc.h ****   \brief   Get Process Stack Pointer
 145:Drivers/CMSIS/Include/cmsis_gcc.h ****   \details Returns the current value of the Process Stack Pointer (PSP).
 146:Drivers/CMSIS/Include/cmsis_gcc.h ****   \return               PSP Register value
 147:Drivers/CMSIS/Include/cmsis_gcc.h ****  */
 148:Drivers/CMSIS/Include/cmsis_gcc.h **** __attribute__( ( always_inline ) ) __STATIC_INLINE uint32_t __get_PSP(void)
 149:Drivers/CMSIS/Include/cmsis_gcc.h **** {
 150:Drivers/CMSIS/Include/cmsis_gcc.h ****   register uint32_t result;
 151:Drivers/CMSIS/Include/cmsis_gcc.h **** 
 152:Drivers/CMSIS/Include/cmsis_gcc.h ****   __ASM volatile ("MRS %0, psp\n"  : "=r" (result) );
 153:Drivers/CMSIS/Include/cmsis_gcc.h ****   return(result);
 154:Drivers/CMSIS/Include/cmsis_gcc.h **** }
 155:Drivers/CMSIS/Include/cmsis_gcc.h **** 
 156:Drivers/CMSIS/Include/cmsis_gcc.h **** 
 157:Drivers/CMSIS/Include/cmsis_gcc.h **** /**
 158:Drivers/CMSIS/Include/cmsis_gcc.h ****   \brief   Set Process Stack Pointer
 159:Drivers/CMSIS/Include/cmsis_gcc.h ****   \details Assigns the given value to the Process Stack Pointer (PSP).
 160:Drivers/CMSIS/Include/cmsis_gcc.h ****   \param [in]    topOfProcStack  Process Stack Pointer value to set
 161:Drivers/CMSIS/Include/cmsis_gcc.h ****  */
 162:Drivers/CMSIS/Include/cmsis_gcc.h **** __attribute__( ( always_inline ) ) __STATIC_INLINE void __set_PSP(uint32_t topOfProcStack)
 163:Drivers/CMSIS/Include/cmsis_gcc.h **** {
 164:Drivers/CMSIS/Include/cmsis_gcc.h ****   __ASM volatile ("MSR psp, %0\n" : : "r" (topOfProcStack) : "sp");
 165:Drivers/CMSIS/Include/cmsis_gcc.h **** }
 166:Drivers/CMSIS/Include/cmsis_gcc.h **** 
 167:Drivers/CMSIS/Include/cmsis_gcc.h **** 
 168:Drivers/CMSIS/Include/cmsis_gcc.h **** /**
 169:Drivers/CMSIS/Include/cmsis_gcc.h ****   \brief   Get Main Stack Pointer
 170:Drivers/CMSIS/Include/cmsis_gcc.h ****   \details Returns the current value of the Main Stack Pointer (MSP).
 171:Drivers/CMSIS/Include/cmsis_gcc.h ****   \return               MSP Register value
 172:Drivers/CMSIS/Include/cmsis_gcc.h ****  */
 173:Drivers/CMSIS/Include/cmsis_gcc.h **** __attribute__( ( always_inline ) ) __STATIC_INLINE uint32_t __get_MSP(void)
 174:Drivers/CMSIS/Include/cmsis_gcc.h **** {
 175:Drivers/CMSIS/Include/cmsis_gcc.h ****   register uint32_t result;
 176:Drivers/CMSIS/Include/cmsis_gcc.h **** 
 177:Drivers/CMSIS/Include/cmsis_gcc.h ****   __ASM volatile ("MRS %0, msp\n" : "=r" (result) );
 178:Drivers/CMSIS/Include/cmsis_gcc.h ****   return(result);
 179:Drivers/CMSIS/Include/cmsis_gcc.h **** }
 180:Drivers/CMSIS/Include/cmsis_gcc.h **** 
 181:Drivers/CMSIS/Include/cmsis_gcc.h **** 
 182:Drivers/CMSIS/Include/cmsis_gcc.h **** /**
 183:Drivers/CMSIS/Include/cmsis_gcc.h ****   \brief   Set Main Stack Pointer
 184:Drivers/CMSIS/Include/cmsis_gcc.h ****   \details Assigns the given value to the Main Stack Pointer (MSP).
 185:Drivers/CMSIS/Include/cmsis_gcc.h **** 
 186:Drivers/CMSIS/Include/cmsis_gcc.h ****     \param [in]    topOfMainStack  Main Stack Pointer value to set
 187:Drivers/CMSIS/Include/cmsis_gcc.h ****  */
 188:Drivers/CMSIS/Include/cmsis_gcc.h **** __attribute__( ( always_inline ) ) __STATIC_INLINE void __set_MSP(uint32_t topOfMainStack)
ARM GAS  /var/folders/80/65lm4rm97rv_n74c85vt01040000gn/T//ccntfwFR.s 			page 14


 189:Drivers/CMSIS/Include/cmsis_gcc.h **** {
 190:Drivers/CMSIS/Include/cmsis_gcc.h ****   __ASM volatile ("MSR msp, %0\n" : : "r" (topOfMainStack) : "sp");
 191:Drivers/CMSIS/Include/cmsis_gcc.h **** }
 192:Drivers/CMSIS/Include/cmsis_gcc.h **** 
 193:Drivers/CMSIS/Include/cmsis_gcc.h **** 
 194:Drivers/CMSIS/Include/cmsis_gcc.h **** /**
 195:Drivers/CMSIS/Include/cmsis_gcc.h ****   \brief   Get Priority Mask
 196:Drivers/CMSIS/Include/cmsis_gcc.h ****   \details Returns the current state of the priority mask bit from the Priority Mask Register.
 197:Drivers/CMSIS/Include/cmsis_gcc.h ****   \return               Priority Mask value
 198:Drivers/CMSIS/Include/cmsis_gcc.h ****  */
 199:Drivers/CMSIS/Include/cmsis_gcc.h **** __attribute__( ( always_inline ) ) __STATIC_INLINE uint32_t __get_PRIMASK(void)
 200:Drivers/CMSIS/Include/cmsis_gcc.h **** {
 201:Drivers/CMSIS/Include/cmsis_gcc.h ****   uint32_t result;
 202:Drivers/CMSIS/Include/cmsis_gcc.h **** 
 203:Drivers/CMSIS/Include/cmsis_gcc.h ****   __ASM volatile ("MRS %0, primask" : "=r" (result) );
 204:Drivers/CMSIS/Include/cmsis_gcc.h ****   return(result);
 205:Drivers/CMSIS/Include/cmsis_gcc.h **** }
 206:Drivers/CMSIS/Include/cmsis_gcc.h **** 
 207:Drivers/CMSIS/Include/cmsis_gcc.h **** 
 208:Drivers/CMSIS/Include/cmsis_gcc.h **** /**
 209:Drivers/CMSIS/Include/cmsis_gcc.h ****   \brief   Set Priority Mask
 210:Drivers/CMSIS/Include/cmsis_gcc.h ****   \details Assigns the given value to the Priority Mask Register.
 211:Drivers/CMSIS/Include/cmsis_gcc.h ****   \param [in]    priMask  Priority Mask
 212:Drivers/CMSIS/Include/cmsis_gcc.h ****  */
 213:Drivers/CMSIS/Include/cmsis_gcc.h **** __attribute__( ( always_inline ) ) __STATIC_INLINE void __set_PRIMASK(uint32_t priMask)
 214:Drivers/CMSIS/Include/cmsis_gcc.h **** {
 215:Drivers/CMSIS/Include/cmsis_gcc.h ****   __ASM volatile ("MSR primask, %0" : : "r" (priMask) : "memory");
 216:Drivers/CMSIS/Include/cmsis_gcc.h **** }
 217:Drivers/CMSIS/Include/cmsis_gcc.h **** 
 218:Drivers/CMSIS/Include/cmsis_gcc.h **** 
 219:Drivers/CMSIS/Include/cmsis_gcc.h **** #if       (__CORTEX_M >= 0x03U)
 220:Drivers/CMSIS/Include/cmsis_gcc.h **** 
 221:Drivers/CMSIS/Include/cmsis_gcc.h **** /**
 222:Drivers/CMSIS/Include/cmsis_gcc.h ****   \brief   Enable FIQ
 223:Drivers/CMSIS/Include/cmsis_gcc.h ****   \details Enables FIQ interrupts by clearing the F-bit in the CPSR.
 224:Drivers/CMSIS/Include/cmsis_gcc.h ****            Can only be executed in Privileged modes.
 225:Drivers/CMSIS/Include/cmsis_gcc.h ****  */
 226:Drivers/CMSIS/Include/cmsis_gcc.h **** __attribute__( ( always_inline ) ) __STATIC_INLINE void __enable_fault_irq(void)
 227:Drivers/CMSIS/Include/cmsis_gcc.h **** {
 228:Drivers/CMSIS/Include/cmsis_gcc.h ****   __ASM volatile ("cpsie f" : : : "memory");
 229:Drivers/CMSIS/Include/cmsis_gcc.h **** }
 230:Drivers/CMSIS/Include/cmsis_gcc.h **** 
 231:Drivers/CMSIS/Include/cmsis_gcc.h **** 
 232:Drivers/CMSIS/Include/cmsis_gcc.h **** /**
 233:Drivers/CMSIS/Include/cmsis_gcc.h ****   \brief   Disable FIQ
 234:Drivers/CMSIS/Include/cmsis_gcc.h ****   \details Disables FIQ interrupts by setting the F-bit in the CPSR.
 235:Drivers/CMSIS/Include/cmsis_gcc.h ****            Can only be executed in Privileged modes.
 236:Drivers/CMSIS/Include/cmsis_gcc.h ****  */
 237:Drivers/CMSIS/Include/cmsis_gcc.h **** __attribute__( ( always_inline ) ) __STATIC_INLINE void __disable_fault_irq(void)
 238:Drivers/CMSIS/Include/cmsis_gcc.h **** {
 239:Drivers/CMSIS/Include/cmsis_gcc.h ****   __ASM volatile ("cpsid f" : : : "memory");
 240:Drivers/CMSIS/Include/cmsis_gcc.h **** }
 241:Drivers/CMSIS/Include/cmsis_gcc.h **** 
 242:Drivers/CMSIS/Include/cmsis_gcc.h **** 
 243:Drivers/CMSIS/Include/cmsis_gcc.h **** /**
 244:Drivers/CMSIS/Include/cmsis_gcc.h ****   \brief   Get Base Priority
 245:Drivers/CMSIS/Include/cmsis_gcc.h ****   \details Returns the current value of the Base Priority register.
ARM GAS  /var/folders/80/65lm4rm97rv_n74c85vt01040000gn/T//ccntfwFR.s 			page 15


 246:Drivers/CMSIS/Include/cmsis_gcc.h ****   \return               Base Priority register value
 247:Drivers/CMSIS/Include/cmsis_gcc.h ****  */
 248:Drivers/CMSIS/Include/cmsis_gcc.h **** __attribute__( ( always_inline ) ) __STATIC_INLINE uint32_t __get_BASEPRI(void)
 249:Drivers/CMSIS/Include/cmsis_gcc.h **** {
 250:Drivers/CMSIS/Include/cmsis_gcc.h ****   uint32_t result;
 251:Drivers/CMSIS/Include/cmsis_gcc.h **** 
 252:Drivers/CMSIS/Include/cmsis_gcc.h ****   __ASM volatile ("MRS %0, basepri" : "=r" (result) );
 253:Drivers/CMSIS/Include/cmsis_gcc.h ****   return(result);
 254:Drivers/CMSIS/Include/cmsis_gcc.h **** }
 255:Drivers/CMSIS/Include/cmsis_gcc.h **** 
 256:Drivers/CMSIS/Include/cmsis_gcc.h **** 
 257:Drivers/CMSIS/Include/cmsis_gcc.h **** /**
 258:Drivers/CMSIS/Include/cmsis_gcc.h ****   \brief   Set Base Priority
 259:Drivers/CMSIS/Include/cmsis_gcc.h ****   \details Assigns the given value to the Base Priority register.
 260:Drivers/CMSIS/Include/cmsis_gcc.h ****   \param [in]    basePri  Base Priority value to set
 261:Drivers/CMSIS/Include/cmsis_gcc.h ****  */
 262:Drivers/CMSIS/Include/cmsis_gcc.h **** __attribute__( ( always_inline ) ) __STATIC_INLINE void __set_BASEPRI(uint32_t value)
 263:Drivers/CMSIS/Include/cmsis_gcc.h **** {
 264:Drivers/CMSIS/Include/cmsis_gcc.h ****   __ASM volatile ("MSR basepri, %0" : : "r" (value) : "memory");
 265:Drivers/CMSIS/Include/cmsis_gcc.h **** }
 266:Drivers/CMSIS/Include/cmsis_gcc.h **** 
 267:Drivers/CMSIS/Include/cmsis_gcc.h **** 
 268:Drivers/CMSIS/Include/cmsis_gcc.h **** /**
 269:Drivers/CMSIS/Include/cmsis_gcc.h ****   \brief   Set Base Priority with condition
 270:Drivers/CMSIS/Include/cmsis_gcc.h ****   \details Assigns the given value to the Base Priority register only if BASEPRI masking is disable
 271:Drivers/CMSIS/Include/cmsis_gcc.h ****            or the new value increases the BASEPRI priority level.
 272:Drivers/CMSIS/Include/cmsis_gcc.h ****   \param [in]    basePri  Base Priority value to set
 273:Drivers/CMSIS/Include/cmsis_gcc.h ****  */
 274:Drivers/CMSIS/Include/cmsis_gcc.h **** __attribute__( ( always_inline ) ) __STATIC_INLINE void __set_BASEPRI_MAX(uint32_t value)
 275:Drivers/CMSIS/Include/cmsis_gcc.h **** {
 276:Drivers/CMSIS/Include/cmsis_gcc.h ****   __ASM volatile ("MSR basepri_max, %0" : : "r" (value) : "memory");
 277:Drivers/CMSIS/Include/cmsis_gcc.h **** }
 278:Drivers/CMSIS/Include/cmsis_gcc.h **** 
 279:Drivers/CMSIS/Include/cmsis_gcc.h **** 
 280:Drivers/CMSIS/Include/cmsis_gcc.h **** /**
 281:Drivers/CMSIS/Include/cmsis_gcc.h ****   \brief   Get Fault Mask
 282:Drivers/CMSIS/Include/cmsis_gcc.h ****   \details Returns the current value of the Fault Mask register.
 283:Drivers/CMSIS/Include/cmsis_gcc.h ****   \return               Fault Mask register value
 284:Drivers/CMSIS/Include/cmsis_gcc.h ****  */
 285:Drivers/CMSIS/Include/cmsis_gcc.h **** __attribute__( ( always_inline ) ) __STATIC_INLINE uint32_t __get_FAULTMASK(void)
 286:Drivers/CMSIS/Include/cmsis_gcc.h **** {
 287:Drivers/CMSIS/Include/cmsis_gcc.h ****   uint32_t result;
 288:Drivers/CMSIS/Include/cmsis_gcc.h **** 
 289:Drivers/CMSIS/Include/cmsis_gcc.h ****   __ASM volatile ("MRS %0, faultmask" : "=r" (result) );
 290:Drivers/CMSIS/Include/cmsis_gcc.h ****   return(result);
 291:Drivers/CMSIS/Include/cmsis_gcc.h **** }
 292:Drivers/CMSIS/Include/cmsis_gcc.h **** 
 293:Drivers/CMSIS/Include/cmsis_gcc.h **** 
 294:Drivers/CMSIS/Include/cmsis_gcc.h **** /**
 295:Drivers/CMSIS/Include/cmsis_gcc.h ****   \brief   Set Fault Mask
 296:Drivers/CMSIS/Include/cmsis_gcc.h ****   \details Assigns the given value to the Fault Mask register.
 297:Drivers/CMSIS/Include/cmsis_gcc.h ****   \param [in]    faultMask  Fault Mask value to set
 298:Drivers/CMSIS/Include/cmsis_gcc.h ****  */
 299:Drivers/CMSIS/Include/cmsis_gcc.h **** __attribute__( ( always_inline ) ) __STATIC_INLINE void __set_FAULTMASK(uint32_t faultMask)
 300:Drivers/CMSIS/Include/cmsis_gcc.h **** {
 301:Drivers/CMSIS/Include/cmsis_gcc.h ****   __ASM volatile ("MSR faultmask, %0" : : "r" (faultMask) : "memory");
 302:Drivers/CMSIS/Include/cmsis_gcc.h **** }
ARM GAS  /var/folders/80/65lm4rm97rv_n74c85vt01040000gn/T//ccntfwFR.s 			page 16


 303:Drivers/CMSIS/Include/cmsis_gcc.h **** 
 304:Drivers/CMSIS/Include/cmsis_gcc.h **** #endif /* (__CORTEX_M >= 0x03U) */
 305:Drivers/CMSIS/Include/cmsis_gcc.h **** 
 306:Drivers/CMSIS/Include/cmsis_gcc.h **** 
 307:Drivers/CMSIS/Include/cmsis_gcc.h **** #if       (__CORTEX_M == 0x04U) || (__CORTEX_M == 0x07U)
 308:Drivers/CMSIS/Include/cmsis_gcc.h **** 
 309:Drivers/CMSIS/Include/cmsis_gcc.h **** /**
 310:Drivers/CMSIS/Include/cmsis_gcc.h ****   \brief   Get FPSCR
 311:Drivers/CMSIS/Include/cmsis_gcc.h ****   \details Returns the current value of the Floating Point Status/Control register.
 312:Drivers/CMSIS/Include/cmsis_gcc.h ****   \return               Floating Point Status/Control register value
 313:Drivers/CMSIS/Include/cmsis_gcc.h ****  */
 314:Drivers/CMSIS/Include/cmsis_gcc.h **** __attribute__( ( always_inline ) ) __STATIC_INLINE uint32_t __get_FPSCR(void)
 315:Drivers/CMSIS/Include/cmsis_gcc.h **** {
 316:Drivers/CMSIS/Include/cmsis_gcc.h **** #if (__FPU_PRESENT == 1U) && (__FPU_USED == 1U)
 317:Drivers/CMSIS/Include/cmsis_gcc.h ****   uint32_t result;
 318:Drivers/CMSIS/Include/cmsis_gcc.h **** 
 319:Drivers/CMSIS/Include/cmsis_gcc.h ****   /* Empty asm statement works as a scheduling barrier */
 320:Drivers/CMSIS/Include/cmsis_gcc.h ****   __ASM volatile ("");
 321:Drivers/CMSIS/Include/cmsis_gcc.h ****   __ASM volatile ("VMRS %0, fpscr" : "=r" (result) );
 322:Drivers/CMSIS/Include/cmsis_gcc.h ****   __ASM volatile ("");
 323:Drivers/CMSIS/Include/cmsis_gcc.h ****   return(result);
 324:Drivers/CMSIS/Include/cmsis_gcc.h **** #else
 325:Drivers/CMSIS/Include/cmsis_gcc.h ****    return(0);
 326:Drivers/CMSIS/Include/cmsis_gcc.h **** #endif
 327:Drivers/CMSIS/Include/cmsis_gcc.h **** }
 328:Drivers/CMSIS/Include/cmsis_gcc.h **** 
 329:Drivers/CMSIS/Include/cmsis_gcc.h **** 
 330:Drivers/CMSIS/Include/cmsis_gcc.h **** /**
 331:Drivers/CMSIS/Include/cmsis_gcc.h ****   \brief   Set FPSCR
 332:Drivers/CMSIS/Include/cmsis_gcc.h ****   \details Assigns the given value to the Floating Point Status/Control register.
 333:Drivers/CMSIS/Include/cmsis_gcc.h ****   \param [in]    fpscr  Floating Point Status/Control value to set
 334:Drivers/CMSIS/Include/cmsis_gcc.h ****  */
 335:Drivers/CMSIS/Include/cmsis_gcc.h **** __attribute__( ( always_inline ) ) __STATIC_INLINE void __set_FPSCR(uint32_t fpscr)
 336:Drivers/CMSIS/Include/cmsis_gcc.h **** {
 337:Drivers/CMSIS/Include/cmsis_gcc.h **** #if (__FPU_PRESENT == 1U) && (__FPU_USED == 1U)
 338:Drivers/CMSIS/Include/cmsis_gcc.h ****   /* Empty asm statement works as a scheduling barrier */
 339:Drivers/CMSIS/Include/cmsis_gcc.h ****   __ASM volatile ("");
 340:Drivers/CMSIS/Include/cmsis_gcc.h ****   __ASM volatile ("VMSR fpscr, %0" : : "r" (fpscr) : "vfpcc");
 341:Drivers/CMSIS/Include/cmsis_gcc.h ****   __ASM volatile ("");
 342:Drivers/CMSIS/Include/cmsis_gcc.h **** #endif
 343:Drivers/CMSIS/Include/cmsis_gcc.h **** }
 344:Drivers/CMSIS/Include/cmsis_gcc.h **** 
 345:Drivers/CMSIS/Include/cmsis_gcc.h **** #endif /* (__CORTEX_M == 0x04U) || (__CORTEX_M == 0x07U) */
 346:Drivers/CMSIS/Include/cmsis_gcc.h **** 
 347:Drivers/CMSIS/Include/cmsis_gcc.h **** 
 348:Drivers/CMSIS/Include/cmsis_gcc.h **** 
 349:Drivers/CMSIS/Include/cmsis_gcc.h **** /*@} end of CMSIS_Core_RegAccFunctions */
 350:Drivers/CMSIS/Include/cmsis_gcc.h **** 
 351:Drivers/CMSIS/Include/cmsis_gcc.h **** 
 352:Drivers/CMSIS/Include/cmsis_gcc.h **** /* ##########################  Core Instruction Access  ######################### */
 353:Drivers/CMSIS/Include/cmsis_gcc.h **** /** \defgroup CMSIS_Core_InstructionInterface CMSIS Core Instruction Interface
 354:Drivers/CMSIS/Include/cmsis_gcc.h ****   Access to dedicated instructions
 355:Drivers/CMSIS/Include/cmsis_gcc.h ****   @{
 356:Drivers/CMSIS/Include/cmsis_gcc.h **** */
 357:Drivers/CMSIS/Include/cmsis_gcc.h **** 
 358:Drivers/CMSIS/Include/cmsis_gcc.h **** /* Define macros for porting to both thumb1 and thumb2.
 359:Drivers/CMSIS/Include/cmsis_gcc.h ****  * For thumb1, use low register (r0-r7), specified by constraint "l"
ARM GAS  /var/folders/80/65lm4rm97rv_n74c85vt01040000gn/T//ccntfwFR.s 			page 17


 360:Drivers/CMSIS/Include/cmsis_gcc.h ****  * Otherwise, use general registers, specified by constraint "r" */
 361:Drivers/CMSIS/Include/cmsis_gcc.h **** #if defined (__thumb__) && !defined (__thumb2__)
 362:Drivers/CMSIS/Include/cmsis_gcc.h **** #define __CMSIS_GCC_OUT_REG(r) "=l" (r)
 363:Drivers/CMSIS/Include/cmsis_gcc.h **** #define __CMSIS_GCC_USE_REG(r) "l" (r)
 364:Drivers/CMSIS/Include/cmsis_gcc.h **** #else
 365:Drivers/CMSIS/Include/cmsis_gcc.h **** #define __CMSIS_GCC_OUT_REG(r) "=r" (r)
 366:Drivers/CMSIS/Include/cmsis_gcc.h **** #define __CMSIS_GCC_USE_REG(r) "r" (r)
 367:Drivers/CMSIS/Include/cmsis_gcc.h **** #endif
 368:Drivers/CMSIS/Include/cmsis_gcc.h **** 
 369:Drivers/CMSIS/Include/cmsis_gcc.h **** /**
 370:Drivers/CMSIS/Include/cmsis_gcc.h ****   \brief   No Operation
 371:Drivers/CMSIS/Include/cmsis_gcc.h ****   \details No Operation does nothing. This instruction can be used for code alignment purposes.
 372:Drivers/CMSIS/Include/cmsis_gcc.h ****  */
 373:Drivers/CMSIS/Include/cmsis_gcc.h **** __attribute__((always_inline)) __STATIC_INLINE void __NOP(void)
 374:Drivers/CMSIS/Include/cmsis_gcc.h **** {
 375:Drivers/CMSIS/Include/cmsis_gcc.h ****   __ASM volatile ("nop");
 376:Drivers/CMSIS/Include/cmsis_gcc.h **** }
 377:Drivers/CMSIS/Include/cmsis_gcc.h **** 
 378:Drivers/CMSIS/Include/cmsis_gcc.h **** 
 379:Drivers/CMSIS/Include/cmsis_gcc.h **** /**
 380:Drivers/CMSIS/Include/cmsis_gcc.h ****   \brief   Wait For Interrupt
 381:Drivers/CMSIS/Include/cmsis_gcc.h ****   \details Wait For Interrupt is a hint instruction that suspends execution until one of a number o
 382:Drivers/CMSIS/Include/cmsis_gcc.h ****  */
 383:Drivers/CMSIS/Include/cmsis_gcc.h **** __attribute__((always_inline)) __STATIC_INLINE void __WFI(void)
 384:Drivers/CMSIS/Include/cmsis_gcc.h **** {
 385:Drivers/CMSIS/Include/cmsis_gcc.h ****   __ASM volatile ("wfi");
 386:Drivers/CMSIS/Include/cmsis_gcc.h **** }
 387:Drivers/CMSIS/Include/cmsis_gcc.h **** 
 388:Drivers/CMSIS/Include/cmsis_gcc.h **** 
 389:Drivers/CMSIS/Include/cmsis_gcc.h **** /**
 390:Drivers/CMSIS/Include/cmsis_gcc.h ****   \brief   Wait For Event
 391:Drivers/CMSIS/Include/cmsis_gcc.h ****   \details Wait For Event is a hint instruction that permits the processor to enter
 392:Drivers/CMSIS/Include/cmsis_gcc.h ****     a low-power state until one of a number of events occurs.
 393:Drivers/CMSIS/Include/cmsis_gcc.h ****  */
 394:Drivers/CMSIS/Include/cmsis_gcc.h **** __attribute__((always_inline)) __STATIC_INLINE void __WFE(void)
 395:Drivers/CMSIS/Include/cmsis_gcc.h **** {
 396:Drivers/CMSIS/Include/cmsis_gcc.h ****   __ASM volatile ("wfe");
 397:Drivers/CMSIS/Include/cmsis_gcc.h **** }
 398:Drivers/CMSIS/Include/cmsis_gcc.h **** 
 399:Drivers/CMSIS/Include/cmsis_gcc.h **** 
 400:Drivers/CMSIS/Include/cmsis_gcc.h **** /**
 401:Drivers/CMSIS/Include/cmsis_gcc.h ****   \brief   Send Event
 402:Drivers/CMSIS/Include/cmsis_gcc.h ****   \details Send Event is a hint instruction. It causes an event to be signaled to the CPU.
 403:Drivers/CMSIS/Include/cmsis_gcc.h ****  */
 404:Drivers/CMSIS/Include/cmsis_gcc.h **** __attribute__((always_inline)) __STATIC_INLINE void __SEV(void)
 405:Drivers/CMSIS/Include/cmsis_gcc.h **** {
 406:Drivers/CMSIS/Include/cmsis_gcc.h ****   __ASM volatile ("sev");
 407:Drivers/CMSIS/Include/cmsis_gcc.h **** }
 408:Drivers/CMSIS/Include/cmsis_gcc.h **** 
 409:Drivers/CMSIS/Include/cmsis_gcc.h **** 
 410:Drivers/CMSIS/Include/cmsis_gcc.h **** /**
 411:Drivers/CMSIS/Include/cmsis_gcc.h ****   \brief   Instruction Synchronization Barrier
 412:Drivers/CMSIS/Include/cmsis_gcc.h ****   \details Instruction Synchronization Barrier flushes the pipeline in the processor,
 413:Drivers/CMSIS/Include/cmsis_gcc.h ****            so that all instructions following the ISB are fetched from cache or memory,
 414:Drivers/CMSIS/Include/cmsis_gcc.h ****            after the instruction has been completed.
 415:Drivers/CMSIS/Include/cmsis_gcc.h ****  */
 416:Drivers/CMSIS/Include/cmsis_gcc.h **** __attribute__((always_inline)) __STATIC_INLINE void __ISB(void)
ARM GAS  /var/folders/80/65lm4rm97rv_n74c85vt01040000gn/T//ccntfwFR.s 			page 18


 417:Drivers/CMSIS/Include/cmsis_gcc.h **** {
 418:Drivers/CMSIS/Include/cmsis_gcc.h ****   __ASM volatile ("isb 0xF":::"memory");
 419:Drivers/CMSIS/Include/cmsis_gcc.h **** }
 420:Drivers/CMSIS/Include/cmsis_gcc.h **** 
 421:Drivers/CMSIS/Include/cmsis_gcc.h **** 
 422:Drivers/CMSIS/Include/cmsis_gcc.h **** /**
 423:Drivers/CMSIS/Include/cmsis_gcc.h ****   \brief   Data Synchronization Barrier
 424:Drivers/CMSIS/Include/cmsis_gcc.h ****   \details Acts as a special kind of Data Memory Barrier.
 425:Drivers/CMSIS/Include/cmsis_gcc.h ****            It completes when all explicit memory accesses before this instruction complete.
 426:Drivers/CMSIS/Include/cmsis_gcc.h ****  */
 427:Drivers/CMSIS/Include/cmsis_gcc.h **** __attribute__((always_inline)) __STATIC_INLINE void __DSB(void)
 428:Drivers/CMSIS/Include/cmsis_gcc.h **** {
 429:Drivers/CMSIS/Include/cmsis_gcc.h ****   __ASM volatile ("dsb 0xF":::"memory");
 430:Drivers/CMSIS/Include/cmsis_gcc.h **** }
 431:Drivers/CMSIS/Include/cmsis_gcc.h **** 
 432:Drivers/CMSIS/Include/cmsis_gcc.h **** 
 433:Drivers/CMSIS/Include/cmsis_gcc.h **** /**
 434:Drivers/CMSIS/Include/cmsis_gcc.h ****   \brief   Data Memory Barrier
 435:Drivers/CMSIS/Include/cmsis_gcc.h ****   \details Ensures the apparent order of the explicit memory operations before
 436:Drivers/CMSIS/Include/cmsis_gcc.h ****            and after the instruction, without ensuring their completion.
 437:Drivers/CMSIS/Include/cmsis_gcc.h ****  */
 438:Drivers/CMSIS/Include/cmsis_gcc.h **** __attribute__((always_inline)) __STATIC_INLINE void __DMB(void)
 439:Drivers/CMSIS/Include/cmsis_gcc.h **** {
 440:Drivers/CMSIS/Include/cmsis_gcc.h ****   __ASM volatile ("dmb 0xF":::"memory");
 441:Drivers/CMSIS/Include/cmsis_gcc.h **** }
 442:Drivers/CMSIS/Include/cmsis_gcc.h **** 
 443:Drivers/CMSIS/Include/cmsis_gcc.h **** 
 444:Drivers/CMSIS/Include/cmsis_gcc.h **** /**
 445:Drivers/CMSIS/Include/cmsis_gcc.h ****   \brief   Reverse byte order (32 bit)
 446:Drivers/CMSIS/Include/cmsis_gcc.h ****   \details Reverses the byte order in integer value.
 447:Drivers/CMSIS/Include/cmsis_gcc.h ****   \param [in]    value  Value to reverse
 448:Drivers/CMSIS/Include/cmsis_gcc.h ****   \return               Reversed value
 449:Drivers/CMSIS/Include/cmsis_gcc.h ****  */
 450:Drivers/CMSIS/Include/cmsis_gcc.h **** __attribute__((always_inline)) __STATIC_INLINE uint32_t __REV(uint32_t value)
 451:Drivers/CMSIS/Include/cmsis_gcc.h **** {
 452:Drivers/CMSIS/Include/cmsis_gcc.h **** #if (__GNUC__ > 4) || (__GNUC__ == 4 && __GNUC_MINOR__ >= 5)
 453:Drivers/CMSIS/Include/cmsis_gcc.h ****   return __builtin_bswap32(value);
 454:Drivers/CMSIS/Include/cmsis_gcc.h **** #else
 455:Drivers/CMSIS/Include/cmsis_gcc.h ****   uint32_t result;
 456:Drivers/CMSIS/Include/cmsis_gcc.h **** 
 457:Drivers/CMSIS/Include/cmsis_gcc.h ****   __ASM volatile ("rev %0, %1" : __CMSIS_GCC_OUT_REG (result) : __CMSIS_GCC_USE_REG (value) );
 458:Drivers/CMSIS/Include/cmsis_gcc.h ****   return(result);
 459:Drivers/CMSIS/Include/cmsis_gcc.h **** #endif
 460:Drivers/CMSIS/Include/cmsis_gcc.h **** }
 461:Drivers/CMSIS/Include/cmsis_gcc.h **** 
 462:Drivers/CMSIS/Include/cmsis_gcc.h **** 
 463:Drivers/CMSIS/Include/cmsis_gcc.h **** /**
 464:Drivers/CMSIS/Include/cmsis_gcc.h ****   \brief   Reverse byte order (16 bit)
 465:Drivers/CMSIS/Include/cmsis_gcc.h ****   \details Reverses the byte order in two unsigned short values.
 466:Drivers/CMSIS/Include/cmsis_gcc.h ****   \param [in]    value  Value to reverse
 467:Drivers/CMSIS/Include/cmsis_gcc.h ****   \return               Reversed value
 468:Drivers/CMSIS/Include/cmsis_gcc.h ****  */
 469:Drivers/CMSIS/Include/cmsis_gcc.h **** __attribute__((always_inline)) __STATIC_INLINE uint32_t __REV16(uint32_t value)
 470:Drivers/CMSIS/Include/cmsis_gcc.h **** {
 471:Drivers/CMSIS/Include/cmsis_gcc.h ****   uint32_t result;
 472:Drivers/CMSIS/Include/cmsis_gcc.h **** 
 473:Drivers/CMSIS/Include/cmsis_gcc.h ****   __ASM volatile ("rev16 %0, %1" : __CMSIS_GCC_OUT_REG (result) : __CMSIS_GCC_USE_REG (value) );
ARM GAS  /var/folders/80/65lm4rm97rv_n74c85vt01040000gn/T//ccntfwFR.s 			page 19


 474:Drivers/CMSIS/Include/cmsis_gcc.h ****   return(result);
 475:Drivers/CMSIS/Include/cmsis_gcc.h **** }
 476:Drivers/CMSIS/Include/cmsis_gcc.h **** 
 477:Drivers/CMSIS/Include/cmsis_gcc.h **** 
 478:Drivers/CMSIS/Include/cmsis_gcc.h **** /**
 479:Drivers/CMSIS/Include/cmsis_gcc.h ****   \brief   Reverse byte order in signed short value
 480:Drivers/CMSIS/Include/cmsis_gcc.h ****   \details Reverses the byte order in a signed short value with sign extension to integer.
 481:Drivers/CMSIS/Include/cmsis_gcc.h ****   \param [in]    value  Value to reverse
 482:Drivers/CMSIS/Include/cmsis_gcc.h ****   \return               Reversed value
 483:Drivers/CMSIS/Include/cmsis_gcc.h ****  */
 484:Drivers/CMSIS/Include/cmsis_gcc.h **** __attribute__((always_inline)) __STATIC_INLINE int32_t __REVSH(int32_t value)
 485:Drivers/CMSIS/Include/cmsis_gcc.h **** {
 486:Drivers/CMSIS/Include/cmsis_gcc.h **** #if (__GNUC__ > 4) || (__GNUC__ == 4 && __GNUC_MINOR__ >= 8)
 487:Drivers/CMSIS/Include/cmsis_gcc.h ****   return (short)__builtin_bswap16(value);
 488:Drivers/CMSIS/Include/cmsis_gcc.h **** #else
 489:Drivers/CMSIS/Include/cmsis_gcc.h ****   int32_t result;
 490:Drivers/CMSIS/Include/cmsis_gcc.h **** 
 491:Drivers/CMSIS/Include/cmsis_gcc.h ****   __ASM volatile ("revsh %0, %1" : __CMSIS_GCC_OUT_REG (result) : __CMSIS_GCC_USE_REG (value) );
 492:Drivers/CMSIS/Include/cmsis_gcc.h ****   return(result);
 493:Drivers/CMSIS/Include/cmsis_gcc.h **** #endif
 494:Drivers/CMSIS/Include/cmsis_gcc.h **** }
 495:Drivers/CMSIS/Include/cmsis_gcc.h **** 
 496:Drivers/CMSIS/Include/cmsis_gcc.h **** 
 497:Drivers/CMSIS/Include/cmsis_gcc.h **** /**
 498:Drivers/CMSIS/Include/cmsis_gcc.h ****   \brief   Rotate Right in unsigned value (32 bit)
 499:Drivers/CMSIS/Include/cmsis_gcc.h ****   \details Rotate Right (immediate) provides the value of the contents of a register rotated by a v
 500:Drivers/CMSIS/Include/cmsis_gcc.h ****   \param [in]    value  Value to rotate
 501:Drivers/CMSIS/Include/cmsis_gcc.h ****   \param [in]    value  Number of Bits to rotate
 502:Drivers/CMSIS/Include/cmsis_gcc.h ****   \return               Rotated value
 503:Drivers/CMSIS/Include/cmsis_gcc.h ****  */
 504:Drivers/CMSIS/Include/cmsis_gcc.h **** __attribute__((always_inline)) __STATIC_INLINE uint32_t __ROR(uint32_t op1, uint32_t op2)
 505:Drivers/CMSIS/Include/cmsis_gcc.h **** {
 506:Drivers/CMSIS/Include/cmsis_gcc.h ****   return (op1 >> op2) | (op1 << (32U - op2));
 507:Drivers/CMSIS/Include/cmsis_gcc.h **** }
 508:Drivers/CMSIS/Include/cmsis_gcc.h **** 
 509:Drivers/CMSIS/Include/cmsis_gcc.h **** 
 510:Drivers/CMSIS/Include/cmsis_gcc.h **** /**
 511:Drivers/CMSIS/Include/cmsis_gcc.h ****   \brief   Breakpoint
 512:Drivers/CMSIS/Include/cmsis_gcc.h ****   \details Causes the processor to enter Debug state.
 513:Drivers/CMSIS/Include/cmsis_gcc.h ****            Debug tools can use this to investigate system state when the instruction at a particula
 514:Drivers/CMSIS/Include/cmsis_gcc.h ****   \param [in]    value  is ignored by the processor.
 515:Drivers/CMSIS/Include/cmsis_gcc.h ****                  If required, a debugger can use it to store additional information about the break
 516:Drivers/CMSIS/Include/cmsis_gcc.h ****  */
 517:Drivers/CMSIS/Include/cmsis_gcc.h **** #define __BKPT(value)                       __ASM volatile ("bkpt "#value)
 518:Drivers/CMSIS/Include/cmsis_gcc.h **** 
 519:Drivers/CMSIS/Include/cmsis_gcc.h **** 
 520:Drivers/CMSIS/Include/cmsis_gcc.h **** /**
 521:Drivers/CMSIS/Include/cmsis_gcc.h ****   \brief   Reverse bit order of value
 522:Drivers/CMSIS/Include/cmsis_gcc.h ****   \details Reverses the bit order of the given value.
 523:Drivers/CMSIS/Include/cmsis_gcc.h ****   \param [in]    value  Value to reverse
 524:Drivers/CMSIS/Include/cmsis_gcc.h ****   \return               Reversed value
 525:Drivers/CMSIS/Include/cmsis_gcc.h ****  */
 526:Drivers/CMSIS/Include/cmsis_gcc.h **** __attribute__((always_inline)) __STATIC_INLINE uint32_t __RBIT(uint32_t value)
 199              		.loc 2 526 57 view .LVU55
 200              	.LBB169:
 527:Drivers/CMSIS/Include/cmsis_gcc.h **** {
 528:Drivers/CMSIS/Include/cmsis_gcc.h ****   uint32_t result;
ARM GAS  /var/folders/80/65lm4rm97rv_n74c85vt01040000gn/T//ccntfwFR.s 			page 20


 201              		.loc 2 528 3 view .LVU56
 529:Drivers/CMSIS/Include/cmsis_gcc.h **** 
 530:Drivers/CMSIS/Include/cmsis_gcc.h **** #if       (__CORTEX_M >= 0x03U) || (__CORTEX_SC >= 300U)
 531:Drivers/CMSIS/Include/cmsis_gcc.h ****    __ASM volatile ("rbit %0, %1" : "=r" (result) : "r" (value) );
 202              		.loc 2 531 4 view .LVU57
 203 00c0 4FF08072 		mov	r2, #16777216
 204              		.syntax unified
 205              	@ 531 "Drivers/CMSIS/Include/cmsis_gcc.h" 1
 206 00c4 92FAA2F2 		rbit r2, r2
 207              	@ 0 "" 2
 208              	.LVL17:
 532:Drivers/CMSIS/Include/cmsis_gcc.h **** #else
 533:Drivers/CMSIS/Include/cmsis_gcc.h ****   int32_t s = 4 /*sizeof(v)*/ * 8 - 1; /* extra shift needed at end */
 534:Drivers/CMSIS/Include/cmsis_gcc.h **** 
 535:Drivers/CMSIS/Include/cmsis_gcc.h ****   result = value;                      /* r will be reversed bits of v; first get LSB of v */
 536:Drivers/CMSIS/Include/cmsis_gcc.h ****   for (value >>= 1U; value; value >>= 1U)
 537:Drivers/CMSIS/Include/cmsis_gcc.h ****   {
 538:Drivers/CMSIS/Include/cmsis_gcc.h ****     result <<= 1U;
 539:Drivers/CMSIS/Include/cmsis_gcc.h ****     result |= value & 1U;
 540:Drivers/CMSIS/Include/cmsis_gcc.h ****     s--;
 541:Drivers/CMSIS/Include/cmsis_gcc.h ****   }
 542:Drivers/CMSIS/Include/cmsis_gcc.h ****   result <<= s;                        /* shift when v's highest bits are zero */
 543:Drivers/CMSIS/Include/cmsis_gcc.h **** #endif
 544:Drivers/CMSIS/Include/cmsis_gcc.h ****   return(result);
 209              		.loc 2 544 3 view .LVU58
 210              		.loc 2 544 3 is_stmt 0 view .LVU59
 211              		.thumb
 212              		.syntax unified
 213              	.LBE169:
 214              	.LBE168:
 313:Drivers/STM32F3xx_HAL_Driver/Src/stm32f3xx_hal_rcc.c **** 
 215              		.loc 1 313 3 view .LVU60
 216 00c8 B2FA82F2 		clz	r2, r2
 217 00cc 064B     		ldr	r3, .L18+16
 218 00ce 1344     		add	r3, r3, r2
 219 00d0 9B00     		lsls	r3, r3, #2
 220 00d2 0122     		movs	r2, #1
 221 00d4 1A60     		str	r2, [r3]
 315:Drivers/STM32F3xx_HAL_Driver/Src/stm32f3xx_hal_rcc.c **** }
 222              		.loc 1 315 3 is_stmt 1 view .LVU61
 315:Drivers/STM32F3xx_HAL_Driver/Src/stm32f3xx_hal_rcc.c **** }
 223              		.loc 1 315 10 is_stmt 0 view .LVU62
 224 00d6 A7E7     		b	.L3
 225              	.L19:
 226              		.align	2
 227              	.L18:
 228 00d8 00100240 		.word	1073876992
 229 00dc 0CC0FFF8 		.word	-117456884
 230 00e0 00000000 		.word	SystemCoreClock
 231 00e4 00127A00 		.word	8000000
 232 00e8 20819010 		.word	277905696
 233              		.cfi_endproc
 234              	.LFE126:
 236              		.section	.text.HAL_RCC_OscConfig,"ax",%progbits
 237              		.align	1
 238              		.global	HAL_RCC_OscConfig
 239              		.syntax unified
ARM GAS  /var/folders/80/65lm4rm97rv_n74c85vt01040000gn/T//ccntfwFR.s 			page 21


 240              		.thumb
 241              		.thumb_func
 242              		.fpu fpv4-sp-d16
 244              	HAL_RCC_OscConfig:
 245              	.LVL18:
 246              	.LFB127:
 317:Drivers/STM32F3xx_HAL_Driver/Src/stm32f3xx_hal_rcc.c **** 
 318:Drivers/STM32F3xx_HAL_Driver/Src/stm32f3xx_hal_rcc.c **** /**
 319:Drivers/STM32F3xx_HAL_Driver/Src/stm32f3xx_hal_rcc.c ****   * @brief  Initializes the RCC Oscillators according to the specified parameters in the
 320:Drivers/STM32F3xx_HAL_Driver/Src/stm32f3xx_hal_rcc.c ****   *         RCC_OscInitTypeDef.
 321:Drivers/STM32F3xx_HAL_Driver/Src/stm32f3xx_hal_rcc.c ****   * @param  RCC_OscInitStruct pointer to an RCC_OscInitTypeDef structure that
 322:Drivers/STM32F3xx_HAL_Driver/Src/stm32f3xx_hal_rcc.c ****   *         contains the configuration information for the RCC Oscillators.
 323:Drivers/STM32F3xx_HAL_Driver/Src/stm32f3xx_hal_rcc.c ****   * @note   The PLL is not disabled when used as system clock.
 324:Drivers/STM32F3xx_HAL_Driver/Src/stm32f3xx_hal_rcc.c ****   * @note   Transitions LSE Bypass to LSE On and LSE On to LSE Bypass are not
 325:Drivers/STM32F3xx_HAL_Driver/Src/stm32f3xx_hal_rcc.c ****   *         supported by this macro. User should request a transition to LSE Off
 326:Drivers/STM32F3xx_HAL_Driver/Src/stm32f3xx_hal_rcc.c ****   *         first and then LSE On or LSE Bypass.
 327:Drivers/STM32F3xx_HAL_Driver/Src/stm32f3xx_hal_rcc.c ****   * @note   Transition HSE Bypass to HSE On and HSE On to HSE Bypass are not
 328:Drivers/STM32F3xx_HAL_Driver/Src/stm32f3xx_hal_rcc.c ****   *         supported by this macro. User should request a transition to HSE Off
 329:Drivers/STM32F3xx_HAL_Driver/Src/stm32f3xx_hal_rcc.c ****   *         first and then HSE On or HSE Bypass.
 330:Drivers/STM32F3xx_HAL_Driver/Src/stm32f3xx_hal_rcc.c ****   * @retval HAL status
 331:Drivers/STM32F3xx_HAL_Driver/Src/stm32f3xx_hal_rcc.c ****   */
 332:Drivers/STM32F3xx_HAL_Driver/Src/stm32f3xx_hal_rcc.c **** HAL_StatusTypeDef HAL_RCC_OscConfig(RCC_OscInitTypeDef  *RCC_OscInitStruct)
 333:Drivers/STM32F3xx_HAL_Driver/Src/stm32f3xx_hal_rcc.c **** {
 247              		.loc 1 333 1 is_stmt 1 view -0
 248              		.cfi_startproc
 249              		@ args = 0, pretend = 0, frame = 8
 250              		@ frame_needed = 0, uses_anonymous_args = 0
 334:Drivers/STM32F3xx_HAL_Driver/Src/stm32f3xx_hal_rcc.c ****   uint32_t tickstart;
 251              		.loc 1 334 3 view .LVU64
 335:Drivers/STM32F3xx_HAL_Driver/Src/stm32f3xx_hal_rcc.c **** 
 336:Drivers/STM32F3xx_HAL_Driver/Src/stm32f3xx_hal_rcc.c ****   /* Check Null pointer */
 337:Drivers/STM32F3xx_HAL_Driver/Src/stm32f3xx_hal_rcc.c ****   if(RCC_OscInitStruct == NULL)
 252              		.loc 1 337 3 view .LVU65
 253              		.loc 1 337 5 is_stmt 0 view .LVU66
 254 0000 0028     		cmp	r0, #0
 255 0002 00F0F182 		beq	.L93
 333:Drivers/STM32F3xx_HAL_Driver/Src/stm32f3xx_hal_rcc.c ****   uint32_t tickstart;
 256              		.loc 1 333 1 view .LVU67
 257 0006 70B5     		push	{r4, r5, r6, lr}
 258              	.LCFI1:
 259              		.cfi_def_cfa_offset 16
 260              		.cfi_offset 4, -16
 261              		.cfi_offset 5, -12
 262              		.cfi_offset 6, -8
 263              		.cfi_offset 14, -4
 264 0008 82B0     		sub	sp, sp, #8
 265              	.LCFI2:
 266              		.cfi_def_cfa_offset 24
 267 000a 0446     		mov	r4, r0
 338:Drivers/STM32F3xx_HAL_Driver/Src/stm32f3xx_hal_rcc.c ****   {
 339:Drivers/STM32F3xx_HAL_Driver/Src/stm32f3xx_hal_rcc.c ****     return HAL_ERROR;
 340:Drivers/STM32F3xx_HAL_Driver/Src/stm32f3xx_hal_rcc.c ****   }
 341:Drivers/STM32F3xx_HAL_Driver/Src/stm32f3xx_hal_rcc.c **** 
 342:Drivers/STM32F3xx_HAL_Driver/Src/stm32f3xx_hal_rcc.c ****   /* Check the parameters */
 343:Drivers/STM32F3xx_HAL_Driver/Src/stm32f3xx_hal_rcc.c ****   assert_param(IS_RCC_OSCILLATORTYPE(RCC_OscInitStruct->OscillatorType));
 268              		.loc 1 343 3 is_stmt 1 view .LVU68
 344:Drivers/STM32F3xx_HAL_Driver/Src/stm32f3xx_hal_rcc.c **** 
ARM GAS  /var/folders/80/65lm4rm97rv_n74c85vt01040000gn/T//ccntfwFR.s 			page 22


 345:Drivers/STM32F3xx_HAL_Driver/Src/stm32f3xx_hal_rcc.c ****   /*------------------------------- HSE Configuration ------------------------*/ 
 346:Drivers/STM32F3xx_HAL_Driver/Src/stm32f3xx_hal_rcc.c ****   if(((RCC_OscInitStruct->OscillatorType) & RCC_OSCILLATORTYPE_HSE) == RCC_OSCILLATORTYPE_HSE)
 269              		.loc 1 346 3 view .LVU69
 270              		.loc 1 346 25 is_stmt 0 view .LVU70
 271 000c 0368     		ldr	r3, [r0]
 272              		.loc 1 346 5 view .LVU71
 273 000e 13F0010F 		tst	r3, #1
 274 0012 3BD0     		beq	.L22
 347:Drivers/STM32F3xx_HAL_Driver/Src/stm32f3xx_hal_rcc.c ****   {
 348:Drivers/STM32F3xx_HAL_Driver/Src/stm32f3xx_hal_rcc.c ****     /* Check the parameters */
 349:Drivers/STM32F3xx_HAL_Driver/Src/stm32f3xx_hal_rcc.c ****     assert_param(IS_RCC_HSE(RCC_OscInitStruct->HSEState));
 275              		.loc 1 349 5 is_stmt 1 view .LVU72
 350:Drivers/STM32F3xx_HAL_Driver/Src/stm32f3xx_hal_rcc.c **** 
 351:Drivers/STM32F3xx_HAL_Driver/Src/stm32f3xx_hal_rcc.c ****     /* When the HSE is used as system clock or clock source for PLL in these cases it is not allowe
 352:Drivers/STM32F3xx_HAL_Driver/Src/stm32f3xx_hal_rcc.c ****     if((__HAL_RCC_GET_SYSCLK_SOURCE() == RCC_SYSCLKSOURCE_STATUS_HSE) 
 276              		.loc 1 352 5 view .LVU73
 277              		.loc 1 352 9 is_stmt 0 view .LVU74
 278 0014 B54B     		ldr	r3, .L131
 279 0016 5B68     		ldr	r3, [r3, #4]
 280 0018 03F00C03 		and	r3, r3, #12
 281              		.loc 1 352 7 view .LVU75
 282 001c 042B     		cmp	r3, #4
 283 001e 1ED0     		beq	.L23
 353:Drivers/STM32F3xx_HAL_Driver/Src/stm32f3xx_hal_rcc.c ****        || ((__HAL_RCC_GET_SYSCLK_SOURCE() == RCC_SYSCLKSOURCE_STATUS_PLLCLK) && (__HAL_RCC_GET_PLL_
 284              		.loc 1 353 13 view .LVU76
 285 0020 B24B     		ldr	r3, .L131
 286 0022 5B68     		ldr	r3, [r3, #4]
 287 0024 03F00C03 		and	r3, r3, #12
 288              		.loc 1 353 8 view .LVU77
 289 0028 082B     		cmp	r3, #8
 290 002a 13D0     		beq	.L115
 291              	.L24:
 354:Drivers/STM32F3xx_HAL_Driver/Src/stm32f3xx_hal_rcc.c ****     {
 355:Drivers/STM32F3xx_HAL_Driver/Src/stm32f3xx_hal_rcc.c ****       if((__HAL_RCC_GET_FLAG(RCC_FLAG_HSERDY) != RESET) && (RCC_OscInitStruct->HSEState == RCC_HSE_
 356:Drivers/STM32F3xx_HAL_Driver/Src/stm32f3xx_hal_rcc.c ****       {
 357:Drivers/STM32F3xx_HAL_Driver/Src/stm32f3xx_hal_rcc.c ****         return HAL_ERROR;
 358:Drivers/STM32F3xx_HAL_Driver/Src/stm32f3xx_hal_rcc.c ****       }
 359:Drivers/STM32F3xx_HAL_Driver/Src/stm32f3xx_hal_rcc.c ****     }
 360:Drivers/STM32F3xx_HAL_Driver/Src/stm32f3xx_hal_rcc.c ****     else
 361:Drivers/STM32F3xx_HAL_Driver/Src/stm32f3xx_hal_rcc.c ****     {
 362:Drivers/STM32F3xx_HAL_Driver/Src/stm32f3xx_hal_rcc.c ****       /* Set the new HSE configuration ---------------------------------------*/
 363:Drivers/STM32F3xx_HAL_Driver/Src/stm32f3xx_hal_rcc.c ****       __HAL_RCC_HSE_CONFIG(RCC_OscInitStruct->HSEState);
 292              		.loc 1 363 7 is_stmt 1 view .LVU78
 293              		.loc 1 363 7 view .LVU79
 294 002c 6368     		ldr	r3, [r4, #4]
 295 002e B3F5803F 		cmp	r3, #65536
 296 0032 68D0     		beq	.L116
 297              		.loc 1 363 7 discriminator 2 view .LVU80
 298 0034 002B     		cmp	r3, #0
 299 0036 40F09280 		bne	.L29
 300              		.loc 1 363 7 discriminator 4 view .LVU81
 301 003a 03F18043 		add	r3, r3, #1073741824
 302 003e 03F50433 		add	r3, r3, #135168
 303 0042 1A68     		ldr	r2, [r3]
 304 0044 22F48032 		bic	r2, r2, #65536
 305 0048 1A60     		str	r2, [r3]
 306              		.loc 1 363 7 discriminator 4 view .LVU82
ARM GAS  /var/folders/80/65lm4rm97rv_n74c85vt01040000gn/T//ccntfwFR.s 			page 23


 307 004a 1A68     		ldr	r2, [r3]
 308 004c 22F48022 		bic	r2, r2, #262144
 309 0050 1A60     		str	r2, [r3]
 310 0052 5DE0     		b	.L28
 311              	.L115:
 353:Drivers/STM32F3xx_HAL_Driver/Src/stm32f3xx_hal_rcc.c ****        || ((__HAL_RCC_GET_SYSCLK_SOURCE() == RCC_SYSCLKSOURCE_STATUS_PLLCLK) && (__HAL_RCC_GET_PLL_
 312              		.loc 1 353 82 is_stmt 0 discriminator 1 view .LVU83
 313 0054 A54B     		ldr	r3, .L131
 314 0056 5B68     		ldr	r3, [r3, #4]
 353:Drivers/STM32F3xx_HAL_Driver/Src/stm32f3xx_hal_rcc.c ****        || ((__HAL_RCC_GET_SYSCLK_SOURCE() == RCC_SYSCLKSOURCE_STATUS_PLLCLK) && (__HAL_RCC_GET_PLL_
 315              		.loc 1 353 78 discriminator 1 view .LVU84
 316 0058 13F4803F 		tst	r3, #65536
 317 005c E6D0     		beq	.L24
 318              	.L23:
 355:Drivers/STM32F3xx_HAL_Driver/Src/stm32f3xx_hal_rcc.c ****       {
 319              		.loc 1 355 7 is_stmt 1 view .LVU85
 320              	.LVL19:
 321              	.LBB170:
 322              	.LBI170:
 526:Drivers/CMSIS/Include/cmsis_gcc.h **** {
 323              		.loc 2 526 57 view .LVU86
 324              	.LBB171:
 528:Drivers/CMSIS/Include/cmsis_gcc.h **** 
 325              		.loc 2 528 3 view .LVU87
 531:Drivers/CMSIS/Include/cmsis_gcc.h **** #else
 326              		.loc 2 531 4 view .LVU88
 327 005e 4FF40033 		mov	r3, #131072
 328              		.syntax unified
 329              	@ 531 "Drivers/CMSIS/Include/cmsis_gcc.h" 1
 330 0062 93FAA3F3 		rbit r3, r3
 331              	@ 0 "" 2
 332              		.loc 2 544 3 view .LVU89
 333              	.LVL20:
 334              		.loc 2 544 3 is_stmt 0 view .LVU90
 335              		.thumb
 336              		.syntax unified
 337              	.LBE171:
 338              	.LBE170:
 355:Drivers/STM32F3xx_HAL_Driver/Src/stm32f3xx_hal_rcc.c ****       {
 339              		.loc 1 355 11 view .LVU91
 340 0066 A14B     		ldr	r3, .L131
 341 0068 1968     		ldr	r1, [r3]
 342              	.LVL21:
 343              	.LBB172:
 344              	.LBI172:
 526:Drivers/CMSIS/Include/cmsis_gcc.h **** {
 345              		.loc 2 526 57 is_stmt 1 view .LVU92
 346              	.LBB173:
 528:Drivers/CMSIS/Include/cmsis_gcc.h **** 
 347              		.loc 2 528 3 view .LVU93
 531:Drivers/CMSIS/Include/cmsis_gcc.h **** #else
 348              		.loc 2 531 4 view .LVU94
 349 006a 4FF40033 		mov	r3, #131072
 350              		.syntax unified
 351              	@ 531 "Drivers/CMSIS/Include/cmsis_gcc.h" 1
 352 006e 93FAA3F3 		rbit r3, r3
 353              	@ 0 "" 2
ARM GAS  /var/folders/80/65lm4rm97rv_n74c85vt01040000gn/T//ccntfwFR.s 			page 24


 354              	.LVL22:
 355              		.loc 2 544 3 view .LVU95
 356              		.loc 2 544 3 is_stmt 0 view .LVU96
 357              		.thumb
 358              		.syntax unified
 359              	.LBE173:
 360              	.LBE172:
 355:Drivers/STM32F3xx_HAL_Driver/Src/stm32f3xx_hal_rcc.c ****       {
 361              		.loc 1 355 11 view .LVU97
 362 0072 B3FA83F3 		clz	r3, r3
 363 0076 03F01F03 		and	r3, r3, #31
 364 007a 0122     		movs	r2, #1
 365 007c 02FA03F3 		lsl	r3, r2, r3
 355:Drivers/STM32F3xx_HAL_Driver/Src/stm32f3xx_hal_rcc.c ****       {
 366              		.loc 1 355 9 view .LVU98
 367 0080 0B42     		tst	r3, r1
 368 0082 03D0     		beq	.L22
 355:Drivers/STM32F3xx_HAL_Driver/Src/stm32f3xx_hal_rcc.c ****       {
 369              		.loc 1 355 78 discriminator 13 view .LVU99
 370 0084 6368     		ldr	r3, [r4, #4]
 355:Drivers/STM32F3xx_HAL_Driver/Src/stm32f3xx_hal_rcc.c ****       {
 371              		.loc 1 355 57 discriminator 13 view .LVU100
 372 0086 002B     		cmp	r3, #0
 373 0088 00F0B082 		beq	.L117
 374              	.LVL23:
 375              	.L22:
 364:Drivers/STM32F3xx_HAL_Driver/Src/stm32f3xx_hal_rcc.c ****       
 365:Drivers/STM32F3xx_HAL_Driver/Src/stm32f3xx_hal_rcc.c **** #if defined(RCC_CFGR_PLLSRC_HSI_DIV2)
 366:Drivers/STM32F3xx_HAL_Driver/Src/stm32f3xx_hal_rcc.c ****       /* Configure the HSE predivision factor --------------------------------*/
 367:Drivers/STM32F3xx_HAL_Driver/Src/stm32f3xx_hal_rcc.c ****       __HAL_RCC_HSE_PREDIV_CONFIG(RCC_OscInitStruct->HSEPredivValue);
 368:Drivers/STM32F3xx_HAL_Driver/Src/stm32f3xx_hal_rcc.c **** #endif /* RCC_CFGR_PLLSRC_HSI_DIV2 */
 369:Drivers/STM32F3xx_HAL_Driver/Src/stm32f3xx_hal_rcc.c **** 
 370:Drivers/STM32F3xx_HAL_Driver/Src/stm32f3xx_hal_rcc.c ****        /* Check the HSE State */
 371:Drivers/STM32F3xx_HAL_Driver/Src/stm32f3xx_hal_rcc.c ****       if(RCC_OscInitStruct->HSEState != RCC_HSE_OFF)
 372:Drivers/STM32F3xx_HAL_Driver/Src/stm32f3xx_hal_rcc.c ****       {
 373:Drivers/STM32F3xx_HAL_Driver/Src/stm32f3xx_hal_rcc.c ****         /* Get Start Tick */
 374:Drivers/STM32F3xx_HAL_Driver/Src/stm32f3xx_hal_rcc.c ****         tickstart = HAL_GetTick();
 375:Drivers/STM32F3xx_HAL_Driver/Src/stm32f3xx_hal_rcc.c ****         
 376:Drivers/STM32F3xx_HAL_Driver/Src/stm32f3xx_hal_rcc.c ****         /* Wait till HSE is ready */
 377:Drivers/STM32F3xx_HAL_Driver/Src/stm32f3xx_hal_rcc.c ****         while(__HAL_RCC_GET_FLAG(RCC_FLAG_HSERDY) == RESET)
 378:Drivers/STM32F3xx_HAL_Driver/Src/stm32f3xx_hal_rcc.c ****         {
 379:Drivers/STM32F3xx_HAL_Driver/Src/stm32f3xx_hal_rcc.c ****           if((HAL_GetTick() - tickstart ) > HSE_TIMEOUT_VALUE)
 380:Drivers/STM32F3xx_HAL_Driver/Src/stm32f3xx_hal_rcc.c ****           {
 381:Drivers/STM32F3xx_HAL_Driver/Src/stm32f3xx_hal_rcc.c ****             return HAL_TIMEOUT;
 382:Drivers/STM32F3xx_HAL_Driver/Src/stm32f3xx_hal_rcc.c ****           }
 383:Drivers/STM32F3xx_HAL_Driver/Src/stm32f3xx_hal_rcc.c ****         }
 384:Drivers/STM32F3xx_HAL_Driver/Src/stm32f3xx_hal_rcc.c ****       }
 385:Drivers/STM32F3xx_HAL_Driver/Src/stm32f3xx_hal_rcc.c ****       else
 386:Drivers/STM32F3xx_HAL_Driver/Src/stm32f3xx_hal_rcc.c ****       {
 387:Drivers/STM32F3xx_HAL_Driver/Src/stm32f3xx_hal_rcc.c ****         /* Get Start Tick */
 388:Drivers/STM32F3xx_HAL_Driver/Src/stm32f3xx_hal_rcc.c ****         tickstart = HAL_GetTick();
 389:Drivers/STM32F3xx_HAL_Driver/Src/stm32f3xx_hal_rcc.c ****         
 390:Drivers/STM32F3xx_HAL_Driver/Src/stm32f3xx_hal_rcc.c ****         /* Wait till HSE is disabled */
 391:Drivers/STM32F3xx_HAL_Driver/Src/stm32f3xx_hal_rcc.c ****         while(__HAL_RCC_GET_FLAG(RCC_FLAG_HSERDY) != RESET)
 392:Drivers/STM32F3xx_HAL_Driver/Src/stm32f3xx_hal_rcc.c ****         {
 393:Drivers/STM32F3xx_HAL_Driver/Src/stm32f3xx_hal_rcc.c ****            if((HAL_GetTick() - tickstart ) > HSE_TIMEOUT_VALUE)
 394:Drivers/STM32F3xx_HAL_Driver/Src/stm32f3xx_hal_rcc.c ****           {
ARM GAS  /var/folders/80/65lm4rm97rv_n74c85vt01040000gn/T//ccntfwFR.s 			page 25


 395:Drivers/STM32F3xx_HAL_Driver/Src/stm32f3xx_hal_rcc.c ****             return HAL_TIMEOUT;
 396:Drivers/STM32F3xx_HAL_Driver/Src/stm32f3xx_hal_rcc.c ****           }
 397:Drivers/STM32F3xx_HAL_Driver/Src/stm32f3xx_hal_rcc.c ****         }
 398:Drivers/STM32F3xx_HAL_Driver/Src/stm32f3xx_hal_rcc.c ****       }
 399:Drivers/STM32F3xx_HAL_Driver/Src/stm32f3xx_hal_rcc.c ****     }
 400:Drivers/STM32F3xx_HAL_Driver/Src/stm32f3xx_hal_rcc.c ****   }
 401:Drivers/STM32F3xx_HAL_Driver/Src/stm32f3xx_hal_rcc.c ****   /*----------------------------- HSI Configuration --------------------------*/ 
 402:Drivers/STM32F3xx_HAL_Driver/Src/stm32f3xx_hal_rcc.c ****   if(((RCC_OscInitStruct->OscillatorType) & RCC_OSCILLATORTYPE_HSI) == RCC_OSCILLATORTYPE_HSI)
 376              		.loc 1 402 3 is_stmt 1 view .LVU101
 377              		.loc 1 402 25 is_stmt 0 view .LVU102
 378 008c 2368     		ldr	r3, [r4]
 379              		.loc 1 402 5 view .LVU103
 380 008e 13F0020F 		tst	r3, #2
 381 0092 00F0C580 		beq	.L40
 403:Drivers/STM32F3xx_HAL_Driver/Src/stm32f3xx_hal_rcc.c ****   {
 404:Drivers/STM32F3xx_HAL_Driver/Src/stm32f3xx_hal_rcc.c ****     /* Check the parameters */
 405:Drivers/STM32F3xx_HAL_Driver/Src/stm32f3xx_hal_rcc.c ****     assert_param(IS_RCC_HSI(RCC_OscInitStruct->HSIState));
 382              		.loc 1 405 5 is_stmt 1 view .LVU104
 406:Drivers/STM32F3xx_HAL_Driver/Src/stm32f3xx_hal_rcc.c ****     assert_param(IS_RCC_CALIBRATION_VALUE(RCC_OscInitStruct->HSICalibrationValue));
 383              		.loc 1 406 5 view .LVU105
 407:Drivers/STM32F3xx_HAL_Driver/Src/stm32f3xx_hal_rcc.c ****     
 408:Drivers/STM32F3xx_HAL_Driver/Src/stm32f3xx_hal_rcc.c ****     /* Check if HSI is used as system clock or as PLL source when PLL is selected as system clock *
 409:Drivers/STM32F3xx_HAL_Driver/Src/stm32f3xx_hal_rcc.c ****     if((__HAL_RCC_GET_SYSCLK_SOURCE() == RCC_SYSCLKSOURCE_STATUS_HSI) 
 384              		.loc 1 409 5 view .LVU106
 385              		.loc 1 409 9 is_stmt 0 view .LVU107
 386 0096 954B     		ldr	r3, .L131
 387 0098 5B68     		ldr	r3, [r3, #4]
 388              		.loc 1 409 7 view .LVU108
 389 009a 13F00C0F 		tst	r3, #12
 390 009e 00F09C80 		beq	.L41
 410:Drivers/STM32F3xx_HAL_Driver/Src/stm32f3xx_hal_rcc.c ****        || ((__HAL_RCC_GET_SYSCLK_SOURCE() == RCC_SYSCLKSOURCE_STATUS_PLLCLK) && (__HAL_RCC_GET_PLL_
 391              		.loc 1 410 13 view .LVU109
 392 00a2 924B     		ldr	r3, .L131
 393 00a4 5B68     		ldr	r3, [r3, #4]
 394 00a6 03F00C03 		and	r3, r3, #12
 395              		.loc 1 410 8 view .LVU110
 396 00aa 082B     		cmp	r3, #8
 397 00ac 00F08F80 		beq	.L118
 398              	.L42:
 411:Drivers/STM32F3xx_HAL_Driver/Src/stm32f3xx_hal_rcc.c ****     {
 412:Drivers/STM32F3xx_HAL_Driver/Src/stm32f3xx_hal_rcc.c ****       /* When HSI is used as system clock it will not disabled */
 413:Drivers/STM32F3xx_HAL_Driver/Src/stm32f3xx_hal_rcc.c ****       if((__HAL_RCC_GET_FLAG(RCC_FLAG_HSIRDY) != RESET) && (RCC_OscInitStruct->HSIState != RCC_HSI_
 414:Drivers/STM32F3xx_HAL_Driver/Src/stm32f3xx_hal_rcc.c ****       {
 415:Drivers/STM32F3xx_HAL_Driver/Src/stm32f3xx_hal_rcc.c ****         return HAL_ERROR;
 416:Drivers/STM32F3xx_HAL_Driver/Src/stm32f3xx_hal_rcc.c ****       }
 417:Drivers/STM32F3xx_HAL_Driver/Src/stm32f3xx_hal_rcc.c ****       /* Otherwise, just the calibration is allowed */
 418:Drivers/STM32F3xx_HAL_Driver/Src/stm32f3xx_hal_rcc.c ****       else
 419:Drivers/STM32F3xx_HAL_Driver/Src/stm32f3xx_hal_rcc.c ****       {
 420:Drivers/STM32F3xx_HAL_Driver/Src/stm32f3xx_hal_rcc.c ****         /* Adjusts the Internal High Speed oscillator (HSI) calibration value.*/
 421:Drivers/STM32F3xx_HAL_Driver/Src/stm32f3xx_hal_rcc.c ****         __HAL_RCC_HSI_CALIBRATIONVALUE_ADJUST(RCC_OscInitStruct->HSICalibrationValue);
 422:Drivers/STM32F3xx_HAL_Driver/Src/stm32f3xx_hal_rcc.c ****       }
 423:Drivers/STM32F3xx_HAL_Driver/Src/stm32f3xx_hal_rcc.c ****     }
 424:Drivers/STM32F3xx_HAL_Driver/Src/stm32f3xx_hal_rcc.c ****     else
 425:Drivers/STM32F3xx_HAL_Driver/Src/stm32f3xx_hal_rcc.c ****     {
 426:Drivers/STM32F3xx_HAL_Driver/Src/stm32f3xx_hal_rcc.c ****       /* Check the HSI State */
 427:Drivers/STM32F3xx_HAL_Driver/Src/stm32f3xx_hal_rcc.c ****       if(RCC_OscInitStruct->HSIState != RCC_HSI_OFF)
 399              		.loc 1 427 7 is_stmt 1 view .LVU111
ARM GAS  /var/folders/80/65lm4rm97rv_n74c85vt01040000gn/T//ccntfwFR.s 			page 26


 400              		.loc 1 427 27 is_stmt 0 view .LVU112
 401 00b0 2369     		ldr	r3, [r4, #16]
 402              		.loc 1 427 9 view .LVU113
 403 00b2 002B     		cmp	r3, #0
 404 00b4 00F0F280 		beq	.L46
 428:Drivers/STM32F3xx_HAL_Driver/Src/stm32f3xx_hal_rcc.c ****       {
 429:Drivers/STM32F3xx_HAL_Driver/Src/stm32f3xx_hal_rcc.c ****        /* Enable the Internal High Speed oscillator (HSI). */
 430:Drivers/STM32F3xx_HAL_Driver/Src/stm32f3xx_hal_rcc.c ****         __HAL_RCC_HSI_ENABLE();
 405              		.loc 1 430 9 is_stmt 1 view .LVU114
 406              	.LVL24:
 407              	.LBB174:
 408              	.LBI174:
 526:Drivers/CMSIS/Include/cmsis_gcc.h **** {
 409              		.loc 2 526 57 view .LVU115
 410              	.LBB175:
 528:Drivers/CMSIS/Include/cmsis_gcc.h **** 
 411              		.loc 2 528 3 view .LVU116
 531:Drivers/CMSIS/Include/cmsis_gcc.h **** #else
 412              		.loc 2 531 4 view .LVU117
 413 00b8 0122     		movs	r2, #1
 414              		.syntax unified
 415              	@ 531 "Drivers/CMSIS/Include/cmsis_gcc.h" 1
 416 00ba 92FAA2F3 		rbit r3, r2
 417              	@ 0 "" 2
 418              	.LVL25:
 419              		.loc 2 544 3 view .LVU118
 420              		.loc 2 544 3 is_stmt 0 view .LVU119
 421              		.thumb
 422              		.syntax unified
 423              	.LBE175:
 424              	.LBE174:
 425              		.loc 1 430 9 view .LVU120
 426 00be B3FA83F3 		clz	r3, r3
 427 00c2 03F18453 		add	r3, r3, #276824064
 428 00c6 03F58413 		add	r3, r3, #1081344
 429 00ca 9B00     		lsls	r3, r3, #2
 430 00cc 1A60     		str	r2, [r3]
 431:Drivers/STM32F3xx_HAL_Driver/Src/stm32f3xx_hal_rcc.c ****         
 432:Drivers/STM32F3xx_HAL_Driver/Src/stm32f3xx_hal_rcc.c ****         /* Get Start Tick */
 433:Drivers/STM32F3xx_HAL_Driver/Src/stm32f3xx_hal_rcc.c ****         tickstart = HAL_GetTick();
 431              		.loc 1 433 9 is_stmt 1 view .LVU121
 432              		.loc 1 433 21 is_stmt 0 view .LVU122
 433 00ce FFF7FEFF 		bl	HAL_GetTick
 434              	.LVL26:
 435 00d2 0546     		mov	r5, r0
 436              	.LVL27:
 434:Drivers/STM32F3xx_HAL_Driver/Src/stm32f3xx_hal_rcc.c ****         
 435:Drivers/STM32F3xx_HAL_Driver/Src/stm32f3xx_hal_rcc.c ****         /* Wait till HSI is ready */
 436:Drivers/STM32F3xx_HAL_Driver/Src/stm32f3xx_hal_rcc.c ****         while(__HAL_RCC_GET_FLAG(RCC_FLAG_HSIRDY) == RESET)
 437              		.loc 1 436 9 is_stmt 1 view .LVU123
 438              	.L47:
 439              		.loc 1 436 14 view .LVU124
 440              	.LBB176:
 441              	.LBI176:
 526:Drivers/CMSIS/Include/cmsis_gcc.h **** {
 442              		.loc 2 526 57 view .LVU125
 443              	.LBB177:
ARM GAS  /var/folders/80/65lm4rm97rv_n74c85vt01040000gn/T//ccntfwFR.s 			page 27


 528:Drivers/CMSIS/Include/cmsis_gcc.h **** 
 444              		.loc 2 528 3 view .LVU126
 531:Drivers/CMSIS/Include/cmsis_gcc.h **** #else
 445              		.loc 2 531 4 view .LVU127
 446 00d4 0223     		movs	r3, #2
 447              		.syntax unified
 448              	@ 531 "Drivers/CMSIS/Include/cmsis_gcc.h" 1
 449 00d6 93FAA3F3 		rbit r3, r3
 450              	@ 0 "" 2
 451              		.loc 2 544 3 view .LVU128
 452              	.LVL28:
 453              		.loc 2 544 3 is_stmt 0 view .LVU129
 454              		.thumb
 455              		.syntax unified
 456              	.LBE177:
 457              	.LBE176:
 458              		.loc 1 436 15 view .LVU130
 459 00da 844B     		ldr	r3, .L131
 460 00dc 1968     		ldr	r1, [r3]
 461              	.LVL29:
 462              	.LBB178:
 463              	.LBI178:
 526:Drivers/CMSIS/Include/cmsis_gcc.h **** {
 464              		.loc 2 526 57 is_stmt 1 view .LVU131
 465              	.LBB179:
 528:Drivers/CMSIS/Include/cmsis_gcc.h **** 
 466              		.loc 2 528 3 view .LVU132
 531:Drivers/CMSIS/Include/cmsis_gcc.h **** #else
 467              		.loc 2 531 4 view .LVU133
 468 00de 0223     		movs	r3, #2
 469              		.syntax unified
 470              	@ 531 "Drivers/CMSIS/Include/cmsis_gcc.h" 1
 471 00e0 93FAA3F3 		rbit r3, r3
 472              	@ 0 "" 2
 473              	.LVL30:
 474              		.loc 2 544 3 view .LVU134
 475              		.loc 2 544 3 is_stmt 0 view .LVU135
 476              		.thumb
 477              		.syntax unified
 478              	.LBE179:
 479              	.LBE178:
 480              		.loc 1 436 15 view .LVU136
 481 00e4 B3FA83F3 		clz	r3, r3
 482 00e8 03F01F03 		and	r3, r3, #31
 483 00ec 0122     		movs	r2, #1
 484 00ee 02FA03F3 		lsl	r3, r2, r3
 485              		.loc 1 436 14 view .LVU137
 486 00f2 0B42     		tst	r3, r1
 487 00f4 40F0C380 		bne	.L119
 437:Drivers/STM32F3xx_HAL_Driver/Src/stm32f3xx_hal_rcc.c ****         {
 438:Drivers/STM32F3xx_HAL_Driver/Src/stm32f3xx_hal_rcc.c ****           if((HAL_GetTick() - tickstart ) > HSI_TIMEOUT_VALUE)
 488              		.loc 1 438 11 is_stmt 1 view .LVU138
 489              		.loc 1 438 15 is_stmt 0 view .LVU139
 490 00f8 FFF7FEFF 		bl	HAL_GetTick
 491              	.LVL31:
 492              		.loc 1 438 29 view .LVU140
 493 00fc 401B     		subs	r0, r0, r5
ARM GAS  /var/folders/80/65lm4rm97rv_n74c85vt01040000gn/T//ccntfwFR.s 			page 28


 494              		.loc 1 438 13 view .LVU141
 495 00fe 0228     		cmp	r0, #2
 496 0100 E8D9     		bls	.L47
 439:Drivers/STM32F3xx_HAL_Driver/Src/stm32f3xx_hal_rcc.c ****           {
 440:Drivers/STM32F3xx_HAL_Driver/Src/stm32f3xx_hal_rcc.c ****             return HAL_TIMEOUT;
 497              		.loc 1 440 20 view .LVU142
 498 0102 0320     		movs	r0, #3
 499 0104 7BE2     		b	.L21
 500              	.LVL32:
 501              	.L116:
 363:Drivers/STM32F3xx_HAL_Driver/Src/stm32f3xx_hal_rcc.c ****       
 502              		.loc 1 363 7 is_stmt 1 discriminator 1 view .LVU143
 503 0106 794A     		ldr	r2, .L131
 504 0108 1368     		ldr	r3, [r2]
 505 010a 43F48033 		orr	r3, r3, #65536
 506 010e 1360     		str	r3, [r2]
 507              	.L28:
 363:Drivers/STM32F3xx_HAL_Driver/Src/stm32f3xx_hal_rcc.c ****       
 508              		.loc 1 363 7 discriminator 10 view .LVU144
 367:Drivers/STM32F3xx_HAL_Driver/Src/stm32f3xx_hal_rcc.c **** #endif /* RCC_CFGR_PLLSRC_HSI_DIV2 */
 509              		.loc 1 367 7 discriminator 10 view .LVU145
 510 0110 764A     		ldr	r2, .L131
 511 0112 D36A     		ldr	r3, [r2, #44]
 512 0114 23F00F03 		bic	r3, r3, #15
 513 0118 A168     		ldr	r1, [r4, #8]
 514 011a 0B43     		orrs	r3, r3, r1
 515 011c D362     		str	r3, [r2, #44]
 371:Drivers/STM32F3xx_HAL_Driver/Src/stm32f3xx_hal_rcc.c ****       {
 516              		.loc 1 371 7 discriminator 10 view .LVU146
 371:Drivers/STM32F3xx_HAL_Driver/Src/stm32f3xx_hal_rcc.c ****       {
 517              		.loc 1 371 27 is_stmt 0 discriminator 10 view .LVU147
 518 011e 6368     		ldr	r3, [r4, #4]
 371:Drivers/STM32F3xx_HAL_Driver/Src/stm32f3xx_hal_rcc.c ****       {
 519              		.loc 1 371 9 discriminator 10 view .LVU148
 520 0120 002B     		cmp	r3, #0
 521 0122 36D0     		beq	.L31
 374:Drivers/STM32F3xx_HAL_Driver/Src/stm32f3xx_hal_rcc.c ****         
 522              		.loc 1 374 9 is_stmt 1 view .LVU149
 374:Drivers/STM32F3xx_HAL_Driver/Src/stm32f3xx_hal_rcc.c ****         
 523              		.loc 1 374 21 is_stmt 0 view .LVU150
 524 0124 FFF7FEFF 		bl	HAL_GetTick
 525              	.LVL33:
 374:Drivers/STM32F3xx_HAL_Driver/Src/stm32f3xx_hal_rcc.c ****         
 526              		.loc 1 374 21 view .LVU151
 527 0128 0546     		mov	r5, r0
 528              	.LVL34:
 377:Drivers/STM32F3xx_HAL_Driver/Src/stm32f3xx_hal_rcc.c ****         {
 529              		.loc 1 377 9 is_stmt 1 view .LVU152
 530              	.L32:
 377:Drivers/STM32F3xx_HAL_Driver/Src/stm32f3xx_hal_rcc.c ****         {
 531              		.loc 1 377 14 view .LVU153
 532              	.LBB180:
 533              	.LBI180:
 526:Drivers/CMSIS/Include/cmsis_gcc.h **** {
 534              		.loc 2 526 57 view .LVU154
 535              	.LBB181:
 528:Drivers/CMSIS/Include/cmsis_gcc.h **** 
ARM GAS  /var/folders/80/65lm4rm97rv_n74c85vt01040000gn/T//ccntfwFR.s 			page 29


 536              		.loc 2 528 3 view .LVU155
 531:Drivers/CMSIS/Include/cmsis_gcc.h **** #else
 537              		.loc 2 531 4 view .LVU156
 538 012a 4FF40033 		mov	r3, #131072
 539              		.syntax unified
 540              	@ 531 "Drivers/CMSIS/Include/cmsis_gcc.h" 1
 541 012e 93FAA3F3 		rbit r3, r3
 542              	@ 0 "" 2
 543              		.loc 2 544 3 view .LVU157
 544              	.LVL35:
 545              		.loc 2 544 3 is_stmt 0 view .LVU158
 546              		.thumb
 547              		.syntax unified
 548              	.LBE181:
 549              	.LBE180:
 377:Drivers/STM32F3xx_HAL_Driver/Src/stm32f3xx_hal_rcc.c ****         {
 550              		.loc 1 377 15 view .LVU159
 551 0132 6E4B     		ldr	r3, .L131
 552 0134 1968     		ldr	r1, [r3]
 553              	.LVL36:
 554              	.LBB182:
 555              	.LBI182:
 526:Drivers/CMSIS/Include/cmsis_gcc.h **** {
 556              		.loc 2 526 57 is_stmt 1 view .LVU160
 557              	.LBB183:
 528:Drivers/CMSIS/Include/cmsis_gcc.h **** 
 558              		.loc 2 528 3 view .LVU161
 531:Drivers/CMSIS/Include/cmsis_gcc.h **** #else
 559              		.loc 2 531 4 view .LVU162
 560 0136 4FF40033 		mov	r3, #131072
 561              		.syntax unified
 562              	@ 531 "Drivers/CMSIS/Include/cmsis_gcc.h" 1
 563 013a 93FAA3F3 		rbit r3, r3
 564              	@ 0 "" 2
 565              	.LVL37:
 566              		.loc 2 544 3 view .LVU163
 567              		.loc 2 544 3 is_stmt 0 view .LVU164
 568              		.thumb
 569              		.syntax unified
 570              	.LBE183:
 571              	.LBE182:
 377:Drivers/STM32F3xx_HAL_Driver/Src/stm32f3xx_hal_rcc.c ****         {
 572              		.loc 1 377 15 view .LVU165
 573 013e B3FA83F3 		clz	r3, r3
 574 0142 03F01F03 		and	r3, r3, #31
 575 0146 0122     		movs	r2, #1
 576 0148 02FA03F3 		lsl	r3, r2, r3
 377:Drivers/STM32F3xx_HAL_Driver/Src/stm32f3xx_hal_rcc.c ****         {
 577              		.loc 1 377 14 view .LVU166
 578 014c 0B42     		tst	r3, r1
 579 014e 9DD1     		bne	.L22
 379:Drivers/STM32F3xx_HAL_Driver/Src/stm32f3xx_hal_rcc.c ****           {
 580              		.loc 1 379 11 is_stmt 1 view .LVU167
 379:Drivers/STM32F3xx_HAL_Driver/Src/stm32f3xx_hal_rcc.c ****           {
 581              		.loc 1 379 15 is_stmt 0 view .LVU168
 582 0150 FFF7FEFF 		bl	HAL_GetTick
 583              	.LVL38:
ARM GAS  /var/folders/80/65lm4rm97rv_n74c85vt01040000gn/T//ccntfwFR.s 			page 30


 379:Drivers/STM32F3xx_HAL_Driver/Src/stm32f3xx_hal_rcc.c ****           {
 584              		.loc 1 379 29 view .LVU169
 585 0154 401B     		subs	r0, r0, r5
 379:Drivers/STM32F3xx_HAL_Driver/Src/stm32f3xx_hal_rcc.c ****           {
 586              		.loc 1 379 13 view .LVU170
 587 0156 6428     		cmp	r0, #100
 588 0158 E7D9     		bls	.L32
 381:Drivers/STM32F3xx_HAL_Driver/Src/stm32f3xx_hal_rcc.c ****           }
 589              		.loc 1 381 20 view .LVU171
 590 015a 0320     		movs	r0, #3
 591 015c 4FE2     		b	.L21
 592              	.LVL39:
 593              	.L29:
 363:Drivers/STM32F3xx_HAL_Driver/Src/stm32f3xx_hal_rcc.c ****       
 594              		.loc 1 363 7 is_stmt 1 discriminator 5 view .LVU172
 595 015e B3F5A02F 		cmp	r3, #327680
 596 0162 09D0     		beq	.L120
 363:Drivers/STM32F3xx_HAL_Driver/Src/stm32f3xx_hal_rcc.c ****       
 597              		.loc 1 363 7 discriminator 8 view .LVU173
 598 0164 614B     		ldr	r3, .L131
 599 0166 1A68     		ldr	r2, [r3]
 600 0168 22F48032 		bic	r2, r2, #65536
 601 016c 1A60     		str	r2, [r3]
 363:Drivers/STM32F3xx_HAL_Driver/Src/stm32f3xx_hal_rcc.c ****       
 602              		.loc 1 363 7 discriminator 8 view .LVU174
 603 016e 1A68     		ldr	r2, [r3]
 604 0170 22F48022 		bic	r2, r2, #262144
 605 0174 1A60     		str	r2, [r3]
 606 0176 CBE7     		b	.L28
 607              	.L120:
 363:Drivers/STM32F3xx_HAL_Driver/Src/stm32f3xx_hal_rcc.c ****       
 608              		.loc 1 363 7 discriminator 7 view .LVU175
 609 0178 03F18043 		add	r3, r3, #1073741824
 610 017c A3F53C33 		sub	r3, r3, #192512
 611 0180 1A68     		ldr	r2, [r3]
 612 0182 42F48022 		orr	r2, r2, #262144
 613 0186 1A60     		str	r2, [r3]
 363:Drivers/STM32F3xx_HAL_Driver/Src/stm32f3xx_hal_rcc.c ****       
 614              		.loc 1 363 7 discriminator 7 view .LVU176
 615 0188 1A68     		ldr	r2, [r3]
 616 018a 42F48032 		orr	r2, r2, #65536
 617 018e 1A60     		str	r2, [r3]
 618 0190 BEE7     		b	.L28
 619              	.L31:
 388:Drivers/STM32F3xx_HAL_Driver/Src/stm32f3xx_hal_rcc.c ****         
 620              		.loc 1 388 9 view .LVU177
 388:Drivers/STM32F3xx_HAL_Driver/Src/stm32f3xx_hal_rcc.c ****         
 621              		.loc 1 388 21 is_stmt 0 view .LVU178
 622 0192 FFF7FEFF 		bl	HAL_GetTick
 623              	.LVL40:
 388:Drivers/STM32F3xx_HAL_Driver/Src/stm32f3xx_hal_rcc.c ****         
 624              		.loc 1 388 21 view .LVU179
 625 0196 0546     		mov	r5, r0
 626              	.LVL41:
 391:Drivers/STM32F3xx_HAL_Driver/Src/stm32f3xx_hal_rcc.c ****         {
 627              		.loc 1 391 9 is_stmt 1 view .LVU180
 628              	.L36:
ARM GAS  /var/folders/80/65lm4rm97rv_n74c85vt01040000gn/T//ccntfwFR.s 			page 31


 391:Drivers/STM32F3xx_HAL_Driver/Src/stm32f3xx_hal_rcc.c ****         {
 629              		.loc 1 391 14 view .LVU181
 630              	.LBB184:
 631              	.LBI184:
 526:Drivers/CMSIS/Include/cmsis_gcc.h **** {
 632              		.loc 2 526 57 view .LVU182
 633              	.LBB185:
 528:Drivers/CMSIS/Include/cmsis_gcc.h **** 
 634              		.loc 2 528 3 view .LVU183
 531:Drivers/CMSIS/Include/cmsis_gcc.h **** #else
 635              		.loc 2 531 4 view .LVU184
 636 0198 4FF40033 		mov	r3, #131072
 637              		.syntax unified
 638              	@ 531 "Drivers/CMSIS/Include/cmsis_gcc.h" 1
 639 019c 93FAA3F3 		rbit r3, r3
 640              	@ 0 "" 2
 641              		.loc 2 544 3 view .LVU185
 642              	.LVL42:
 643              		.loc 2 544 3 is_stmt 0 view .LVU186
 644              		.thumb
 645              		.syntax unified
 646              	.LBE185:
 647              	.LBE184:
 391:Drivers/STM32F3xx_HAL_Driver/Src/stm32f3xx_hal_rcc.c ****         {
 648              		.loc 1 391 15 view .LVU187
 649 01a0 524B     		ldr	r3, .L131
 650 01a2 1968     		ldr	r1, [r3]
 651              	.LVL43:
 652              	.LBB186:
 653              	.LBI186:
 526:Drivers/CMSIS/Include/cmsis_gcc.h **** {
 654              		.loc 2 526 57 is_stmt 1 view .LVU188
 655              	.LBB187:
 528:Drivers/CMSIS/Include/cmsis_gcc.h **** 
 656              		.loc 2 528 3 view .LVU189
 531:Drivers/CMSIS/Include/cmsis_gcc.h **** #else
 657              		.loc 2 531 4 view .LVU190
 658 01a4 4FF40033 		mov	r3, #131072
 659              		.syntax unified
 660              	@ 531 "Drivers/CMSIS/Include/cmsis_gcc.h" 1
 661 01a8 93FAA3F3 		rbit r3, r3
 662              	@ 0 "" 2
 663              	.LVL44:
 664              		.loc 2 544 3 view .LVU191
 665              		.loc 2 544 3 is_stmt 0 view .LVU192
 666              		.thumb
 667              		.syntax unified
 668              	.LBE187:
 669              	.LBE186:
 391:Drivers/STM32F3xx_HAL_Driver/Src/stm32f3xx_hal_rcc.c ****         {
 670              		.loc 1 391 15 view .LVU193
 671 01ac B3FA83F3 		clz	r3, r3
 672 01b0 03F01F03 		and	r3, r3, #31
 673 01b4 0122     		movs	r2, #1
 674 01b6 02FA03F3 		lsl	r3, r2, r3
 391:Drivers/STM32F3xx_HAL_Driver/Src/stm32f3xx_hal_rcc.c ****         {
 675              		.loc 1 391 14 view .LVU194
ARM GAS  /var/folders/80/65lm4rm97rv_n74c85vt01040000gn/T//ccntfwFR.s 			page 32


 676 01ba 0B42     		tst	r3, r1
 677 01bc 3FF466AF 		beq	.L22
 393:Drivers/STM32F3xx_HAL_Driver/Src/stm32f3xx_hal_rcc.c ****           {
 678              		.loc 1 393 12 is_stmt 1 view .LVU195
 393:Drivers/STM32F3xx_HAL_Driver/Src/stm32f3xx_hal_rcc.c ****           {
 679              		.loc 1 393 16 is_stmt 0 view .LVU196
 680 01c0 FFF7FEFF 		bl	HAL_GetTick
 681              	.LVL45:
 393:Drivers/STM32F3xx_HAL_Driver/Src/stm32f3xx_hal_rcc.c ****           {
 682              		.loc 1 393 30 view .LVU197
 683 01c4 401B     		subs	r0, r0, r5
 393:Drivers/STM32F3xx_HAL_Driver/Src/stm32f3xx_hal_rcc.c ****           {
 684              		.loc 1 393 14 view .LVU198
 685 01c6 6428     		cmp	r0, #100
 686 01c8 E6D9     		bls	.L36
 395:Drivers/STM32F3xx_HAL_Driver/Src/stm32f3xx_hal_rcc.c ****           }
 687              		.loc 1 395 20 view .LVU199
 688 01ca 0320     		movs	r0, #3
 689 01cc 17E2     		b	.L21
 690              	.LVL46:
 691              	.L118:
 410:Drivers/STM32F3xx_HAL_Driver/Src/stm32f3xx_hal_rcc.c ****     {
 692              		.loc 1 410 82 discriminator 1 view .LVU200
 693 01ce 474B     		ldr	r3, .L131
 694 01d0 5B68     		ldr	r3, [r3, #4]
 410:Drivers/STM32F3xx_HAL_Driver/Src/stm32f3xx_hal_rcc.c ****     {
 695              		.loc 1 410 78 discriminator 1 view .LVU201
 696 01d2 13F4803F 		tst	r3, #65536
 697 01d6 7FF46BAF 		bne	.L42
 698              	.L41:
 413:Drivers/STM32F3xx_HAL_Driver/Src/stm32f3xx_hal_rcc.c ****       {
 699              		.loc 1 413 7 is_stmt 1 view .LVU202
 700              	.LVL47:
 701              	.LBB188:
 702              	.LBI188:
 526:Drivers/CMSIS/Include/cmsis_gcc.h **** {
 703              		.loc 2 526 57 view .LVU203
 704              	.LBB189:
 528:Drivers/CMSIS/Include/cmsis_gcc.h **** 
 705              		.loc 2 528 3 view .LVU204
 531:Drivers/CMSIS/Include/cmsis_gcc.h **** #else
 706              		.loc 2 531 4 view .LVU205
 707 01da 0223     		movs	r3, #2
 708              		.syntax unified
 709              	@ 531 "Drivers/CMSIS/Include/cmsis_gcc.h" 1
 710 01dc 93FAA3F3 		rbit r3, r3
 711              	@ 0 "" 2
 712              		.loc 2 544 3 view .LVU206
 713              	.LVL48:
 714              		.loc 2 544 3 is_stmt 0 view .LVU207
 715              		.thumb
 716              		.syntax unified
 717              	.LBE189:
 718              	.LBE188:
 413:Drivers/STM32F3xx_HAL_Driver/Src/stm32f3xx_hal_rcc.c ****       {
 719              		.loc 1 413 11 view .LVU208
 720 01e0 424B     		ldr	r3, .L131
ARM GAS  /var/folders/80/65lm4rm97rv_n74c85vt01040000gn/T//ccntfwFR.s 			page 33


 721 01e2 1968     		ldr	r1, [r3]
 722              	.LVL49:
 723              	.LBB190:
 724              	.LBI190:
 526:Drivers/CMSIS/Include/cmsis_gcc.h **** {
 725              		.loc 2 526 57 is_stmt 1 view .LVU209
 726              	.LBB191:
 528:Drivers/CMSIS/Include/cmsis_gcc.h **** 
 727              		.loc 2 528 3 view .LVU210
 531:Drivers/CMSIS/Include/cmsis_gcc.h **** #else
 728              		.loc 2 531 4 view .LVU211
 729 01e4 0223     		movs	r3, #2
 730              		.syntax unified
 731              	@ 531 "Drivers/CMSIS/Include/cmsis_gcc.h" 1
 732 01e6 93FAA3F3 		rbit r3, r3
 733              	@ 0 "" 2
 734              	.LVL50:
 735              		.loc 2 544 3 view .LVU212
 736              		.loc 2 544 3 is_stmt 0 view .LVU213
 737              		.thumb
 738              		.syntax unified
 739              	.LBE191:
 740              	.LBE190:
 413:Drivers/STM32F3xx_HAL_Driver/Src/stm32f3xx_hal_rcc.c ****       {
 741              		.loc 1 413 11 view .LVU214
 742 01ea B3FA83F3 		clz	r3, r3
 743 01ee 03F01F03 		and	r3, r3, #31
 744 01f2 0122     		movs	r2, #1
 745 01f4 02FA03F3 		lsl	r3, r2, r3
 413:Drivers/STM32F3xx_HAL_Driver/Src/stm32f3xx_hal_rcc.c ****       {
 746              		.loc 1 413 9 view .LVU215
 747 01f8 0B42     		tst	r3, r1
 748 01fa 03D0     		beq	.L45
 413:Drivers/STM32F3xx_HAL_Driver/Src/stm32f3xx_hal_rcc.c ****       {
 749              		.loc 1 413 78 discriminator 13 view .LVU216
 750 01fc 2369     		ldr	r3, [r4, #16]
 413:Drivers/STM32F3xx_HAL_Driver/Src/stm32f3xx_hal_rcc.c ****       {
 751              		.loc 1 413 57 discriminator 13 view .LVU217
 752 01fe 9342     		cmp	r3, r2
 753 0200 40F0F681 		bne	.L97
 754              	.L45:
 421:Drivers/STM32F3xx_HAL_Driver/Src/stm32f3xx_hal_rcc.c ****       }
 755              		.loc 1 421 9 is_stmt 1 view .LVU218
 756 0204 3948     		ldr	r0, .L131
 757 0206 0368     		ldr	r3, [r0]
 758 0208 23F0F803 		bic	r3, r3, #248
 759 020c 6169     		ldr	r1, [r4, #20]
 760              	.LVL51:
 761              	.LBB192:
 762              	.LBI192:
 526:Drivers/CMSIS/Include/cmsis_gcc.h **** {
 763              		.loc 2 526 57 view .LVU219
 764              	.LBB193:
 528:Drivers/CMSIS/Include/cmsis_gcc.h **** 
 765              		.loc 2 528 3 view .LVU220
 531:Drivers/CMSIS/Include/cmsis_gcc.h **** #else
 766              		.loc 2 531 4 view .LVU221
ARM GAS  /var/folders/80/65lm4rm97rv_n74c85vt01040000gn/T//ccntfwFR.s 			page 34


 767 020e F822     		movs	r2, #248
 768              		.syntax unified
 769              	@ 531 "Drivers/CMSIS/Include/cmsis_gcc.h" 1
 770 0210 92FAA2F2 		rbit r2, r2
 771              	@ 0 "" 2
 772              	.LVL52:
 773              		.loc 2 544 3 view .LVU222
 774              		.loc 2 544 3 is_stmt 0 view .LVU223
 775              		.thumb
 776              		.syntax unified
 777              	.LBE193:
 778              	.LBE192:
 421:Drivers/STM32F3xx_HAL_Driver/Src/stm32f3xx_hal_rcc.c ****       }
 779              		.loc 1 421 9 view .LVU224
 780 0214 B2FA82F2 		clz	r2, r2
 781 0218 01FA02F2 		lsl	r2, r1, r2
 782 021c 1343     		orrs	r3, r3, r2
 783 021e 0360     		str	r3, [r0]
 784              	.L40:
 441:Drivers/STM32F3xx_HAL_Driver/Src/stm32f3xx_hal_rcc.c ****           }
 442:Drivers/STM32F3xx_HAL_Driver/Src/stm32f3xx_hal_rcc.c ****         }
 443:Drivers/STM32F3xx_HAL_Driver/Src/stm32f3xx_hal_rcc.c ****                 
 444:Drivers/STM32F3xx_HAL_Driver/Src/stm32f3xx_hal_rcc.c ****         /* Adjusts the Internal High Speed oscillator (HSI) calibration value.*/
 445:Drivers/STM32F3xx_HAL_Driver/Src/stm32f3xx_hal_rcc.c ****         __HAL_RCC_HSI_CALIBRATIONVALUE_ADJUST(RCC_OscInitStruct->HSICalibrationValue);
 446:Drivers/STM32F3xx_HAL_Driver/Src/stm32f3xx_hal_rcc.c ****       }
 447:Drivers/STM32F3xx_HAL_Driver/Src/stm32f3xx_hal_rcc.c ****       else
 448:Drivers/STM32F3xx_HAL_Driver/Src/stm32f3xx_hal_rcc.c ****       {
 449:Drivers/STM32F3xx_HAL_Driver/Src/stm32f3xx_hal_rcc.c ****         /* Disable the Internal High Speed oscillator (HSI). */
 450:Drivers/STM32F3xx_HAL_Driver/Src/stm32f3xx_hal_rcc.c ****         __HAL_RCC_HSI_DISABLE();
 451:Drivers/STM32F3xx_HAL_Driver/Src/stm32f3xx_hal_rcc.c ****         
 452:Drivers/STM32F3xx_HAL_Driver/Src/stm32f3xx_hal_rcc.c ****         /* Get Start Tick */
 453:Drivers/STM32F3xx_HAL_Driver/Src/stm32f3xx_hal_rcc.c ****         tickstart = HAL_GetTick();
 454:Drivers/STM32F3xx_HAL_Driver/Src/stm32f3xx_hal_rcc.c ****         
 455:Drivers/STM32F3xx_HAL_Driver/Src/stm32f3xx_hal_rcc.c ****         /* Wait till HSI is disabled */
 456:Drivers/STM32F3xx_HAL_Driver/Src/stm32f3xx_hal_rcc.c ****         while(__HAL_RCC_GET_FLAG(RCC_FLAG_HSIRDY) != RESET)
 457:Drivers/STM32F3xx_HAL_Driver/Src/stm32f3xx_hal_rcc.c ****         {
 458:Drivers/STM32F3xx_HAL_Driver/Src/stm32f3xx_hal_rcc.c ****           if((HAL_GetTick() - tickstart ) > HSI_TIMEOUT_VALUE)
 459:Drivers/STM32F3xx_HAL_Driver/Src/stm32f3xx_hal_rcc.c ****           {
 460:Drivers/STM32F3xx_HAL_Driver/Src/stm32f3xx_hal_rcc.c ****             return HAL_TIMEOUT;
 461:Drivers/STM32F3xx_HAL_Driver/Src/stm32f3xx_hal_rcc.c ****           }
 462:Drivers/STM32F3xx_HAL_Driver/Src/stm32f3xx_hal_rcc.c ****         }
 463:Drivers/STM32F3xx_HAL_Driver/Src/stm32f3xx_hal_rcc.c ****       }
 464:Drivers/STM32F3xx_HAL_Driver/Src/stm32f3xx_hal_rcc.c ****     }
 465:Drivers/STM32F3xx_HAL_Driver/Src/stm32f3xx_hal_rcc.c ****   }
 466:Drivers/STM32F3xx_HAL_Driver/Src/stm32f3xx_hal_rcc.c ****   /*------------------------------ LSI Configuration -------------------------*/ 
 467:Drivers/STM32F3xx_HAL_Driver/Src/stm32f3xx_hal_rcc.c ****   if(((RCC_OscInitStruct->OscillatorType) & RCC_OSCILLATORTYPE_LSI) == RCC_OSCILLATORTYPE_LSI)
 785              		.loc 1 467 3 is_stmt 1 view .LVU225
 786              		.loc 1 467 25 is_stmt 0 view .LVU226
 787 0220 2368     		ldr	r3, [r4]
 788              		.loc 1 467 5 view .LVU227
 789 0222 13F0080F 		tst	r3, #8
 790 0226 00F08D80 		beq	.L55
 468:Drivers/STM32F3xx_HAL_Driver/Src/stm32f3xx_hal_rcc.c ****   {
 469:Drivers/STM32F3xx_HAL_Driver/Src/stm32f3xx_hal_rcc.c ****     /* Check the parameters */
 470:Drivers/STM32F3xx_HAL_Driver/Src/stm32f3xx_hal_rcc.c ****     assert_param(IS_RCC_LSI(RCC_OscInitStruct->LSIState));
 791              		.loc 1 470 5 is_stmt 1 view .LVU228
 471:Drivers/STM32F3xx_HAL_Driver/Src/stm32f3xx_hal_rcc.c ****     
ARM GAS  /var/folders/80/65lm4rm97rv_n74c85vt01040000gn/T//ccntfwFR.s 			page 35


 472:Drivers/STM32F3xx_HAL_Driver/Src/stm32f3xx_hal_rcc.c ****     /* Check the LSI State */
 473:Drivers/STM32F3xx_HAL_Driver/Src/stm32f3xx_hal_rcc.c ****     if(RCC_OscInitStruct->LSIState != RCC_LSI_OFF)
 792              		.loc 1 473 5 view .LVU229
 793              		.loc 1 473 25 is_stmt 0 view .LVU230
 794 022a A369     		ldr	r3, [r4, #24]
 795              		.loc 1 473 7 view .LVU231
 796 022c 002B     		cmp	r3, #0
 797 022e 61D0     		beq	.L56
 474:Drivers/STM32F3xx_HAL_Driver/Src/stm32f3xx_hal_rcc.c ****     {
 475:Drivers/STM32F3xx_HAL_Driver/Src/stm32f3xx_hal_rcc.c ****       /* Enable the Internal Low Speed oscillator (LSI). */
 476:Drivers/STM32F3xx_HAL_Driver/Src/stm32f3xx_hal_rcc.c ****       __HAL_RCC_LSI_ENABLE();
 798              		.loc 1 476 7 is_stmt 1 view .LVU232
 799              	.LVL53:
 800              	.LBB194:
 801              	.LBI194:
 526:Drivers/CMSIS/Include/cmsis_gcc.h **** {
 802              		.loc 2 526 57 view .LVU233
 803              	.LBB195:
 528:Drivers/CMSIS/Include/cmsis_gcc.h **** 
 804              		.loc 2 528 3 view .LVU234
 531:Drivers/CMSIS/Include/cmsis_gcc.h **** #else
 805              		.loc 2 531 4 view .LVU235
 806 0230 0121     		movs	r1, #1
 807              		.syntax unified
 808              	@ 531 "Drivers/CMSIS/Include/cmsis_gcc.h" 1
 809 0232 91FAA1F2 		rbit r2, r1
 810              	@ 0 "" 2
 811              	.LVL54:
 812              		.loc 2 544 3 view .LVU236
 813              		.loc 2 544 3 is_stmt 0 view .LVU237
 814              		.thumb
 815              		.syntax unified
 816              	.LBE195:
 817              	.LBE194:
 818              		.loc 1 476 7 view .LVU238
 819 0236 B2FA82F2 		clz	r2, r2
 820 023a 2D4B     		ldr	r3, .L131+4
 821 023c 1344     		add	r3, r3, r2
 822 023e 9B00     		lsls	r3, r3, #2
 823 0240 1960     		str	r1, [r3]
 477:Drivers/STM32F3xx_HAL_Driver/Src/stm32f3xx_hal_rcc.c ****       
 478:Drivers/STM32F3xx_HAL_Driver/Src/stm32f3xx_hal_rcc.c ****       /* Get Start Tick */
 479:Drivers/STM32F3xx_HAL_Driver/Src/stm32f3xx_hal_rcc.c ****       tickstart = HAL_GetTick();
 824              		.loc 1 479 7 is_stmt 1 view .LVU239
 825              		.loc 1 479 19 is_stmt 0 view .LVU240
 826 0242 FFF7FEFF 		bl	HAL_GetTick
 827              	.LVL55:
 828 0246 0546     		mov	r5, r0
 829              	.LVL56:
 480:Drivers/STM32F3xx_HAL_Driver/Src/stm32f3xx_hal_rcc.c ****       
 481:Drivers/STM32F3xx_HAL_Driver/Src/stm32f3xx_hal_rcc.c ****       /* Wait till LSI is ready */  
 482:Drivers/STM32F3xx_HAL_Driver/Src/stm32f3xx_hal_rcc.c ****       while(__HAL_RCC_GET_FLAG(RCC_FLAG_LSIRDY) == RESET)
 830              		.loc 1 482 7 is_stmt 1 view .LVU241
 831              	.L57:
 832              		.loc 1 482 12 view .LVU242
 833              	.LBB196:
 834              	.LBI196:
ARM GAS  /var/folders/80/65lm4rm97rv_n74c85vt01040000gn/T//ccntfwFR.s 			page 36


 526:Drivers/CMSIS/Include/cmsis_gcc.h **** {
 835              		.loc 2 526 57 view .LVU243
 836              	.LBB197:
 528:Drivers/CMSIS/Include/cmsis_gcc.h **** 
 837              		.loc 2 528 3 view .LVU244
 531:Drivers/CMSIS/Include/cmsis_gcc.h **** #else
 838              		.loc 2 531 4 view .LVU245
 839 0248 0223     		movs	r3, #2
 840              		.syntax unified
 841              	@ 531 "Drivers/CMSIS/Include/cmsis_gcc.h" 1
 842 024a 93FAA3F2 		rbit r2, r3
 843              	@ 0 "" 2
 844              	.LVL57:
 845              		.loc 2 544 3 view .LVU246
 846              		.loc 2 544 3 is_stmt 0 view .LVU247
 847              		.thumb
 848              		.syntax unified
 849              	.LBE197:
 850              	.LBE196:
 851              	.LBB198:
 852              	.LBI198:
 526:Drivers/CMSIS/Include/cmsis_gcc.h **** {
 853              		.loc 2 526 57 is_stmt 1 view .LVU248
 854              	.LBB199:
 528:Drivers/CMSIS/Include/cmsis_gcc.h **** 
 855              		.loc 2 528 3 view .LVU249
 531:Drivers/CMSIS/Include/cmsis_gcc.h **** #else
 856              		.loc 2 531 4 view .LVU250
 857              		.syntax unified
 858              	@ 531 "Drivers/CMSIS/Include/cmsis_gcc.h" 1
 859 024e 93FAA3F2 		rbit r2, r3
 860              	@ 0 "" 2
 861              	.LVL58:
 862              		.loc 2 544 3 view .LVU251
 863              		.loc 2 544 3 is_stmt 0 view .LVU252
 864              		.thumb
 865              		.syntax unified
 866              	.LBE199:
 867              	.LBE198:
 868              	.LBB200:
 869              	.LBI200:
 526:Drivers/CMSIS/Include/cmsis_gcc.h **** {
 870              		.loc 2 526 57 is_stmt 1 view .LVU253
 871              	.LBB201:
 528:Drivers/CMSIS/Include/cmsis_gcc.h **** 
 872              		.loc 2 528 3 view .LVU254
 531:Drivers/CMSIS/Include/cmsis_gcc.h **** #else
 873              		.loc 2 531 4 view .LVU255
 874              		.syntax unified
 875              	@ 531 "Drivers/CMSIS/Include/cmsis_gcc.h" 1
 876 0252 93FAA3F2 		rbit r2, r3
 877              	@ 0 "" 2
 878              	.LVL59:
 879              		.loc 2 544 3 view .LVU256
 880              		.loc 2 544 3 is_stmt 0 view .LVU257
 881              		.thumb
 882              		.syntax unified
ARM GAS  /var/folders/80/65lm4rm97rv_n74c85vt01040000gn/T//ccntfwFR.s 			page 37


 883              	.LBE201:
 884              	.LBE200:
 885              		.loc 1 482 13 view .LVU258
 886 0256 254A     		ldr	r2, .L131
 887 0258 516A     		ldr	r1, [r2, #36]
 888              	.LVL60:
 889              	.LBB202:
 890              	.LBI202:
 526:Drivers/CMSIS/Include/cmsis_gcc.h **** {
 891              		.loc 2 526 57 is_stmt 1 view .LVU259
 892              	.LBB203:
 528:Drivers/CMSIS/Include/cmsis_gcc.h **** 
 893              		.loc 2 528 3 view .LVU260
 531:Drivers/CMSIS/Include/cmsis_gcc.h **** #else
 894              		.loc 2 531 4 view .LVU261
 895              		.syntax unified
 896              	@ 531 "Drivers/CMSIS/Include/cmsis_gcc.h" 1
 897 025a 93FAA3F3 		rbit r3, r3
 898              	@ 0 "" 2
 899              	.LVL61:
 900              		.loc 2 544 3 view .LVU262
 901              		.loc 2 544 3 is_stmt 0 view .LVU263
 902              		.thumb
 903              		.syntax unified
 904              	.LBE203:
 905              	.LBE202:
 906              		.loc 1 482 13 view .LVU264
 907 025e B3FA83F3 		clz	r3, r3
 908 0262 03F01F03 		and	r3, r3, #31
 909 0266 0122     		movs	r2, #1
 910 0268 02FA03F3 		lsl	r3, r2, r3
 911              		.loc 1 482 12 view .LVU265
 912 026c 0B42     		tst	r3, r1
 913 026e 69D1     		bne	.L55
 483:Drivers/STM32F3xx_HAL_Driver/Src/stm32f3xx_hal_rcc.c ****       {
 484:Drivers/STM32F3xx_HAL_Driver/Src/stm32f3xx_hal_rcc.c ****         if((HAL_GetTick() - tickstart ) > LSI_TIMEOUT_VALUE)
 914              		.loc 1 484 9 is_stmt 1 view .LVU266
 915              		.loc 1 484 13 is_stmt 0 view .LVU267
 916 0270 FFF7FEFF 		bl	HAL_GetTick
 917              	.LVL62:
 918              		.loc 1 484 27 view .LVU268
 919 0274 401B     		subs	r0, r0, r5
 920              		.loc 1 484 11 view .LVU269
 921 0276 0228     		cmp	r0, #2
 922 0278 E6D9     		bls	.L57
 485:Drivers/STM32F3xx_HAL_Driver/Src/stm32f3xx_hal_rcc.c ****         {
 486:Drivers/STM32F3xx_HAL_Driver/Src/stm32f3xx_hal_rcc.c ****           return HAL_TIMEOUT;
 923              		.loc 1 486 18 view .LVU270
 924 027a 0320     		movs	r0, #3
 925 027c BFE1     		b	.L21
 926              	.L119:
 445:Drivers/STM32F3xx_HAL_Driver/Src/stm32f3xx_hal_rcc.c ****       }
 927              		.loc 1 445 9 is_stmt 1 view .LVU271
 928 027e 1B48     		ldr	r0, .L131
 929 0280 0368     		ldr	r3, [r0]
 930 0282 23F0F803 		bic	r3, r3, #248
 931 0286 6169     		ldr	r1, [r4, #20]
ARM GAS  /var/folders/80/65lm4rm97rv_n74c85vt01040000gn/T//ccntfwFR.s 			page 38


 932              	.LVL63:
 933              	.LBB204:
 934              	.LBI204:
 526:Drivers/CMSIS/Include/cmsis_gcc.h **** {
 935              		.loc 2 526 57 view .LVU272
 936              	.LBB205:
 528:Drivers/CMSIS/Include/cmsis_gcc.h **** 
 937              		.loc 2 528 3 view .LVU273
 531:Drivers/CMSIS/Include/cmsis_gcc.h **** #else
 938              		.loc 2 531 4 view .LVU274
 939 0288 F822     		movs	r2, #248
 940              		.syntax unified
 941              	@ 531 "Drivers/CMSIS/Include/cmsis_gcc.h" 1
 942 028a 92FAA2F2 		rbit r2, r2
 943              	@ 0 "" 2
 944              	.LVL64:
 945              		.loc 2 544 3 view .LVU275
 946              		.loc 2 544 3 is_stmt 0 view .LVU276
 947              		.thumb
 948              		.syntax unified
 949              	.LBE205:
 950              	.LBE204:
 445:Drivers/STM32F3xx_HAL_Driver/Src/stm32f3xx_hal_rcc.c ****       }
 951              		.loc 1 445 9 view .LVU277
 952 028e B2FA82F2 		clz	r2, r2
 953 0292 01FA02F2 		lsl	r2, r1, r2
 954 0296 1343     		orrs	r3, r3, r2
 955 0298 0360     		str	r3, [r0]
 956 029a C1E7     		b	.L40
 957              	.LVL65:
 958              	.L46:
 450:Drivers/STM32F3xx_HAL_Driver/Src/stm32f3xx_hal_rcc.c ****         
 959              		.loc 1 450 9 is_stmt 1 view .LVU278
 960              	.LBB206:
 961              	.LBI206:
 526:Drivers/CMSIS/Include/cmsis_gcc.h **** {
 962              		.loc 2 526 57 view .LVU279
 963              	.LBB207:
 528:Drivers/CMSIS/Include/cmsis_gcc.h **** 
 964              		.loc 2 528 3 view .LVU280
 531:Drivers/CMSIS/Include/cmsis_gcc.h **** #else
 965              		.loc 2 531 4 view .LVU281
 966 029c 0123     		movs	r3, #1
 967              		.syntax unified
 968              	@ 531 "Drivers/CMSIS/Include/cmsis_gcc.h" 1
 969 029e 93FAA3F3 		rbit r3, r3
 970              	@ 0 "" 2
 971              	.LVL66:
 972              		.loc 2 544 3 view .LVU282
 973              		.loc 2 544 3 is_stmt 0 view .LVU283
 974              		.thumb
 975              		.syntax unified
 976              	.LBE207:
 977              	.LBE206:
 450:Drivers/STM32F3xx_HAL_Driver/Src/stm32f3xx_hal_rcc.c ****         
 978              		.loc 1 450 9 view .LVU284
 979 02a2 B3FA83F3 		clz	r3, r3
ARM GAS  /var/folders/80/65lm4rm97rv_n74c85vt01040000gn/T//ccntfwFR.s 			page 39


 980 02a6 03F18453 		add	r3, r3, #276824064
 981 02aa 03F58413 		add	r3, r3, #1081344
 982 02ae 9B00     		lsls	r3, r3, #2
 983 02b0 0022     		movs	r2, #0
 984 02b2 1A60     		str	r2, [r3]
 453:Drivers/STM32F3xx_HAL_Driver/Src/stm32f3xx_hal_rcc.c ****         
 985              		.loc 1 453 9 is_stmt 1 view .LVU285
 453:Drivers/STM32F3xx_HAL_Driver/Src/stm32f3xx_hal_rcc.c ****         
 986              		.loc 1 453 21 is_stmt 0 view .LVU286
 987 02b4 FFF7FEFF 		bl	HAL_GetTick
 988              	.LVL67:
 989 02b8 0546     		mov	r5, r0
 990              	.LVL68:
 456:Drivers/STM32F3xx_HAL_Driver/Src/stm32f3xx_hal_rcc.c ****         {
 991              		.loc 1 456 9 is_stmt 1 view .LVU287
 992              	.L51:
 456:Drivers/STM32F3xx_HAL_Driver/Src/stm32f3xx_hal_rcc.c ****         {
 993              		.loc 1 456 14 view .LVU288
 994              	.LBB208:
 995              	.LBI208:
 526:Drivers/CMSIS/Include/cmsis_gcc.h **** {
 996              		.loc 2 526 57 view .LVU289
 997              	.LBB209:
 528:Drivers/CMSIS/Include/cmsis_gcc.h **** 
 998              		.loc 2 528 3 view .LVU290
 531:Drivers/CMSIS/Include/cmsis_gcc.h **** #else
 999              		.loc 2 531 4 view .LVU291
 1000 02ba 0223     		movs	r3, #2
 1001              		.syntax unified
 1002              	@ 531 "Drivers/CMSIS/Include/cmsis_gcc.h" 1
 1003 02bc 93FAA3F3 		rbit r3, r3
 1004              	@ 0 "" 2
 1005              		.loc 2 544 3 view .LVU292
 1006              	.LVL69:
 1007              		.loc 2 544 3 is_stmt 0 view .LVU293
 1008              		.thumb
 1009              		.syntax unified
 1010              	.LBE209:
 1011              	.LBE208:
 456:Drivers/STM32F3xx_HAL_Driver/Src/stm32f3xx_hal_rcc.c ****         {
 1012              		.loc 1 456 15 view .LVU294
 1013 02c0 0A4B     		ldr	r3, .L131
 1014 02c2 1968     		ldr	r1, [r3]
 1015              	.LVL70:
 1016              	.LBB210:
 1017              	.LBI210:
 526:Drivers/CMSIS/Include/cmsis_gcc.h **** {
 1018              		.loc 2 526 57 is_stmt 1 view .LVU295
 1019              	.LBB211:
 528:Drivers/CMSIS/Include/cmsis_gcc.h **** 
 1020              		.loc 2 528 3 view .LVU296
 531:Drivers/CMSIS/Include/cmsis_gcc.h **** #else
 1021              		.loc 2 531 4 view .LVU297
 1022 02c4 0223     		movs	r3, #2
 1023              		.syntax unified
 1024              	@ 531 "Drivers/CMSIS/Include/cmsis_gcc.h" 1
 1025 02c6 93FAA3F3 		rbit r3, r3
ARM GAS  /var/folders/80/65lm4rm97rv_n74c85vt01040000gn/T//ccntfwFR.s 			page 40


 1026              	@ 0 "" 2
 1027              	.LVL71:
 1028              		.loc 2 544 3 view .LVU298
 1029              		.loc 2 544 3 is_stmt 0 view .LVU299
 1030              		.thumb
 1031              		.syntax unified
 1032              	.LBE211:
 1033              	.LBE210:
 456:Drivers/STM32F3xx_HAL_Driver/Src/stm32f3xx_hal_rcc.c ****         {
 1034              		.loc 1 456 15 view .LVU300
 1035 02ca B3FA83F3 		clz	r3, r3
 1036 02ce 03F01F03 		and	r3, r3, #31
 1037 02d2 0122     		movs	r2, #1
 1038 02d4 02FA03F3 		lsl	r3, r2, r3
 456:Drivers/STM32F3xx_HAL_Driver/Src/stm32f3xx_hal_rcc.c ****         {
 1039              		.loc 1 456 14 view .LVU301
 1040 02d8 0B42     		tst	r3, r1
 1041 02da A1D0     		beq	.L40
 458:Drivers/STM32F3xx_HAL_Driver/Src/stm32f3xx_hal_rcc.c ****           {
 1042              		.loc 1 458 11 is_stmt 1 view .LVU302
 458:Drivers/STM32F3xx_HAL_Driver/Src/stm32f3xx_hal_rcc.c ****           {
 1043              		.loc 1 458 15 is_stmt 0 view .LVU303
 1044 02dc FFF7FEFF 		bl	HAL_GetTick
 1045              	.LVL72:
 458:Drivers/STM32F3xx_HAL_Driver/Src/stm32f3xx_hal_rcc.c ****           {
 1046              		.loc 1 458 29 view .LVU304
 1047 02e0 401B     		subs	r0, r0, r5
 458:Drivers/STM32F3xx_HAL_Driver/Src/stm32f3xx_hal_rcc.c ****           {
 1048              		.loc 1 458 13 view .LVU305
 1049 02e2 0228     		cmp	r0, #2
 1050 02e4 E9D9     		bls	.L51
 460:Drivers/STM32F3xx_HAL_Driver/Src/stm32f3xx_hal_rcc.c ****           }
 1051              		.loc 1 460 20 view .LVU306
 1052 02e6 0320     		movs	r0, #3
 1053 02e8 89E1     		b	.L21
 1054              	.L132:
 1055 02ea 00BF     		.align	2
 1056              	.L131:
 1057 02ec 00100240 		.word	1073876992
 1058 02f0 20819010 		.word	277905696
 1059              	.LVL73:
 1060              	.L56:
 487:Drivers/STM32F3xx_HAL_Driver/Src/stm32f3xx_hal_rcc.c ****         }
 488:Drivers/STM32F3xx_HAL_Driver/Src/stm32f3xx_hal_rcc.c ****       }
 489:Drivers/STM32F3xx_HAL_Driver/Src/stm32f3xx_hal_rcc.c ****     }
 490:Drivers/STM32F3xx_HAL_Driver/Src/stm32f3xx_hal_rcc.c ****     else
 491:Drivers/STM32F3xx_HAL_Driver/Src/stm32f3xx_hal_rcc.c ****     {
 492:Drivers/STM32F3xx_HAL_Driver/Src/stm32f3xx_hal_rcc.c ****       /* Disable the Internal Low Speed oscillator (LSI). */
 493:Drivers/STM32F3xx_HAL_Driver/Src/stm32f3xx_hal_rcc.c ****       __HAL_RCC_LSI_DISABLE();
 1061              		.loc 1 493 7 is_stmt 1 view .LVU307
 1062              	.LBB212:
 1063              	.LBI212:
 526:Drivers/CMSIS/Include/cmsis_gcc.h **** {
 1064              		.loc 2 526 57 view .LVU308
 1065              	.LBB213:
 528:Drivers/CMSIS/Include/cmsis_gcc.h **** 
 1066              		.loc 2 528 3 view .LVU309
ARM GAS  /var/folders/80/65lm4rm97rv_n74c85vt01040000gn/T//ccntfwFR.s 			page 41


 531:Drivers/CMSIS/Include/cmsis_gcc.h **** #else
 1067              		.loc 2 531 4 view .LVU310
 1068 02f4 0122     		movs	r2, #1
 1069              		.syntax unified
 1070              	@ 531 "Drivers/CMSIS/Include/cmsis_gcc.h" 1
 1071 02f6 92FAA2F2 		rbit r2, r2
 1072              	@ 0 "" 2
 1073              	.LVL74:
 1074              		.loc 2 544 3 view .LVU311
 1075              		.loc 2 544 3 is_stmt 0 view .LVU312
 1076              		.thumb
 1077              		.syntax unified
 1078              	.LBE213:
 1079              	.LBE212:
 1080              		.loc 1 493 7 view .LVU313
 1081 02fa B2FA82F2 		clz	r2, r2
 1082 02fe B74B     		ldr	r3, .L133
 1083 0300 1344     		add	r3, r3, r2
 1084 0302 9B00     		lsls	r3, r3, #2
 1085 0304 0022     		movs	r2, #0
 1086 0306 1A60     		str	r2, [r3]
 494:Drivers/STM32F3xx_HAL_Driver/Src/stm32f3xx_hal_rcc.c ****       
 495:Drivers/STM32F3xx_HAL_Driver/Src/stm32f3xx_hal_rcc.c ****       /* Get Start Tick */
 496:Drivers/STM32F3xx_HAL_Driver/Src/stm32f3xx_hal_rcc.c ****       tickstart = HAL_GetTick();
 1087              		.loc 1 496 7 is_stmt 1 view .LVU314
 1088              		.loc 1 496 19 is_stmt 0 view .LVU315
 1089 0308 FFF7FEFF 		bl	HAL_GetTick
 1090              	.LVL75:
 1091 030c 0546     		mov	r5, r0
 1092              	.LVL76:
 497:Drivers/STM32F3xx_HAL_Driver/Src/stm32f3xx_hal_rcc.c ****       
 498:Drivers/STM32F3xx_HAL_Driver/Src/stm32f3xx_hal_rcc.c ****       /* Wait till LSI is disabled */  
 499:Drivers/STM32F3xx_HAL_Driver/Src/stm32f3xx_hal_rcc.c ****       while(__HAL_RCC_GET_FLAG(RCC_FLAG_LSIRDY) != RESET)
 1093              		.loc 1 499 7 is_stmt 1 view .LVU316
 1094              	.L59:
 1095              		.loc 1 499 12 view .LVU317
 1096              	.LBB214:
 1097              	.LBI214:
 526:Drivers/CMSIS/Include/cmsis_gcc.h **** {
 1098              		.loc 2 526 57 view .LVU318
 1099              	.LBB215:
 528:Drivers/CMSIS/Include/cmsis_gcc.h **** 
 1100              		.loc 2 528 3 view .LVU319
 531:Drivers/CMSIS/Include/cmsis_gcc.h **** #else
 1101              		.loc 2 531 4 view .LVU320
 1102 030e 0223     		movs	r3, #2
 1103              		.syntax unified
 1104              	@ 531 "Drivers/CMSIS/Include/cmsis_gcc.h" 1
 1105 0310 93FAA3F2 		rbit r2, r3
 1106              	@ 0 "" 2
 1107              	.LVL77:
 1108              		.loc 2 544 3 view .LVU321
 1109              		.loc 2 544 3 is_stmt 0 view .LVU322
 1110              		.thumb
 1111              		.syntax unified
 1112              	.LBE215:
 1113              	.LBE214:
ARM GAS  /var/folders/80/65lm4rm97rv_n74c85vt01040000gn/T//ccntfwFR.s 			page 42


 1114              	.LBB216:
 1115              	.LBI216:
 526:Drivers/CMSIS/Include/cmsis_gcc.h **** {
 1116              		.loc 2 526 57 is_stmt 1 view .LVU323
 1117              	.LBB217:
 528:Drivers/CMSIS/Include/cmsis_gcc.h **** 
 1118              		.loc 2 528 3 view .LVU324
 531:Drivers/CMSIS/Include/cmsis_gcc.h **** #else
 1119              		.loc 2 531 4 view .LVU325
 1120              		.syntax unified
 1121              	@ 531 "Drivers/CMSIS/Include/cmsis_gcc.h" 1
 1122 0314 93FAA3F2 		rbit r2, r3
 1123              	@ 0 "" 2
 1124              	.LVL78:
 1125              		.loc 2 544 3 view .LVU326
 1126              		.loc 2 544 3 is_stmt 0 view .LVU327
 1127              		.thumb
 1128              		.syntax unified
 1129              	.LBE217:
 1130              	.LBE216:
 1131              	.LBB218:
 1132              	.LBI218:
 526:Drivers/CMSIS/Include/cmsis_gcc.h **** {
 1133              		.loc 2 526 57 is_stmt 1 view .LVU328
 1134              	.LBB219:
 528:Drivers/CMSIS/Include/cmsis_gcc.h **** 
 1135              		.loc 2 528 3 view .LVU329
 531:Drivers/CMSIS/Include/cmsis_gcc.h **** #else
 1136              		.loc 2 531 4 view .LVU330
 1137              		.syntax unified
 1138              	@ 531 "Drivers/CMSIS/Include/cmsis_gcc.h" 1
 1139 0318 93FAA3F2 		rbit r2, r3
 1140              	@ 0 "" 2
 1141              	.LVL79:
 1142              		.loc 2 544 3 view .LVU331
 1143              		.loc 2 544 3 is_stmt 0 view .LVU332
 1144              		.thumb
 1145              		.syntax unified
 1146              	.LBE219:
 1147              	.LBE218:
 1148              		.loc 1 499 13 view .LVU333
 1149 031c B04A     		ldr	r2, .L133+4
 1150 031e 516A     		ldr	r1, [r2, #36]
 1151              	.LVL80:
 1152              	.LBB220:
 1153              	.LBI220:
 526:Drivers/CMSIS/Include/cmsis_gcc.h **** {
 1154              		.loc 2 526 57 is_stmt 1 view .LVU334
 1155              	.LBB221:
 528:Drivers/CMSIS/Include/cmsis_gcc.h **** 
 1156              		.loc 2 528 3 view .LVU335
 531:Drivers/CMSIS/Include/cmsis_gcc.h **** #else
 1157              		.loc 2 531 4 view .LVU336
 1158              		.syntax unified
 1159              	@ 531 "Drivers/CMSIS/Include/cmsis_gcc.h" 1
 1160 0320 93FAA3F3 		rbit r3, r3
 1161              	@ 0 "" 2
ARM GAS  /var/folders/80/65lm4rm97rv_n74c85vt01040000gn/T//ccntfwFR.s 			page 43


 1162              	.LVL81:
 1163              		.loc 2 544 3 view .LVU337
 1164              		.loc 2 544 3 is_stmt 0 view .LVU338
 1165              		.thumb
 1166              		.syntax unified
 1167              	.LBE221:
 1168              	.LBE220:
 1169              		.loc 1 499 13 view .LVU339
 1170 0324 B3FA83F3 		clz	r3, r3
 1171 0328 03F01F03 		and	r3, r3, #31
 1172 032c 0122     		movs	r2, #1
 1173 032e 02FA03F3 		lsl	r3, r2, r3
 1174              		.loc 1 499 12 view .LVU340
 1175 0332 0B42     		tst	r3, r1
 1176 0334 06D0     		beq	.L55
 500:Drivers/STM32F3xx_HAL_Driver/Src/stm32f3xx_hal_rcc.c ****       {
 501:Drivers/STM32F3xx_HAL_Driver/Src/stm32f3xx_hal_rcc.c ****         if((HAL_GetTick() - tickstart ) > LSI_TIMEOUT_VALUE)
 1177              		.loc 1 501 9 is_stmt 1 view .LVU341
 1178              		.loc 1 501 13 is_stmt 0 view .LVU342
 1179 0336 FFF7FEFF 		bl	HAL_GetTick
 1180              	.LVL82:
 1181              		.loc 1 501 27 view .LVU343
 1182 033a 401B     		subs	r0, r0, r5
 1183              		.loc 1 501 11 view .LVU344
 1184 033c 0228     		cmp	r0, #2
 1185 033e E6D9     		bls	.L59
 502:Drivers/STM32F3xx_HAL_Driver/Src/stm32f3xx_hal_rcc.c ****         {
 503:Drivers/STM32F3xx_HAL_Driver/Src/stm32f3xx_hal_rcc.c ****           return HAL_TIMEOUT;
 1186              		.loc 1 503 18 view .LVU345
 1187 0340 0320     		movs	r0, #3
 1188 0342 5CE1     		b	.L21
 1189              	.LVL83:
 1190              	.L55:
 504:Drivers/STM32F3xx_HAL_Driver/Src/stm32f3xx_hal_rcc.c ****         }
 505:Drivers/STM32F3xx_HAL_Driver/Src/stm32f3xx_hal_rcc.c ****       }
 506:Drivers/STM32F3xx_HAL_Driver/Src/stm32f3xx_hal_rcc.c ****     }
 507:Drivers/STM32F3xx_HAL_Driver/Src/stm32f3xx_hal_rcc.c ****   }
 508:Drivers/STM32F3xx_HAL_Driver/Src/stm32f3xx_hal_rcc.c ****   /*------------------------------ LSE Configuration -------------------------*/ 
 509:Drivers/STM32F3xx_HAL_Driver/Src/stm32f3xx_hal_rcc.c ****   if(((RCC_OscInitStruct->OscillatorType) & RCC_OSCILLATORTYPE_LSE) == RCC_OSCILLATORTYPE_LSE)
 1191              		.loc 1 509 3 is_stmt 1 view .LVU346
 1192              		.loc 1 509 25 is_stmt 0 view .LVU347
 1193 0344 2368     		ldr	r3, [r4]
 1194              		.loc 1 509 5 view .LVU348
 1195 0346 13F0040F 		tst	r3, #4
 1196 034a 00F0A980 		beq	.L61
 1197              	.LBB222:
 510:Drivers/STM32F3xx_HAL_Driver/Src/stm32f3xx_hal_rcc.c ****   {
 511:Drivers/STM32F3xx_HAL_Driver/Src/stm32f3xx_hal_rcc.c ****     FlagStatus       pwrclkchanged = RESET;
 1198              		.loc 1 511 5 is_stmt 1 view .LVU349
 1199              	.LVL84:
 512:Drivers/STM32F3xx_HAL_Driver/Src/stm32f3xx_hal_rcc.c ****     
 513:Drivers/STM32F3xx_HAL_Driver/Src/stm32f3xx_hal_rcc.c ****     /* Check the parameters */
 514:Drivers/STM32F3xx_HAL_Driver/Src/stm32f3xx_hal_rcc.c ****     assert_param(IS_RCC_LSE(RCC_OscInitStruct->LSEState));
 1200              		.loc 1 514 5 view .LVU350
 515:Drivers/STM32F3xx_HAL_Driver/Src/stm32f3xx_hal_rcc.c **** 
 516:Drivers/STM32F3xx_HAL_Driver/Src/stm32f3xx_hal_rcc.c ****     /* Update LSE configuration in Backup Domain control register    */
 517:Drivers/STM32F3xx_HAL_Driver/Src/stm32f3xx_hal_rcc.c ****     /* Requires to enable write access to Backup Domain of necessary */
ARM GAS  /var/folders/80/65lm4rm97rv_n74c85vt01040000gn/T//ccntfwFR.s 			page 44


 518:Drivers/STM32F3xx_HAL_Driver/Src/stm32f3xx_hal_rcc.c ****     if(__HAL_RCC_PWR_IS_CLK_DISABLED())
 1201              		.loc 1 518 5 view .LVU351
 1202              		.loc 1 518 8 is_stmt 0 view .LVU352
 1203 034e A44B     		ldr	r3, .L133+4
 1204 0350 DB69     		ldr	r3, [r3, #28]
 1205              		.loc 1 518 7 view .LVU353
 1206 0352 13F0805F 		tst	r3, #268435456
 1207 0356 20D1     		bne	.L102
 519:Drivers/STM32F3xx_HAL_Driver/Src/stm32f3xx_hal_rcc.c ****     {
 520:Drivers/STM32F3xx_HAL_Driver/Src/stm32f3xx_hal_rcc.c ****       __HAL_RCC_PWR_CLK_ENABLE();
 1208              		.loc 1 520 7 is_stmt 1 view .LVU354
 1209              	.LBB223:
 1210              		.loc 1 520 7 view .LVU355
 1211              		.loc 1 520 7 view .LVU356
 1212 0358 A14B     		ldr	r3, .L133+4
 1213 035a DA69     		ldr	r2, [r3, #28]
 1214 035c 42F08052 		orr	r2, r2, #268435456
 1215 0360 DA61     		str	r2, [r3, #28]
 1216              		.loc 1 520 7 view .LVU357
 1217 0362 DB69     		ldr	r3, [r3, #28]
 1218 0364 03F08053 		and	r3, r3, #268435456
 1219 0368 0193     		str	r3, [sp, #4]
 1220              		.loc 1 520 7 view .LVU358
 1221 036a 019B     		ldr	r3, [sp, #4]
 1222              	.LBE223:
 1223              		.loc 1 520 7 view .LVU359
 521:Drivers/STM32F3xx_HAL_Driver/Src/stm32f3xx_hal_rcc.c ****       pwrclkchanged = SET;
 1224              		.loc 1 521 7 view .LVU360
 1225              	.LVL85:
 1226              		.loc 1 521 21 is_stmt 0 view .LVU361
 1227 036c 0125     		movs	r5, #1
 1228              	.LVL86:
 1229              	.L62:
 522:Drivers/STM32F3xx_HAL_Driver/Src/stm32f3xx_hal_rcc.c ****     }
 523:Drivers/STM32F3xx_HAL_Driver/Src/stm32f3xx_hal_rcc.c ****     
 524:Drivers/STM32F3xx_HAL_Driver/Src/stm32f3xx_hal_rcc.c ****     if(HAL_IS_BIT_CLR(PWR->CR, PWR_CR_DBP))
 1230              		.loc 1 524 5 is_stmt 1 view .LVU362
 1231              		.loc 1 524 8 is_stmt 0 view .LVU363
 1232 036e 9D4B     		ldr	r3, .L133+8
 1233 0370 1B68     		ldr	r3, [r3]
 1234              		.loc 1 524 7 view .LVU364
 1235 0372 13F4807F 		tst	r3, #256
 1236 0376 12D0     		beq	.L121
 1237              	.L63:
 525:Drivers/STM32F3xx_HAL_Driver/Src/stm32f3xx_hal_rcc.c ****     {
 526:Drivers/STM32F3xx_HAL_Driver/Src/stm32f3xx_hal_rcc.c ****       /* Enable write access to Backup domain */
 527:Drivers/STM32F3xx_HAL_Driver/Src/stm32f3xx_hal_rcc.c ****       SET_BIT(PWR->CR, PWR_CR_DBP);
 528:Drivers/STM32F3xx_HAL_Driver/Src/stm32f3xx_hal_rcc.c ****       
 529:Drivers/STM32F3xx_HAL_Driver/Src/stm32f3xx_hal_rcc.c ****       /* Wait for Backup domain Write protection disable */
 530:Drivers/STM32F3xx_HAL_Driver/Src/stm32f3xx_hal_rcc.c ****       tickstart = HAL_GetTick();
 531:Drivers/STM32F3xx_HAL_Driver/Src/stm32f3xx_hal_rcc.c **** 
 532:Drivers/STM32F3xx_HAL_Driver/Src/stm32f3xx_hal_rcc.c ****       while(HAL_IS_BIT_CLR(PWR->CR, PWR_CR_DBP))
 533:Drivers/STM32F3xx_HAL_Driver/Src/stm32f3xx_hal_rcc.c ****       {
 534:Drivers/STM32F3xx_HAL_Driver/Src/stm32f3xx_hal_rcc.c ****         if((HAL_GetTick() - tickstart) > RCC_DBP_TIMEOUT_VALUE)
 535:Drivers/STM32F3xx_HAL_Driver/Src/stm32f3xx_hal_rcc.c ****         {
 536:Drivers/STM32F3xx_HAL_Driver/Src/stm32f3xx_hal_rcc.c ****           return HAL_TIMEOUT;
 537:Drivers/STM32F3xx_HAL_Driver/Src/stm32f3xx_hal_rcc.c ****         }
ARM GAS  /var/folders/80/65lm4rm97rv_n74c85vt01040000gn/T//ccntfwFR.s 			page 45


 538:Drivers/STM32F3xx_HAL_Driver/Src/stm32f3xx_hal_rcc.c ****       }
 539:Drivers/STM32F3xx_HAL_Driver/Src/stm32f3xx_hal_rcc.c ****     }
 540:Drivers/STM32F3xx_HAL_Driver/Src/stm32f3xx_hal_rcc.c **** 
 541:Drivers/STM32F3xx_HAL_Driver/Src/stm32f3xx_hal_rcc.c ****     /* Set the new LSE configuration -----------------------------------------*/
 542:Drivers/STM32F3xx_HAL_Driver/Src/stm32f3xx_hal_rcc.c ****     __HAL_RCC_LSE_CONFIG(RCC_OscInitStruct->LSEState);
 1238              		.loc 1 542 5 is_stmt 1 view .LVU365
 1239              		.loc 1 542 5 view .LVU366
 1240 0378 E368     		ldr	r3, [r4, #12]
 1241 037a 012B     		cmp	r3, #1
 1242 037c 23D0     		beq	.L122
 1243              		.loc 1 542 5 discriminator 2 view .LVU367
 1244 037e 73BB     		cbnz	r3, .L68
 1245              		.loc 1 542 5 discriminator 4 view .LVU368
 1246 0380 03F18043 		add	r3, r3, #1073741824
 1247 0384 03F50433 		add	r3, r3, #135168
 1248 0388 1A6A     		ldr	r2, [r3, #32]
 1249 038a 22F00102 		bic	r2, r2, #1
 1250 038e 1A62     		str	r2, [r3, #32]
 1251              		.loc 1 542 5 discriminator 4 view .LVU369
 1252 0390 1A6A     		ldr	r2, [r3, #32]
 1253 0392 22F00402 		bic	r2, r2, #4
 1254 0396 1A62     		str	r2, [r3, #32]
 1255 0398 1AE0     		b	.L67
 1256              	.LVL87:
 1257              	.L102:
 511:Drivers/STM32F3xx_HAL_Driver/Src/stm32f3xx_hal_rcc.c ****     
 1258              		.loc 1 511 22 is_stmt 0 view .LVU370
 1259 039a 0025     		movs	r5, #0
 1260 039c E7E7     		b	.L62
 1261              	.LVL88:
 1262              	.L121:
 527:Drivers/STM32F3xx_HAL_Driver/Src/stm32f3xx_hal_rcc.c ****       
 1263              		.loc 1 527 7 is_stmt 1 view .LVU371
 1264 039e 914A     		ldr	r2, .L133+8
 1265 03a0 1368     		ldr	r3, [r2]
 1266 03a2 43F48073 		orr	r3, r3, #256
 1267 03a6 1360     		str	r3, [r2]
 530:Drivers/STM32F3xx_HAL_Driver/Src/stm32f3xx_hal_rcc.c **** 
 1268              		.loc 1 530 7 view .LVU372
 530:Drivers/STM32F3xx_HAL_Driver/Src/stm32f3xx_hal_rcc.c **** 
 1269              		.loc 1 530 19 is_stmt 0 view .LVU373
 1270 03a8 FFF7FEFF 		bl	HAL_GetTick
 1271              	.LVL89:
 1272 03ac 0646     		mov	r6, r0
 1273              	.LVL90:
 532:Drivers/STM32F3xx_HAL_Driver/Src/stm32f3xx_hal_rcc.c ****       {
 1274              		.loc 1 532 7 is_stmt 1 view .LVU374
 1275              	.L64:
 532:Drivers/STM32F3xx_HAL_Driver/Src/stm32f3xx_hal_rcc.c ****       {
 1276              		.loc 1 532 12 view .LVU375
 532:Drivers/STM32F3xx_HAL_Driver/Src/stm32f3xx_hal_rcc.c ****       {
 1277              		.loc 1 532 13 is_stmt 0 view .LVU376
 1278 03ae 8D4B     		ldr	r3, .L133+8
 1279 03b0 1B68     		ldr	r3, [r3]
 532:Drivers/STM32F3xx_HAL_Driver/Src/stm32f3xx_hal_rcc.c ****       {
 1280              		.loc 1 532 12 view .LVU377
 1281 03b2 13F4807F 		tst	r3, #256
ARM GAS  /var/folders/80/65lm4rm97rv_n74c85vt01040000gn/T//ccntfwFR.s 			page 46


 1282 03b6 DFD1     		bne	.L63
 534:Drivers/STM32F3xx_HAL_Driver/Src/stm32f3xx_hal_rcc.c ****         {
 1283              		.loc 1 534 9 is_stmt 1 view .LVU378
 534:Drivers/STM32F3xx_HAL_Driver/Src/stm32f3xx_hal_rcc.c ****         {
 1284              		.loc 1 534 13 is_stmt 0 view .LVU379
 1285 03b8 FFF7FEFF 		bl	HAL_GetTick
 1286              	.LVL91:
 534:Drivers/STM32F3xx_HAL_Driver/Src/stm32f3xx_hal_rcc.c ****         {
 1287              		.loc 1 534 27 view .LVU380
 1288 03bc 801B     		subs	r0, r0, r6
 534:Drivers/STM32F3xx_HAL_Driver/Src/stm32f3xx_hal_rcc.c ****         {
 1289              		.loc 1 534 11 view .LVU381
 1290 03be 6428     		cmp	r0, #100
 1291 03c0 F5D9     		bls	.L64
 536:Drivers/STM32F3xx_HAL_Driver/Src/stm32f3xx_hal_rcc.c ****         }
 1292              		.loc 1 536 18 view .LVU382
 1293 03c2 0320     		movs	r0, #3
 1294 03c4 1BE1     		b	.L21
 1295              	.LVL92:
 1296              	.L122:
 1297              		.loc 1 542 5 is_stmt 1 discriminator 1 view .LVU383
 1298 03c6 864A     		ldr	r2, .L133+4
 1299 03c8 136A     		ldr	r3, [r2, #32]
 1300 03ca 43F00103 		orr	r3, r3, #1
 1301 03ce 1362     		str	r3, [r2, #32]
 1302              	.L67:
 1303              		.loc 1 542 5 discriminator 10 view .LVU384
 543:Drivers/STM32F3xx_HAL_Driver/Src/stm32f3xx_hal_rcc.c ****     /* Check the LSE State */
 544:Drivers/STM32F3xx_HAL_Driver/Src/stm32f3xx_hal_rcc.c ****     if(RCC_OscInitStruct->LSEState != RCC_LSE_OFF)
 1304              		.loc 1 544 5 discriminator 10 view .LVU385
 1305              		.loc 1 544 25 is_stmt 0 discriminator 10 view .LVU386
 1306 03d0 E368     		ldr	r3, [r4, #12]
 1307              		.loc 1 544 7 discriminator 10 view .LVU387
 1308 03d2 002B     		cmp	r3, #0
 1309 03d4 3CD0     		beq	.L70
 545:Drivers/STM32F3xx_HAL_Driver/Src/stm32f3xx_hal_rcc.c ****     {
 546:Drivers/STM32F3xx_HAL_Driver/Src/stm32f3xx_hal_rcc.c ****       /* Get Start Tick */
 547:Drivers/STM32F3xx_HAL_Driver/Src/stm32f3xx_hal_rcc.c ****       tickstart = HAL_GetTick();
 1310              		.loc 1 547 7 is_stmt 1 view .LVU388
 1311              		.loc 1 547 19 is_stmt 0 view .LVU389
 1312 03d6 FFF7FEFF 		bl	HAL_GetTick
 1313              	.LVL93:
 1314 03da 0646     		mov	r6, r0
 1315              	.LVL94:
 548:Drivers/STM32F3xx_HAL_Driver/Src/stm32f3xx_hal_rcc.c ****       
 549:Drivers/STM32F3xx_HAL_Driver/Src/stm32f3xx_hal_rcc.c ****       /* Wait till LSE is ready */  
 550:Drivers/STM32F3xx_HAL_Driver/Src/stm32f3xx_hal_rcc.c ****       while(__HAL_RCC_GET_FLAG(RCC_FLAG_LSERDY) == RESET)
 1316              		.loc 1 550 7 is_stmt 1 view .LVU390
 1317              		.loc 1 550 12 is_stmt 0 view .LVU391
 1318 03dc 2BE0     		b	.L71
 1319              	.LVL95:
 1320              	.L68:
 542:Drivers/STM32F3xx_HAL_Driver/Src/stm32f3xx_hal_rcc.c ****     /* Check the LSE State */
 1321              		.loc 1 542 5 is_stmt 1 discriminator 5 view .LVU392
 1322 03de 052B     		cmp	r3, #5
 1323 03e0 09D0     		beq	.L123
 542:Drivers/STM32F3xx_HAL_Driver/Src/stm32f3xx_hal_rcc.c ****     /* Check the LSE State */
ARM GAS  /var/folders/80/65lm4rm97rv_n74c85vt01040000gn/T//ccntfwFR.s 			page 47


 1324              		.loc 1 542 5 discriminator 8 view .LVU393
 1325 03e2 7F4B     		ldr	r3, .L133+4
 1326 03e4 1A6A     		ldr	r2, [r3, #32]
 1327 03e6 22F00102 		bic	r2, r2, #1
 1328 03ea 1A62     		str	r2, [r3, #32]
 542:Drivers/STM32F3xx_HAL_Driver/Src/stm32f3xx_hal_rcc.c ****     /* Check the LSE State */
 1329              		.loc 1 542 5 discriminator 8 view .LVU394
 1330 03ec 1A6A     		ldr	r2, [r3, #32]
 1331 03ee 22F00402 		bic	r2, r2, #4
 1332 03f2 1A62     		str	r2, [r3, #32]
 1333 03f4 ECE7     		b	.L67
 1334              	.L123:
 542:Drivers/STM32F3xx_HAL_Driver/Src/stm32f3xx_hal_rcc.c ****     /* Check the LSE State */
 1335              		.loc 1 542 5 discriminator 7 view .LVU395
 1336 03f6 7A4B     		ldr	r3, .L133+4
 1337 03f8 1A6A     		ldr	r2, [r3, #32]
 1338 03fa 42F00402 		orr	r2, r2, #4
 1339 03fe 1A62     		str	r2, [r3, #32]
 542:Drivers/STM32F3xx_HAL_Driver/Src/stm32f3xx_hal_rcc.c ****     /* Check the LSE State */
 1340              		.loc 1 542 5 discriminator 7 view .LVU396
 1341 0400 1A6A     		ldr	r2, [r3, #32]
 1342 0402 42F00102 		orr	r2, r2, #1
 1343 0406 1A62     		str	r2, [r3, #32]
 1344 0408 E2E7     		b	.L67
 1345              	.LVL96:
 1346              	.L124:
 1347              		.loc 1 550 13 is_stmt 0 discriminator 4 view .LVU397
 1348 040a 754B     		ldr	r3, .L133+4
 1349 040c 196A     		ldr	r1, [r3, #32]
 1350              	.L73:
 1351              	.LVL97:
 1352              	.LBB224:
 1353              	.LBI224:
 526:Drivers/CMSIS/Include/cmsis_gcc.h **** {
 1354              		.loc 2 526 57 is_stmt 1 discriminator 11 view .LVU398
 1355              	.LBB225:
 528:Drivers/CMSIS/Include/cmsis_gcc.h **** 
 1356              		.loc 2 528 3 discriminator 11 view .LVU399
 531:Drivers/CMSIS/Include/cmsis_gcc.h **** #else
 1357              		.loc 2 531 4 discriminator 11 view .LVU400
 1358 040e 0223     		movs	r3, #2
 1359              		.syntax unified
 1360              	@ 531 "Drivers/CMSIS/Include/cmsis_gcc.h" 1
 1361 0410 93FAA3F3 		rbit r3, r3
 1362              	@ 0 "" 2
 1363              	.LVL98:
 1364              		.loc 2 544 3 discriminator 11 view .LVU401
 1365              		.loc 2 544 3 is_stmt 0 discriminator 11 view .LVU402
 1366              		.thumb
 1367              		.syntax unified
 1368              	.LBE225:
 1369              	.LBE224:
 1370              		.loc 1 550 13 discriminator 11 view .LVU403
 1371 0414 B3FA83F3 		clz	r3, r3
 1372 0418 03F01F03 		and	r3, r3, #31
 1373 041c 0122     		movs	r2, #1
 1374 041e 02FA03F3 		lsl	r3, r2, r3
ARM GAS  /var/folders/80/65lm4rm97rv_n74c85vt01040000gn/T//ccntfwFR.s 			page 48


 1375              		.loc 1 550 12 discriminator 11 view .LVU404
 1376 0422 1942     		tst	r1, r3
 1377 0424 3BD1     		bne	.L75
 551:Drivers/STM32F3xx_HAL_Driver/Src/stm32f3xx_hal_rcc.c ****       {
 552:Drivers/STM32F3xx_HAL_Driver/Src/stm32f3xx_hal_rcc.c ****         if((HAL_GetTick() - tickstart ) > RCC_LSE_TIMEOUT_VALUE)
 1378              		.loc 1 552 9 is_stmt 1 view .LVU405
 1379              		.loc 1 552 13 is_stmt 0 view .LVU406
 1380 0426 FFF7FEFF 		bl	HAL_GetTick
 1381              	.LVL99:
 1382              		.loc 1 552 27 view .LVU407
 1383 042a 801B     		subs	r0, r0, r6
 1384              		.loc 1 552 11 view .LVU408
 1385 042c 41F28833 		movw	r3, #5000
 1386 0430 9842     		cmp	r0, r3
 1387 0432 00F2DF80 		bhi	.L104
 1388              	.L71:
 550:Drivers/STM32F3xx_HAL_Driver/Src/stm32f3xx_hal_rcc.c ****       {
 1389              		.loc 1 550 12 is_stmt 1 view .LVU409
 1390              	.LVL100:
 1391              	.LBB226:
 1392              	.LBI226:
 526:Drivers/CMSIS/Include/cmsis_gcc.h **** {
 1393              		.loc 2 526 57 view .LVU410
 1394              	.LBB227:
 528:Drivers/CMSIS/Include/cmsis_gcc.h **** 
 1395              		.loc 2 528 3 view .LVU411
 531:Drivers/CMSIS/Include/cmsis_gcc.h **** #else
 1396              		.loc 2 531 4 view .LVU412
 1397 0436 0223     		movs	r3, #2
 1398              		.syntax unified
 1399              	@ 531 "Drivers/CMSIS/Include/cmsis_gcc.h" 1
 1400 0438 93FAA3F2 		rbit r2, r3
 1401              	@ 0 "" 2
 1402              	.LVL101:
 1403              		.loc 2 544 3 view .LVU413
 1404              		.loc 2 544 3 is_stmt 0 view .LVU414
 1405              		.thumb
 1406              		.syntax unified
 1407              	.LBE227:
 1408              	.LBE226:
 1409              	.LBB228:
 1410              	.LBI228:
 526:Drivers/CMSIS/Include/cmsis_gcc.h **** {
 1411              		.loc 2 526 57 is_stmt 1 view .LVU415
 1412              	.LBB229:
 528:Drivers/CMSIS/Include/cmsis_gcc.h **** 
 1413              		.loc 2 528 3 view .LVU416
 531:Drivers/CMSIS/Include/cmsis_gcc.h **** #else
 1414              		.loc 2 531 4 view .LVU417
 1415              		.syntax unified
 1416              	@ 531 "Drivers/CMSIS/Include/cmsis_gcc.h" 1
 1417 043c 93FAA3F3 		rbit r3, r3
 1418              	@ 0 "" 2
 1419              	.LVL102:
 1420              		.loc 2 544 3 view .LVU418
 1421              		.loc 2 544 3 is_stmt 0 view .LVU419
 1422              		.thumb
ARM GAS  /var/folders/80/65lm4rm97rv_n74c85vt01040000gn/T//ccntfwFR.s 			page 49


 1423              		.syntax unified
 1424              	.LBE229:
 1425              	.LBE228:
 550:Drivers/STM32F3xx_HAL_Driver/Src/stm32f3xx_hal_rcc.c ****       {
 1426              		.loc 1 550 13 view .LVU420
 1427 0440 002B     		cmp	r3, #0
 1428 0442 E2D1     		bne	.L124
 1429              	.LVL103:
 1430              	.LBB230:
 1431              	.LBI230:
 526:Drivers/CMSIS/Include/cmsis_gcc.h **** {
 1432              		.loc 2 526 57 is_stmt 1 view .LVU421
 1433              	.LBB231:
 528:Drivers/CMSIS/Include/cmsis_gcc.h **** 
 1434              		.loc 2 528 3 view .LVU422
 531:Drivers/CMSIS/Include/cmsis_gcc.h **** #else
 1435              		.loc 2 531 4 view .LVU423
 1436 0444 0223     		movs	r3, #2
 1437              		.syntax unified
 1438              	@ 531 "Drivers/CMSIS/Include/cmsis_gcc.h" 1
 1439 0446 93FAA3F3 		rbit r3, r3
 1440              	@ 0 "" 2
 1441              	.LVL104:
 1442              		.loc 2 544 3 view .LVU424
 1443              		.loc 2 544 3 is_stmt 0 view .LVU425
 1444              		.thumb
 1445              		.syntax unified
 1446              	.LBE231:
 1447              	.LBE230:
 550:Drivers/STM32F3xx_HAL_Driver/Src/stm32f3xx_hal_rcc.c ****       {
 1448              		.loc 1 550 13 view .LVU426
 1449 044a 654B     		ldr	r3, .L133+4
 1450 044c 596A     		ldr	r1, [r3, #36]
 1451 044e DEE7     		b	.L73
 1452              	.LVL105:
 1453              	.L70:
 553:Drivers/STM32F3xx_HAL_Driver/Src/stm32f3xx_hal_rcc.c ****         {
 554:Drivers/STM32F3xx_HAL_Driver/Src/stm32f3xx_hal_rcc.c ****           return HAL_TIMEOUT;
 555:Drivers/STM32F3xx_HAL_Driver/Src/stm32f3xx_hal_rcc.c ****         }
 556:Drivers/STM32F3xx_HAL_Driver/Src/stm32f3xx_hal_rcc.c ****       }
 557:Drivers/STM32F3xx_HAL_Driver/Src/stm32f3xx_hal_rcc.c ****     }
 558:Drivers/STM32F3xx_HAL_Driver/Src/stm32f3xx_hal_rcc.c ****     else
 559:Drivers/STM32F3xx_HAL_Driver/Src/stm32f3xx_hal_rcc.c ****     {
 560:Drivers/STM32F3xx_HAL_Driver/Src/stm32f3xx_hal_rcc.c ****       /* Get Start Tick */
 561:Drivers/STM32F3xx_HAL_Driver/Src/stm32f3xx_hal_rcc.c ****       tickstart = HAL_GetTick();
 1454              		.loc 1 561 7 is_stmt 1 view .LVU427
 1455              		.loc 1 561 19 is_stmt 0 view .LVU428
 1456 0450 FFF7FEFF 		bl	HAL_GetTick
 1457              	.LVL106:
 1458 0454 0646     		mov	r6, r0
 1459              	.LVL107:
 562:Drivers/STM32F3xx_HAL_Driver/Src/stm32f3xx_hal_rcc.c ****       
 563:Drivers/STM32F3xx_HAL_Driver/Src/stm32f3xx_hal_rcc.c ****       /* Wait till LSE is disabled */  
 564:Drivers/STM32F3xx_HAL_Driver/Src/stm32f3xx_hal_rcc.c ****       while(__HAL_RCC_GET_FLAG(RCC_FLAG_LSERDY) != RESET)
 1460              		.loc 1 564 7 is_stmt 1 view .LVU429
 1461              		.loc 1 564 12 is_stmt 0 view .LVU430
 1462 0456 15E0     		b	.L76
ARM GAS  /var/folders/80/65lm4rm97rv_n74c85vt01040000gn/T//ccntfwFR.s 			page 50


 1463              	.LVL108:
 1464              	.L125:
 1465              		.loc 1 564 13 discriminator 4 view .LVU431
 1466 0458 614B     		ldr	r3, .L133+4
 1467 045a 196A     		ldr	r1, [r3, #32]
 1468              	.L78:
 1469              	.LVL109:
 1470              	.LBB232:
 1471              	.LBI232:
 526:Drivers/CMSIS/Include/cmsis_gcc.h **** {
 1472              		.loc 2 526 57 is_stmt 1 discriminator 11 view .LVU432
 1473              	.LBB233:
 528:Drivers/CMSIS/Include/cmsis_gcc.h **** 
 1474              		.loc 2 528 3 discriminator 11 view .LVU433
 531:Drivers/CMSIS/Include/cmsis_gcc.h **** #else
 1475              		.loc 2 531 4 discriminator 11 view .LVU434
 1476 045c 0223     		movs	r3, #2
 1477              		.syntax unified
 1478              	@ 531 "Drivers/CMSIS/Include/cmsis_gcc.h" 1
 1479 045e 93FAA3F3 		rbit r3, r3
 1480              	@ 0 "" 2
 1481              	.LVL110:
 1482              		.loc 2 544 3 discriminator 11 view .LVU435
 1483              		.loc 2 544 3 is_stmt 0 discriminator 11 view .LVU436
 1484              		.thumb
 1485              		.syntax unified
 1486              	.LBE233:
 1487              	.LBE232:
 1488              		.loc 1 564 13 discriminator 11 view .LVU437
 1489 0462 B3FA83F3 		clz	r3, r3
 1490 0466 03F01F03 		and	r3, r3, #31
 1491 046a 0122     		movs	r2, #1
 1492 046c 02FA03F3 		lsl	r3, r2, r3
 1493              		.loc 1 564 12 discriminator 11 view .LVU438
 1494 0470 1942     		tst	r1, r3
 1495 0472 14D0     		beq	.L75
 565:Drivers/STM32F3xx_HAL_Driver/Src/stm32f3xx_hal_rcc.c ****       {
 566:Drivers/STM32F3xx_HAL_Driver/Src/stm32f3xx_hal_rcc.c ****         if((HAL_GetTick() - tickstart ) > RCC_LSE_TIMEOUT_VALUE)
 1496              		.loc 1 566 9 is_stmt 1 view .LVU439
 1497              		.loc 1 566 13 is_stmt 0 view .LVU440
 1498 0474 FFF7FEFF 		bl	HAL_GetTick
 1499              	.LVL111:
 1500              		.loc 1 566 27 view .LVU441
 1501 0478 801B     		subs	r0, r0, r6
 1502              		.loc 1 566 11 view .LVU442
 1503 047a 41F28833 		movw	r3, #5000
 1504 047e 9842     		cmp	r0, r3
 1505 0480 00F2BA80 		bhi	.L105
 1506              	.L76:
 564:Drivers/STM32F3xx_HAL_Driver/Src/stm32f3xx_hal_rcc.c ****       {
 1507              		.loc 1 564 12 is_stmt 1 view .LVU443
 1508              	.LVL112:
 1509              	.LBB234:
 1510              	.LBI234:
 526:Drivers/CMSIS/Include/cmsis_gcc.h **** {
 1511              		.loc 2 526 57 view .LVU444
 1512              	.LBB235:
ARM GAS  /var/folders/80/65lm4rm97rv_n74c85vt01040000gn/T//ccntfwFR.s 			page 51


 528:Drivers/CMSIS/Include/cmsis_gcc.h **** 
 1513              		.loc 2 528 3 view .LVU445
 531:Drivers/CMSIS/Include/cmsis_gcc.h **** #else
 1514              		.loc 2 531 4 view .LVU446
 1515 0484 0223     		movs	r3, #2
 1516              		.syntax unified
 1517              	@ 531 "Drivers/CMSIS/Include/cmsis_gcc.h" 1
 1518 0486 93FAA3F2 		rbit r2, r3
 1519              	@ 0 "" 2
 1520              	.LVL113:
 1521              		.loc 2 544 3 view .LVU447
 1522              		.loc 2 544 3 is_stmt 0 view .LVU448
 1523              		.thumb
 1524              		.syntax unified
 1525              	.LBE235:
 1526              	.LBE234:
 1527              	.LBB236:
 1528              	.LBI236:
 526:Drivers/CMSIS/Include/cmsis_gcc.h **** {
 1529              		.loc 2 526 57 is_stmt 1 view .LVU449
 1530              	.LBB237:
 528:Drivers/CMSIS/Include/cmsis_gcc.h **** 
 1531              		.loc 2 528 3 view .LVU450
 531:Drivers/CMSIS/Include/cmsis_gcc.h **** #else
 1532              		.loc 2 531 4 view .LVU451
 1533              		.syntax unified
 1534              	@ 531 "Drivers/CMSIS/Include/cmsis_gcc.h" 1
 1535 048a 93FAA3F3 		rbit r3, r3
 1536              	@ 0 "" 2
 1537              	.LVL114:
 1538              		.loc 2 544 3 view .LVU452
 1539              		.loc 2 544 3 is_stmt 0 view .LVU453
 1540              		.thumb
 1541              		.syntax unified
 1542              	.LBE237:
 1543              	.LBE236:
 564:Drivers/STM32F3xx_HAL_Driver/Src/stm32f3xx_hal_rcc.c ****       {
 1544              		.loc 1 564 13 view .LVU454
 1545 048e 002B     		cmp	r3, #0
 1546 0490 E2D1     		bne	.L125
 1547              	.LVL115:
 1548              	.LBB238:
 1549              	.LBI238:
 526:Drivers/CMSIS/Include/cmsis_gcc.h **** {
 1550              		.loc 2 526 57 is_stmt 1 view .LVU455
 1551              	.LBB239:
 528:Drivers/CMSIS/Include/cmsis_gcc.h **** 
 1552              		.loc 2 528 3 view .LVU456
 531:Drivers/CMSIS/Include/cmsis_gcc.h **** #else
 1553              		.loc 2 531 4 view .LVU457
 1554 0492 0223     		movs	r3, #2
 1555              		.syntax unified
 1556              	@ 531 "Drivers/CMSIS/Include/cmsis_gcc.h" 1
 1557 0494 93FAA3F3 		rbit r3, r3
 1558              	@ 0 "" 2
 1559              	.LVL116:
 1560              		.loc 2 544 3 view .LVU458
ARM GAS  /var/folders/80/65lm4rm97rv_n74c85vt01040000gn/T//ccntfwFR.s 			page 52


 1561              		.loc 2 544 3 is_stmt 0 view .LVU459
 1562              		.thumb
 1563              		.syntax unified
 1564              	.LBE239:
 1565              	.LBE238:
 564:Drivers/STM32F3xx_HAL_Driver/Src/stm32f3xx_hal_rcc.c ****       {
 1566              		.loc 1 564 13 view .LVU460
 1567 0498 514B     		ldr	r3, .L133+4
 1568 049a 596A     		ldr	r1, [r3, #36]
 1569 049c DEE7     		b	.L78
 1570              	.L75:
 567:Drivers/STM32F3xx_HAL_Driver/Src/stm32f3xx_hal_rcc.c ****         {
 568:Drivers/STM32F3xx_HAL_Driver/Src/stm32f3xx_hal_rcc.c ****           return HAL_TIMEOUT;
 569:Drivers/STM32F3xx_HAL_Driver/Src/stm32f3xx_hal_rcc.c ****         }
 570:Drivers/STM32F3xx_HAL_Driver/Src/stm32f3xx_hal_rcc.c ****       }
 571:Drivers/STM32F3xx_HAL_Driver/Src/stm32f3xx_hal_rcc.c ****     }
 572:Drivers/STM32F3xx_HAL_Driver/Src/stm32f3xx_hal_rcc.c **** 
 573:Drivers/STM32F3xx_HAL_Driver/Src/stm32f3xx_hal_rcc.c ****     /* Require to disable power clock if necessary */
 574:Drivers/STM32F3xx_HAL_Driver/Src/stm32f3xx_hal_rcc.c ****     if(pwrclkchanged == SET)
 1571              		.loc 1 574 5 is_stmt 1 view .LVU461
 1572              		.loc 1 574 7 is_stmt 0 view .LVU462
 1573 049e B5BB     		cbnz	r5, .L126
 1574              	.LVL117:
 1575              	.L61:
 1576              		.loc 1 574 7 view .LVU463
 1577              	.LBE222:
 575:Drivers/STM32F3xx_HAL_Driver/Src/stm32f3xx_hal_rcc.c ****     {
 576:Drivers/STM32F3xx_HAL_Driver/Src/stm32f3xx_hal_rcc.c ****       __HAL_RCC_PWR_CLK_DISABLE();
 577:Drivers/STM32F3xx_HAL_Driver/Src/stm32f3xx_hal_rcc.c ****     }
 578:Drivers/STM32F3xx_HAL_Driver/Src/stm32f3xx_hal_rcc.c ****   }
 579:Drivers/STM32F3xx_HAL_Driver/Src/stm32f3xx_hal_rcc.c **** 
 580:Drivers/STM32F3xx_HAL_Driver/Src/stm32f3xx_hal_rcc.c ****   /*-------------------------------- PLL Configuration -----------------------*/
 581:Drivers/STM32F3xx_HAL_Driver/Src/stm32f3xx_hal_rcc.c ****   /* Check the parameters */
 582:Drivers/STM32F3xx_HAL_Driver/Src/stm32f3xx_hal_rcc.c ****   assert_param(IS_RCC_PLL(RCC_OscInitStruct->PLL.PLLState));
 1578              		.loc 1 582 3 is_stmt 1 view .LVU464
 583:Drivers/STM32F3xx_HAL_Driver/Src/stm32f3xx_hal_rcc.c ****   if ((RCC_OscInitStruct->PLL.PLLState) != RCC_PLL_NONE)
 1579              		.loc 1 583 3 view .LVU465
 1580              		.loc 1 583 30 is_stmt 0 view .LVU466
 1581 04a0 E369     		ldr	r3, [r4, #28]
 1582              		.loc 1 583 6 view .LVU467
 1583 04a2 002B     		cmp	r3, #0
 1584 04a4 00F0AA80 		beq	.L106
 584:Drivers/STM32F3xx_HAL_Driver/Src/stm32f3xx_hal_rcc.c ****   {
 585:Drivers/STM32F3xx_HAL_Driver/Src/stm32f3xx_hal_rcc.c ****     /* Check if the PLL is used as system clock or not */
 586:Drivers/STM32F3xx_HAL_Driver/Src/stm32f3xx_hal_rcc.c ****     if(__HAL_RCC_GET_SYSCLK_SOURCE() != RCC_SYSCLKSOURCE_STATUS_PLLCLK)
 1585              		.loc 1 586 5 is_stmt 1 view .LVU468
 1586              		.loc 1 586 8 is_stmt 0 view .LVU469
 1587 04a8 4D4A     		ldr	r2, .L133+4
 1588 04aa 5268     		ldr	r2, [r2, #4]
 1589 04ac 02F00C02 		and	r2, r2, #12
 1590              		.loc 1 586 7 view .LVU470
 1591 04b0 082A     		cmp	r2, #8
 1592 04b2 00F0A680 		beq	.L107
 587:Drivers/STM32F3xx_HAL_Driver/Src/stm32f3xx_hal_rcc.c ****     { 
 588:Drivers/STM32F3xx_HAL_Driver/Src/stm32f3xx_hal_rcc.c ****       if((RCC_OscInitStruct->PLL.PLLState) == RCC_PLL_ON)
 1593              		.loc 1 588 7 is_stmt 1 view .LVU471
 1594              		.loc 1 588 9 is_stmt 0 view .LVU472
ARM GAS  /var/folders/80/65lm4rm97rv_n74c85vt01040000gn/T//ccntfwFR.s 			page 53


 1595 04b6 022B     		cmp	r3, #2
 1596 04b8 2FD0     		beq	.L127
 589:Drivers/STM32F3xx_HAL_Driver/Src/stm32f3xx_hal_rcc.c ****       {
 590:Drivers/STM32F3xx_HAL_Driver/Src/stm32f3xx_hal_rcc.c ****         /* Check the parameters */
 591:Drivers/STM32F3xx_HAL_Driver/Src/stm32f3xx_hal_rcc.c ****         assert_param(IS_RCC_PLLSOURCE(RCC_OscInitStruct->PLL.PLLSource));
 592:Drivers/STM32F3xx_HAL_Driver/Src/stm32f3xx_hal_rcc.c ****         assert_param(IS_RCC_PLL_MUL(RCC_OscInitStruct->PLL.PLLMUL));
 593:Drivers/STM32F3xx_HAL_Driver/Src/stm32f3xx_hal_rcc.c **** #if   defined(RCC_CFGR_PLLSRC_HSI_PREDIV)
 594:Drivers/STM32F3xx_HAL_Driver/Src/stm32f3xx_hal_rcc.c ****         assert_param(IS_RCC_PREDIV(RCC_OscInitStruct->PLL.PREDIV));
 595:Drivers/STM32F3xx_HAL_Driver/Src/stm32f3xx_hal_rcc.c **** #endif
 596:Drivers/STM32F3xx_HAL_Driver/Src/stm32f3xx_hal_rcc.c ****   
 597:Drivers/STM32F3xx_HAL_Driver/Src/stm32f3xx_hal_rcc.c ****         /* Disable the main PLL. */
 598:Drivers/STM32F3xx_HAL_Driver/Src/stm32f3xx_hal_rcc.c ****         __HAL_RCC_PLL_DISABLE();
 599:Drivers/STM32F3xx_HAL_Driver/Src/stm32f3xx_hal_rcc.c ****         
 600:Drivers/STM32F3xx_HAL_Driver/Src/stm32f3xx_hal_rcc.c ****         /* Get Start Tick */
 601:Drivers/STM32F3xx_HAL_Driver/Src/stm32f3xx_hal_rcc.c ****         tickstart = HAL_GetTick();
 602:Drivers/STM32F3xx_HAL_Driver/Src/stm32f3xx_hal_rcc.c ****         
 603:Drivers/STM32F3xx_HAL_Driver/Src/stm32f3xx_hal_rcc.c ****         /* Wait till PLL is disabled */
 604:Drivers/STM32F3xx_HAL_Driver/Src/stm32f3xx_hal_rcc.c ****         while(__HAL_RCC_GET_FLAG(RCC_FLAG_PLLRDY)  != RESET)
 605:Drivers/STM32F3xx_HAL_Driver/Src/stm32f3xx_hal_rcc.c ****         {
 606:Drivers/STM32F3xx_HAL_Driver/Src/stm32f3xx_hal_rcc.c ****           if((HAL_GetTick() - tickstart ) > PLL_TIMEOUT_VALUE)
 607:Drivers/STM32F3xx_HAL_Driver/Src/stm32f3xx_hal_rcc.c ****           {
 608:Drivers/STM32F3xx_HAL_Driver/Src/stm32f3xx_hal_rcc.c ****             return HAL_TIMEOUT;
 609:Drivers/STM32F3xx_HAL_Driver/Src/stm32f3xx_hal_rcc.c ****           }
 610:Drivers/STM32F3xx_HAL_Driver/Src/stm32f3xx_hal_rcc.c ****         }
 611:Drivers/STM32F3xx_HAL_Driver/Src/stm32f3xx_hal_rcc.c **** 
 612:Drivers/STM32F3xx_HAL_Driver/Src/stm32f3xx_hal_rcc.c **** #if defined(RCC_CFGR_PLLSRC_HSI_PREDIV)
 613:Drivers/STM32F3xx_HAL_Driver/Src/stm32f3xx_hal_rcc.c ****         /* Configure the main PLL clock source, predivider and multiplication factor. */
 614:Drivers/STM32F3xx_HAL_Driver/Src/stm32f3xx_hal_rcc.c ****         __HAL_RCC_PLL_CONFIG(RCC_OscInitStruct->PLL.PLLSource,
 615:Drivers/STM32F3xx_HAL_Driver/Src/stm32f3xx_hal_rcc.c ****                              RCC_OscInitStruct->PLL.PREDIV,
 616:Drivers/STM32F3xx_HAL_Driver/Src/stm32f3xx_hal_rcc.c ****                              RCC_OscInitStruct->PLL.PLLMUL);
 617:Drivers/STM32F3xx_HAL_Driver/Src/stm32f3xx_hal_rcc.c **** #else
 618:Drivers/STM32F3xx_HAL_Driver/Src/stm32f3xx_hal_rcc.c ****       /* Configure the main PLL clock source and multiplication factor. */
 619:Drivers/STM32F3xx_HAL_Driver/Src/stm32f3xx_hal_rcc.c ****       __HAL_RCC_PLL_CONFIG(RCC_OscInitStruct->PLL.PLLSource,
 620:Drivers/STM32F3xx_HAL_Driver/Src/stm32f3xx_hal_rcc.c ****                            RCC_OscInitStruct->PLL.PLLMUL);
 621:Drivers/STM32F3xx_HAL_Driver/Src/stm32f3xx_hal_rcc.c **** #endif /* RCC_CFGR_PLLSRC_HSI_PREDIV */
 622:Drivers/STM32F3xx_HAL_Driver/Src/stm32f3xx_hal_rcc.c ****         /* Enable the main PLL. */
 623:Drivers/STM32F3xx_HAL_Driver/Src/stm32f3xx_hal_rcc.c ****         __HAL_RCC_PLL_ENABLE();
 624:Drivers/STM32F3xx_HAL_Driver/Src/stm32f3xx_hal_rcc.c ****         
 625:Drivers/STM32F3xx_HAL_Driver/Src/stm32f3xx_hal_rcc.c ****         /* Get Start Tick */
 626:Drivers/STM32F3xx_HAL_Driver/Src/stm32f3xx_hal_rcc.c ****         tickstart = HAL_GetTick();
 627:Drivers/STM32F3xx_HAL_Driver/Src/stm32f3xx_hal_rcc.c ****         
 628:Drivers/STM32F3xx_HAL_Driver/Src/stm32f3xx_hal_rcc.c ****         /* Wait till PLL is ready */
 629:Drivers/STM32F3xx_HAL_Driver/Src/stm32f3xx_hal_rcc.c ****         while(__HAL_RCC_GET_FLAG(RCC_FLAG_PLLRDY)  == RESET)
 630:Drivers/STM32F3xx_HAL_Driver/Src/stm32f3xx_hal_rcc.c ****         {
 631:Drivers/STM32F3xx_HAL_Driver/Src/stm32f3xx_hal_rcc.c ****           if((HAL_GetTick() - tickstart ) > PLL_TIMEOUT_VALUE)
 632:Drivers/STM32F3xx_HAL_Driver/Src/stm32f3xx_hal_rcc.c ****           {
 633:Drivers/STM32F3xx_HAL_Driver/Src/stm32f3xx_hal_rcc.c ****             return HAL_TIMEOUT;
 634:Drivers/STM32F3xx_HAL_Driver/Src/stm32f3xx_hal_rcc.c ****           }
 635:Drivers/STM32F3xx_HAL_Driver/Src/stm32f3xx_hal_rcc.c ****         }
 636:Drivers/STM32F3xx_HAL_Driver/Src/stm32f3xx_hal_rcc.c ****       }
 637:Drivers/STM32F3xx_HAL_Driver/Src/stm32f3xx_hal_rcc.c ****       else
 638:Drivers/STM32F3xx_HAL_Driver/Src/stm32f3xx_hal_rcc.c ****       {
 639:Drivers/STM32F3xx_HAL_Driver/Src/stm32f3xx_hal_rcc.c ****         /* Disable the main PLL. */
 640:Drivers/STM32F3xx_HAL_Driver/Src/stm32f3xx_hal_rcc.c ****         __HAL_RCC_PLL_DISABLE();
 1597              		.loc 1 640 9 is_stmt 1 view .LVU473
 1598              	.LVL118:
 1599              	.LBB240:
ARM GAS  /var/folders/80/65lm4rm97rv_n74c85vt01040000gn/T//ccntfwFR.s 			page 54


 1600              	.LBI240:
 526:Drivers/CMSIS/Include/cmsis_gcc.h **** {
 1601              		.loc 2 526 57 view .LVU474
 1602              	.LBB241:
 528:Drivers/CMSIS/Include/cmsis_gcc.h **** 
 1603              		.loc 2 528 3 view .LVU475
 531:Drivers/CMSIS/Include/cmsis_gcc.h **** #else
 1604              		.loc 2 531 4 view .LVU476
 1605 04ba 4FF08073 		mov	r3, #16777216
 1606              		.syntax unified
 1607              	@ 531 "Drivers/CMSIS/Include/cmsis_gcc.h" 1
 1608 04be 93FAA3F3 		rbit r3, r3
 1609              	@ 0 "" 2
 1610              	.LVL119:
 1611              		.loc 2 544 3 view .LVU477
 1612              		.loc 2 544 3 is_stmt 0 view .LVU478
 1613              		.thumb
 1614              		.syntax unified
 1615              	.LBE241:
 1616              	.LBE240:
 1617              		.loc 1 640 9 view .LVU479
 1618 04c2 B3FA83F3 		clz	r3, r3
 1619 04c6 03F18453 		add	r3, r3, #276824064
 1620 04ca 03F58413 		add	r3, r3, #1081344
 1621 04ce 9B00     		lsls	r3, r3, #2
 1622 04d0 0022     		movs	r2, #0
 1623 04d2 1A60     		str	r2, [r3]
 641:Drivers/STM32F3xx_HAL_Driver/Src/stm32f3xx_hal_rcc.c ****  
 642:Drivers/STM32F3xx_HAL_Driver/Src/stm32f3xx_hal_rcc.c ****         /* Get Start Tick */
 643:Drivers/STM32F3xx_HAL_Driver/Src/stm32f3xx_hal_rcc.c ****         tickstart = HAL_GetTick();
 1624              		.loc 1 643 9 is_stmt 1 view .LVU480
 1625              		.loc 1 643 21 is_stmt 0 view .LVU481
 1626 04d4 FFF7FEFF 		bl	HAL_GetTick
 1627              	.LVL120:
 1628 04d8 0446     		mov	r4, r0
 1629              	.LVL121:
 644:Drivers/STM32F3xx_HAL_Driver/Src/stm32f3xx_hal_rcc.c ****         
 645:Drivers/STM32F3xx_HAL_Driver/Src/stm32f3xx_hal_rcc.c ****         /* Wait till PLL is disabled */  
 646:Drivers/STM32F3xx_HAL_Driver/Src/stm32f3xx_hal_rcc.c ****         while(__HAL_RCC_GET_FLAG(RCC_FLAG_PLLRDY)  != RESET)
 1630              		.loc 1 646 9 is_stmt 1 view .LVU482
 1631              	.L89:
 1632              		.loc 1 646 14 view .LVU483
 1633              	.LBB242:
 1634              	.LBI242:
 526:Drivers/CMSIS/Include/cmsis_gcc.h **** {
 1635              		.loc 2 526 57 view .LVU484
 1636              	.LBB243:
 528:Drivers/CMSIS/Include/cmsis_gcc.h **** 
 1637              		.loc 2 528 3 view .LVU485
 531:Drivers/CMSIS/Include/cmsis_gcc.h **** #else
 1638              		.loc 2 531 4 view .LVU486
 1639 04da 4FF00073 		mov	r3, #33554432
 1640              		.syntax unified
 1641              	@ 531 "Drivers/CMSIS/Include/cmsis_gcc.h" 1
 1642 04de 93FAA3F3 		rbit r3, r3
 1643              	@ 0 "" 2
 1644              		.loc 2 544 3 view .LVU487
ARM GAS  /var/folders/80/65lm4rm97rv_n74c85vt01040000gn/T//ccntfwFR.s 			page 55


 1645              	.LVL122:
 1646              		.loc 2 544 3 is_stmt 0 view .LVU488
 1647              		.thumb
 1648              		.syntax unified
 1649              	.LBE243:
 1650              	.LBE242:
 1651              		.loc 1 646 15 view .LVU489
 1652 04e2 3F4B     		ldr	r3, .L133+4
 1653 04e4 1968     		ldr	r1, [r3]
 1654              	.LVL123:
 1655              	.LBB244:
 1656              	.LBI244:
 526:Drivers/CMSIS/Include/cmsis_gcc.h **** {
 1657              		.loc 2 526 57 is_stmt 1 view .LVU490
 1658              	.LBB245:
 528:Drivers/CMSIS/Include/cmsis_gcc.h **** 
 1659              		.loc 2 528 3 view .LVU491
 531:Drivers/CMSIS/Include/cmsis_gcc.h **** #else
 1660              		.loc 2 531 4 view .LVU492
 1661 04e6 4FF00073 		mov	r3, #33554432
 1662              		.syntax unified
 1663              	@ 531 "Drivers/CMSIS/Include/cmsis_gcc.h" 1
 1664 04ea 93FAA3F3 		rbit r3, r3
 1665              	@ 0 "" 2
 1666              	.LVL124:
 1667              		.loc 2 544 3 view .LVU493
 1668              		.loc 2 544 3 is_stmt 0 view .LVU494
 1669              		.thumb
 1670              		.syntax unified
 1671              	.LBE245:
 1672              	.LBE244:
 1673              		.loc 1 646 15 view .LVU495
 1674 04ee B3FA83F3 		clz	r3, r3
 1675 04f2 03F01F03 		and	r3, r3, #31
 1676 04f6 0122     		movs	r2, #1
 1677 04f8 02FA03F3 		lsl	r3, r2, r3
 1678              		.loc 1 646 14 view .LVU496
 1679 04fc 1942     		tst	r1, r3
 1680 04fe 6BD0     		beq	.L128
 647:Drivers/STM32F3xx_HAL_Driver/Src/stm32f3xx_hal_rcc.c ****         {
 648:Drivers/STM32F3xx_HAL_Driver/Src/stm32f3xx_hal_rcc.c ****           if((HAL_GetTick() - tickstart ) > PLL_TIMEOUT_VALUE)
 1681              		.loc 1 648 11 is_stmt 1 view .LVU497
 1682              		.loc 1 648 15 is_stmt 0 view .LVU498
 1683 0500 FFF7FEFF 		bl	HAL_GetTick
 1684              	.LVL125:
 1685              		.loc 1 648 29 view .LVU499
 1686 0504 001B     		subs	r0, r0, r4
 1687              		.loc 1 648 13 view .LVU500
 1688 0506 0228     		cmp	r0, #2
 1689 0508 E7D9     		bls	.L89
 649:Drivers/STM32F3xx_HAL_Driver/Src/stm32f3xx_hal_rcc.c ****           {
 650:Drivers/STM32F3xx_HAL_Driver/Src/stm32f3xx_hal_rcc.c ****             return HAL_TIMEOUT;
 1690              		.loc 1 650 20 view .LVU501
 1691 050a 0320     		movs	r0, #3
 1692 050c 77E0     		b	.L21
 1693              	.LVL126:
 1694              	.L126:
ARM GAS  /var/folders/80/65lm4rm97rv_n74c85vt01040000gn/T//ccntfwFR.s 			page 56


 1695              	.LBB246:
 576:Drivers/STM32F3xx_HAL_Driver/Src/stm32f3xx_hal_rcc.c ****     }
 1696              		.loc 1 576 7 is_stmt 1 view .LVU502
 1697 050e 344A     		ldr	r2, .L133+4
 1698 0510 D369     		ldr	r3, [r2, #28]
 1699 0512 23F08053 		bic	r3, r3, #268435456
 1700 0516 D361     		str	r3, [r2, #28]
 1701 0518 C2E7     		b	.L61
 1702              	.LVL127:
 1703              	.L127:
 576:Drivers/STM32F3xx_HAL_Driver/Src/stm32f3xx_hal_rcc.c ****     }
 1704              		.loc 1 576 7 is_stmt 0 view .LVU503
 1705              	.LBE246:
 591:Drivers/STM32F3xx_HAL_Driver/Src/stm32f3xx_hal_rcc.c ****         assert_param(IS_RCC_PLL_MUL(RCC_OscInitStruct->PLL.PLLMUL));
 1706              		.loc 1 591 9 is_stmt 1 view .LVU504
 592:Drivers/STM32F3xx_HAL_Driver/Src/stm32f3xx_hal_rcc.c **** #if   defined(RCC_CFGR_PLLSRC_HSI_PREDIV)
 1707              		.loc 1 592 9 view .LVU505
 598:Drivers/STM32F3xx_HAL_Driver/Src/stm32f3xx_hal_rcc.c ****         
 1708              		.loc 1 598 9 view .LVU506
 1709              	.LBB247:
 1710              	.LBI247:
 526:Drivers/CMSIS/Include/cmsis_gcc.h **** {
 1711              		.loc 2 526 57 view .LVU507
 1712              	.LBB248:
 528:Drivers/CMSIS/Include/cmsis_gcc.h **** 
 1713              		.loc 2 528 3 view .LVU508
 531:Drivers/CMSIS/Include/cmsis_gcc.h **** #else
 1714              		.loc 2 531 4 view .LVU509
 1715 051a 4FF08073 		mov	r3, #16777216
 1716              		.syntax unified
 1717              	@ 531 "Drivers/CMSIS/Include/cmsis_gcc.h" 1
 1718 051e 93FAA3F3 		rbit r3, r3
 1719              	@ 0 "" 2
 1720              	.LVL128:
 1721              		.loc 2 544 3 view .LVU510
 1722              		.loc 2 544 3 is_stmt 0 view .LVU511
 1723              		.thumb
 1724              		.syntax unified
 1725              	.LBE248:
 1726              	.LBE247:
 598:Drivers/STM32F3xx_HAL_Driver/Src/stm32f3xx_hal_rcc.c ****         
 1727              		.loc 1 598 9 view .LVU512
 1728 0522 B3FA83F3 		clz	r3, r3
 1729 0526 03F18453 		add	r3, r3, #276824064
 1730 052a 03F58413 		add	r3, r3, #1081344
 1731 052e 9B00     		lsls	r3, r3, #2
 1732 0530 0022     		movs	r2, #0
 1733 0532 1A60     		str	r2, [r3]
 601:Drivers/STM32F3xx_HAL_Driver/Src/stm32f3xx_hal_rcc.c ****         
 1734              		.loc 1 601 9 is_stmt 1 view .LVU513
 601:Drivers/STM32F3xx_HAL_Driver/Src/stm32f3xx_hal_rcc.c ****         
 1735              		.loc 1 601 21 is_stmt 0 view .LVU514
 1736 0534 FFF7FEFF 		bl	HAL_GetTick
 1737              	.LVL129:
 1738 0538 0546     		mov	r5, r0
 1739              	.LVL130:
 604:Drivers/STM32F3xx_HAL_Driver/Src/stm32f3xx_hal_rcc.c ****         {
ARM GAS  /var/folders/80/65lm4rm97rv_n74c85vt01040000gn/T//ccntfwFR.s 			page 57


 1740              		.loc 1 604 9 is_stmt 1 view .LVU515
 1741              	.L81:
 604:Drivers/STM32F3xx_HAL_Driver/Src/stm32f3xx_hal_rcc.c ****         {
 1742              		.loc 1 604 14 view .LVU516
 1743              	.LBB249:
 1744              	.LBI249:
 526:Drivers/CMSIS/Include/cmsis_gcc.h **** {
 1745              		.loc 2 526 57 view .LVU517
 1746              	.LBB250:
 528:Drivers/CMSIS/Include/cmsis_gcc.h **** 
 1747              		.loc 2 528 3 view .LVU518
 531:Drivers/CMSIS/Include/cmsis_gcc.h **** #else
 1748              		.loc 2 531 4 view .LVU519
 1749 053a 4FF00073 		mov	r3, #33554432
 1750              		.syntax unified
 1751              	@ 531 "Drivers/CMSIS/Include/cmsis_gcc.h" 1
 1752 053e 93FAA3F3 		rbit r3, r3
 1753              	@ 0 "" 2
 1754              		.loc 2 544 3 view .LVU520
 1755              	.LVL131:
 1756              		.loc 2 544 3 is_stmt 0 view .LVU521
 1757              		.thumb
 1758              		.syntax unified
 1759              	.LBE250:
 1760              	.LBE249:
 604:Drivers/STM32F3xx_HAL_Driver/Src/stm32f3xx_hal_rcc.c ****         {
 1761              		.loc 1 604 15 view .LVU522
 1762 0542 274B     		ldr	r3, .L133+4
 1763 0544 1968     		ldr	r1, [r3]
 1764              	.LVL132:
 1765              	.LBB251:
 1766              	.LBI251:
 526:Drivers/CMSIS/Include/cmsis_gcc.h **** {
 1767              		.loc 2 526 57 is_stmt 1 view .LVU523
 1768              	.LBB252:
 528:Drivers/CMSIS/Include/cmsis_gcc.h **** 
 1769              		.loc 2 528 3 view .LVU524
 531:Drivers/CMSIS/Include/cmsis_gcc.h **** #else
 1770              		.loc 2 531 4 view .LVU525
 1771 0546 4FF00073 		mov	r3, #33554432
 1772              		.syntax unified
 1773              	@ 531 "Drivers/CMSIS/Include/cmsis_gcc.h" 1
 1774 054a 93FAA3F3 		rbit r3, r3
 1775              	@ 0 "" 2
 1776              	.LVL133:
 1777              		.loc 2 544 3 view .LVU526
 1778              		.loc 2 544 3 is_stmt 0 view .LVU527
 1779              		.thumb
 1780              		.syntax unified
 1781              	.LBE252:
 1782              	.LBE251:
 604:Drivers/STM32F3xx_HAL_Driver/Src/stm32f3xx_hal_rcc.c ****         {
 1783              		.loc 1 604 15 view .LVU528
 1784 054e B3FA83F3 		clz	r3, r3
 1785 0552 03F01F03 		and	r3, r3, #31
 1786 0556 0122     		movs	r2, #1
 1787 0558 02FA03F3 		lsl	r3, r2, r3
ARM GAS  /var/folders/80/65lm4rm97rv_n74c85vt01040000gn/T//ccntfwFR.s 			page 58


 604:Drivers/STM32F3xx_HAL_Driver/Src/stm32f3xx_hal_rcc.c ****         {
 1788              		.loc 1 604 14 view .LVU529
 1789 055c 1942     		tst	r1, r3
 1790 055e 06D0     		beq	.L129
 606:Drivers/STM32F3xx_HAL_Driver/Src/stm32f3xx_hal_rcc.c ****           {
 1791              		.loc 1 606 11 is_stmt 1 view .LVU530
 606:Drivers/STM32F3xx_HAL_Driver/Src/stm32f3xx_hal_rcc.c ****           {
 1792              		.loc 1 606 15 is_stmt 0 view .LVU531
 1793 0560 FFF7FEFF 		bl	HAL_GetTick
 1794              	.LVL134:
 606:Drivers/STM32F3xx_HAL_Driver/Src/stm32f3xx_hal_rcc.c ****           {
 1795              		.loc 1 606 29 view .LVU532
 1796 0564 401B     		subs	r0, r0, r5
 606:Drivers/STM32F3xx_HAL_Driver/Src/stm32f3xx_hal_rcc.c ****           {
 1797              		.loc 1 606 13 view .LVU533
 1798 0566 0228     		cmp	r0, #2
 1799 0568 E7D9     		bls	.L81
 608:Drivers/STM32F3xx_HAL_Driver/Src/stm32f3xx_hal_rcc.c ****           }
 1800              		.loc 1 608 20 view .LVU534
 1801 056a 0320     		movs	r0, #3
 1802 056c 47E0     		b	.L21
 1803              	.L129:
 619:Drivers/STM32F3xx_HAL_Driver/Src/stm32f3xx_hal_rcc.c ****                            RCC_OscInitStruct->PLL.PLLMUL);
 1804              		.loc 1 619 7 is_stmt 1 view .LVU535
 1805 056e 1C49     		ldr	r1, .L133+4
 1806 0570 4B68     		ldr	r3, [r1, #4]
 1807 0572 23F47413 		bic	r3, r3, #3997696
 1808 0576 626A     		ldr	r2, [r4, #36]
 1809 0578 206A     		ldr	r0, [r4, #32]
 1810 057a 0243     		orrs	r2, r2, r0
 1811 057c 1343     		orrs	r3, r3, r2
 1812 057e 4B60     		str	r3, [r1, #4]
 623:Drivers/STM32F3xx_HAL_Driver/Src/stm32f3xx_hal_rcc.c ****         
 1813              		.loc 1 623 9 view .LVU536
 1814              	.LVL135:
 1815              	.LBB253:
 1816              	.LBI253:
 526:Drivers/CMSIS/Include/cmsis_gcc.h **** {
 1817              		.loc 2 526 57 view .LVU537
 1818              	.LBB254:
 528:Drivers/CMSIS/Include/cmsis_gcc.h **** 
 1819              		.loc 2 528 3 view .LVU538
 531:Drivers/CMSIS/Include/cmsis_gcc.h **** #else
 1820              		.loc 2 531 4 view .LVU539
 1821 0580 4FF08073 		mov	r3, #16777216
 1822              		.syntax unified
 1823              	@ 531 "Drivers/CMSIS/Include/cmsis_gcc.h" 1
 1824 0584 93FAA3F3 		rbit r3, r3
 1825              	@ 0 "" 2
 1826              	.LVL136:
 1827              		.loc 2 544 3 view .LVU540
 1828              		.loc 2 544 3 is_stmt 0 view .LVU541
 1829              		.thumb
 1830              		.syntax unified
 1831              	.LBE254:
 1832              	.LBE253:
 623:Drivers/STM32F3xx_HAL_Driver/Src/stm32f3xx_hal_rcc.c ****         
ARM GAS  /var/folders/80/65lm4rm97rv_n74c85vt01040000gn/T//ccntfwFR.s 			page 59


 1833              		.loc 1 623 9 view .LVU542
 1834 0588 B3FA83F3 		clz	r3, r3
 1835 058c 03F18453 		add	r3, r3, #276824064
 1836 0590 03F58413 		add	r3, r3, #1081344
 1837 0594 9B00     		lsls	r3, r3, #2
 1838 0596 0122     		movs	r2, #1
 1839 0598 1A60     		str	r2, [r3]
 626:Drivers/STM32F3xx_HAL_Driver/Src/stm32f3xx_hal_rcc.c ****         
 1840              		.loc 1 626 9 is_stmt 1 view .LVU543
 626:Drivers/STM32F3xx_HAL_Driver/Src/stm32f3xx_hal_rcc.c ****         
 1841              		.loc 1 626 21 is_stmt 0 view .LVU544
 1842 059a FFF7FEFF 		bl	HAL_GetTick
 1843              	.LVL137:
 1844 059e 0446     		mov	r4, r0
 1845              	.LVL138:
 629:Drivers/STM32F3xx_HAL_Driver/Src/stm32f3xx_hal_rcc.c ****         {
 1846              		.loc 1 629 9 is_stmt 1 view .LVU545
 1847              	.L85:
 629:Drivers/STM32F3xx_HAL_Driver/Src/stm32f3xx_hal_rcc.c ****         {
 1848              		.loc 1 629 14 view .LVU546
 1849              	.LBB255:
 1850              	.LBI255:
 526:Drivers/CMSIS/Include/cmsis_gcc.h **** {
 1851              		.loc 2 526 57 view .LVU547
 1852              	.LBB256:
 528:Drivers/CMSIS/Include/cmsis_gcc.h **** 
 1853              		.loc 2 528 3 view .LVU548
 531:Drivers/CMSIS/Include/cmsis_gcc.h **** #else
 1854              		.loc 2 531 4 view .LVU549
 1855 05a0 4FF00073 		mov	r3, #33554432
 1856              		.syntax unified
 1857              	@ 531 "Drivers/CMSIS/Include/cmsis_gcc.h" 1
 1858 05a4 93FAA3F3 		rbit r3, r3
 1859              	@ 0 "" 2
 1860              		.loc 2 544 3 view .LVU550
 1861              	.LVL139:
 1862              		.loc 2 544 3 is_stmt 0 view .LVU551
 1863              		.thumb
 1864              		.syntax unified
 1865              	.LBE256:
 1866              	.LBE255:
 629:Drivers/STM32F3xx_HAL_Driver/Src/stm32f3xx_hal_rcc.c ****         {
 1867              		.loc 1 629 15 view .LVU552
 1868 05a8 0D4B     		ldr	r3, .L133+4
 1869 05aa 1968     		ldr	r1, [r3]
 1870              	.LVL140:
 1871              	.LBB257:
 1872              	.LBI257:
 526:Drivers/CMSIS/Include/cmsis_gcc.h **** {
 1873              		.loc 2 526 57 is_stmt 1 view .LVU553
 1874              	.LBB258:
 528:Drivers/CMSIS/Include/cmsis_gcc.h **** 
 1875              		.loc 2 528 3 view .LVU554
 531:Drivers/CMSIS/Include/cmsis_gcc.h **** #else
 1876              		.loc 2 531 4 view .LVU555
 1877 05ac 4FF00073 		mov	r3, #33554432
 1878              		.syntax unified
ARM GAS  /var/folders/80/65lm4rm97rv_n74c85vt01040000gn/T//ccntfwFR.s 			page 60


 1879              	@ 531 "Drivers/CMSIS/Include/cmsis_gcc.h" 1
 1880 05b0 93FAA3F3 		rbit r3, r3
 1881              	@ 0 "" 2
 1882              	.LVL141:
 1883              		.loc 2 544 3 view .LVU556
 1884              		.loc 2 544 3 is_stmt 0 view .LVU557
 1885              		.thumb
 1886              		.syntax unified
 1887              	.LBE258:
 1888              	.LBE257:
 629:Drivers/STM32F3xx_HAL_Driver/Src/stm32f3xx_hal_rcc.c ****         {
 1889              		.loc 1 629 15 view .LVU558
 1890 05b4 B3FA83F3 		clz	r3, r3
 1891 05b8 03F01F03 		and	r3, r3, #31
 1892 05bc 0122     		movs	r2, #1
 1893 05be 02FA03F3 		lsl	r3, r2, r3
 629:Drivers/STM32F3xx_HAL_Driver/Src/stm32f3xx_hal_rcc.c ****         {
 1894              		.loc 1 629 14 view .LVU559
 1895 05c2 1942     		tst	r1, r3
 1896 05c4 06D1     		bne	.L130
 631:Drivers/STM32F3xx_HAL_Driver/Src/stm32f3xx_hal_rcc.c ****           {
 1897              		.loc 1 631 11 is_stmt 1 view .LVU560
 631:Drivers/STM32F3xx_HAL_Driver/Src/stm32f3xx_hal_rcc.c ****           {
 1898              		.loc 1 631 15 is_stmt 0 view .LVU561
 1899 05c6 FFF7FEFF 		bl	HAL_GetTick
 1900              	.LVL142:
 631:Drivers/STM32F3xx_HAL_Driver/Src/stm32f3xx_hal_rcc.c ****           {
 1901              		.loc 1 631 29 view .LVU562
 1902 05ca 001B     		subs	r0, r0, r4
 631:Drivers/STM32F3xx_HAL_Driver/Src/stm32f3xx_hal_rcc.c ****           {
 1903              		.loc 1 631 13 view .LVU563
 1904 05cc 0228     		cmp	r0, #2
 1905 05ce E7D9     		bls	.L85
 633:Drivers/STM32F3xx_HAL_Driver/Src/stm32f3xx_hal_rcc.c ****           }
 1906              		.loc 1 633 20 view .LVU564
 1907 05d0 0320     		movs	r0, #3
 1908 05d2 14E0     		b	.L21
 1909              	.L130:
 651:Drivers/STM32F3xx_HAL_Driver/Src/stm32f3xx_hal_rcc.c ****           }
 652:Drivers/STM32F3xx_HAL_Driver/Src/stm32f3xx_hal_rcc.c ****         }
 653:Drivers/STM32F3xx_HAL_Driver/Src/stm32f3xx_hal_rcc.c ****       }
 654:Drivers/STM32F3xx_HAL_Driver/Src/stm32f3xx_hal_rcc.c ****     }
 655:Drivers/STM32F3xx_HAL_Driver/Src/stm32f3xx_hal_rcc.c ****     else
 656:Drivers/STM32F3xx_HAL_Driver/Src/stm32f3xx_hal_rcc.c ****     {
 657:Drivers/STM32F3xx_HAL_Driver/Src/stm32f3xx_hal_rcc.c ****       return HAL_ERROR;
 658:Drivers/STM32F3xx_HAL_Driver/Src/stm32f3xx_hal_rcc.c ****     }
 659:Drivers/STM32F3xx_HAL_Driver/Src/stm32f3xx_hal_rcc.c ****   }
 660:Drivers/STM32F3xx_HAL_Driver/Src/stm32f3xx_hal_rcc.c ****   
 661:Drivers/STM32F3xx_HAL_Driver/Src/stm32f3xx_hal_rcc.c ****   return HAL_OK;
 1910              		.loc 1 661 10 view .LVU565
 1911 05d4 0020     		movs	r0, #0
 1912 05d6 12E0     		b	.L21
 1913              	.L128:
 1914              		.loc 1 661 10 view .LVU566
 1915 05d8 0020     		movs	r0, #0
 1916 05da 10E0     		b	.L21
 1917              	.L134:
ARM GAS  /var/folders/80/65lm4rm97rv_n74c85vt01040000gn/T//ccntfwFR.s 			page 61


 1918              		.align	2
 1919              	.L133:
 1920 05dc 20819010 		.word	277905696
 1921 05e0 00100240 		.word	1073876992
 1922 05e4 00700040 		.word	1073770496
 1923              	.LVL143:
 1924              	.L93:
 1925              	.LCFI3:
 1926              		.cfi_def_cfa_offset 0
 1927              		.cfi_restore 4
 1928              		.cfi_restore 5
 1929              		.cfi_restore 6
 1930              		.cfi_restore 14
 339:Drivers/STM32F3xx_HAL_Driver/Src/stm32f3xx_hal_rcc.c ****   }
 1931              		.loc 1 339 12 view .LVU567
 1932 05e8 0120     		movs	r0, #1
 1933              	.LVL144:
 662:Drivers/STM32F3xx_HAL_Driver/Src/stm32f3xx_hal_rcc.c **** }
 1934              		.loc 1 662 1 view .LVU568
 1935 05ea 7047     		bx	lr
 1936              	.LVL145:
 1937              	.L117:
 1938              	.LCFI4:
 1939              		.cfi_def_cfa_offset 24
 1940              		.cfi_offset 4, -16
 1941              		.cfi_offset 5, -12
 1942              		.cfi_offset 6, -8
 1943              		.cfi_offset 14, -4
 357:Drivers/STM32F3xx_HAL_Driver/Src/stm32f3xx_hal_rcc.c ****       }
 1944              		.loc 1 357 16 view .LVU569
 1945 05ec 0120     		movs	r0, #1
 1946              	.LVL146:
 357:Drivers/STM32F3xx_HAL_Driver/Src/stm32f3xx_hal_rcc.c ****       }
 1947              		.loc 1 357 16 view .LVU570
 1948 05ee 06E0     		b	.L21
 1949              	.L97:
 415:Drivers/STM32F3xx_HAL_Driver/Src/stm32f3xx_hal_rcc.c ****       }
 1950              		.loc 1 415 16 view .LVU571
 1951 05f0 0120     		movs	r0, #1
 1952 05f2 04E0     		b	.L21
 1953              	.LVL147:
 1954              	.L104:
 1955              	.LBB259:
 554:Drivers/STM32F3xx_HAL_Driver/Src/stm32f3xx_hal_rcc.c ****         }
 1956              		.loc 1 554 18 view .LVU572
 1957 05f4 0320     		movs	r0, #3
 1958 05f6 02E0     		b	.L21
 1959              	.L105:
 568:Drivers/STM32F3xx_HAL_Driver/Src/stm32f3xx_hal_rcc.c ****         }
 1960              		.loc 1 568 18 view .LVU573
 1961 05f8 0320     		movs	r0, #3
 1962 05fa 00E0     		b	.L21
 1963              	.LVL148:
 1964              	.L106:
 568:Drivers/STM32F3xx_HAL_Driver/Src/stm32f3xx_hal_rcc.c ****         }
 1965              		.loc 1 568 18 view .LVU574
 1966              	.LBE259:
ARM GAS  /var/folders/80/65lm4rm97rv_n74c85vt01040000gn/T//ccntfwFR.s 			page 62


 661:Drivers/STM32F3xx_HAL_Driver/Src/stm32f3xx_hal_rcc.c **** }
 1967              		.loc 1 661 10 view .LVU575
 1968 05fc 0020     		movs	r0, #0
 1969              	.LVL149:
 1970              	.L21:
 1971              		.loc 1 662 1 view .LVU576
 1972 05fe 02B0     		add	sp, sp, #8
 1973              	.LCFI5:
 1974              		.cfi_remember_state
 1975              		.cfi_def_cfa_offset 16
 1976              		@ sp needed
 1977 0600 70BD     		pop	{r4, r5, r6, pc}
 1978              	.LVL150:
 1979              	.L107:
 1980              	.LCFI6:
 1981              		.cfi_restore_state
 657:Drivers/STM32F3xx_HAL_Driver/Src/stm32f3xx_hal_rcc.c ****     }
 1982              		.loc 1 657 14 view .LVU577
 1983 0602 0120     		movs	r0, #1
 1984 0604 FBE7     		b	.L21
 1985              		.cfi_endproc
 1986              	.LFE127:
 1988 0606 00BF     		.section	.text.HAL_RCC_MCOConfig,"ax",%progbits
 1989              		.align	1
 1990              		.global	HAL_RCC_MCOConfig
 1991              		.syntax unified
 1992              		.thumb
 1993              		.thumb_func
 1994              		.fpu fpv4-sp-d16
 1996              	HAL_RCC_MCOConfig:
 1997              	.LVL151:
 1998              	.LFB129:
 663:Drivers/STM32F3xx_HAL_Driver/Src/stm32f3xx_hal_rcc.c **** 
 664:Drivers/STM32F3xx_HAL_Driver/Src/stm32f3xx_hal_rcc.c **** /**
 665:Drivers/STM32F3xx_HAL_Driver/Src/stm32f3xx_hal_rcc.c ****   * @brief  Initializes the CPU, AHB and APB buses clocks according to the specified 
 666:Drivers/STM32F3xx_HAL_Driver/Src/stm32f3xx_hal_rcc.c ****   *         parameters in the RCC_ClkInitStruct.
 667:Drivers/STM32F3xx_HAL_Driver/Src/stm32f3xx_hal_rcc.c ****   * @param  RCC_ClkInitStruct pointer to an RCC_OscInitTypeDef structure that
 668:Drivers/STM32F3xx_HAL_Driver/Src/stm32f3xx_hal_rcc.c ****   *         contains the configuration information for the RCC peripheral.
 669:Drivers/STM32F3xx_HAL_Driver/Src/stm32f3xx_hal_rcc.c ****   * @param  FLatency FLASH Latency                   
 670:Drivers/STM32F3xx_HAL_Driver/Src/stm32f3xx_hal_rcc.c ****   *          The value of this parameter depend on device used within the same series
 671:Drivers/STM32F3xx_HAL_Driver/Src/stm32f3xx_hal_rcc.c ****   * @note   The SystemCoreClock CMSIS variable is used to store System Clock Frequency 
 672:Drivers/STM32F3xx_HAL_Driver/Src/stm32f3xx_hal_rcc.c ****   *         and updated by @ref HAL_RCC_GetHCLKFreq() function called within this function
 673:Drivers/STM32F3xx_HAL_Driver/Src/stm32f3xx_hal_rcc.c ****   *
 674:Drivers/STM32F3xx_HAL_Driver/Src/stm32f3xx_hal_rcc.c ****   * @note   The HSI is used (enabled by hardware) as system clock source after
 675:Drivers/STM32F3xx_HAL_Driver/Src/stm32f3xx_hal_rcc.c ****   *         start-up from Reset, wake-up from STOP and STANDBY mode, or in case
 676:Drivers/STM32F3xx_HAL_Driver/Src/stm32f3xx_hal_rcc.c ****   *         of failure of the HSE used directly or indirectly as system clock
 677:Drivers/STM32F3xx_HAL_Driver/Src/stm32f3xx_hal_rcc.c ****   *         (if the Clock Security System CSS is enabled).
 678:Drivers/STM32F3xx_HAL_Driver/Src/stm32f3xx_hal_rcc.c ****   *           
 679:Drivers/STM32F3xx_HAL_Driver/Src/stm32f3xx_hal_rcc.c ****   * @note   A switch from one clock source to another occurs only if the target
 680:Drivers/STM32F3xx_HAL_Driver/Src/stm32f3xx_hal_rcc.c ****   *         clock source is ready (clock stable after start-up delay or PLL locked). 
 681:Drivers/STM32F3xx_HAL_Driver/Src/stm32f3xx_hal_rcc.c ****   *         If a clock source which is not yet ready is selected, the switch will
 682:Drivers/STM32F3xx_HAL_Driver/Src/stm32f3xx_hal_rcc.c ****   *         occur when the clock source will be ready. 
 683:Drivers/STM32F3xx_HAL_Driver/Src/stm32f3xx_hal_rcc.c ****   *         You can use @ref HAL_RCC_GetClockConfig() function to know which clock is
 684:Drivers/STM32F3xx_HAL_Driver/Src/stm32f3xx_hal_rcc.c ****   *         currently used as system clock source.
 685:Drivers/STM32F3xx_HAL_Driver/Src/stm32f3xx_hal_rcc.c ****   * @retval HAL status
 686:Drivers/STM32F3xx_HAL_Driver/Src/stm32f3xx_hal_rcc.c ****   */
 687:Drivers/STM32F3xx_HAL_Driver/Src/stm32f3xx_hal_rcc.c **** HAL_StatusTypeDef HAL_RCC_ClockConfig(RCC_ClkInitTypeDef  *RCC_ClkInitStruct, uint32_t FLatency)
ARM GAS  /var/folders/80/65lm4rm97rv_n74c85vt01040000gn/T//ccntfwFR.s 			page 63


 688:Drivers/STM32F3xx_HAL_Driver/Src/stm32f3xx_hal_rcc.c **** {
 689:Drivers/STM32F3xx_HAL_Driver/Src/stm32f3xx_hal_rcc.c ****   uint32_t tickstart = 0U;
 690:Drivers/STM32F3xx_HAL_Driver/Src/stm32f3xx_hal_rcc.c **** 
 691:Drivers/STM32F3xx_HAL_Driver/Src/stm32f3xx_hal_rcc.c ****   /* Check Null pointer */
 692:Drivers/STM32F3xx_HAL_Driver/Src/stm32f3xx_hal_rcc.c ****   if(RCC_ClkInitStruct == NULL)
 693:Drivers/STM32F3xx_HAL_Driver/Src/stm32f3xx_hal_rcc.c ****   {
 694:Drivers/STM32F3xx_HAL_Driver/Src/stm32f3xx_hal_rcc.c ****     return HAL_ERROR;
 695:Drivers/STM32F3xx_HAL_Driver/Src/stm32f3xx_hal_rcc.c ****   }
 696:Drivers/STM32F3xx_HAL_Driver/Src/stm32f3xx_hal_rcc.c **** 
 697:Drivers/STM32F3xx_HAL_Driver/Src/stm32f3xx_hal_rcc.c ****   /* Check the parameters */
 698:Drivers/STM32F3xx_HAL_Driver/Src/stm32f3xx_hal_rcc.c ****   assert_param(IS_RCC_CLOCKTYPE(RCC_ClkInitStruct->ClockType));
 699:Drivers/STM32F3xx_HAL_Driver/Src/stm32f3xx_hal_rcc.c ****   assert_param(IS_FLASH_LATENCY(FLatency));
 700:Drivers/STM32F3xx_HAL_Driver/Src/stm32f3xx_hal_rcc.c **** 
 701:Drivers/STM32F3xx_HAL_Driver/Src/stm32f3xx_hal_rcc.c ****   /* To correctly read data from FLASH memory, the number of wait states (LATENCY) 
 702:Drivers/STM32F3xx_HAL_Driver/Src/stm32f3xx_hal_rcc.c ****   must be correctly programmed according to the frequency of the CPU clock 
 703:Drivers/STM32F3xx_HAL_Driver/Src/stm32f3xx_hal_rcc.c ****     (HCLK) of the device. */
 704:Drivers/STM32F3xx_HAL_Driver/Src/stm32f3xx_hal_rcc.c **** 
 705:Drivers/STM32F3xx_HAL_Driver/Src/stm32f3xx_hal_rcc.c ****   /* Increasing the number of wait states because of higher CPU frequency */
 706:Drivers/STM32F3xx_HAL_Driver/Src/stm32f3xx_hal_rcc.c ****   if(FLatency > __HAL_FLASH_GET_LATENCY())
 707:Drivers/STM32F3xx_HAL_Driver/Src/stm32f3xx_hal_rcc.c ****   {    
 708:Drivers/STM32F3xx_HAL_Driver/Src/stm32f3xx_hal_rcc.c ****     /* Program the new number of wait states to the LATENCY bits in the FLASH_ACR register */
 709:Drivers/STM32F3xx_HAL_Driver/Src/stm32f3xx_hal_rcc.c ****     __HAL_FLASH_SET_LATENCY(FLatency);
 710:Drivers/STM32F3xx_HAL_Driver/Src/stm32f3xx_hal_rcc.c ****     
 711:Drivers/STM32F3xx_HAL_Driver/Src/stm32f3xx_hal_rcc.c ****     /* Check that the new number of wait states is taken into account to access the Flash
 712:Drivers/STM32F3xx_HAL_Driver/Src/stm32f3xx_hal_rcc.c ****     memory by reading the FLASH_ACR register */
 713:Drivers/STM32F3xx_HAL_Driver/Src/stm32f3xx_hal_rcc.c ****     if(__HAL_FLASH_GET_LATENCY() != FLatency)
 714:Drivers/STM32F3xx_HAL_Driver/Src/stm32f3xx_hal_rcc.c ****     {
 715:Drivers/STM32F3xx_HAL_Driver/Src/stm32f3xx_hal_rcc.c ****       return HAL_ERROR;
 716:Drivers/STM32F3xx_HAL_Driver/Src/stm32f3xx_hal_rcc.c ****     }
 717:Drivers/STM32F3xx_HAL_Driver/Src/stm32f3xx_hal_rcc.c ****   }
 718:Drivers/STM32F3xx_HAL_Driver/Src/stm32f3xx_hal_rcc.c **** 
 719:Drivers/STM32F3xx_HAL_Driver/Src/stm32f3xx_hal_rcc.c ****   /*-------------------------- HCLK Configuration --------------------------*/
 720:Drivers/STM32F3xx_HAL_Driver/Src/stm32f3xx_hal_rcc.c ****   if(((RCC_ClkInitStruct->ClockType) & RCC_CLOCKTYPE_HCLK) == RCC_CLOCKTYPE_HCLK)
 721:Drivers/STM32F3xx_HAL_Driver/Src/stm32f3xx_hal_rcc.c ****   {
 722:Drivers/STM32F3xx_HAL_Driver/Src/stm32f3xx_hal_rcc.c ****     assert_param(IS_RCC_HCLK(RCC_ClkInitStruct->AHBCLKDivider));
 723:Drivers/STM32F3xx_HAL_Driver/Src/stm32f3xx_hal_rcc.c ****     MODIFY_REG(RCC->CFGR, RCC_CFGR_HPRE, RCC_ClkInitStruct->AHBCLKDivider);
 724:Drivers/STM32F3xx_HAL_Driver/Src/stm32f3xx_hal_rcc.c ****   }
 725:Drivers/STM32F3xx_HAL_Driver/Src/stm32f3xx_hal_rcc.c **** 
 726:Drivers/STM32F3xx_HAL_Driver/Src/stm32f3xx_hal_rcc.c ****   /*------------------------- SYSCLK Configuration ---------------------------*/ 
 727:Drivers/STM32F3xx_HAL_Driver/Src/stm32f3xx_hal_rcc.c ****   if(((RCC_ClkInitStruct->ClockType) & RCC_CLOCKTYPE_SYSCLK) == RCC_CLOCKTYPE_SYSCLK)
 728:Drivers/STM32F3xx_HAL_Driver/Src/stm32f3xx_hal_rcc.c ****   {    
 729:Drivers/STM32F3xx_HAL_Driver/Src/stm32f3xx_hal_rcc.c ****     assert_param(IS_RCC_SYSCLKSOURCE(RCC_ClkInitStruct->SYSCLKSource));
 730:Drivers/STM32F3xx_HAL_Driver/Src/stm32f3xx_hal_rcc.c ****     
 731:Drivers/STM32F3xx_HAL_Driver/Src/stm32f3xx_hal_rcc.c ****     /* HSE is selected as System Clock Source */
 732:Drivers/STM32F3xx_HAL_Driver/Src/stm32f3xx_hal_rcc.c ****     if(RCC_ClkInitStruct->SYSCLKSource == RCC_SYSCLKSOURCE_HSE)
 733:Drivers/STM32F3xx_HAL_Driver/Src/stm32f3xx_hal_rcc.c ****     {
 734:Drivers/STM32F3xx_HAL_Driver/Src/stm32f3xx_hal_rcc.c ****       /* Check the HSE ready flag */  
 735:Drivers/STM32F3xx_HAL_Driver/Src/stm32f3xx_hal_rcc.c ****       if(__HAL_RCC_GET_FLAG(RCC_FLAG_HSERDY) == RESET)
 736:Drivers/STM32F3xx_HAL_Driver/Src/stm32f3xx_hal_rcc.c ****       {
 737:Drivers/STM32F3xx_HAL_Driver/Src/stm32f3xx_hal_rcc.c ****         return HAL_ERROR;
 738:Drivers/STM32F3xx_HAL_Driver/Src/stm32f3xx_hal_rcc.c ****       }
 739:Drivers/STM32F3xx_HAL_Driver/Src/stm32f3xx_hal_rcc.c ****     }
 740:Drivers/STM32F3xx_HAL_Driver/Src/stm32f3xx_hal_rcc.c ****     /* PLL is selected as System Clock Source */
 741:Drivers/STM32F3xx_HAL_Driver/Src/stm32f3xx_hal_rcc.c ****     else if(RCC_ClkInitStruct->SYSCLKSource == RCC_SYSCLKSOURCE_PLLCLK)
 742:Drivers/STM32F3xx_HAL_Driver/Src/stm32f3xx_hal_rcc.c ****     {
 743:Drivers/STM32F3xx_HAL_Driver/Src/stm32f3xx_hal_rcc.c ****       /* Check the PLL ready flag */  
 744:Drivers/STM32F3xx_HAL_Driver/Src/stm32f3xx_hal_rcc.c ****       if(__HAL_RCC_GET_FLAG(RCC_FLAG_PLLRDY) == RESET)
ARM GAS  /var/folders/80/65lm4rm97rv_n74c85vt01040000gn/T//ccntfwFR.s 			page 64


 745:Drivers/STM32F3xx_HAL_Driver/Src/stm32f3xx_hal_rcc.c ****       {
 746:Drivers/STM32F3xx_HAL_Driver/Src/stm32f3xx_hal_rcc.c ****         return HAL_ERROR;
 747:Drivers/STM32F3xx_HAL_Driver/Src/stm32f3xx_hal_rcc.c ****       }
 748:Drivers/STM32F3xx_HAL_Driver/Src/stm32f3xx_hal_rcc.c ****     }
 749:Drivers/STM32F3xx_HAL_Driver/Src/stm32f3xx_hal_rcc.c ****     /* HSI is selected as System Clock Source */
 750:Drivers/STM32F3xx_HAL_Driver/Src/stm32f3xx_hal_rcc.c ****     else
 751:Drivers/STM32F3xx_HAL_Driver/Src/stm32f3xx_hal_rcc.c ****     {
 752:Drivers/STM32F3xx_HAL_Driver/Src/stm32f3xx_hal_rcc.c ****       /* Check the HSI ready flag */  
 753:Drivers/STM32F3xx_HAL_Driver/Src/stm32f3xx_hal_rcc.c ****       if(__HAL_RCC_GET_FLAG(RCC_FLAG_HSIRDY) == RESET)
 754:Drivers/STM32F3xx_HAL_Driver/Src/stm32f3xx_hal_rcc.c ****       {
 755:Drivers/STM32F3xx_HAL_Driver/Src/stm32f3xx_hal_rcc.c ****         return HAL_ERROR;
 756:Drivers/STM32F3xx_HAL_Driver/Src/stm32f3xx_hal_rcc.c ****       }
 757:Drivers/STM32F3xx_HAL_Driver/Src/stm32f3xx_hal_rcc.c ****     }
 758:Drivers/STM32F3xx_HAL_Driver/Src/stm32f3xx_hal_rcc.c **** 
 759:Drivers/STM32F3xx_HAL_Driver/Src/stm32f3xx_hal_rcc.c ****     __HAL_RCC_SYSCLK_CONFIG(RCC_ClkInitStruct->SYSCLKSource);
 760:Drivers/STM32F3xx_HAL_Driver/Src/stm32f3xx_hal_rcc.c **** 
 761:Drivers/STM32F3xx_HAL_Driver/Src/stm32f3xx_hal_rcc.c ****     /* Get Start Tick */
 762:Drivers/STM32F3xx_HAL_Driver/Src/stm32f3xx_hal_rcc.c ****     tickstart = HAL_GetTick();
 763:Drivers/STM32F3xx_HAL_Driver/Src/stm32f3xx_hal_rcc.c ****     
 764:Drivers/STM32F3xx_HAL_Driver/Src/stm32f3xx_hal_rcc.c ****     while (__HAL_RCC_GET_SYSCLK_SOURCE() != (RCC_ClkInitStruct->SYSCLKSource << RCC_CFGR_SWS_Pos))
 765:Drivers/STM32F3xx_HAL_Driver/Src/stm32f3xx_hal_rcc.c ****     {
 766:Drivers/STM32F3xx_HAL_Driver/Src/stm32f3xx_hal_rcc.c ****       if ((HAL_GetTick() - tickstart) > CLOCKSWITCH_TIMEOUT_VALUE)
 767:Drivers/STM32F3xx_HAL_Driver/Src/stm32f3xx_hal_rcc.c ****       {
 768:Drivers/STM32F3xx_HAL_Driver/Src/stm32f3xx_hal_rcc.c ****         return HAL_TIMEOUT;
 769:Drivers/STM32F3xx_HAL_Driver/Src/stm32f3xx_hal_rcc.c ****       }
 770:Drivers/STM32F3xx_HAL_Driver/Src/stm32f3xx_hal_rcc.c ****     }
 771:Drivers/STM32F3xx_HAL_Driver/Src/stm32f3xx_hal_rcc.c ****   }
 772:Drivers/STM32F3xx_HAL_Driver/Src/stm32f3xx_hal_rcc.c ****   /* Decreasing the number of wait states because of lower CPU frequency */
 773:Drivers/STM32F3xx_HAL_Driver/Src/stm32f3xx_hal_rcc.c ****   if(FLatency < __HAL_FLASH_GET_LATENCY())
 774:Drivers/STM32F3xx_HAL_Driver/Src/stm32f3xx_hal_rcc.c ****   {    
 775:Drivers/STM32F3xx_HAL_Driver/Src/stm32f3xx_hal_rcc.c ****     /* Program the new number of wait states to the LATENCY bits in the FLASH_ACR register */
 776:Drivers/STM32F3xx_HAL_Driver/Src/stm32f3xx_hal_rcc.c ****     __HAL_FLASH_SET_LATENCY(FLatency);
 777:Drivers/STM32F3xx_HAL_Driver/Src/stm32f3xx_hal_rcc.c ****     
 778:Drivers/STM32F3xx_HAL_Driver/Src/stm32f3xx_hal_rcc.c ****     /* Check that the new number of wait states is taken into account to access the Flash
 779:Drivers/STM32F3xx_HAL_Driver/Src/stm32f3xx_hal_rcc.c ****     memory by reading the FLASH_ACR register */
 780:Drivers/STM32F3xx_HAL_Driver/Src/stm32f3xx_hal_rcc.c ****     if(__HAL_FLASH_GET_LATENCY() != FLatency)
 781:Drivers/STM32F3xx_HAL_Driver/Src/stm32f3xx_hal_rcc.c ****     {
 782:Drivers/STM32F3xx_HAL_Driver/Src/stm32f3xx_hal_rcc.c ****       return HAL_ERROR;
 783:Drivers/STM32F3xx_HAL_Driver/Src/stm32f3xx_hal_rcc.c ****     }
 784:Drivers/STM32F3xx_HAL_Driver/Src/stm32f3xx_hal_rcc.c ****   }    
 785:Drivers/STM32F3xx_HAL_Driver/Src/stm32f3xx_hal_rcc.c **** 
 786:Drivers/STM32F3xx_HAL_Driver/Src/stm32f3xx_hal_rcc.c ****   /*-------------------------- PCLK1 Configuration ---------------------------*/ 
 787:Drivers/STM32F3xx_HAL_Driver/Src/stm32f3xx_hal_rcc.c ****   if(((RCC_ClkInitStruct->ClockType) & RCC_CLOCKTYPE_PCLK1) == RCC_CLOCKTYPE_PCLK1)
 788:Drivers/STM32F3xx_HAL_Driver/Src/stm32f3xx_hal_rcc.c ****   {
 789:Drivers/STM32F3xx_HAL_Driver/Src/stm32f3xx_hal_rcc.c ****     assert_param(IS_RCC_PCLK(RCC_ClkInitStruct->APB1CLKDivider));
 790:Drivers/STM32F3xx_HAL_Driver/Src/stm32f3xx_hal_rcc.c ****     MODIFY_REG(RCC->CFGR, RCC_CFGR_PPRE1, RCC_ClkInitStruct->APB1CLKDivider);
 791:Drivers/STM32F3xx_HAL_Driver/Src/stm32f3xx_hal_rcc.c ****   }
 792:Drivers/STM32F3xx_HAL_Driver/Src/stm32f3xx_hal_rcc.c ****   
 793:Drivers/STM32F3xx_HAL_Driver/Src/stm32f3xx_hal_rcc.c ****   /*-------------------------- PCLK2 Configuration ---------------------------*/ 
 794:Drivers/STM32F3xx_HAL_Driver/Src/stm32f3xx_hal_rcc.c ****   if(((RCC_ClkInitStruct->ClockType) & RCC_CLOCKTYPE_PCLK2) == RCC_CLOCKTYPE_PCLK2)
 795:Drivers/STM32F3xx_HAL_Driver/Src/stm32f3xx_hal_rcc.c ****   {
 796:Drivers/STM32F3xx_HAL_Driver/Src/stm32f3xx_hal_rcc.c ****     assert_param(IS_RCC_PCLK(RCC_ClkInitStruct->APB2CLKDivider));
 797:Drivers/STM32F3xx_HAL_Driver/Src/stm32f3xx_hal_rcc.c ****     MODIFY_REG(RCC->CFGR, RCC_CFGR_PPRE2, ((RCC_ClkInitStruct->APB2CLKDivider) << 3U));
 798:Drivers/STM32F3xx_HAL_Driver/Src/stm32f3xx_hal_rcc.c ****   }
 799:Drivers/STM32F3xx_HAL_Driver/Src/stm32f3xx_hal_rcc.c ****  
 800:Drivers/STM32F3xx_HAL_Driver/Src/stm32f3xx_hal_rcc.c ****   /* Update the SystemCoreClock global variable */
 801:Drivers/STM32F3xx_HAL_Driver/Src/stm32f3xx_hal_rcc.c ****   SystemCoreClock = HAL_RCC_GetSysClockFreq() >> AHBPrescTable[(RCC->CFGR & RCC_CFGR_HPRE)>> RCC_CF
ARM GAS  /var/folders/80/65lm4rm97rv_n74c85vt01040000gn/T//ccntfwFR.s 			page 65


 802:Drivers/STM32F3xx_HAL_Driver/Src/stm32f3xx_hal_rcc.c **** 
 803:Drivers/STM32F3xx_HAL_Driver/Src/stm32f3xx_hal_rcc.c ****   /* Configure the source of time base considering new system clocks settings*/
 804:Drivers/STM32F3xx_HAL_Driver/Src/stm32f3xx_hal_rcc.c ****   HAL_InitTick (TICK_INT_PRIORITY);
 805:Drivers/STM32F3xx_HAL_Driver/Src/stm32f3xx_hal_rcc.c ****   
 806:Drivers/STM32F3xx_HAL_Driver/Src/stm32f3xx_hal_rcc.c ****   return HAL_OK;
 807:Drivers/STM32F3xx_HAL_Driver/Src/stm32f3xx_hal_rcc.c **** }
 808:Drivers/STM32F3xx_HAL_Driver/Src/stm32f3xx_hal_rcc.c **** 
 809:Drivers/STM32F3xx_HAL_Driver/Src/stm32f3xx_hal_rcc.c **** /**
 810:Drivers/STM32F3xx_HAL_Driver/Src/stm32f3xx_hal_rcc.c ****   * @}
 811:Drivers/STM32F3xx_HAL_Driver/Src/stm32f3xx_hal_rcc.c ****   */
 812:Drivers/STM32F3xx_HAL_Driver/Src/stm32f3xx_hal_rcc.c **** 
 813:Drivers/STM32F3xx_HAL_Driver/Src/stm32f3xx_hal_rcc.c **** /** @defgroup RCC_Exported_Functions_Group2 Peripheral Control functions
 814:Drivers/STM32F3xx_HAL_Driver/Src/stm32f3xx_hal_rcc.c ****   *  @brief   RCC clocks control functions
 815:Drivers/STM32F3xx_HAL_Driver/Src/stm32f3xx_hal_rcc.c ****   *
 816:Drivers/STM32F3xx_HAL_Driver/Src/stm32f3xx_hal_rcc.c ****   @verbatim   
 817:Drivers/STM32F3xx_HAL_Driver/Src/stm32f3xx_hal_rcc.c ****   ===============================================================================
 818:Drivers/STM32F3xx_HAL_Driver/Src/stm32f3xx_hal_rcc.c ****                   ##### Peripheral Control functions #####
 819:Drivers/STM32F3xx_HAL_Driver/Src/stm32f3xx_hal_rcc.c ****   ===============================================================================  
 820:Drivers/STM32F3xx_HAL_Driver/Src/stm32f3xx_hal_rcc.c ****     [..]
 821:Drivers/STM32F3xx_HAL_Driver/Src/stm32f3xx_hal_rcc.c ****     This subsection provides a set of functions allowing to control the RCC Clocks 
 822:Drivers/STM32F3xx_HAL_Driver/Src/stm32f3xx_hal_rcc.c ****     frequencies.
 823:Drivers/STM32F3xx_HAL_Driver/Src/stm32f3xx_hal_rcc.c **** 
 824:Drivers/STM32F3xx_HAL_Driver/Src/stm32f3xx_hal_rcc.c ****   @endverbatim
 825:Drivers/STM32F3xx_HAL_Driver/Src/stm32f3xx_hal_rcc.c ****   * @{
 826:Drivers/STM32F3xx_HAL_Driver/Src/stm32f3xx_hal_rcc.c ****   */
 827:Drivers/STM32F3xx_HAL_Driver/Src/stm32f3xx_hal_rcc.c **** 
 828:Drivers/STM32F3xx_HAL_Driver/Src/stm32f3xx_hal_rcc.c **** #if defined(RCC_CFGR_MCOPRE)
 829:Drivers/STM32F3xx_HAL_Driver/Src/stm32f3xx_hal_rcc.c **** /**
 830:Drivers/STM32F3xx_HAL_Driver/Src/stm32f3xx_hal_rcc.c ****   * @brief  Selects the clock source to output on MCO pin.
 831:Drivers/STM32F3xx_HAL_Driver/Src/stm32f3xx_hal_rcc.c ****   * @note   MCO pin should be configured in alternate function mode.
 832:Drivers/STM32F3xx_HAL_Driver/Src/stm32f3xx_hal_rcc.c ****   * @param  RCC_MCOx specifies the output direction for the clock source.
 833:Drivers/STM32F3xx_HAL_Driver/Src/stm32f3xx_hal_rcc.c ****   *          This parameter can be one of the following values:
 834:Drivers/STM32F3xx_HAL_Driver/Src/stm32f3xx_hal_rcc.c ****   *            @arg @ref RCC_MCO1 Clock source to output on MCO1 pin(PA8).
 835:Drivers/STM32F3xx_HAL_Driver/Src/stm32f3xx_hal_rcc.c ****   * @param  RCC_MCOSource specifies the clock source to output.
 836:Drivers/STM32F3xx_HAL_Driver/Src/stm32f3xx_hal_rcc.c ****   *          This parameter can be one of the following values:
 837:Drivers/STM32F3xx_HAL_Driver/Src/stm32f3xx_hal_rcc.c ****   *            @arg @ref RCC_MCO1SOURCE_NOCLOCK     No clock selected
 838:Drivers/STM32F3xx_HAL_Driver/Src/stm32f3xx_hal_rcc.c ****   *            @arg @ref RCC_MCO1SOURCE_SYSCLK      System Clock selected as MCO clock
 839:Drivers/STM32F3xx_HAL_Driver/Src/stm32f3xx_hal_rcc.c ****   *            @arg @ref RCC_MCO1SOURCE_HSI         HSI selected as MCO clock
 840:Drivers/STM32F3xx_HAL_Driver/Src/stm32f3xx_hal_rcc.c ****   *            @arg @ref RCC_MCO1SOURCE_HSE         HSE selected as MCO clock
 841:Drivers/STM32F3xx_HAL_Driver/Src/stm32f3xx_hal_rcc.c ****   *            @arg @ref RCC_MCO1SOURCE_LSI         LSI selected as MCO clock
 842:Drivers/STM32F3xx_HAL_Driver/Src/stm32f3xx_hal_rcc.c ****   *            @arg @ref RCC_MCO1SOURCE_LSE         LSE selected as MCO clock
 843:Drivers/STM32F3xx_HAL_Driver/Src/stm32f3xx_hal_rcc.c ****   *            @arg @ref RCC_MCO1SOURCE_PLLCLK      PLLCLK selected as MCO clock
 844:Drivers/STM32F3xx_HAL_Driver/Src/stm32f3xx_hal_rcc.c ****   *            @arg @ref RCC_MCO1SOURCE_PLLCLK_DIV2 PLLCLK Divided by 2 selected as MCO clock
 845:Drivers/STM32F3xx_HAL_Driver/Src/stm32f3xx_hal_rcc.c ****   * @param  RCC_MCODiv specifies the MCO DIV.
 846:Drivers/STM32F3xx_HAL_Driver/Src/stm32f3xx_hal_rcc.c ****   *          This parameter can be one of the following values:
 847:Drivers/STM32F3xx_HAL_Driver/Src/stm32f3xx_hal_rcc.c ****   *            @arg @ref RCC_MCODIV_1   no division applied to MCO clock
 848:Drivers/STM32F3xx_HAL_Driver/Src/stm32f3xx_hal_rcc.c ****   *            @arg @ref RCC_MCODIV_2   division by 2 applied to MCO clock
 849:Drivers/STM32F3xx_HAL_Driver/Src/stm32f3xx_hal_rcc.c ****   *            @arg @ref RCC_MCODIV_4   division by 4 applied to MCO clock
 850:Drivers/STM32F3xx_HAL_Driver/Src/stm32f3xx_hal_rcc.c ****   *            @arg @ref RCC_MCODIV_8   division by 8 applied to MCO clock
 851:Drivers/STM32F3xx_HAL_Driver/Src/stm32f3xx_hal_rcc.c ****   *            @arg @ref RCC_MCODIV_16  division by 16 applied to MCO clock
 852:Drivers/STM32F3xx_HAL_Driver/Src/stm32f3xx_hal_rcc.c ****   *            @arg @ref RCC_MCODIV_32  division by 32 applied to MCO clock
 853:Drivers/STM32F3xx_HAL_Driver/Src/stm32f3xx_hal_rcc.c ****   *            @arg @ref RCC_MCODIV_64  division by 64 applied to MCO clock
 854:Drivers/STM32F3xx_HAL_Driver/Src/stm32f3xx_hal_rcc.c ****   *            @arg @ref RCC_MCODIV_128 division by 128 applied to MCO clock
 855:Drivers/STM32F3xx_HAL_Driver/Src/stm32f3xx_hal_rcc.c ****   * @retval None
 856:Drivers/STM32F3xx_HAL_Driver/Src/stm32f3xx_hal_rcc.c ****   */
 857:Drivers/STM32F3xx_HAL_Driver/Src/stm32f3xx_hal_rcc.c **** #else
 858:Drivers/STM32F3xx_HAL_Driver/Src/stm32f3xx_hal_rcc.c **** /**
ARM GAS  /var/folders/80/65lm4rm97rv_n74c85vt01040000gn/T//ccntfwFR.s 			page 66


 859:Drivers/STM32F3xx_HAL_Driver/Src/stm32f3xx_hal_rcc.c ****   * @brief  Selects the clock source to output on MCO pin.
 860:Drivers/STM32F3xx_HAL_Driver/Src/stm32f3xx_hal_rcc.c ****   * @note   MCO pin should be configured in alternate function mode.
 861:Drivers/STM32F3xx_HAL_Driver/Src/stm32f3xx_hal_rcc.c ****   * @param  RCC_MCOx specifies the output direction for the clock source.
 862:Drivers/STM32F3xx_HAL_Driver/Src/stm32f3xx_hal_rcc.c ****   *          This parameter can be one of the following values:
 863:Drivers/STM32F3xx_HAL_Driver/Src/stm32f3xx_hal_rcc.c ****   *            @arg @ref RCC_MCO1 Clock source to output on MCO1 pin(PA8).
 864:Drivers/STM32F3xx_HAL_Driver/Src/stm32f3xx_hal_rcc.c ****   * @param  RCC_MCOSource specifies the clock source to output.
 865:Drivers/STM32F3xx_HAL_Driver/Src/stm32f3xx_hal_rcc.c ****   *          This parameter can be one of the following values:
 866:Drivers/STM32F3xx_HAL_Driver/Src/stm32f3xx_hal_rcc.c ****   *            @arg @ref RCC_MCO1SOURCE_NOCLOCK     No clock selected as MCO clock
 867:Drivers/STM32F3xx_HAL_Driver/Src/stm32f3xx_hal_rcc.c ****   *            @arg @ref RCC_MCO1SOURCE_SYSCLK      System clock selected as MCO clock
 868:Drivers/STM32F3xx_HAL_Driver/Src/stm32f3xx_hal_rcc.c ****   *            @arg @ref RCC_MCO1SOURCE_HSI         HSI selected as MCO clock
 869:Drivers/STM32F3xx_HAL_Driver/Src/stm32f3xx_hal_rcc.c ****   *            @arg @ref RCC_MCO1SOURCE_HSE         HSE selected as MCO clock
 870:Drivers/STM32F3xx_HAL_Driver/Src/stm32f3xx_hal_rcc.c ****   *            @arg @ref RCC_MCO1SOURCE_LSI         LSI selected as MCO clock
 871:Drivers/STM32F3xx_HAL_Driver/Src/stm32f3xx_hal_rcc.c ****   *            @arg @ref RCC_MCO1SOURCE_LSE         LSE selected as MCO clock
 872:Drivers/STM32F3xx_HAL_Driver/Src/stm32f3xx_hal_rcc.c ****   *            @arg @ref RCC_MCO1SOURCE_PLLCLK_DIV2 PLLCLK Divided by 2 selected as MCO clock
 873:Drivers/STM32F3xx_HAL_Driver/Src/stm32f3xx_hal_rcc.c ****   * @param  RCC_MCODiv specifies the MCO DIV.
 874:Drivers/STM32F3xx_HAL_Driver/Src/stm32f3xx_hal_rcc.c ****   *          This parameter can be one of the following values:
 875:Drivers/STM32F3xx_HAL_Driver/Src/stm32f3xx_hal_rcc.c ****   *            @arg @ref RCC_MCODIV_1 no division applied to MCO clock
 876:Drivers/STM32F3xx_HAL_Driver/Src/stm32f3xx_hal_rcc.c ****   * @retval None
 877:Drivers/STM32F3xx_HAL_Driver/Src/stm32f3xx_hal_rcc.c ****   */
 878:Drivers/STM32F3xx_HAL_Driver/Src/stm32f3xx_hal_rcc.c **** #endif
 879:Drivers/STM32F3xx_HAL_Driver/Src/stm32f3xx_hal_rcc.c **** void HAL_RCC_MCOConfig(uint32_t RCC_MCOx, uint32_t RCC_MCOSource, uint32_t RCC_MCODiv)
 880:Drivers/STM32F3xx_HAL_Driver/Src/stm32f3xx_hal_rcc.c **** {
 1999              		.loc 1 880 1 is_stmt 1 view -0
 2000              		.cfi_startproc
 2001              		@ args = 0, pretend = 0, frame = 24
 2002              		@ frame_needed = 0, uses_anonymous_args = 0
 2003              		.loc 1 880 1 is_stmt 0 view .LVU579
 2004 0000 30B5     		push	{r4, r5, lr}
 2005              	.LCFI7:
 2006              		.cfi_def_cfa_offset 12
 2007              		.cfi_offset 4, -12
 2008              		.cfi_offset 5, -8
 2009              		.cfi_offset 14, -4
 2010 0002 87B0     		sub	sp, sp, #28
 2011              	.LCFI8:
 2012              		.cfi_def_cfa_offset 40
 2013 0004 0D46     		mov	r5, r1
 881:Drivers/STM32F3xx_HAL_Driver/Src/stm32f3xx_hal_rcc.c ****   GPIO_InitTypeDef gpio;
 2014              		.loc 1 881 3 is_stmt 1 view .LVU580
 882:Drivers/STM32F3xx_HAL_Driver/Src/stm32f3xx_hal_rcc.c **** 
 883:Drivers/STM32F3xx_HAL_Driver/Src/stm32f3xx_hal_rcc.c ****   /* Check the parameters */
 884:Drivers/STM32F3xx_HAL_Driver/Src/stm32f3xx_hal_rcc.c ****   assert_param(IS_RCC_MCO(RCC_MCOx));
 2015              		.loc 1 884 3 view .LVU581
 885:Drivers/STM32F3xx_HAL_Driver/Src/stm32f3xx_hal_rcc.c ****   assert_param(IS_RCC_MCODIV(RCC_MCODiv));
 2016              		.loc 1 885 3 view .LVU582
 886:Drivers/STM32F3xx_HAL_Driver/Src/stm32f3xx_hal_rcc.c ****   assert_param(IS_RCC_MCO1SOURCE(RCC_MCOSource));
 2017              		.loc 1 886 3 view .LVU583
 887:Drivers/STM32F3xx_HAL_Driver/Src/stm32f3xx_hal_rcc.c ****   
 888:Drivers/STM32F3xx_HAL_Driver/Src/stm32f3xx_hal_rcc.c ****   /* Configure the MCO1 pin in alternate function mode */
 889:Drivers/STM32F3xx_HAL_Driver/Src/stm32f3xx_hal_rcc.c ****   gpio.Mode      = GPIO_MODE_AF_PP;
 2018              		.loc 1 889 3 view .LVU584
 2019              		.loc 1 889 18 is_stmt 0 view .LVU585
 2020 0006 0223     		movs	r3, #2
 2021 0008 0293     		str	r3, [sp, #8]
 890:Drivers/STM32F3xx_HAL_Driver/Src/stm32f3xx_hal_rcc.c ****   gpio.Speed     = GPIO_SPEED_FREQ_HIGH;
 2022              		.loc 1 890 3 is_stmt 1 view .LVU586
 2023              		.loc 1 890 18 is_stmt 0 view .LVU587
ARM GAS  /var/folders/80/65lm4rm97rv_n74c85vt01040000gn/T//ccntfwFR.s 			page 67


 2024 000a 0323     		movs	r3, #3
 2025 000c 0493     		str	r3, [sp, #16]
 891:Drivers/STM32F3xx_HAL_Driver/Src/stm32f3xx_hal_rcc.c ****   gpio.Pull      = GPIO_NOPULL;
 2026              		.loc 1 891 3 is_stmt 1 view .LVU588
 2027              		.loc 1 891 18 is_stmt 0 view .LVU589
 2028 000e 0023     		movs	r3, #0
 2029 0010 0393     		str	r3, [sp, #12]
 892:Drivers/STM32F3xx_HAL_Driver/Src/stm32f3xx_hal_rcc.c ****   gpio.Pin       = MCO1_PIN;
 2030              		.loc 1 892 3 is_stmt 1 view .LVU590
 2031              		.loc 1 892 18 is_stmt 0 view .LVU591
 2032 0012 4FF48072 		mov	r2, #256
 2033              	.LVL152:
 2034              		.loc 1 892 18 view .LVU592
 2035 0016 0192     		str	r2, [sp, #4]
 893:Drivers/STM32F3xx_HAL_Driver/Src/stm32f3xx_hal_rcc.c ****   gpio.Alternate = GPIO_AF0_MCO;
 2036              		.loc 1 893 3 is_stmt 1 view .LVU593
 2037              		.loc 1 893 18 is_stmt 0 view .LVU594
 2038 0018 0593     		str	r3, [sp, #20]
 894:Drivers/STM32F3xx_HAL_Driver/Src/stm32f3xx_hal_rcc.c **** 
 895:Drivers/STM32F3xx_HAL_Driver/Src/stm32f3xx_hal_rcc.c ****   /* MCO1 Clock Enable */
 896:Drivers/STM32F3xx_HAL_Driver/Src/stm32f3xx_hal_rcc.c ****   MCO1_CLK_ENABLE();
 2039              		.loc 1 896 3 is_stmt 1 view .LVU595
 2040              	.LBB260:
 2041              		.loc 1 896 3 view .LVU596
 2042              		.loc 1 896 3 view .LVU597
 2043 001a 0B4C     		ldr	r4, .L137
 2044 001c 6369     		ldr	r3, [r4, #20]
 2045 001e 43F40033 		orr	r3, r3, #131072
 2046 0022 6361     		str	r3, [r4, #20]
 2047              		.loc 1 896 3 view .LVU598
 2048 0024 6369     		ldr	r3, [r4, #20]
 2049 0026 03F40033 		and	r3, r3, #131072
 2050 002a 0093     		str	r3, [sp]
 2051              		.loc 1 896 3 view .LVU599
 2052 002c 009B     		ldr	r3, [sp]
 2053              	.LBE260:
 2054              		.loc 1 896 3 view .LVU600
 897:Drivers/STM32F3xx_HAL_Driver/Src/stm32f3xx_hal_rcc.c ****   
 898:Drivers/STM32F3xx_HAL_Driver/Src/stm32f3xx_hal_rcc.c ****   HAL_GPIO_Init(MCO1_GPIO_PORT, &gpio);
 2055              		.loc 1 898 3 view .LVU601
 2056 002e 01A9     		add	r1, sp, #4
 2057              	.LVL153:
 2058              		.loc 1 898 3 is_stmt 0 view .LVU602
 2059 0030 4FF09040 		mov	r0, #1207959552
 2060              	.LVL154:
 2061              		.loc 1 898 3 view .LVU603
 2062 0034 FFF7FEFF 		bl	HAL_GPIO_Init
 2063              	.LVL155:
 899:Drivers/STM32F3xx_HAL_Driver/Src/stm32f3xx_hal_rcc.c ****   
 900:Drivers/STM32F3xx_HAL_Driver/Src/stm32f3xx_hal_rcc.c ****   /* Configure the MCO clock source */
 901:Drivers/STM32F3xx_HAL_Driver/Src/stm32f3xx_hal_rcc.c ****   __HAL_RCC_MCO1_CONFIG(RCC_MCOSource, RCC_MCODiv);
 2064              		.loc 1 901 3 is_stmt 1 view .LVU604
 2065 0038 6368     		ldr	r3, [r4, #4]
 2066 003a 23F0E063 		bic	r3, r3, #117440512
 2067 003e 2B43     		orrs	r3, r3, r5
 2068 0040 6360     		str	r3, [r4, #4]
 902:Drivers/STM32F3xx_HAL_Driver/Src/stm32f3xx_hal_rcc.c **** }
ARM GAS  /var/folders/80/65lm4rm97rv_n74c85vt01040000gn/T//ccntfwFR.s 			page 68


 2069              		.loc 1 902 1 is_stmt 0 view .LVU605
 2070 0042 07B0     		add	sp, sp, #28
 2071              	.LCFI9:
 2072              		.cfi_def_cfa_offset 12
 2073              		@ sp needed
 2074 0044 30BD     		pop	{r4, r5, pc}
 2075              	.LVL156:
 2076              	.L138:
 2077              		.loc 1 902 1 view .LVU606
 2078 0046 00BF     		.align	2
 2079              	.L137:
 2080 0048 00100240 		.word	1073876992
 2081              		.cfi_endproc
 2082              	.LFE129:
 2084              		.section	.text.HAL_RCC_EnableCSS,"ax",%progbits
 2085              		.align	1
 2086              		.global	HAL_RCC_EnableCSS
 2087              		.syntax unified
 2088              		.thumb
 2089              		.thumb_func
 2090              		.fpu fpv4-sp-d16
 2092              	HAL_RCC_EnableCSS:
 2093              	.LFB130:
 903:Drivers/STM32F3xx_HAL_Driver/Src/stm32f3xx_hal_rcc.c **** 
 904:Drivers/STM32F3xx_HAL_Driver/Src/stm32f3xx_hal_rcc.c **** /**
 905:Drivers/STM32F3xx_HAL_Driver/Src/stm32f3xx_hal_rcc.c ****   * @brief  Enables the Clock Security System.
 906:Drivers/STM32F3xx_HAL_Driver/Src/stm32f3xx_hal_rcc.c ****   * @note   If a failure is detected on the HSE oscillator clock, this oscillator
 907:Drivers/STM32F3xx_HAL_Driver/Src/stm32f3xx_hal_rcc.c ****   *         is automatically disabled and an interrupt is generated to inform the
 908:Drivers/STM32F3xx_HAL_Driver/Src/stm32f3xx_hal_rcc.c ****   *         software about the failure (Clock Security System Interrupt, CSSI),
 909:Drivers/STM32F3xx_HAL_Driver/Src/stm32f3xx_hal_rcc.c ****   *         allowing the MCU to perform rescue operations. The CSSI is linked to 
 910:Drivers/STM32F3xx_HAL_Driver/Src/stm32f3xx_hal_rcc.c ****   *         the Cortex-M4 NMI (Non-Maskable Interrupt) exception vector.  
 911:Drivers/STM32F3xx_HAL_Driver/Src/stm32f3xx_hal_rcc.c ****   * @retval None
 912:Drivers/STM32F3xx_HAL_Driver/Src/stm32f3xx_hal_rcc.c ****   */
 913:Drivers/STM32F3xx_HAL_Driver/Src/stm32f3xx_hal_rcc.c **** void HAL_RCC_EnableCSS(void)
 914:Drivers/STM32F3xx_HAL_Driver/Src/stm32f3xx_hal_rcc.c **** {
 2094              		.loc 1 914 1 is_stmt 1 view -0
 2095              		.cfi_startproc
 2096              		@ args = 0, pretend = 0, frame = 0
 2097              		@ frame_needed = 0, uses_anonymous_args = 0
 2098              		@ link register save eliminated.
 915:Drivers/STM32F3xx_HAL_Driver/Src/stm32f3xx_hal_rcc.c ****   *(__IO uint32_t *) RCC_CR_CSSON_BB = (uint32_t)ENABLE;
 2099              		.loc 1 915 3 view .LVU608
 2100              	.LVL157:
 2101              	.LBB261:
 2102              	.LBI261:
 526:Drivers/CMSIS/Include/cmsis_gcc.h **** {
 2103              		.loc 2 526 57 view .LVU609
 2104              	.LBB262:
 528:Drivers/CMSIS/Include/cmsis_gcc.h **** 
 2105              		.loc 2 528 3 view .LVU610
 531:Drivers/CMSIS/Include/cmsis_gcc.h **** #else
 2106              		.loc 2 531 4 view .LVU611
 2107 0000 4FF40023 		mov	r3, #524288
 2108              		.syntax unified
 2109              	@ 531 "Drivers/CMSIS/Include/cmsis_gcc.h" 1
 2110 0004 93FAA3F3 		rbit r3, r3
 2111              	@ 0 "" 2
ARM GAS  /var/folders/80/65lm4rm97rv_n74c85vt01040000gn/T//ccntfwFR.s 			page 69


 2112              	.LVL158:
 2113              		.loc 2 544 3 view .LVU612
 2114              		.loc 2 544 3 is_stmt 0 view .LVU613
 2115              		.thumb
 2116              		.syntax unified
 2117              	.LBE262:
 2118              	.LBE261:
 2119              		.loc 1 915 22 view .LVU614
 2120 0008 B3FA83F3 		clz	r3, r3
 2121 000c 03F18453 		add	r3, r3, #276824064
 2122 0010 03F58413 		add	r3, r3, #1081344
 2123 0014 9B00     		lsls	r3, r3, #2
 2124              		.loc 1 915 38 view .LVU615
 2125 0016 0122     		movs	r2, #1
 2126 0018 1A60     		str	r2, [r3]
 916:Drivers/STM32F3xx_HAL_Driver/Src/stm32f3xx_hal_rcc.c **** }
 2127              		.loc 1 916 1 view .LVU616
 2128 001a 7047     		bx	lr
 2129              		.cfi_endproc
 2130              	.LFE130:
 2132              		.section	.text.HAL_RCC_DisableCSS,"ax",%progbits
 2133              		.align	1
 2134              		.global	HAL_RCC_DisableCSS
 2135              		.syntax unified
 2136              		.thumb
 2137              		.thumb_func
 2138              		.fpu fpv4-sp-d16
 2140              	HAL_RCC_DisableCSS:
 2141              	.LFB131:
 917:Drivers/STM32F3xx_HAL_Driver/Src/stm32f3xx_hal_rcc.c **** 
 918:Drivers/STM32F3xx_HAL_Driver/Src/stm32f3xx_hal_rcc.c **** /**
 919:Drivers/STM32F3xx_HAL_Driver/Src/stm32f3xx_hal_rcc.c ****   * @brief  Disables the Clock Security System.
 920:Drivers/STM32F3xx_HAL_Driver/Src/stm32f3xx_hal_rcc.c ****   * @retval None
 921:Drivers/STM32F3xx_HAL_Driver/Src/stm32f3xx_hal_rcc.c ****   */
 922:Drivers/STM32F3xx_HAL_Driver/Src/stm32f3xx_hal_rcc.c **** void HAL_RCC_DisableCSS(void)
 923:Drivers/STM32F3xx_HAL_Driver/Src/stm32f3xx_hal_rcc.c **** {
 2142              		.loc 1 923 1 is_stmt 1 view -0
 2143              		.cfi_startproc
 2144              		@ args = 0, pretend = 0, frame = 0
 2145              		@ frame_needed = 0, uses_anonymous_args = 0
 2146              		@ link register save eliminated.
 924:Drivers/STM32F3xx_HAL_Driver/Src/stm32f3xx_hal_rcc.c ****   *(__IO uint32_t *) RCC_CR_CSSON_BB = (uint32_t)DISABLE;
 2147              		.loc 1 924 3 view .LVU618
 2148              	.LVL159:
 2149              	.LBB263:
 2150              	.LBI263:
 526:Drivers/CMSIS/Include/cmsis_gcc.h **** {
 2151              		.loc 2 526 57 view .LVU619
 2152              	.LBB264:
 528:Drivers/CMSIS/Include/cmsis_gcc.h **** 
 2153              		.loc 2 528 3 view .LVU620
 531:Drivers/CMSIS/Include/cmsis_gcc.h **** #else
 2154              		.loc 2 531 4 view .LVU621
 2155 0000 4FF40023 		mov	r3, #524288
 2156              		.syntax unified
 2157              	@ 531 "Drivers/CMSIS/Include/cmsis_gcc.h" 1
 2158 0004 93FAA3F3 		rbit r3, r3
ARM GAS  /var/folders/80/65lm4rm97rv_n74c85vt01040000gn/T//ccntfwFR.s 			page 70


 2159              	@ 0 "" 2
 2160              	.LVL160:
 2161              		.loc 2 544 3 view .LVU622
 2162              		.loc 2 544 3 is_stmt 0 view .LVU623
 2163              		.thumb
 2164              		.syntax unified
 2165              	.LBE264:
 2166              	.LBE263:
 2167              		.loc 1 924 22 view .LVU624
 2168 0008 B3FA83F3 		clz	r3, r3
 2169 000c 03F18453 		add	r3, r3, #276824064
 2170 0010 03F58413 		add	r3, r3, #1081344
 2171 0014 9B00     		lsls	r3, r3, #2
 2172              		.loc 1 924 38 view .LVU625
 2173 0016 0022     		movs	r2, #0
 2174 0018 1A60     		str	r2, [r3]
 925:Drivers/STM32F3xx_HAL_Driver/Src/stm32f3xx_hal_rcc.c **** }
 2175              		.loc 1 925 1 view .LVU626
 2176 001a 7047     		bx	lr
 2177              		.cfi_endproc
 2178              	.LFE131:
 2180              		.section	.text.HAL_RCC_GetSysClockFreq,"ax",%progbits
 2181              		.align	1
 2182              		.global	HAL_RCC_GetSysClockFreq
 2183              		.syntax unified
 2184              		.thumb
 2185              		.thumb_func
 2186              		.fpu fpv4-sp-d16
 2188              	HAL_RCC_GetSysClockFreq:
 2189              	.LFB132:
 926:Drivers/STM32F3xx_HAL_Driver/Src/stm32f3xx_hal_rcc.c **** 
 927:Drivers/STM32F3xx_HAL_Driver/Src/stm32f3xx_hal_rcc.c **** /**
 928:Drivers/STM32F3xx_HAL_Driver/Src/stm32f3xx_hal_rcc.c ****   * @brief  Returns the SYSCLK frequency     
 929:Drivers/STM32F3xx_HAL_Driver/Src/stm32f3xx_hal_rcc.c ****   * @note   The system frequency computed by this function is not the real 
 930:Drivers/STM32F3xx_HAL_Driver/Src/stm32f3xx_hal_rcc.c ****   *         frequency in the chip. It is calculated based on the predefined 
 931:Drivers/STM32F3xx_HAL_Driver/Src/stm32f3xx_hal_rcc.c ****   *         constant and the selected clock source:
 932:Drivers/STM32F3xx_HAL_Driver/Src/stm32f3xx_hal_rcc.c ****   * @note     If SYSCLK source is HSI, function returns values based on HSI_VALUE(*)
 933:Drivers/STM32F3xx_HAL_Driver/Src/stm32f3xx_hal_rcc.c ****   * @note     If SYSCLK source is HSE, function returns a value based on HSE_VALUE
 934:Drivers/STM32F3xx_HAL_Driver/Src/stm32f3xx_hal_rcc.c ****   *           divided by PREDIV factor(**)
 935:Drivers/STM32F3xx_HAL_Driver/Src/stm32f3xx_hal_rcc.c ****   * @note     If SYSCLK source is PLL, function returns a value based on HSE_VALUE
 936:Drivers/STM32F3xx_HAL_Driver/Src/stm32f3xx_hal_rcc.c ****   *           divided by PREDIV factor(**) or HSI_VALUE(*) multiplied by the PLL factor.
 937:Drivers/STM32F3xx_HAL_Driver/Src/stm32f3xx_hal_rcc.c ****   * @note     (*) HSI_VALUE is a constant defined in stm32f3xx_hal_conf.h file (default value
 938:Drivers/STM32F3xx_HAL_Driver/Src/stm32f3xx_hal_rcc.c ****   *               8 MHz) but the real value may vary depending on the variations
 939:Drivers/STM32F3xx_HAL_Driver/Src/stm32f3xx_hal_rcc.c ****   *               in voltage and temperature.
 940:Drivers/STM32F3xx_HAL_Driver/Src/stm32f3xx_hal_rcc.c ****   * @note     (**) HSE_VALUE is a constant defined in stm32f3xx_hal_conf.h file (default value
 941:Drivers/STM32F3xx_HAL_Driver/Src/stm32f3xx_hal_rcc.c ****   *                8 MHz), user has to ensure that HSE_VALUE is same as the real
 942:Drivers/STM32F3xx_HAL_Driver/Src/stm32f3xx_hal_rcc.c ****   *                frequency of the crystal used. Otherwise, this function may
 943:Drivers/STM32F3xx_HAL_Driver/Src/stm32f3xx_hal_rcc.c ****   *                have wrong result.
 944:Drivers/STM32F3xx_HAL_Driver/Src/stm32f3xx_hal_rcc.c ****   *                  
 945:Drivers/STM32F3xx_HAL_Driver/Src/stm32f3xx_hal_rcc.c ****   * @note   The result of this function could be not correct when using fractional
 946:Drivers/STM32F3xx_HAL_Driver/Src/stm32f3xx_hal_rcc.c ****   *         value for HSE crystal.
 947:Drivers/STM32F3xx_HAL_Driver/Src/stm32f3xx_hal_rcc.c ****   *           
 948:Drivers/STM32F3xx_HAL_Driver/Src/stm32f3xx_hal_rcc.c ****   * @note   This function can be used by the user application to compute the 
 949:Drivers/STM32F3xx_HAL_Driver/Src/stm32f3xx_hal_rcc.c ****   *         baud-rate for the communication peripherals or configure other parameters.
 950:Drivers/STM32F3xx_HAL_Driver/Src/stm32f3xx_hal_rcc.c ****   *           
 951:Drivers/STM32F3xx_HAL_Driver/Src/stm32f3xx_hal_rcc.c ****   * @note   Each time SYSCLK changes, this function must be called to update the
 952:Drivers/STM32F3xx_HAL_Driver/Src/stm32f3xx_hal_rcc.c ****   *         right SYSCLK value. Otherwise, any configuration based on this function will be incorre
ARM GAS  /var/folders/80/65lm4rm97rv_n74c85vt01040000gn/T//ccntfwFR.s 			page 71


 953:Drivers/STM32F3xx_HAL_Driver/Src/stm32f3xx_hal_rcc.c ****   *         
 954:Drivers/STM32F3xx_HAL_Driver/Src/stm32f3xx_hal_rcc.c ****   * @retval SYSCLK frequency
 955:Drivers/STM32F3xx_HAL_Driver/Src/stm32f3xx_hal_rcc.c ****   */
 956:Drivers/STM32F3xx_HAL_Driver/Src/stm32f3xx_hal_rcc.c **** uint32_t HAL_RCC_GetSysClockFreq(void)
 957:Drivers/STM32F3xx_HAL_Driver/Src/stm32f3xx_hal_rcc.c **** {
 2190              		.loc 1 957 1 is_stmt 1 view -0
 2191              		.cfi_startproc
 2192              		@ args = 0, pretend = 0, frame = 0
 2193              		@ frame_needed = 0, uses_anonymous_args = 0
 2194              		@ link register save eliminated.
 958:Drivers/STM32F3xx_HAL_Driver/Src/stm32f3xx_hal_rcc.c ****   uint32_t tmpreg = 0U, prediv = 0U, pllclk = 0U, pllmul = 0U;
 2195              		.loc 1 958 3 view .LVU628
 2196              	.LVL161:
 959:Drivers/STM32F3xx_HAL_Driver/Src/stm32f3xx_hal_rcc.c ****   uint32_t sysclockfreq = 0U;
 2197              		.loc 1 959 3 view .LVU629
 960:Drivers/STM32F3xx_HAL_Driver/Src/stm32f3xx_hal_rcc.c ****   
 961:Drivers/STM32F3xx_HAL_Driver/Src/stm32f3xx_hal_rcc.c ****   tmpreg = RCC->CFGR;
 2198              		.loc 1 961 3 view .LVU630
 2199              		.loc 1 961 10 is_stmt 0 view .LVU631
 2200 0000 164B     		ldr	r3, .L146
 2201 0002 5B68     		ldr	r3, [r3, #4]
 2202              	.LVL162:
 962:Drivers/STM32F3xx_HAL_Driver/Src/stm32f3xx_hal_rcc.c ****   
 963:Drivers/STM32F3xx_HAL_Driver/Src/stm32f3xx_hal_rcc.c ****   /* Get SYSCLK source -------------------------------------------------------*/
 964:Drivers/STM32F3xx_HAL_Driver/Src/stm32f3xx_hal_rcc.c ****   switch (tmpreg & RCC_CFGR_SWS)
 2203              		.loc 1 964 3 is_stmt 1 view .LVU632
 2204              		.loc 1 964 18 is_stmt 0 view .LVU633
 2205 0004 03F00C02 		and	r2, r3, #12
 2206              		.loc 1 964 3 view .LVU634
 2207 0008 082A     		cmp	r2, #8
 2208 000a 01D0     		beq	.L145
 965:Drivers/STM32F3xx_HAL_Driver/Src/stm32f3xx_hal_rcc.c ****   {
 966:Drivers/STM32F3xx_HAL_Driver/Src/stm32f3xx_hal_rcc.c ****     case RCC_SYSCLKSOURCE_STATUS_HSE:  /* HSE used as system clock */
 967:Drivers/STM32F3xx_HAL_Driver/Src/stm32f3xx_hal_rcc.c ****     {
 968:Drivers/STM32F3xx_HAL_Driver/Src/stm32f3xx_hal_rcc.c ****       sysclockfreq = HSE_VALUE;
 2209              		.loc 1 968 20 view .LVU635
 2210 000c 1448     		ldr	r0, .L146+4
 2211              	.LVL163:
 969:Drivers/STM32F3xx_HAL_Driver/Src/stm32f3xx_hal_rcc.c ****       break;
 970:Drivers/STM32F3xx_HAL_Driver/Src/stm32f3xx_hal_rcc.c ****     }
 971:Drivers/STM32F3xx_HAL_Driver/Src/stm32f3xx_hal_rcc.c ****     case RCC_SYSCLKSOURCE_STATUS_PLLCLK:  /* PLL used as system clock */
 972:Drivers/STM32F3xx_HAL_Driver/Src/stm32f3xx_hal_rcc.c ****     {
 973:Drivers/STM32F3xx_HAL_Driver/Src/stm32f3xx_hal_rcc.c ****       pllmul = aPLLMULFactorTable[(uint32_t)(tmpreg & RCC_CFGR_PLLMUL) >> POSITION_VAL(RCC_CFGR_PLL
